(dp1
S'Niveau'
p2
(dp3
S'type'
p4
S'integer'
p5
sS'sortable'
p6
I3
sS'sql'
p7
S'INTEGER'
p8
ssS'Skill'
p9
(dp10
g4
S'reference SkillLevel'
p11
sg6
I2
sg7
S'INTEGER REFERENCES SkillLevel(id) ON DELETE CASCADE'
p12
ssS'id'
p13
(dp14
g4
g13
sg6
I1
sg7
S'INTEGER PRIMARY KEY AUTOINCREMENT'
p15
ssS'Private'
p16
(dp17
g4
S'boolean'
p18
sg6
I4
sg7
S'CHAR(1)'
p19
ss.