(dp1
S'sons'
p2
(dp3
S'type'
p4
S'reference auth_user'
p5
sS'sortable'
p6
I3
sS'sql'
p7
S'INTEGER REFERENCES auth_user(id) ON DELETE CASCADE'
p8
ssS'father'
p9
(dp10
g4
S'reference auth_user'
p11
sg6
I2
sg7
S'INTEGER REFERENCES auth_user(id) ON DELETE CASCADE'
p12
ssS'id'
p13
(dp14
g4
g13
sg6
I1
sg7
S'INTEGER PRIMARY KEY AUTOINCREMENT'
p15
ss.