(dp1
S'nom'
p2
(dp3
S'type'
p4
S'string'
p5
sS'sortable'
p6
I2
sS'sql'
p7
S'CHAR(512) UNIQUE'
p8
ssS'skill'
p9
(dp10
g4
S'reference Skill'
p11
sg6
I3
sg7
S'INTEGER REFERENCES Skill(id) ON DELETE CASCADE'
p12
ssS'skilluse'
p13
(dp14
S'type'
p15
S'reference SkillLevel'
p16
sS'sortable'
p17
I3
sS'sql'
p18
S'INTEGER REFERENCES SkillLevel(id) ON DELETE CASCADE'
p19
ssS'id'
p20
(dp21
g4
S'id'
p22
sg6
I1
sg7
S'INTEGER PRIMARY KEY AUTOINCREMENT'
p23
ss.