(dp1
S'Skill'
p2
(dp3
S'type'
p4
S'reference Skill'
p5
sS'sortable'
p6
I3
sS'sql'
p7
S'INTEGER REFERENCES Skill(id) ON DELETE CASCADE'
p8
ssS'id'
p9
(dp10
g4
g9
sg6
I1
sg7
S'INTEGER PRIMARY KEY AUTOINCREMENT'
p11
ssS'Parent'
p12
(dp13
g4
S'reference Skill'
p14
sg6
I4
sg7
S'INTEGER REFERENCES Skill(id) ON DELETE CASCADE'
p15
ssS'Level'
p16
(dp17
g4
S'integer'
p18
sg6
I2
sg7
S'INTEGER'
p19
ss.