(dp1
S'output'
p2
S"<type 'exceptions.SyntaxError'> invalid syntax (controllers/default.py, line 281)"
p3
sS'layer'
p4
S'C:\\Users\\Bussiere\\Dropbox\\Projets\\jackpoint\\web2py\\applications\\init\\controllers/default.py'
p5
sS'code'
p6
S'# -*- coding: utf-8 -*-\n# this file is released under public domain and you can use without limitations\n\n#########################################################################\n## This is a samples controller\n## - index is the default action of any application\n## - user is required for authentication and authorization\n## - download is for downloading files uploaded in the db (does streaming)\n## - call exposes all registered services (none by default)\n#########################################################################\n# Static analyzer import helpers: (STATIC_IMPORT_MARK)\nif 0: \n    import gluon\n    global cache; cache = gluon.cache.Cache()\n    global LOAD; LOAD  = gluon.compileapp.LoadFactory()\n    import gluon.compileapp.local_import_aux as local_import #@UnusedImport\n    from gluon.contrib.gql import GQLDB #@UnusedImport\n    from gluon.dal import Field #@UnusedImport\n    global request; request = gluon.globals.Request()\n    global response; response = gluon.globals.Response()\n    global session; session = gluon.globals.Session()\n    from gluon.html import A #@UnusedImport\n    from gluon.html import B #@UnusedImport\n    from gluon.html import BEAUTIFY #@UnusedImport\n    from gluon.html import BODY #@UnusedImport\n    from gluon.html import BR #@UnusedImport\n    from gluon.html import CENTER #@UnusedImport\n    from gluon.html import CODE #@UnusedImport\n    from gluon.html import DIV #@UnusedImport\n    from gluon.html import EM #@UnusedImport\n    from gluon.html import EMBED #@UnusedImport\n    from gluon.html import embed64 #@UnusedImport\n    from gluon.html import FIELDSET #@UnusedImport\n    from gluon.html import FORM #@UnusedImport\n    from gluon.html import H1 #@UnusedImport\n    from gluon.html import H2 #@UnusedImport\n    from gluon.html import H3 #@UnusedImport\n    from gluon.html import H4 #@UnusedImport\n    from gluon.html import H5 #@UnusedImport\n    from gluon.html import H6 #@UnusedImport\n    from gluon.html import HEAD #@UnusedImport\n    from gluon.html import HR #@UnusedImport\n    from gluon.html import HTML #@UnusedImport\n    from gluon.html import I #@UnusedImport\n    from gluon.html import IFRAME #@UnusedImport\n    from gluon.html import IMG #@UnusedImport\n    from gluon.html import INPUT #@UnusedImport\n    from gluon.html import LABEL #@UnusedImport\n    from gluon.html import LEGEND #@UnusedImport\n    from gluon.html import LI #@UnusedImport\n    from gluon.html import LINK #@UnusedImport\n    from gluon.html import MARKMIN #@UnusedImport\n    from gluon.html import MENU #@UnusedImport\n    from gluon.html import META #@UnusedImport\n    from gluon.html import OBJECT #@UnusedImport\n    from gluon.html import OL #@UnusedImport\n    from gluon.html import ON #@UnusedImport\n    from gluon.html import OPTGROUP #@UnusedImport\n    from gluon.html import OPTION #@UnusedImport\n    from gluon.html import P #@UnusedImport\n    from gluon.html import PRE #@UnusedImport\n    from gluon.html import STYLE #@UnusedImport\n    from gluon.html import SCRIPT #@UnusedImport\n    from gluon.html import SELECT #@UnusedImport\n    from gluon.html import SPAN #@UnusedImport\n    from gluon.html import TABLE #@UnusedImport\n    from gluon.html import TAG #@UnusedImport\n    from gluon.html import TBODY #@UnusedImport\n    from gluon.html import TD #@UnusedImport\n    from gluon.html import TEXTAREA #@UnusedImport\n    from gluon.html import TFOOT #@UnusedImport\n    from gluon.html import TH  #@UnusedImport\n    from gluon.html import THEAD #@UnusedImport\n    from gluon.html import TITLE #@UnusedImport\n    from gluon.html import TR #@UnusedImport\n    from gluon.html import TT #@UnusedImport\n    from gluon.html import UL #@UnusedImport\n    from gluon.html import URL #@UnusedImport\n    from gluon.html import XHTML #@UnusedImport\n    from gluon.html import XML #@UnusedImport\n    from gluon.html import xmlescape #@UnusedImport\n    from gluon.http import HTTP #@UnusedImport\n    from gluon.http import redirect #@UnusedImport\n    import gluon.languages.translator as T #@UnusedImport\n    from gluon.sql import DAL\n    global db; db = DAL()\n    from gluon.sql import SQLDB #@UnusedImport\n    from gluon.sql import SQLField #@UnusedImport\n    from gluon.sqlhtml import SQLFORM #@UnusedImport\n    from gluon.sqlhtml import SQLTABLE #@UnusedImport\n    from gluon.tools import  Auth\n    global auth; auth = Auth()\n    from gluon.tools import Crud\n    global crud; crud = Crud()\n    from gluon.tools import fetch #@UnusedImport\n    from gluon.tools import geocode #@UnusedImport\n    from gluon.tools import Mail\n    global mail; mail = Mail()\n    from gluon.tools import PluginManager\n    global plugins; plugins = PluginManager()\n    from gluon.tools import prettydate #@UnusedImport\n    from gluon.tools import Recaptcha #@UnusedImport\n    from gluon.tools import Service\n    global service; service = Service()\n    from gluon.validators import CLEANUP  #@UnusedImport\n    from gluon.validators import CRYPT #@UnusedImport\n    from gluon.validators import IS_ALPHANUMERIC #@UnusedImport\n    from gluon.validators import IS_DATE #@UnusedImport\n    from gluon.validators import IS_DATE_IN_RANGE #@UnusedImport\n    from gluon.validators import IS_DATETIME #@UnusedImport\n    from gluon.validators import IS_DATETIME_IN_RANGE #@UnusedImport\n    from gluon.validators import IS_DECIMAL_IN_RANGE #@UnusedImport\n    from gluon.validators import IS_EMAIL #@UnusedImport\n    from gluon.validators import IS_EMPTY_OR #@UnusedImport\n    from gluon.validators import IS_EQUAL_TO #@UnusedImport\n    from gluon.validators import IS_EXPR #@UnusedImport\n    from gluon.validators import IS_FLOAT_IN_RANGE #@UnusedImport\n    from gluon.validators import IS_IMAGE #@UnusedImport\n    from gluon.validators import IS_IN_DB #@UnusedImport\n    from gluon.validators import IS_IN_SET #@UnusedImport\n    from gluon.validators import IS_INT_IN_RANGE #@UnusedImport\n    from gluon.validators import IS_IPV4 #@UnusedImport\n    from gluon.validators import IS_LENGTH #@UnusedImport\n    from gluon.validators import IS_LIST_OF #@UnusedImport\n    from gluon.validators import IS_LOWER #@UnusedImport\n    from gluon.validators import IS_MATCH #@UnusedImport\n    from gluon.validators import IS_NOT_EMPTY #@UnusedImport\n    from gluon.validators import IS_NOT_IN_DB #@UnusedImport\n    from gluon.validators import IS_NULL_OR #@UnusedImport\n    from gluon.validators import IS_SLUG #@UnusedImport\n    from gluon.validators import IS_STRONG  #@UnusedImport\n    from gluon.validators import IS_TIME #@UnusedImport\n    from gluon.validators import IS_UPLOAD_FILENAME #@UnusedImport\n    from gluon.validators import IS_UPPER #@UnusedImpor\n\n\nimport random\nfrom uuid import uuid4\nfrom gluon.storage import Storage\nsettings = Storage()\n\n\n\ndef index():\n    if auth.is_logged_in() :\n        return "You get the blue pills"\n    else :\n        return dict(form=auth.login(),faq=URL(\'faq\'))\n\n\n\ndef ensurefirstuser(Surnom, email, password):\n  users = db(db.auth_user.email == email).select()\n  if users:\n    user_id = users[0].id\n    created = False\n    if settings.debug_ensure_first_user == True:\n      print (\'found user_id so created equals %s\') % created\n    return (user_id, created)\n\n  else:\n    my_crypt = CRYPT(key=auth.settings.hmac_key)\n    crypt_pass = my_crypt(password)[0]    \n    id_user = db.auth_user.insert(\n                   Surnom=Surnom,\n                   email=email,\n                   Items = None,\n                   Skills = None,\n                   password=crypt_pass,\n                                   )\n    db.commit()\n    created = True\n    if settings.debug_ensure_first_user == True:\n      print (\'creating user_id\')\n    return (id_user, created)\n\n    \n\n\ndef ensure_users():\n  user_id, created = _ensure_user(\'first\', \'last\', \'email@address.com\', \'UserPassword12345\')\n  if settings.debug_ensure_users == True:\n    print (\'user id %i\') % user_id\n    print (\'created %s\') % created\n\ndef ensure_group_role(role, description):\n  if not auth.id_group(role=role):  \n    auth.add_group(role=role, description=description)  \n    if settings.debug_ensure_group_role == True:\n      print (\'created role %s\') % (role)\n\ndef ensure_membership(group_id, user_id):\n  return_group_id = auth.add_membership(role=role, user_id=user_id)\n  if settings.debug_ensure_membership == True:\n    print (\'made user_id member of %s\') % (role)\n  return return_group_id\n \ndef ensure_permissions(role, description, user_id):\n  ensure_group_role(role, description)\n  return_group_id = ensure_membership(group_id, user_id)\n  if settings.debug_ensure_permissions == True:\n    print return_group_id\n\ndef generate_invitation(number,word=4,num=1,numdigit=5):\n    code = [\n[\'BELCHER\', \'FIX\', \'EEL\', \'PANZERBOY\', \'DESK_JOCKEY\', \'CHILLED\', \'ENFORCER\', \'CHERRY_PICKING\', \'COUNTRY_CLUB\', \'BOMBSHELL\', \'PLUGGED_IN\', \'FINI\', \'LEGIT\', \'JAM\', \'BONED_OUT\', \'BLADE\', \'ROUST\', \'SAMURAI\', \'DISK\', \'INPUT\', \'POST_TIME\', \'SOUNDS\', \'SKIP\', \'FLATBACKER\', \'WILSON\', \'SHOEMAKER\', \'DELTA_SIERRA\', \'HEART\', \'CROAK\', \'HEAD_HUNTER\', \'HOSHO_KAISHA\', "DELTA\'D", "\'FACE_(also,_FACE,_EYE-FACE,_I-FACE)", \'WEEFLE\', \'DIRTGIRL\', \'KEYBOARD\', \'BRAIN_BUCKET\', \'DRYING_OUT\', \'OVERCOOK\', \'PIG\', \'COLD_TEA\', \'RECONFIG\', \'PAD\', \'LIT_UP\', \'WRAITH\', \'HANDLE\', \'L.P.\', \'PINCH\', \'TAKE_A_CAB\', \'SPILL\', \'ACE_KOOL\', \'DO\', \'BIZ\', \'BROWNIE\', \'CANDLE_AND_BLOOD\', \'BLUEBOY\', \'UP_ON_IT\', \'BURN\', \'USER_INTERFACE\', \'HOB\', \'GYRO\', \'STUFFIT\', \'THATCH\', \'ICEBREAKER\', \'ZIP_GUN\', \'PETERMAN\', \'PLAY_DOUGH\', \'TREY-EIGHT\', \'SETTLE\', "CHIPPIN\'_IN", \'MEATBALL\', \'RAFFLES\', \'YUBITSUME\', \'CROAKER\', \'SUCKER_POCKETS\', \'L.A.M.A.\', \'GEEK\', \'BUTTONHEAD\'],\n[\'TAKE\', \'TEKIYA\', \'KURUMAKU\', \'BLOC\', \'GAT\', \'JOHATSU\', \'CRYSTAL\', \'A.I.\', \'ZEROED\', \'OVER_THE_SHOULDER\', \'GRAB_GEE\', \'PANZER\', \'GO_LEO\', \'WASHED\', \'I.C.E.\', \'COPSHOP\', \'COLLATERAL_DAMAGE\', \'BIG_DARK\', \'DOUBLE-DEUCE\', \'ZONEDANCE\', \'MARK\', \'COBBERS\', \'CHIMPIRA\', \'TRIADS\', \'SHANK\', \'FRAG\', \'BREATH_VAC\', "CHARLIE\'S_ANGEL", \'MULE\', \'BURNER\', "PACKIN\'", \'HOTDOGGER\', \'BOSOZOKU\', \'RIPPERDOC\', \'THIRDMAN\', \'MAXIMUM,_MAX\', \'CHOOH2_("CHOO")\', \'CRYO_MAX\', \'HEATER\', \'SHARK\', \'JOYGIRL\', \'GURENTAI\', \'BANDIT\', \'VENICE\', \'MIZU_SHOBAI\', \'PASTA_BOYS\', \'SQUID\', \'CYBERED_UP\', \'DEAD_RECKONING\', \'POPSICLE\', \'FAUST\', \'COLLARBOY\', \'SHOES\', \'TORCH\', \'DELTAJOCK\', \'BUTTERFLY_MAN\', \'WISE_GUYS\', \'BOOST\', \'CAIN\', \'FOUR-FIVE\', \'BREAK-DOWN\', \'POLYMER_ONE-SHOT\', \'FLAG\', \'CALL_GIRL\', \'IN_THE_HUNT\', \'HYDRO\', \'DOCK\', \'FENCE\', \'SHAIKUJIN\', \'GOMI\', \'FILTER\', \'SAINT_NICK\', \'LINEFOOT\', \'CAVALRY\', \'PUKE\', \'CONVERSION\', \'FINGER\', \'CONTRACT\'],\n[\'PLASTIC\', \'CRYSTALJOCKEY,_CRYSTALJOCK\', \'SCREW\', \'TOYSTORE\', \'DREAM_TIME\', \'EXOTIC\', \'WALKABOUT\', \'DIAMOND_SEASON\', \'SARAKIN\', \'CHRISTMAS_BUNDLES\', \'SHADES\', \'BUTTON_MAN\', \'FOXTROT_UNIFORM\', \'KAI\', \'UNDER_THE_PAINT\', \'MINIMUM\', \'TRIPLE_A\', \'PIG_ON_A_WHEEL\', \'BAG_MAN\', \'DIP\', \'PIGEONS\', \'MAN\', \'ADAM_HENRY\', \'HIGH\', \'HEAT\', \'NINJO\', \'KNIFE_FIGHT\', \'MOUTHPIECE\', \'AGRIPLEX\', \'DATA_TERM\', \'LIZ\', \'CHROMER\', \'OUTPUT\', \'N.O.E.\', \'CLOSE_A_CONTRACT\', \'LASSIE\', \'FLATLINE\', \'CHIV\', \'SING\', \'AMMO\', \'RAT\', \'MATCHBOX\', \'PULL_AN_ASH\', \'BORYOKUDAN\', \'SQUEEZE\', \'RONIN\', \'HIT\', \'RAGS\', \'TAKE_OUT\', \'BEAT_THE_RAP\', \'GIRI\', \'RUNNING_THE_LINE\', \'HARNESS\', \'GRAVEROBBER\', \'DROP_A_DIME\', \'BADGE_ON_A_BEAVER\', \'FLETCHER\', \'AMPED-OUT\', \'NEUTRALIZE\', \'PETER\', \'CONFIG\', \'HARDFIRE\', \'B.A.M.A.\', \'CHROMATIC_ROCK\', \'MOLDED\', \'RAD\', \'CREASED\', \'CHATTER_BOX\', \'HAND_CANNON\', \'NIPPERS\', \'SIERRA_HOTEL\', \'HOOK_UP\', \'-JOCKEY,_-JOCK\', \'BUG\', \'BATMAN_AND_ROBIN\', \'BLACK_OPERATIONS\', "D.C.\'S", \'SO_KA\'],\n[\'_A.A.A.\', \'HOME_PLATE\', \'LITEJACK\', \'PINEAPPLE\', \'MAKE\', \'THE_STREET\', \'SITREP\', \'HANGING_PAPER\', \'PAINT_BOYS\', \'WETWORK\', \'NINER\', \'BOOKIE\', \'WHIPLASH\', \'TORPEDO\', \'HEATWAVE\', \'SOLAR_WIND\', \'QUIFF\', \'BIKE\', \'TRAFFIC\', \'WIRE_ROOM\', \'OYABUN\', \'COWBOY\', \'KOBUN\', \'MUDBOY\', \'COP_OUT\', \'SOKAIYA\', "\'DORPH", \'JOYBOY\', \'DIRTY\', \'BOAT\', \'DROP\', \'GRAV_or_GEE\', \'APOGEE\', \'BOOSTER\', \'BOOK\', \'FRY\', \'PULLING_TEETH\', \'ONE_LARGE\', \'COMBAT_DRUGS\', \'THRASH\', \'DO_A_GHOST\', \'DELTA\', \'RIN_TIN_TIN\', \'DROP_OUT\', \'GUMI\', \'ROCKERBOY/GIRL\', \'BULLET\', \'DEB\', \'THREADING_THE_NEEDLE\', \'MOTOR\', \'BLEEDER\', \'ARC\', \'BOPPER\', \'WASTE\', \'_DEMUKAI\', \'BREAK\', \'HOLDING_DOWN\', \'FEDS\', \'GAP\', \'RABBI\', \'BAKUTO\', \'CHOMBATTA_(CHOOMBA)\', \'BIG_HATS\', \'MR._JOHNSON\', \'EXEC\', \'BULL\', \'BULLSEYE\', \'POSERGANG\', \'CHAOL\', \'GEISHA\', \'SLAMMIT_ON\', \'POP_CAPS\', \'HARD_TIME\', \'BENJI\', \'MAKING_BANK\', \'PAPERHANGER\', \'NETRUN\', \'BOGEY\'],\n]     \n    i = 0\n    invits = []\n    print number\n    while (i < number):\n        invit = ""\n        j = 0\n        while (j < word):\n            debut = random.randint(0,len(code)-1)\n            codepick = code[debut][random.randint(0,len(code[debut])-1)]\n            j += 1\n            invit += codepick+"-"\n        j = 0\n        while (j < num):\n            invit += randomdig(numdigit)+"-"\n            j += 1\n        i+= 1\n        invit = invit[:-1]\n        if invit not in invits :\n            invits.append(invit[:-1])\n            print invit\n    return invits\n        \ndef randomdig(number):\n    max = "9"*number\n    max = int(max)\n    rand =  random.randint(0,max)\n    rand = str(rand)\n    rand = "0"*(number-len(rand))+rand\n    return rand\n\n@auth.requires_login()\ndef inscription():\n    form = SQLFORM(db[auth.settings.table_user_name])\n    return dict(form=form)\n\ndef liste_invitations():\n    return dict(rows = db().select(db.Invitation.ALL))\n\n#@auth.requires_membership(\'manager\')\ndef generate_invitationpage():\n   form=FORM("Nombre d\'invit a g\xc3\xa9n\xc3\xa9rer:", INPUT(_name=\'nmbreinvit\'), INPUT(_type=\'submit\'))\n   if form.process().accepted and form.vars.nmbreinvit != None :\n       i = form.vars.nmbreinvit\n       invitsgenere = generate_invitation(int(i))\n       for invit in invitsgenere :\n           db.Invitation.insert(Code=invit)\n           db.commit()\n       session.flash = \'invitation inserted\'\n       form=FORM("Nombre d\'invit a g\xc3\xa9n\xc3\xa9rer:", INPUT(_name=\'nmbreinvit\'), INPUT(_type=\'submit\'))\n       #db.Invitation.insert(Code="Toto-5542")\n       db.commit()\n   return dict(form=form)\n\ndef verif_invitation(form):\n    print form.vars.invitation\n    if db.Invitation(db.Invitation.Code==form.vars.invitation) == None :\n        form.errors.invitation = \'code invitation incorrect\'\n        print "mauvais"\n    else :\n        print "bon"\n\n\ndef invitation():\n    form=FORM("Code Invitation :", INPUT(_name=\'invitation\'),"<Email :",INPUT(_name=\'email\'),  INPUT(_type=\'submit\'))\n    if form.process(onvalidation=verif_invitation).accepted and  form.vars.invitation != None  :\n        print "toto"\n        user = ensurefirstuser("john_doe",form.vars.email,form.vars.invitation)\n        session.auth = Storage(user=user, last_visit=request.now,\n                                   expiration=auth.settings.expiration,\n                                   hmac_key = str(uuid4())\n        redirect(URL(\'inscription\'))\n    return dict(form=form)\n\ndef faq():\n\n    return dict()\ndef user():\n    """\n    exposes:\n    http://..../[app]/default/user/login\n    http://..../[app]/default/user/logout\n    http://..../[app]/default/user/register\n    http://..../[app]/default/user/profile\n    http://..../[app]/default/user/retrieve_password\n    http://..../[app]/default/user/change_password\n    use @auth.requires_login()\n        @auth.requires_membership(\'group name\')\n        @auth.requires_permission(\'read\',\'table name\',record_id)\n    to decorate functions that need access control\n    """\n    return dict(form=auth())\n\n\ndef download():\n    """\n    allows downloading of uploaded files\n    http://..../[app]/default/download/[filename]\n    """\n    return response.download(request,db)\n\n\ndef call():\n    """\n    exposes services. for example:\n    http://..../[app]/default/call/jsonrpc\n    decorate with @services.jsonrpc the functions to expose\n    supports xml, json, xmlrpc, jsonrpc, amfrpc, rss, csv\n    """\n    return service()\n\n\n@auth.requires_signature()\ndef data():\n    """\n    http://..../[app]/default/data/tables\n    http://..../[app]/default/data/create/[table]\n    http://..../[app]/default/data/read/[table]/[id]\n    http://..../[app]/default/data/update/[table]/[id]\n    http://..../[app]/default/data/delete/[table]/[id]\n    http://..../[app]/default/data/select/[table]\n    http://..../[app]/default/data/search/[table]\n    but URLs must be signed, i.e. linked with\n      A(\'table\',_href=URL(\'data/tables\',user_signature=True))\n    or with the signed load operator\n      LOAD(\'default\',\'data.load\',args=\'tables\',ajax=True,user_signature=True)\n    """\n    return dict(form=crud())\n\nresponse._vars=response._caller(index)\n'
p7
sS'snapshot'
p8
(dp9
S'exception'
p10
(dp11
S'__getslice__'
p12
S"<method-wrapper '__getslice__' of exceptions.SyntaxError object at 0x07A63930>"
p13
sS'text'
p14
S'"        redirect(URL(\'inscription\'))\\n"'
p15
sS'__str__'
p16
S"<method-wrapper '__str__' of exceptions.SyntaxError object at 0x07A63930>"
p17
sS'__reduce__'
p18
S'<built-in method __reduce__ of exceptions.SyntaxError object at 0x07A63930>'
p19
sS'__dict__'
p20
S'{}'
p21
sS'__init__'
p22
S"<method-wrapper '__init__' of exceptions.SyntaxError object at 0x07A63930>"
p23
sS'__setattr__'
p24
S"<method-wrapper '__setattr__' of exceptions.SyntaxError object at 0x07A63930>"
p25
sS'__reduce_ex__'
p26
S'<built-in method __reduce_ex__ of exceptions.SyntaxError object at 0x07A63930>'
p27
sS'__new__'
p28
S'<built-in method __new__ of type object at 0x1E1CDBD0>'
p29
sS'__class__'
p30
S"<type 'exceptions.SyntaxError'>"
p31
sS'filename'
p32
S"r'C:\\Users\\Bussiere\\Dropbox\\Projets\\jackpoint\\web2py\\applications\\init\\controllers/default.py'"
p33
sS'lineno'
p34
S'281'
p35
sS'msg'
p36
S"'invalid syntax'"
p37
sS'__doc__'
p38
S"'Invalid syntax.'"
p39
sS'__getitem__'
p40
S"<method-wrapper '__getitem__' of exceptions.SyntaxError object at 0x07A63930>"
p41
sS'__setstate__'
p42
S'<built-in method __setstate__ of exceptions.SyntaxError object at 0x07A63930>'
p43
sS'__getattribute__'
p44
S"<method-wrapper '__getattribute__' of exceptions.SyntaxError object at 0x07A63930>"
p45
sS'print_file_and_line'
p46
S'None'
p47
sS'args'
p48
S'(\'invalid syntax\', (r\'C:\\Users\\Bussiere\\Dropbox\\Projets\\jackpoint\\web2py\\applications\\init\\controllers/default.py\', 281, 16, "        redirect(URL(\'inscription\'))\\n"))'
p49
sS'offset'
p50
S'16'
p51
sS'__delattr__'
p52
S"<method-wrapper '__delattr__' of exceptions.SyntaxError object at 0x07A63930>"
p53
sS'__repr__'
p54
S"<method-wrapper '__repr__' of exceptions.SyntaxError object at 0x07A63930>"
p55
sS'__hash__'
p56
S"<method-wrapper '__hash__' of exceptions.SyntaxError object at 0x07A63930>"
p57
ssS'evalue'
p58
S'invalid syntax (controllers/default.py, line 281)'
p59
sS'request'
p60
ccopy_reg
_reconstructor
p61
(cgluon.html
BEAUTIFY
p62
c__builtin__
object
p63
NtRp64
(dp65
S'attributes'
p66
(dp67
sS'components'
p68
(lp69
g61
(cgluon.html
TABLE
p70
g63
NtRp71
(dp72
g66
(dp73
S'level'
p74
I5
ssS'parent'
p75
Nsg68
(lp76
g61
(cgluon.html
TR
p77
g63
NtRp78
(dp79
g66
(dp80
sg75
g71
sg68
(lp81
g61
(cgluon.html
TD
p82
g63
NtRp83
(dp84
g66
(dp85
S'_style'
p86
S'font-weight:bold;vertical-align:top'
p87
ssg75
g78
sg68
(lp88
S'ajax'
p89
asbag61
(g82
g63
NtRp90
(dp91
g66
(dp92
S'_valign'
p93
S'top'
p94
ssg75
g78
sg68
(lp95
S':'
asbag61
(g82
g63
NtRp96
(dp97
g66
(dp98
sg75
g78
sg68
(lp99
g61
(g62
g63
NtRp100
(dp101
g66
(dp102
g74
I5
ssg75
g96
sg68
(lp103
S'False'
p104
asbasbasbag61
(g77
g63
NtRp105
(dp106
g66
(dp107
sg75
g71
sg68
(lp108
g61
(g82
g63
NtRp109
(dp110
g66
(dp111
g86
g87
ssg75
g105
sg68
(lp112
S'application'
p113
asbag61
(g82
g63
NtRp114
(dp115
g66
(dp116
g93
g94
ssg75
g105
sg68
(lp117
S':'
asbag61
(g82
g63
NtRp118
(dp119
g66
(dp120
sg75
g105
sg68
(lp121
g61
(g62
g63
NtRp122
(dp123
g66
(dp124
g74
I5
ssg75
g118
sg68
(lp125
S'init'
p126
asbasbasbag61
(g77
g63
NtRp127
(dp128
g66
(dp129
sg75
g71
sg68
(lp130
g61
(g82
g63
NtRp131
(dp132
g66
(dp133
g86
g87
ssg75
g127
sg68
(lp134
g48
asbag61
(g82
g63
NtRp135
(dp136
g66
(dp137
g93
g94
ssg75
g127
sg68
(lp138
S':'
asbag61
(g82
g63
NtRp139
(dp140
g66
(dp141
sg75
g127
sg68
(lp142
g61
(g62
g63
NtRp143
(dp144
g66
(dp145
g74
I5
ssg75
g139
sg68
(lp146
g61
(g70
g63
NtRp147
(dp148
g66
(dp149
g74
I4
ssg75
Nsg68
(lp150
sbasbasbasbag61
(g77
g63
NtRp151
(dp152
g66
(dp153
sg75
g71
sg68
(lp154
g61
(g82
g63
NtRp155
(dp156
g66
(dp157
g86
g87
ssg75
g151
sg68
(lp158
S'body'
p159
asbag61
(g82
g63
NtRp160
(dp161
g66
(dp162
g93
g94
ssg75
g151
sg68
(lp163
S':'
asbag61
(g82
g63
NtRp164
(dp165
g66
(dp166
sg75
g151
sg68
(lp167
g61
(g62
g63
NtRp168
(dp169
g66
(dp170
g74
I5
ssg75
g164
sg68
(lp171
S'<cStringIO.StringO object at 0x076FE3C0>'
p172
asbasbasbag61
(g77
g63
NtRp173
(dp174
g66
(dp175
sg75
g71
sg68
(lp176
g61
(g82
g63
NtRp177
(dp178
g66
(dp179
g86
g87
ssg75
g173
sg68
(lp180
S'client'
p181
asbag61
(g82
g63
NtRp182
(dp183
g66
(dp184
g93
g94
ssg75
g173
sg68
(lp185
S':'
asbag61
(g82
g63
NtRp186
(dp187
g66
(dp188
sg75
g173
sg68
(lp189
g61
(g62
g63
NtRp190
(dp191
g66
(dp192
g74
I5
ssg75
g186
sg68
(lp193
S'127.0.0.1'
p194
asbasbasbag61
(g77
g63
NtRp195
(dp196
g66
(dp197
sg75
g71
sg68
(lp198
g61
(g82
g63
NtRp199
(dp200
g66
(dp201
g86
g87
ssg75
g195
sg68
(lp202
S'controller'
p203
asbag61
(g82
g63
NtRp204
(dp205
g66
(dp206
g93
g94
ssg75
g195
sg68
(lp207
S':'
asbag61
(g82
g63
NtRp208
(dp209
g66
(dp210
sg75
g195
sg68
(lp211
g61
(g62
g63
NtRp212
(dp213
g66
(dp214
g74
I5
ssg75
g208
sg68
(lp215
S'default'
p216
asbasbasbag61
(g77
g63
NtRp217
(dp218
g66
(dp219
sg75
g71
sg68
(lp220
g61
(g82
g63
NtRp221
(dp222
g66
(dp223
g86
g87
ssg75
g217
sg68
(lp224
S'cookies'
p225
asbag61
(g82
g63
NtRp226
(dp227
g66
(dp228
g93
g94
ssg75
g217
sg68
(lp229
S':'
asbag61
(g82
g63
NtRp230
(dp231
g66
(dp232
sg75
g217
sg68
(lp233
g61
(g62
g63
NtRp234
(dp235
g66
(dp236
g74
I5
ssg75
g230
sg68
(lp237
g61
(g70
g63
NtRp238
(dp239
g66
(dp240
g74
I4
ssg75
Nsg68
(lp241
sbasbasbasbag61
(g77
g63
NtRp242
(dp243
g66
(dp244
sg75
g71
sg68
(lp245
g61
(g82
g63
NtRp246
(dp247
g66
(dp248
g86
g87
ssg75
g242
sg68
(lp249
S'env'
p250
asbag61
(g82
g63
NtRp251
(dp252
g66
(dp253
g93
g94
ssg75
g242
sg68
(lp254
S':'
asbag61
(g82
g63
NtRp255
(dp256
g66
(dp257
sg75
g242
sg68
(lp258
g61
(g62
g63
NtRp259
(dp260
g66
(dp261
g74
I5
ssg75
g255
sg68
(lp262
g61
(g70
g63
NtRp263
(dp264
g66
(dp265
g74
I4
ssg75
Nsg68
(lp266
g61
(g77
g63
NtRp267
(dp268
g66
(dp269
sg75
g263
sg68
(lp270
g61
(g82
g63
NtRp271
(dp272
g66
(dp273
g86
g87
ssg75
g267
sg68
(lp274
S'app_folders'
p275
asbag61
(g82
g63
NtRp276
(dp277
g66
(dp278
g93
g94
ssg75
g267
sg68
(lp279
S':'
asbag61
(g82
g63
NtRp280
(dp281
g66
(dp282
sg75
g267
sg68
(lp283
g61
(g62
g63
NtRp284
(dp285
g66
(dp286
g74
I4
ssg75
g280
sg68
(lp287
S"set(['C:\\\\Users\\\\Bussiere\\\\Dropbox\\\\Projets\\\\jackpoint\\\\web2py\\\\applications\\\\init\\\\', 'C:\\\\Users\\\\Bussiere\\\\Dropbox\\\\Projets\\\\jackpoint\\\\web2py\\\\applications\\\\admin\\\\'])"
p288
asbasbasbag61
(g77
g63
NtRp289
(dp290
g66
(dp291
sg75
g263
sg68
(lp292
g61
(g82
g63
NtRp293
(dp294
g66
(dp295
g86
g87
ssg75
g289
sg68
(lp296
S'applications_parent'
p297
asbag61
(g82
g63
NtRp298
(dp299
g66
(dp300
g93
g94
ssg75
g289
sg68
(lp301
S':'
asbag61
(g82
g63
NtRp302
(dp303
g66
(dp304
sg75
g289
sg68
(lp305
g61
(g62
g63
NtRp306
(dp307
g66
(dp308
g74
I4
ssg75
g302
sg68
(lp309
S'C:\\Users\\Bussiere\\Dropbox\\Projets\\jackpoint\\web2py'
p310
asbasbasbag61
(g77
g63
NtRp311
(dp312
g66
(dp313
sg75
g263
sg68
(lp314
g61
(g82
g63
NtRp315
(dp316
g66
(dp317
g86
g87
ssg75
g311
sg68
(lp318
S'cmd_args'
p319
asbag61
(g82
g63
NtRp320
(dp321
g66
(dp322
g93
g94
ssg75
g311
sg68
(lp323
S':'
asbag61
(g82
g63
NtRp324
(dp325
g66
(dp326
sg75
g311
sg68
(lp327
g61
(g62
g63
NtRp328
(dp329
g66
(dp330
g74
I4
ssg75
g324
sg68
(lp331
g61
(g70
g63
NtRp332
(dp333
g66
(dp334
g74
I3
ssg75
Nsg68
(lp335
sbasbasbasbag61
(g77
g63
NtRp336
(dp337
g66
(dp338
sg75
g263
sg68
(lp339
g61
(g82
g63
NtRp340
(dp341
g66
(dp342
g86
g87
ssg75
g336
sg68
(lp343
S'cmd_options'
p344
asbag61
(g82
g63
NtRp345
(dp346
g66
(dp347
g93
g94
ssg75
g336
sg68
(lp348
S':'
asbag61
(g82
g63
NtRp349
(dp350
g66
(dp351
sg75
g336
sg68
(lp352
g61
(g62
g63
NtRp353
(dp354
g66
(dp355
g74
I4
ssg75
g349
sg68
(lp356
S"<Values at 0x3be5fa8: {'verbose': False, 'ip': '127.0.0.1', 'shutdown_timeout': 5, 'taskbar': False, 'nocron': False, 'pid_filename': 'httpserver.pid', 'maxthreads': None, 'softcron': False, 'server_name': 'Batou', 'bpython': False, 'nogui': False, 'port': 8000, 'extcron': False, 'debuglevel': 30, 'test': None, 'folder': 'C:\\\\Users\\\\Bussiere\\\\Dropbox\\\\Projets\\\\jackpoint\\\\web2py', 'config': '', 'import_models': False, 'winservice': '', 'shell': None, 'run': '', 'log_filename': 'httpserver.log', 'args': [''], 'socket_timeout': 5, 'ssl_ca_certificate': None, 'scheduler': None, 'profiler_filename': None, 'ssl_private_key': '', 'password': '<ask>', 'request_queue_size': 5, 'ssl_certificate': '', 'cronjob': False, 'numthreads': None, 'quiet': False, 'interfaces': None, 'minthreads': None, 'timeout': 10, 'plain': False, 'nobanner': False}>"
p357
asbasbasbag61
(g77
g63
NtRp358
(dp359
g66
(dp360
sg75
g263
sg68
(lp361
g61
(g82
g63
NtRp362
(dp363
g66
(dp364
g86
g87
ssg75
g358
sg68
(lp365
S'db_sessions'
p366
asbag61
(g82
g63
NtRp367
(dp368
g66
(dp369
g93
g94
ssg75
g358
sg68
(lp370
S':'
asbag61
(g82
g63
NtRp371
(dp372
g66
(dp373
sg75
g358
sg68
(lp374
g61
(g62
g63
NtRp375
(dp376
g66
(dp377
g74
I4
ssg75
g371
sg68
(lp378
S"set(['init'])"
p379
asbasbasbag61
(g77
g63
NtRp380
(dp381
g66
(dp382
sg75
g263
sg68
(lp383
g61
(g82
g63
NtRp384
(dp385
g66
(dp386
g86
g87
ssg75
g380
sg68
(lp387
S'debugging'
p388
asbag61
(g82
g63
NtRp389
(dp390
g66
(dp391
g93
g94
ssg75
g380
sg68
(lp392
S':'
asbag61
(g82
g63
NtRp393
(dp394
g66
(dp395
sg75
g380
sg68
(lp396
g61
(g62
g63
NtRp397
(dp398
g66
(dp399
g74
I4
ssg75
g393
sg68
(lp400
S'True'
p401
asbasbasbag61
(g77
g63
NtRp402
(dp403
g66
(dp404
sg75
g263
sg68
(lp405
g61
(g82
g63
NtRp406
(dp407
g66
(dp408
g86
g87
ssg75
g402
sg68
(lp409
S'gluon_parent'
p410
asbag61
(g82
g63
NtRp411
(dp412
g66
(dp413
g93
g94
ssg75
g402
sg68
(lp414
S':'
asbag61
(g82
g63
NtRp415
(dp416
g66
(dp417
sg75
g402
sg68
(lp418
g61
(g62
g63
NtRp419
(dp420
g66
(dp421
g74
I4
ssg75
g415
sg68
(lp422
S'C:\\Users\\Bussiere\\Dropbox\\Projets\\jackpoint\\web2py'
p423
asbasbasbag61
(g77
g63
NtRp424
(dp425
g66
(dp426
sg75
g263
sg68
(lp427
g61
(g82
g63
NtRp428
(dp429
g66
(dp430
g86
g87
ssg75
g424
sg68
(lp431
S'http_accept'
p432
asbag61
(g82
g63
NtRp433
(dp434
g66
(dp435
g93
g94
ssg75
g424
sg68
(lp436
S':'
asbag61
(g82
g63
NtRp437
(dp438
g66
(dp439
sg75
g424
sg68
(lp440
g61
(g62
g63
NtRp441
(dp442
g66
(dp443
g74
I4
ssg75
g437
sg68
(lp444
S'text/html,application/xhtml+xml,application/xml;q=0.9,*/*;q=0.8'
p445
asbasbasbag61
(g77
g63
NtRp446
(dp447
g66
(dp448
sg75
g263
sg68
(lp449
g61
(g82
g63
NtRp450
(dp451
g66
(dp452
g86
g87
ssg75
g446
sg68
(lp453
S'http_accept_charset'
p454
asbag61
(g82
g63
NtRp455
(dp456
g66
(dp457
g93
g94
ssg75
g446
sg68
(lp458
S':'
asbag61
(g82
g63
NtRp459
(dp460
g66
(dp461
sg75
g446
sg68
(lp462
g61
(g62
g63
NtRp463
(dp464
g66
(dp465
g74
I4
ssg75
g459
sg68
(lp466
S'ISO-8859-1,utf-8;q=0.7,*;q=0.3'
p467
asbasbasbag61
(g77
g63
NtRp468
(dp469
g66
(dp470
sg75
g263
sg68
(lp471
g61
(g82
g63
NtRp472
(dp473
g66
(dp474
g86
g87
ssg75
g468
sg68
(lp475
S'http_accept_encoding'
p476
asbag61
(g82
g63
NtRp477
(dp478
g66
(dp479
g93
g94
ssg75
g468
sg68
(lp480
S':'
asbag61
(g82
g63
NtRp481
(dp482
g66
(dp483
sg75
g468
sg68
(lp484
g61
(g62
g63
NtRp485
(dp486
g66
(dp487
g74
I4
ssg75
g481
sg68
(lp488
S'gzip,deflate,sdch'
p489
asbasbasbag61
(g77
g63
NtRp490
(dp491
g66
(dp492
sg75
g263
sg68
(lp493
g61
(g82
g63
NtRp494
(dp495
g66
(dp496
g86
g87
ssg75
g490
sg68
(lp497
S'http_accept_language'
p498
asbag61
(g82
g63
NtRp499
(dp500
g66
(dp501
g93
g94
ssg75
g490
sg68
(lp502
S':'
asbag61
(g82
g63
NtRp503
(dp504
g66
(dp505
sg75
g490
sg68
(lp506
g61
(g62
g63
NtRp507
(dp508
g66
(dp509
g74
I4
ssg75
g503
sg68
(lp510
S'en-US,en;q=0.8'
p511
asbasbasbag61
(g77
g63
NtRp512
(dp513
g66
(dp514
sg75
g263
sg68
(lp515
g61
(g82
g63
NtRp516
(dp517
g66
(dp518
g86
g87
ssg75
g512
sg68
(lp519
S'http_connection'
p520
asbag61
(g82
g63
NtRp521
(dp522
g66
(dp523
g93
g94
ssg75
g512
sg68
(lp524
S':'
asbag61
(g82
g63
NtRp525
(dp526
g66
(dp527
sg75
g512
sg68
(lp528
g61
(g62
g63
NtRp529
(dp530
g66
(dp531
g74
I4
ssg75
g525
sg68
(lp532
S'keep-alive'
p533
asbasbasbag61
(g77
g63
NtRp534
(dp535
g66
(dp536
sg75
g263
sg68
(lp537
g61
(g82
g63
NtRp538
(dp539
g66
(dp540
g86
g87
ssg75
g534
sg68
(lp541
S'http_host'
p542
asbag61
(g82
g63
NtRp543
(dp544
g66
(dp545
g93
g94
ssg75
g534
sg68
(lp546
S':'
asbag61
(g82
g63
NtRp547
(dp548
g66
(dp549
sg75
g534
sg68
(lp550
g61
(g62
g63
NtRp551
(dp552
g66
(dp553
g74
I4
ssg75
g547
sg68
(lp554
S'localhost:8000'
p555
asbasbasbag61
(g77
g63
NtRp556
(dp557
g66
(dp558
sg75
g263
sg68
(lp559
g61
(g82
g63
NtRp560
(dp561
g66
(dp562
g86
g87
ssg75
g556
sg68
(lp563
S'http_user_agent'
p564
asbag61
(g82
g63
NtRp565
(dp566
g66
(dp567
g93
g94
ssg75
g556
sg68
(lp568
S':'
asbag61
(g82
g63
NtRp569
(dp570
g66
(dp571
sg75
g556
sg68
(lp572
g61
(g62
g63
NtRp573
(dp574
g66
(dp575
g74
I4
ssg75
g569
sg68
(lp576
S'Mozilla/5.0 (Windows NT 6.1; WOW64) AppleWebKit/535.18 (KHTML, like Gecko) Chrome/18.0.1011.0 Safari/535.18'
p577
asbasbasbag61
(g77
g63
NtRp578
(dp579
g66
(dp580
sg75
g263
sg68
(lp581
g61
(g82
g63
NtRp582
(dp583
g66
(dp584
g86
g87
ssg75
g578
sg68
(lp585
S'is_jython'
p586
asbag61
(g82
g63
NtRp587
(dp588
g66
(dp589
g93
g94
ssg75
g578
sg68
(lp590
S':'
asbag61
(g82
g63
NtRp591
(dp592
g66
(dp593
sg75
g578
sg68
(lp594
g61
(g62
g63
NtRp595
(dp596
g66
(dp597
g74
I4
ssg75
g591
sg68
(lp598
g104
asbasbasbag61
(g77
g63
NtRp599
(dp600
g66
(dp601
sg75
g263
sg68
(lp602
g61
(g82
g63
NtRp603
(dp604
g66
(dp605
g86
g87
ssg75
g599
sg68
(lp606
S'is_pypy'
p607
asbag61
(g82
g63
NtRp608
(dp609
g66
(dp610
g93
g94
ssg75
g599
sg68
(lp611
S':'
asbag61
(g82
g63
NtRp612
(dp613
g66
(dp614
sg75
g599
sg68
(lp615
g61
(g62
g63
NtRp616
(dp617
g66
(dp618
g74
I4
ssg75
g612
sg68
(lp619
g104
asbasbasbag61
(g77
g63
NtRp620
(dp621
g66
(dp622
sg75
g263
sg68
(lp623
g61
(g82
g63
NtRp624
(dp625
g66
(dp626
g86
g87
ssg75
g620
sg68
(lp627
S'path_info'
p628
asbag61
(g82
g63
NtRp629
(dp630
g66
(dp631
g93
g94
ssg75
g620
sg68
(lp632
S':'
asbag61
(g82
g63
NtRp633
(dp634
g66
(dp635
sg75
g620
sg68
(lp636
g61
(g62
g63
NtRp637
(dp638
g66
(dp639
g74
I4
ssg75
g633
sg68
(lp640
S'/'
asbasbasbag61
(g77
g63
NtRp641
(dp642
g66
(dp643
sg75
g263
sg68
(lp644
g61
(g82
g63
NtRp645
(dp646
g66
(dp647
g86
g87
ssg75
g641
sg68
(lp648
S'query_string'
p649
asbag61
(g82
g63
NtRp650
(dp651
g66
(dp652
g93
g94
ssg75
g641
sg68
(lp653
S':'
asbag61
(g82
g63
NtRp654
(dp655
g66
(dp656
sg75
g641
sg68
(lp657
g61
(g62
g63
NtRp658
(dp659
g66
(dp660
g74
I4
ssg75
g654
sg68
(lp661
S''
asbasbasbag61
(g77
g63
NtRp662
(dp663
g66
(dp664
sg75
g263
sg68
(lp665
g61
(g82
g63
NtRp666
(dp667
g66
(dp668
g86
g87
ssg75
g662
sg68
(lp669
S'remote_addr'
p670
asbag61
(g82
g63
NtRp671
(dp672
g66
(dp673
g93
g94
ssg75
g662
sg68
(lp674
S':'
asbag61
(g82
g63
NtRp675
(dp676
g66
(dp677
sg75
g662
sg68
(lp678
g61
(g62
g63
NtRp679
(dp680
g66
(dp681
g74
I4
ssg75
g675
sg68
(lp682
g194
asbasbasbag61
(g77
g63
NtRp683
(dp684
g66
(dp685
sg75
g263
sg68
(lp686
g61
(g82
g63
NtRp687
(dp688
g66
(dp689
g86
g87
ssg75
g683
sg68
(lp690
S'remote_port'
p691
asbag61
(g82
g63
NtRp692
(dp693
g66
(dp694
g93
g94
ssg75
g683
sg68
(lp695
S':'
asbag61
(g82
g63
NtRp696
(dp697
g66
(dp698
sg75
g683
sg68
(lp699
g61
(g62
g63
NtRp700
(dp701
g66
(dp702
g74
I4
ssg75
g696
sg68
(lp703
S'52147'
p704
asbasbasbag61
(g77
g63
NtRp705
(dp706
g66
(dp707
sg75
g263
sg68
(lp708
g61
(g82
g63
NtRp709
(dp710
g66
(dp711
g86
g87
ssg75
g705
sg68
(lp712
S'request_method'
p713
asbag61
(g82
g63
NtRp714
(dp715
g66
(dp716
g93
g94
ssg75
g705
sg68
(lp717
S':'
asbag61
(g82
g63
NtRp718
(dp719
g66
(dp720
sg75
g705
sg68
(lp721
g61
(g62
g63
NtRp722
(dp723
g66
(dp724
g74
I4
ssg75
g718
sg68
(lp725
S'GET'
p726
asbasbasbag61
(g77
g63
NtRp727
(dp728
g66
(dp729
sg75
g263
sg68
(lp730
g61
(g82
g63
NtRp731
(dp732
g66
(dp733
g86
g87
ssg75
g727
sg68
(lp734
S'script_name'
p735
asbag61
(g82
g63
NtRp736
(dp737
g66
(dp738
g93
g94
ssg75
g727
sg68
(lp739
S':'
asbag61
(g82
g63
NtRp740
(dp741
g66
(dp742
sg75
g727
sg68
(lp743
g61
(g62
g63
NtRp744
(dp745
g66
(dp746
g74
I4
ssg75
g740
sg68
(lp747
S''
asbasbasbag61
(g77
g63
NtRp748
(dp749
g66
(dp750
sg75
g263
sg68
(lp751
g61
(g82
g63
NtRp752
(dp753
g66
(dp754
g86
g87
ssg75
g748
sg68
(lp755
S'server_name'
p756
asbag61
(g82
g63
NtRp757
(dp758
g66
(dp759
g93
g94
ssg75
g748
sg68
(lp760
S':'
asbag61
(g82
g63
NtRp761
(dp762
g66
(dp763
sg75
g748
sg68
(lp764
g61
(g62
g63
NtRp765
(dp766
g66
(dp767
g74
I4
ssg75
g761
sg68
(lp768
S'Batou'
p769
asbasbasbag61
(g77
g63
NtRp770
(dp771
g66
(dp772
sg75
g263
sg68
(lp773
g61
(g82
g63
NtRp774
(dp775
g66
(dp776
g86
g87
ssg75
g770
sg68
(lp777
S'server_port'
p778
asbag61
(g82
g63
NtRp779
(dp780
g66
(dp781
g93
g94
ssg75
g770
sg68
(lp782
S':'
asbag61
(g82
g63
NtRp783
(dp784
g66
(dp785
sg75
g770
sg68
(lp786
g61
(g62
g63
NtRp787
(dp788
g66
(dp789
g74
I4
ssg75
g783
sg68
(lp790
S'8000'
p791
asbasbasbag61
(g77
g63
NtRp792
(dp793
g66
(dp794
sg75
g263
sg68
(lp795
g61
(g82
g63
NtRp796
(dp797
g66
(dp798
g86
g87
ssg75
g792
sg68
(lp799
S'server_protocol'
p800
asbag61
(g82
g63
NtRp801
(dp802
g66
(dp803
g93
g94
ssg75
g792
sg68
(lp804
S':'
asbag61
(g82
g63
NtRp805
(dp806
g66
(dp807
sg75
g792
sg68
(lp808
g61
(g62
g63
NtRp809
(dp810
g66
(dp811
g74
I4
ssg75
g805
sg68
(lp812
S'HTTP/1.1'
p813
asbasbasbag61
(g77
g63
NtRp814
(dp815
g66
(dp816
sg75
g263
sg68
(lp817
g61
(g82
g63
NtRp818
(dp819
g66
(dp820
g86
g87
ssg75
g814
sg68
(lp821
S'server_software'
p822
asbag61
(g82
g63
NtRp823
(dp824
g66
(dp825
g93
g94
ssg75
g814
sg68
(lp826
S':'
asbag61
(g82
g63
NtRp827
(dp828
g66
(dp829
sg75
g814
sg68
(lp830
g61
(g62
g63
NtRp831
(dp832
g66
(dp833
g74
I4
ssg75
g827
sg68
(lp834
S'Rocket 1.2.4'
p835
asbasbasbag61
(g77
g63
NtRp836
(dp837
g66
(dp838
sg75
g263
sg68
(lp839
g61
(g82
g63
NtRp840
(dp841
g66
(dp842
g86
g87
ssg75
g836
sg68
(lp843
S'web2py_crontype'
p844
asbag61
(g82
g63
NtRp845
(dp846
g66
(dp847
g93
g94
ssg75
g836
sg68
(lp848
S':'
asbag61
(g82
g63
NtRp849
(dp850
g66
(dp851
sg75
g836
sg68
(lp852
g61
(g62
g63
NtRp853
(dp854
g66
(dp855
g74
I4
ssg75
g849
sg68
(lp856
S'hard'
p857
asbasbasbag61
(g77
g63
NtRp858
(dp859
g66
(dp860
sg75
g263
sg68
(lp861
g61
(g82
g63
NtRp862
(dp863
g66
(dp864
g86
g87
ssg75
g858
sg68
(lp865
S'web2py_path'
p866
asbag61
(g82
g63
NtRp867
(dp868
g66
(dp869
g93
g94
ssg75
g858
sg68
(lp870
S':'
asbag61
(g82
g63
NtRp871
(dp872
g66
(dp873
sg75
g858
sg68
(lp874
g61
(g62
g63
NtRp875
(dp876
g66
(dp877
g74
I4
ssg75
g871
sg68
(lp878
g310
asbasbasbag61
(g77
g63
NtRp879
(dp880
g66
(dp881
sg75
g263
sg68
(lp882
g61
(g82
g63
NtRp883
(dp884
g66
(dp885
g86
g87
ssg75
g879
sg68
(lp886
S'web2py_version'
p887
asbag61
(g82
g63
NtRp888
(dp889
g66
(dp890
g93
g94
ssg75
g879
sg68
(lp891
S':'
asbag61
(g82
g63
NtRp892
(dp893
g66
(dp894
sg75
g879
sg68
(lp895
g61
(g62
g63
NtRp896
(dp897
g66
(dp898
g74
I4
ssg75
g892
sg68
(lp899
g61
(g70
g63
NtRp900
(dp901
g66
(dp902
g74
I3
ssg75
Nsg68
(lp903
g61
(g77
g63
NtRp904
(dp905
g66
(dp906
sg75
g900
sg68
(lp907
g61
(g82
g63
NtRp908
(dp909
g66
(dp910
sg75
g904
sg68
(lp911
g61
(g62
g63
NtRp912
(dp913
g66
(dp914
g74
I3
ssg75
g908
sg68
(lp915
S'1'
asbasbasbag61
(g77
g63
NtRp916
(dp917
g66
(dp918
sg75
g900
sg68
(lp919
g61
(g82
g63
NtRp920
(dp921
g66
(dp922
sg75
g916
sg68
(lp923
g61
(g62
g63
NtRp924
(dp925
g66
(dp926
g74
I3
ssg75
g920
sg68
(lp927
S'99'
p928
asbasbasbag61
(g77
g63
NtRp929
(dp930
g66
(dp931
sg75
g900
sg68
(lp932
g61
(g82
g63
NtRp933
(dp934
g66
(dp935
sg75
g929
sg68
(lp936
g61
(g62
g63
NtRp937
(dp938
g66
(dp939
g74
I3
ssg75
g933
sg68
(lp940
S'7'
asbasbasbag61
(g77
g63
NtRp941
(dp942
g66
(dp943
sg75
g900
sg68
(lp944
g61
(g82
g63
NtRp945
(dp946
g66
(dp947
sg75
g941
sg68
(lp948
g61
(g62
g63
NtRp949
(dp950
g66
(dp951
g74
I3
ssg75
g945
sg68
(lp952
S'datetime.datetime(2012, 3, 4, 22, 12, 8)'
p953
asbasbasbag61
(g77
g63
NtRp954
(dp955
g66
(dp956
sg75
g900
sg68
(lp957
g61
(g82
g63
NtRp958
(dp959
g66
(dp960
sg75
g954
sg68
(lp961
g61
(g62
g63
NtRp962
(dp963
g66
(dp964
g74
I3
ssg75
g958
sg68
(lp965
S'stable'
p966
asbasbasbasbasbasbasbag61
(g77
g63
NtRp967
(dp968
g66
(dp969
sg75
g263
sg68
(lp970
g61
(g82
g63
NtRp971
(dp972
g66
(dp973
g86
g87
ssg75
g967
sg68
(lp974
S'wsgi_errors'
p975
asbag61
(g82
g63
NtRp976
(dp977
g66
(dp978
g93
g94
ssg75
g967
sg68
(lp979
S':'
asbag61
(g82
g63
NtRp980
(dp981
g66
(dp982
sg75
g967
sg68
(lp983
g61
(g62
g63
NtRp984
(dp985
g66
(dp986
g74
I4
ssg75
g980
sg68
(lp987
S"<open file '<stderr>', mode 'w' at 0x002B00B0>"
p988
asbasbasbag61
(g77
g63
NtRp989
(dp990
g66
(dp991
sg75
g263
sg68
(lp992
g61
(g82
g63
NtRp993
(dp994
g66
(dp995
g86
g87
ssg75
g989
sg68
(lp996
S'wsgi_file_wrapper'
p997
asbag61
(g82
g63
NtRp998
(dp999
g66
(dp1000
g93
g94
ssg75
g989
sg68
(lp1001
S':'
asbag61
(g82
g63
NtRp1002
(dp1003
g66
(dp1004
sg75
g989
sg68
(lp1005
g61
(g62
g63
NtRp1006
(dp1007
g66
(dp1008
g74
I4
ssg75
g1002
sg68
(lp1009
S'<class wsgiref.util.FileWrapper at 0x02BF4900>'
p1010
asbasbasbag61
(g77
g63
NtRp1011
(dp1012
g66
(dp1013
sg75
g263
sg68
(lp1014
g61
(g82
g63
NtRp1015
(dp1016
g66
(dp1017
g86
g87
ssg75
g1011
sg68
(lp1018
S'wsgi_input'
p1019
asbag61
(g82
g63
NtRp1020
(dp1021
g66
(dp1022
g93
g94
ssg75
g1011
sg68
(lp1023
S':'
asbag61
(g82
g63
NtRp1024
(dp1025
g66
(dp1026
sg75
g1011
sg68
(lp1027
g61
(g62
g63
NtRp1028
(dp1029
g66
(dp1030
g74
I4
ssg75
g1024
sg68
(lp1031
S'<socket._fileobject object at 0x075F14F0>'
p1032
asbasbasbag61
(g77
g63
NtRp1033
(dp1034
g66
(dp1035
sg75
g263
sg68
(lp1036
g61
(g82
g63
NtRp1037
(dp1038
g66
(dp1039
g86
g87
ssg75
g1033
sg68
(lp1040
S'wsgi_multiprocess'
p1041
asbag61
(g82
g63
NtRp1042
(dp1043
g66
(dp1044
g93
g94
ssg75
g1033
sg68
(lp1045
S':'
asbag61
(g82
g63
NtRp1046
(dp1047
g66
(dp1048
sg75
g1033
sg68
(lp1049
g61
(g62
g63
NtRp1050
(dp1051
g66
(dp1052
g74
I4
ssg75
g1046
sg68
(lp1053
g104
asbasbasbag61
(g77
g63
NtRp1054
(dp1055
g66
(dp1056
sg75
g263
sg68
(lp1057
g61
(g82
g63
NtRp1058
(dp1059
g66
(dp1060
g86
g87
ssg75
g1054
sg68
(lp1061
S'wsgi_multithread'
p1062
asbag61
(g82
g63
NtRp1063
(dp1064
g66
(dp1065
g93
g94
ssg75
g1054
sg68
(lp1066
S':'
asbag61
(g82
g63
NtRp1067
(dp1068
g66
(dp1069
sg75
g1054
sg68
(lp1070
g61
(g62
g63
NtRp1071
(dp1072
g66
(dp1073
g74
I4
ssg75
g1067
sg68
(lp1074
g401
asbasbasbag61
(g77
g63
NtRp1075
(dp1076
g66
(dp1077
sg75
g263
sg68
(lp1078
g61
(g82
g63
NtRp1079
(dp1080
g66
(dp1081
g86
g87
ssg75
g1075
sg68
(lp1082
S'wsgi_run_once'
p1083
asbag61
(g82
g63
NtRp1084
(dp1085
g66
(dp1086
g93
g94
ssg75
g1075
sg68
(lp1087
S':'
asbag61
(g82
g63
NtRp1088
(dp1089
g66
(dp1090
sg75
g1075
sg68
(lp1091
g61
(g62
g63
NtRp1092
(dp1093
g66
(dp1094
g74
I4
ssg75
g1088
sg68
(lp1095
g104
asbasbasbag61
(g77
g63
NtRp1096
(dp1097
g66
(dp1098
sg75
g263
sg68
(lp1099
g61
(g82
g63
NtRp1100
(dp1101
g66
(dp1102
g86
g87
ssg75
g1096
sg68
(lp1103
S'wsgi_url_scheme'
p1104
asbag61
(g82
g63
NtRp1105
(dp1106
g66
(dp1107
g93
g94
ssg75
g1096
sg68
(lp1108
S':'
asbag61
(g82
g63
NtRp1109
(dp1110
g66
(dp1111
sg75
g1096
sg68
(lp1112
g61
(g62
g63
NtRp1113
(dp1114
g66
(dp1115
g74
I4
ssg75
g1109
sg68
(lp1116
S'http'
p1117
asbasbasbag61
(g77
g63
NtRp1118
(dp1119
g66
(dp1120
sg75
g263
sg68
(lp1121
g61
(g82
g63
NtRp1122
(dp1123
g66
(dp1124
g86
g87
ssg75
g1118
sg68
(lp1125
S'wsgi_version'
p1126
asbag61
(g82
g63
NtRp1127
(dp1128
g66
(dp1129
g93
g94
ssg75
g1118
sg68
(lp1130
S':'
asbag61
(g82
g63
NtRp1131
(dp1132
g66
(dp1133
sg75
g1118
sg68
(lp1134
g61
(g62
g63
NtRp1135
(dp1136
g66
(dp1137
g74
I4
ssg75
g1131
sg68
(lp1138
g61
(g70
g63
NtRp1139
(dp1140
g66
(dp1141
g74
I3
ssg75
Nsg68
(lp1142
g61
(g77
g63
NtRp1143
(dp1144
g66
(dp1145
sg75
g1139
sg68
(lp1146
g61
(g82
g63
NtRp1147
(dp1148
g66
(dp1149
sg75
g1143
sg68
(lp1150
g61
(g62
g63
NtRp1151
(dp1152
g66
(dp1153
g74
I3
ssg75
g1147
sg68
(lp1154
S'1'
asbasbasbag61
(g77
g63
NtRp1155
(dp1156
g66
(dp1157
sg75
g1139
sg68
(lp1158
g61
(g82
g63
NtRp1159
(dp1160
g66
(dp1161
sg75
g1155
sg68
(lp1162
g61
(g62
g63
NtRp1163
(dp1164
g66
(dp1165
g74
I3
ssg75
g1159
sg68
(lp1166
S'0'
asbasbasbasbasbasbasbasbasbasbasbag61
(g77
g63
NtRp1167
(dp1168
g66
(dp1169
sg75
g71
sg68
(lp1170
g61
(g82
g63
NtRp1171
(dp1172
g66
(dp1173
g86
g87
ssg75
g1167
sg68
(lp1174
S'extension'
p1175
asbag61
(g82
g63
NtRp1176
(dp1177
g66
(dp1178
g93
g94
ssg75
g1167
sg68
(lp1179
S':'
asbag61
(g82
g63
NtRp1180
(dp1181
g66
(dp1182
sg75
g1167
sg68
(lp1183
g61
(g62
g63
NtRp1184
(dp1185
g66
(dp1186
g74
I5
ssg75
g1180
sg68
(lp1187
S'html'
p1188
asbasbasbag61
(g77
g63
NtRp1189
(dp1190
g66
(dp1191
sg75
g71
sg68
(lp1192
g61
(g82
g63
NtRp1193
(dp1194
g66
(dp1195
g86
g87
ssg75
g1189
sg68
(lp1196
S'folder'
p1197
asbag61
(g82
g63
NtRp1198
(dp1199
g66
(dp1200
g93
g94
ssg75
g1189
sg68
(lp1201
S':'
asbag61
(g82
g63
NtRp1202
(dp1203
g66
(dp1204
sg75
g1189
sg68
(lp1205
g61
(g62
g63
NtRp1206
(dp1207
g66
(dp1208
g74
I5
ssg75
g1202
sg68
(lp1209
S'C:\\Users\\Bussiere\\Dropbox\\Projets\\jackpoint\\web2py\\applications\\init\\'
p1210
asbasbasbag61
(g77
g63
NtRp1211
(dp1212
g66
(dp1213
sg75
g71
sg68
(lp1214
g61
(g82
g63
NtRp1215
(dp1216
g66
(dp1217
g86
g87
ssg75
g1211
sg68
(lp1218
S'function'
p1219
asbag61
(g82
g63
NtRp1220
(dp1221
g66
(dp1222
g93
g94
ssg75
g1211
sg68
(lp1223
S':'
asbag61
(g82
g63
NtRp1224
(dp1225
g66
(dp1226
sg75
g1211
sg68
(lp1227
g61
(g62
g63
NtRp1228
(dp1229
g66
(dp1230
g74
I5
ssg75
g1224
sg68
(lp1231
S'index'
p1232
asbasbasbag61
(g77
g63
NtRp1233
(dp1234
g66
(dp1235
sg75
g71
sg68
(lp1236
g61
(g82
g63
NtRp1237
(dp1238
g66
(dp1239
g86
g87
ssg75
g1233
sg68
(lp1240
S'get_vars'
p1241
asbag61
(g82
g63
NtRp1242
(dp1243
g66
(dp1244
g93
g94
ssg75
g1233
sg68
(lp1245
S':'
asbag61
(g82
g63
NtRp1246
(dp1247
g66
(dp1248
sg75
g1233
sg68
(lp1249
g61
(g62
g63
NtRp1250
(dp1251
g66
(dp1252
g74
I5
ssg75
g1246
sg68
(lp1253
g61
(g70
g63
NtRp1254
(dp1255
g66
(dp1256
g74
I4
ssg75
Nsg68
(lp1257
sbasbasbasbag61
(g77
g63
NtRp1258
(dp1259
g66
(dp1260
sg75
g71
sg68
(lp1261
g61
(g82
g63
NtRp1262
(dp1263
g66
(dp1264
g86
g87
ssg75
g1258
sg68
(lp1265
S'global_settings'
p1266
asbag61
(g82
g63
NtRp1267
(dp1268
g66
(dp1269
g93
g94
ssg75
g1258
sg68
(lp1270
S':'
asbag61
(g82
g63
NtRp1271
(dp1272
g66
(dp1273
sg75
g1258
sg68
(lp1274
g61
(g62
g63
NtRp1275
(dp1276
g66
(dp1277
g74
I5
ssg75
g1271
sg68
(lp1278
g61
(g70
g63
NtRp1279
(dp1280
g66
(dp1281
g74
I4
ssg75
Nsg68
(lp1282
g61
(g77
g63
NtRp1283
(dp1284
g66
(dp1285
sg75
g1279
sg68
(lp1286
g61
(g82
g63
NtRp1287
(dp1288
g66
(dp1289
g86
g87
ssg75
g1283
sg68
(lp1290
g275
asbag61
(g82
g63
NtRp1291
(dp1292
g66
(dp1293
g93
g94
ssg75
g1283
sg68
(lp1294
S':'
asbag61
(g82
g63
NtRp1295
(dp1296
g66
(dp1297
sg75
g1283
sg68
(lp1298
g61
(g62
g63
NtRp1299
(dp1300
g66
(dp1301
g74
I4
ssg75
g1295
sg68
(lp1302
S"set(['C:\\\\Users\\\\Bussiere\\\\Dropbox\\\\Projets\\\\jackpoint\\\\web2py\\\\applications\\\\init\\\\', 'C:\\\\Users\\\\Bussiere\\\\Dropbox\\\\Projets\\\\jackpoint\\\\web2py\\\\applications\\\\admin\\\\'])"
p1303
asbasbasbag61
(g77
g63
NtRp1304
(dp1305
g66
(dp1306
sg75
g1279
sg68
(lp1307
g61
(g82
g63
NtRp1308
(dp1309
g66
(dp1310
g86
g87
ssg75
g1304
sg68
(lp1311
g297
asbag61
(g82
g63
NtRp1312
(dp1313
g66
(dp1314
g93
g94
ssg75
g1304
sg68
(lp1315
S':'
asbag61
(g82
g63
NtRp1316
(dp1317
g66
(dp1318
sg75
g1304
sg68
(lp1319
g61
(g62
g63
NtRp1320
(dp1321
g66
(dp1322
g74
I4
ssg75
g1316
sg68
(lp1323
g310
asbasbasbag61
(g77
g63
NtRp1324
(dp1325
g66
(dp1326
sg75
g1279
sg68
(lp1327
g61
(g82
g63
NtRp1328
(dp1329
g66
(dp1330
g86
g87
ssg75
g1324
sg68
(lp1331
g319
asbag61
(g82
g63
NtRp1332
(dp1333
g66
(dp1334
g93
g94
ssg75
g1324
sg68
(lp1335
S':'
asbag61
(g82
g63
NtRp1336
(dp1337
g66
(dp1338
sg75
g1324
sg68
(lp1339
g61
(g62
g63
NtRp1340
(dp1341
g66
(dp1342
g74
I4
ssg75
g1336
sg68
(lp1343
g61
(g70
g63
NtRp1344
(dp1345
g66
(dp1346
g74
I3
ssg75
Nsg68
(lp1347
sbasbasbasbag61
(g77
g63
NtRp1348
(dp1349
g66
(dp1350
sg75
g1279
sg68
(lp1351
g61
(g82
g63
NtRp1352
(dp1353
g66
(dp1354
g86
g87
ssg75
g1348
sg68
(lp1355
g344
asbag61
(g82
g63
NtRp1356
(dp1357
g66
(dp1358
g93
g94
ssg75
g1348
sg68
(lp1359
S':'
asbag61
(g82
g63
NtRp1360
(dp1361
g66
(dp1362
sg75
g1348
sg68
(lp1363
g61
(g62
g63
NtRp1364
(dp1365
g66
(dp1366
g74
I4
ssg75
g1360
sg68
(lp1367
S"<Values at 0x3be5fa8: {'verbose': False, 'ip': '127.0.0.1', 'shutdown_timeout': 5, 'taskbar': False, 'nocron': False, 'pid_filename': 'httpserver.pid', 'maxthreads': None, 'softcron': False, 'server_name': 'Batou', 'bpython': False, 'nogui': False, 'port': 8000, 'extcron': False, 'debuglevel': 30, 'test': None, 'folder': 'C:\\\\Users\\\\Bussiere\\\\Dropbox\\\\Projets\\\\jackpoint\\\\web2py', 'config': '', 'import_models': False, 'winservice': '', 'shell': None, 'run': '', 'log_filename': 'httpserver.log', 'args': [''], 'socket_timeout': 5, 'ssl_ca_certificate': None, 'scheduler': None, 'profiler_filename': None, 'ssl_private_key': '', 'password': '<ask>', 'request_queue_size': 5, 'ssl_certificate': '', 'cronjob': False, 'numthreads': None, 'quiet': False, 'interfaces': None, 'minthreads': None, 'timeout': 10, 'plain': False, 'nobanner': False}>"
p1368
asbasbasbag61
(g77
g63
NtRp1369
(dp1370
g66
(dp1371
sg75
g1279
sg68
(lp1372
g61
(g82
g63
NtRp1373
(dp1374
g66
(dp1375
g86
g87
ssg75
g1369
sg68
(lp1376
g366
asbag61
(g82
g63
NtRp1377
(dp1378
g66
(dp1379
g93
g94
ssg75
g1369
sg68
(lp1380
S':'
asbag61
(g82
g63
NtRp1381
(dp1382
g66
(dp1383
sg75
g1369
sg68
(lp1384
g61
(g62
g63
NtRp1385
(dp1386
g66
(dp1387
g74
I4
ssg75
g1381
sg68
(lp1388
S"set(['init'])"
p1389
asbasbasbag61
(g77
g63
NtRp1390
(dp1391
g66
(dp1392
sg75
g1279
sg68
(lp1393
g61
(g82
g63
NtRp1394
(dp1395
g66
(dp1396
g86
g87
ssg75
g1390
sg68
(lp1397
g388
asbag61
(g82
g63
NtRp1398
(dp1399
g66
(dp1400
g93
g94
ssg75
g1390
sg68
(lp1401
S':'
asbag61
(g82
g63
NtRp1402
(dp1403
g66
(dp1404
sg75
g1390
sg68
(lp1405
g61
(g62
g63
NtRp1406
(dp1407
g66
(dp1408
g74
I4
ssg75
g1402
sg68
(lp1409
g401
asbasbasbag61
(g77
g63
NtRp1410
(dp1411
g66
(dp1412
sg75
g1279
sg68
(lp1413
g61
(g82
g63
NtRp1414
(dp1415
g66
(dp1416
g86
g87
ssg75
g1410
sg68
(lp1417
g410
asbag61
(g82
g63
NtRp1418
(dp1419
g66
(dp1420
g93
g94
ssg75
g1410
sg68
(lp1421
S':'
asbag61
(g82
g63
NtRp1422
(dp1423
g66
(dp1424
sg75
g1410
sg68
(lp1425
g61
(g62
g63
NtRp1426
(dp1427
g66
(dp1428
g74
I4
ssg75
g1422
sg68
(lp1429
g423
asbasbasbag61
(g77
g63
NtRp1430
(dp1431
g66
(dp1432
sg75
g1279
sg68
(lp1433
g61
(g82
g63
NtRp1434
(dp1435
g66
(dp1436
g86
g87
ssg75
g1430
sg68
(lp1437
g586
asbag61
(g82
g63
NtRp1438
(dp1439
g66
(dp1440
g93
g94
ssg75
g1430
sg68
(lp1441
S':'
asbag61
(g82
g63
NtRp1442
(dp1443
g66
(dp1444
sg75
g1430
sg68
(lp1445
g61
(g62
g63
NtRp1446
(dp1447
g66
(dp1448
g74
I4
ssg75
g1442
sg68
(lp1449
g104
asbasbasbag61
(g77
g63
NtRp1450
(dp1451
g66
(dp1452
sg75
g1279
sg68
(lp1453
g61
(g82
g63
NtRp1454
(dp1455
g66
(dp1456
g86
g87
ssg75
g1450
sg68
(lp1457
g607
asbag61
(g82
g63
NtRp1458
(dp1459
g66
(dp1460
g93
g94
ssg75
g1450
sg68
(lp1461
S':'
asbag61
(g82
g63
NtRp1462
(dp1463
g66
(dp1464
sg75
g1450
sg68
(lp1465
g61
(g62
g63
NtRp1466
(dp1467
g66
(dp1468
g74
I4
ssg75
g1462
sg68
(lp1469
g104
asbasbasbag61
(g77
g63
NtRp1470
(dp1471
g66
(dp1472
sg75
g1279
sg68
(lp1473
g61
(g82
g63
NtRp1474
(dp1475
g66
(dp1476
g86
g87
ssg75
g1470
sg68
(lp1477
g844
asbag61
(g82
g63
NtRp1478
(dp1479
g66
(dp1480
g93
g94
ssg75
g1470
sg68
(lp1481
S':'
asbag61
(g82
g63
NtRp1482
(dp1483
g66
(dp1484
sg75
g1470
sg68
(lp1485
g61
(g62
g63
NtRp1486
(dp1487
g66
(dp1488
g74
I4
ssg75
g1482
sg68
(lp1489
g857
asbasbasbag61
(g77
g63
NtRp1490
(dp1491
g66
(dp1492
sg75
g1279
sg68
(lp1493
g61
(g82
g63
NtRp1494
(dp1495
g66
(dp1496
g86
g87
ssg75
g1490
sg68
(lp1497
g887
asbag61
(g82
g63
NtRp1498
(dp1499
g66
(dp1500
g93
g94
ssg75
g1490
sg68
(lp1501
S':'
asbag61
(g82
g63
NtRp1502
(dp1503
g66
(dp1504
sg75
g1490
sg68
(lp1505
g61
(g62
g63
NtRp1506
(dp1507
g66
(dp1508
g74
I4
ssg75
g1502
sg68
(lp1509
g61
(g70
g63
NtRp1510
(dp1511
g66
(dp1512
g74
I3
ssg75
Nsg68
(lp1513
g61
(g77
g63
NtRp1514
(dp1515
g66
(dp1516
sg75
g1510
sg68
(lp1517
g61
(g82
g63
NtRp1518
(dp1519
g66
(dp1520
sg75
g1514
sg68
(lp1521
g61
(g62
g63
NtRp1522
(dp1523
g66
(dp1524
g74
I3
ssg75
g1518
sg68
(lp1525
S'1'
asbasbasbag61
(g77
g63
NtRp1526
(dp1527
g66
(dp1528
sg75
g1510
sg68
(lp1529
g61
(g82
g63
NtRp1530
(dp1531
g66
(dp1532
sg75
g1526
sg68
(lp1533
g61
(g62
g63
NtRp1534
(dp1535
g66
(dp1536
g74
I3
ssg75
g1530
sg68
(lp1537
S'99'
p1538
asbasbasbag61
(g77
g63
NtRp1539
(dp1540
g66
(dp1541
sg75
g1510
sg68
(lp1542
g61
(g82
g63
NtRp1543
(dp1544
g66
(dp1545
sg75
g1539
sg68
(lp1546
g61
(g62
g63
NtRp1547
(dp1548
g66
(dp1549
g74
I3
ssg75
g1543
sg68
(lp1550
S'7'
asbasbasbag61
(g77
g63
NtRp1551
(dp1552
g66
(dp1553
sg75
g1510
sg68
(lp1554
g61
(g82
g63
NtRp1555
(dp1556
g66
(dp1557
sg75
g1551
sg68
(lp1558
g61
(g62
g63
NtRp1559
(dp1560
g66
(dp1561
g74
I3
ssg75
g1555
sg68
(lp1562
S'datetime.datetime(2012, 3, 4, 22, 12, 8)'
p1563
asbasbasbag61
(g77
g63
NtRp1564
(dp1565
g66
(dp1566
sg75
g1510
sg68
(lp1567
g61
(g82
g63
NtRp1568
(dp1569
g66
(dp1570
sg75
g1564
sg68
(lp1571
g61
(g62
g63
NtRp1572
(dp1573
g66
(dp1574
g74
I3
ssg75
g1568
sg68
(lp1575
g966
asbasbasbasbasbasbasbasbasbasbasbag61
(g77
g63
NtRp1576
(dp1577
g66
(dp1578
sg75
g71
sg68
(lp1579
g61
(g82
g63
NtRp1580
(dp1581
g66
(dp1582
g86
g87
ssg75
g1576
sg68
(lp1583
S'is_https'
p1584
asbag61
(g82
g63
NtRp1585
(dp1586
g66
(dp1587
g93
g94
ssg75
g1576
sg68
(lp1588
S':'
asbag61
(g82
g63
NtRp1589
(dp1590
g66
(dp1591
sg75
g1576
sg68
(lp1592
g61
(g62
g63
NtRp1593
(dp1594
g66
(dp1595
g74
I5
ssg75
g1589
sg68
(lp1596
g104
asbasbasbag61
(g77
g63
NtRp1597
(dp1598
g66
(dp1599
sg75
g71
sg68
(lp1600
g61
(g82
g63
NtRp1601
(dp1602
g66
(dp1603
g86
g87
ssg75
g1597
sg68
(lp1604
S'is_local'
p1605
asbag61
(g82
g63
NtRp1606
(dp1607
g66
(dp1608
g93
g94
ssg75
g1597
sg68
(lp1609
S':'
asbag61
(g82
g63
NtRp1610
(dp1611
g66
(dp1612
sg75
g1597
sg68
(lp1613
g61
(g62
g63
NtRp1614
(dp1615
g66
(dp1616
g74
I5
ssg75
g1610
sg68
(lp1617
g401
asbasbasbag61
(g77
g63
NtRp1618
(dp1619
g66
(dp1620
sg75
g71
sg68
(lp1621
g61
(g82
g63
NtRp1622
(dp1623
g66
(dp1624
g86
g87
ssg75
g1618
sg68
(lp1625
S'is_restful'
p1626
asbag61
(g82
g63
NtRp1627
(dp1628
g66
(dp1629
g93
g94
ssg75
g1618
sg68
(lp1630
S':'
asbag61
(g82
g63
NtRp1631
(dp1632
g66
(dp1633
sg75
g1618
sg68
(lp1634
g61
(g62
g63
NtRp1635
(dp1636
g66
(dp1637
g74
I5
ssg75
g1631
sg68
(lp1638
g104
asbasbasbag61
(g77
g63
NtRp1639
(dp1640
g66
(dp1641
sg75
g71
sg68
(lp1642
g61
(g82
g63
NtRp1643
(dp1644
g66
(dp1645
g86
g87
ssg75
g1639
sg68
(lp1646
S'now'
p1647
asbag61
(g82
g63
NtRp1648
(dp1649
g66
(dp1650
g93
g94
ssg75
g1639
sg68
(lp1651
S':'
asbag61
(g82
g63
NtRp1652
(dp1653
g66
(dp1654
sg75
g1639
sg68
(lp1655
g61
(g62
g63
NtRp1656
(dp1657
g66
(dp1658
g74
I5
ssg75
g1652
sg68
(lp1659
S'datetime.datetime(2012, 3, 24, 23, 52, 42, 592000)'
p1660
asbasbasbag61
(g77
g63
NtRp1661
(dp1662
g66
(dp1663
sg75
g71
sg68
(lp1664
g61
(g82
g63
NtRp1665
(dp1666
g66
(dp1667
g86
g87
ssg75
g1661
sg68
(lp1668
S'post_vars'
p1669
asbag61
(g82
g63
NtRp1670
(dp1671
g66
(dp1672
g93
g94
ssg75
g1661
sg68
(lp1673
S':'
asbag61
(g82
g63
NtRp1674
(dp1675
g66
(dp1676
sg75
g1661
sg68
(lp1677
g61
(g62
g63
NtRp1678
(dp1679
g66
(dp1680
g74
I5
ssg75
g1674
sg68
(lp1681
g61
(g70
g63
NtRp1682
(dp1683
g66
(dp1684
g74
I4
ssg75
Nsg68
(lp1685
sbasbasbasbag61
(g77
g63
NtRp1686
(dp1687
g66
(dp1688
sg75
g71
sg68
(lp1689
g61
(g82
g63
NtRp1690
(dp1691
g66
(dp1692
g86
g87
ssg75
g1686
sg68
(lp1693
S'url'
p1694
asbag61
(g82
g63
NtRp1695
(dp1696
g66
(dp1697
g93
g94
ssg75
g1686
sg68
(lp1698
S':'
asbag61
(g82
g63
NtRp1699
(dp1700
g66
(dp1701
sg75
g1686
sg68
(lp1702
g61
(g62
g63
NtRp1703
(dp1704
g66
(dp1705
g74
I5
ssg75
g1699
sg68
(lp1706
S'/init/default/index'
p1707
asbasbasbag61
(g77
g63
NtRp1708
(dp1709
g66
(dp1710
sg75
g71
sg68
(lp1711
g61
(g82
g63
NtRp1712
(dp1713
g66
(dp1714
g86
g87
ssg75
g1708
sg68
(lp1715
S'utcnow'
p1716
asbag61
(g82
g63
NtRp1717
(dp1718
g66
(dp1719
g93
g94
ssg75
g1708
sg68
(lp1720
S':'
asbag61
(g82
g63
NtRp1721
(dp1722
g66
(dp1723
sg75
g1708
sg68
(lp1724
g61
(g62
g63
NtRp1725
(dp1726
g66
(dp1727
g74
I5
ssg75
g1721
sg68
(lp1728
S'datetime.datetime(2012, 3, 24, 22, 52, 42, 592000)'
p1729
asbasbasbag61
(g77
g63
NtRp1730
(dp1731
g66
(dp1732
sg75
g71
sg68
(lp1733
g61
(g82
g63
NtRp1734
(dp1735
g66
(dp1736
g86
g87
ssg75
g1730
sg68
(lp1737
S'uuid'
p1738
asbag61
(g82
g63
NtRp1739
(dp1740
g66
(dp1741
g93
g94
ssg75
g1730
sg68
(lp1742
S':'
asbag61
(g82
g63
NtRp1743
(dp1744
g66
(dp1745
sg75
g1730
sg68
(lp1746
g61
(g62
g63
NtRp1747
(dp1748
g66
(dp1749
g74
I5
ssg75
g1743
sg68
(lp1750
S'init/127.0.0.1.2012-03-24.23-52-42.8eddbb01-17e3-433e-a897-ac1d07dfe319'
p1751
asbasbasbag61
(g77
g63
NtRp1752
(dp1753
g66
(dp1754
sg75
g71
sg68
(lp1755
g61
(g82
g63
NtRp1756
(dp1757
g66
(dp1758
g86
g87
ssg75
g1752
sg68
(lp1759
S'vars'
p1760
asbag61
(g82
g63
NtRp1761
(dp1762
g66
(dp1763
g93
g94
ssg75
g1752
sg68
(lp1764
S':'
asbag61
(g82
g63
NtRp1765
(dp1766
g66
(dp1767
sg75
g1752
sg68
(lp1768
g61
(g62
g63
NtRp1769
(dp1770
g66
(dp1771
g74
I5
ssg75
g1765
sg68
(lp1772
g61
(g70
g63
NtRp1773
(dp1774
g66
(dp1775
g74
I4
ssg75
Nsg68
(lp1776
sbasbasbasbag61
(g77
g63
NtRp1777
(dp1778
g66
(dp1779
sg75
g71
sg68
(lp1780
g61
(g82
g63
NtRp1781
(dp1782
g66
(dp1783
g86
g87
ssg75
g1777
sg68
(lp1784
S'wsgi'
p1785
asbag61
(g82
g63
NtRp1786
(dp1787
g66
(dp1788
g93
g94
ssg75
g1777
sg68
(lp1789
S':'
asbag61
(g82
g63
NtRp1790
(dp1791
g66
(dp1792
sg75
g1777
sg68
(lp1793
g61
(g62
g63
NtRp1794
(dp1795
g66
(dp1796
g74
I5
ssg75
g1790
sg68
(lp1797
g61
(g70
g63
NtRp1798
(dp1799
g66
(dp1800
g74
I4
ssg75
Nsg68
(lp1801
g61
(g77
g63
NtRp1802
(dp1803
g66
(dp1804
sg75
g1798
sg68
(lp1805
g61
(g82
g63
NtRp1806
(dp1807
g66
(dp1808
g86
g87
ssg75
g1802
sg68
(lp1809
S'environ'
p1810
asbag61
(g82
g63
NtRp1811
(dp1812
g66
(dp1813
g93
g94
ssg75
g1802
sg68
(lp1814
S':'
asbag61
(g82
g63
NtRp1815
(dp1816
g66
(dp1817
sg75
g1802
sg68
(lp1818
g61
(g62
g63
NtRp1819
(dp1820
g66
(dp1821
g74
I4
ssg75
g1815
sg68
(lp1822
g61
(g70
g63
NtRp1823
(dp1824
g66
(dp1825
g74
I3
ssg75
Nsg68
(lp1826
g61
(g77
g63
NtRp1827
(dp1828
g66
(dp1829
sg75
g1823
sg68
(lp1830
g61
(g82
g63
NtRp1831
(dp1832
g66
(dp1833
g86
g87
ssg75
g1827
sg68
(lp1834
S'HTTP_ACCEPT'
p1835
asbag61
(g82
g63
NtRp1836
(dp1837
g66
(dp1838
g93
g94
ssg75
g1827
sg68
(lp1839
S':'
asbag61
(g82
g63
NtRp1840
(dp1841
g66
(dp1842
sg75
g1827
sg68
(lp1843
g61
(g62
g63
NtRp1844
(dp1845
g66
(dp1846
g74
I3
ssg75
g1840
sg68
(lp1847
g445
asbasbasbag61
(g77
g63
NtRp1848
(dp1849
g66
(dp1850
sg75
g1823
sg68
(lp1851
g61
(g82
g63
NtRp1852
(dp1853
g66
(dp1854
g86
g87
ssg75
g1848
sg68
(lp1855
S'HTTP_ACCEPT_CHARSET'
p1856
asbag61
(g82
g63
NtRp1857
(dp1858
g66
(dp1859
g93
g94
ssg75
g1848
sg68
(lp1860
S':'
asbag61
(g82
g63
NtRp1861
(dp1862
g66
(dp1863
sg75
g1848
sg68
(lp1864
g61
(g62
g63
NtRp1865
(dp1866
g66
(dp1867
g74
I3
ssg75
g1861
sg68
(lp1868
g467
asbasbasbag61
(g77
g63
NtRp1869
(dp1870
g66
(dp1871
sg75
g1823
sg68
(lp1872
g61
(g82
g63
NtRp1873
(dp1874
g66
(dp1875
g86
g87
ssg75
g1869
sg68
(lp1876
S'HTTP_ACCEPT_ENCODING'
p1877
asbag61
(g82
g63
NtRp1878
(dp1879
g66
(dp1880
g93
g94
ssg75
g1869
sg68
(lp1881
S':'
asbag61
(g82
g63
NtRp1882
(dp1883
g66
(dp1884
sg75
g1869
sg68
(lp1885
g61
(g62
g63
NtRp1886
(dp1887
g66
(dp1888
g74
I3
ssg75
g1882
sg68
(lp1889
g489
asbasbasbag61
(g77
g63
NtRp1890
(dp1891
g66
(dp1892
sg75
g1823
sg68
(lp1893
g61
(g82
g63
NtRp1894
(dp1895
g66
(dp1896
g86
g87
ssg75
g1890
sg68
(lp1897
S'HTTP_ACCEPT_LANGUAGE'
p1898
asbag61
(g82
g63
NtRp1899
(dp1900
g66
(dp1901
g93
g94
ssg75
g1890
sg68
(lp1902
S':'
asbag61
(g82
g63
NtRp1903
(dp1904
g66
(dp1905
sg75
g1890
sg68
(lp1906
g61
(g62
g63
NtRp1907
(dp1908
g66
(dp1909
g74
I3
ssg75
g1903
sg68
(lp1910
g511
asbasbasbag61
(g77
g63
NtRp1911
(dp1912
g66
(dp1913
sg75
g1823
sg68
(lp1914
g61
(g82
g63
NtRp1915
(dp1916
g66
(dp1917
g86
g87
ssg75
g1911
sg68
(lp1918
S'HTTP_CONNECTION'
p1919
asbag61
(g82
g63
NtRp1920
(dp1921
g66
(dp1922
g93
g94
ssg75
g1911
sg68
(lp1923
S':'
asbag61
(g82
g63
NtRp1924
(dp1925
g66
(dp1926
sg75
g1911
sg68
(lp1927
g61
(g62
g63
NtRp1928
(dp1929
g66
(dp1930
g74
I3
ssg75
g1924
sg68
(lp1931
g533
asbasbasbag61
(g77
g63
NtRp1932
(dp1933
g66
(dp1934
sg75
g1823
sg68
(lp1935
g61
(g82
g63
NtRp1936
(dp1937
g66
(dp1938
g86
g87
ssg75
g1932
sg68
(lp1939
S'HTTP_HOST'
p1940
asbag61
(g82
g63
NtRp1941
(dp1942
g66
(dp1943
g93
g94
ssg75
g1932
sg68
(lp1944
S':'
asbag61
(g82
g63
NtRp1945
(dp1946
g66
(dp1947
sg75
g1932
sg68
(lp1948
g61
(g62
g63
NtRp1949
(dp1950
g66
(dp1951
g74
I3
ssg75
g1945
sg68
(lp1952
g555
asbasbasbag61
(g77
g63
NtRp1953
(dp1954
g66
(dp1955
sg75
g1823
sg68
(lp1956
g61
(g82
g63
NtRp1957
(dp1958
g66
(dp1959
g86
g87
ssg75
g1953
sg68
(lp1960
S'HTTP_USER_AGENT'
p1961
asbag61
(g82
g63
NtRp1962
(dp1963
g66
(dp1964
g93
g94
ssg75
g1953
sg68
(lp1965
S':'
asbag61
(g82
g63
NtRp1966
(dp1967
g66
(dp1968
sg75
g1953
sg68
(lp1969
g61
(g62
g63
NtRp1970
(dp1971
g66
(dp1972
g74
I3
ssg75
g1966
sg68
(lp1973
g577
asbasbasbag61
(g77
g63
NtRp1974
(dp1975
g66
(dp1976
sg75
g1823
sg68
(lp1977
g61
(g82
g63
NtRp1978
(dp1979
g66
(dp1980
g86
g87
ssg75
g1974
sg68
(lp1981
S'PATH_INFO'
p1982
asbag61
(g82
g63
NtRp1983
(dp1984
g66
(dp1985
g93
g94
ssg75
g1974
sg68
(lp1986
S':'
asbag61
(g82
g63
NtRp1987
(dp1988
g66
(dp1989
sg75
g1974
sg68
(lp1990
g61
(g62
g63
NtRp1991
(dp1992
g66
(dp1993
g74
I3
ssg75
g1987
sg68
(lp1994
S'/'
asbasbasbag61
(g77
g63
NtRp1995
(dp1996
g66
(dp1997
sg75
g1823
sg68
(lp1998
g61
(g82
g63
NtRp1999
(dp2000
g66
(dp2001
g86
g87
ssg75
g1995
sg68
(lp2002
S'QUERY_STRING'
p2003
asbag61
(g82
g63
NtRp2004
(dp2005
g66
(dp2006
g93
g94
ssg75
g1995
sg68
(lp2007
S':'
asbag61
(g82
g63
NtRp2008
(dp2009
g66
(dp2010
sg75
g1995
sg68
(lp2011
g61
(g62
g63
NtRp2012
(dp2013
g66
(dp2014
g74
I3
ssg75
g2008
sg68
(lp2015
S''
asbasbasbag61
(g77
g63
NtRp2016
(dp2017
g66
(dp2018
sg75
g1823
sg68
(lp2019
g61
(g82
g63
NtRp2020
(dp2021
g66
(dp2022
g86
g87
ssg75
g2016
sg68
(lp2023
S'REMOTE_ADDR'
p2024
asbag61
(g82
g63
NtRp2025
(dp2026
g66
(dp2027
g93
g94
ssg75
g2016
sg68
(lp2028
S':'
asbag61
(g82
g63
NtRp2029
(dp2030
g66
(dp2031
sg75
g2016
sg68
(lp2032
g61
(g62
g63
NtRp2033
(dp2034
g66
(dp2035
g74
I3
ssg75
g2029
sg68
(lp2036
g194
asbasbasbag61
(g77
g63
NtRp2037
(dp2038
g66
(dp2039
sg75
g1823
sg68
(lp2040
g61
(g82
g63
NtRp2041
(dp2042
g66
(dp2043
g86
g87
ssg75
g2037
sg68
(lp2044
S'REMOTE_PORT'
p2045
asbag61
(g82
g63
NtRp2046
(dp2047
g66
(dp2048
g93
g94
ssg75
g2037
sg68
(lp2049
S':'
asbag61
(g82
g63
NtRp2050
(dp2051
g66
(dp2052
sg75
g2037
sg68
(lp2053
g61
(g62
g63
NtRp2054
(dp2055
g66
(dp2056
g74
I3
ssg75
g2050
sg68
(lp2057
g704
asbasbasbag61
(g77
g63
NtRp2058
(dp2059
g66
(dp2060
sg75
g1823
sg68
(lp2061
g61
(g82
g63
NtRp2062
(dp2063
g66
(dp2064
g86
g87
ssg75
g2058
sg68
(lp2065
S'REQUEST_METHOD'
p2066
asbag61
(g82
g63
NtRp2067
(dp2068
g66
(dp2069
g93
g94
ssg75
g2058
sg68
(lp2070
S':'
asbag61
(g82
g63
NtRp2071
(dp2072
g66
(dp2073
sg75
g2058
sg68
(lp2074
g61
(g62
g63
NtRp2075
(dp2076
g66
(dp2077
g74
I3
ssg75
g2071
sg68
(lp2078
g726
asbasbasbag61
(g77
g63
NtRp2079
(dp2080
g66
(dp2081
sg75
g1823
sg68
(lp2082
g61
(g82
g63
NtRp2083
(dp2084
g66
(dp2085
g86
g87
ssg75
g2079
sg68
(lp2086
S'SCRIPT_NAME'
p2087
asbag61
(g82
g63
NtRp2088
(dp2089
g66
(dp2090
g93
g94
ssg75
g2079
sg68
(lp2091
S':'
asbag61
(g82
g63
NtRp2092
(dp2093
g66
(dp2094
sg75
g2079
sg68
(lp2095
g61
(g62
g63
NtRp2096
(dp2097
g66
(dp2098
g74
I3
ssg75
g2092
sg68
(lp2099
S''
asbasbasbag61
(g77
g63
NtRp2100
(dp2101
g66
(dp2102
sg75
g1823
sg68
(lp2103
g61
(g82
g63
NtRp2104
(dp2105
g66
(dp2106
g86
g87
ssg75
g2100
sg68
(lp2107
S'SERVER_NAME'
p2108
asbag61
(g82
g63
NtRp2109
(dp2110
g66
(dp2111
g93
g94
ssg75
g2100
sg68
(lp2112
S':'
asbag61
(g82
g63
NtRp2113
(dp2114
g66
(dp2115
sg75
g2100
sg68
(lp2116
g61
(g62
g63
NtRp2117
(dp2118
g66
(dp2119
g74
I3
ssg75
g2113
sg68
(lp2120
g769
asbasbasbag61
(g77
g63
NtRp2121
(dp2122
g66
(dp2123
sg75
g1823
sg68
(lp2124
g61
(g82
g63
NtRp2125
(dp2126
g66
(dp2127
g86
g87
ssg75
g2121
sg68
(lp2128
S'SERVER_PORT'
p2129
asbag61
(g82
g63
NtRp2130
(dp2131
g66
(dp2132
g93
g94
ssg75
g2121
sg68
(lp2133
S':'
asbag61
(g82
g63
NtRp2134
(dp2135
g66
(dp2136
sg75
g2121
sg68
(lp2137
g61
(g62
g63
NtRp2138
(dp2139
g66
(dp2140
g74
I3
ssg75
g2134
sg68
(lp2141
g791
asbasbasbag61
(g77
g63
NtRp2142
(dp2143
g66
(dp2144
sg75
g1823
sg68
(lp2145
g61
(g82
g63
NtRp2146
(dp2147
g66
(dp2148
g86
g87
ssg75
g2142
sg68
(lp2149
S'SERVER_PROTOCOL'
p2150
asbag61
(g82
g63
NtRp2151
(dp2152
g66
(dp2153
g93
g94
ssg75
g2142
sg68
(lp2154
S':'
asbag61
(g82
g63
NtRp2155
(dp2156
g66
(dp2157
sg75
g2142
sg68
(lp2158
g61
(g62
g63
NtRp2159
(dp2160
g66
(dp2161
g74
I3
ssg75
g2155
sg68
(lp2162
g813
asbasbasbag61
(g77
g63
NtRp2163
(dp2164
g66
(dp2165
sg75
g1823
sg68
(lp2166
g61
(g82
g63
NtRp2167
(dp2168
g66
(dp2169
g86
g87
ssg75
g2163
sg68
(lp2170
S'SERVER_SOFTWARE'
p2171
asbag61
(g82
g63
NtRp2172
(dp2173
g66
(dp2174
g93
g94
ssg75
g2163
sg68
(lp2175
S':'
asbag61
(g82
g63
NtRp2176
(dp2177
g66
(dp2178
sg75
g2163
sg68
(lp2179
g61
(g62
g63
NtRp2180
(dp2181
g66
(dp2182
g74
I3
ssg75
g2176
sg68
(lp2183
g835
asbasbasbag61
(g77
g63
NtRp2184
(dp2185
g66
(dp2186
sg75
g1823
sg68
(lp2187
g61
(g82
g63
NtRp2188
(dp2189
g66
(dp2190
g86
g87
ssg75
g2184
sg68
(lp2191
S'wsgi.errors'
p2192
asbag61
(g82
g63
NtRp2193
(dp2194
g66
(dp2195
g93
g94
ssg75
g2184
sg68
(lp2196
S':'
asbag61
(g82
g63
NtRp2197
(dp2198
g66
(dp2199
sg75
g2184
sg68
(lp2200
g61
(g62
g63
NtRp2201
(dp2202
g66
(dp2203
g74
I3
ssg75
g2197
sg68
(lp2204
S"<open file '<stderr>', mode 'w' at 0x002B00B0>"
p2205
asbasbasbag61
(g77
g63
NtRp2206
(dp2207
g66
(dp2208
sg75
g1823
sg68
(lp2209
g61
(g82
g63
NtRp2210
(dp2211
g66
(dp2212
g86
g87
ssg75
g2206
sg68
(lp2213
S'wsgi.file_wrapper'
p2214
asbag61
(g82
g63
NtRp2215
(dp2216
g66
(dp2217
g93
g94
ssg75
g2206
sg68
(lp2218
S':'
asbag61
(g82
g63
NtRp2219
(dp2220
g66
(dp2221
sg75
g2206
sg68
(lp2222
g61
(g62
g63
NtRp2223
(dp2224
g66
(dp2225
g74
I3
ssg75
g2219
sg68
(lp2226
S'<class wsgiref.util.FileWrapper at 0x02BF4900>'
p2227
asbasbasbag61
(g77
g63
NtRp2228
(dp2229
g66
(dp2230
sg75
g1823
sg68
(lp2231
g61
(g82
g63
NtRp2232
(dp2233
g66
(dp2234
g86
g87
ssg75
g2228
sg68
(lp2235
S'wsgi.input'
p2236
asbag61
(g82
g63
NtRp2237
(dp2238
g66
(dp2239
g93
g94
ssg75
g2228
sg68
(lp2240
S':'
asbag61
(g82
g63
NtRp2241
(dp2242
g66
(dp2243
sg75
g2228
sg68
(lp2244
g61
(g62
g63
NtRp2245
(dp2246
g66
(dp2247
g74
I3
ssg75
g2241
sg68
(lp2248
S'<cStringIO.StringO object at 0x076FE3C0>'
p2249
asbasbasbag61
(g77
g63
NtRp2250
(dp2251
g66
(dp2252
sg75
g1823
sg68
(lp2253
g61
(g82
g63
NtRp2254
(dp2255
g66
(dp2256
g86
g87
ssg75
g2250
sg68
(lp2257
S'wsgi.multiprocess'
p2258
asbag61
(g82
g63
NtRp2259
(dp2260
g66
(dp2261
g93
g94
ssg75
g2250
sg68
(lp2262
S':'
asbag61
(g82
g63
NtRp2263
(dp2264
g66
(dp2265
sg75
g2250
sg68
(lp2266
g61
(g62
g63
NtRp2267
(dp2268
g66
(dp2269
g74
I3
ssg75
g2263
sg68
(lp2270
g104
asbasbasbag61
(g77
g63
NtRp2271
(dp2272
g66
(dp2273
sg75
g1823
sg68
(lp2274
g61
(g82
g63
NtRp2275
(dp2276
g66
(dp2277
g86
g87
ssg75
g2271
sg68
(lp2278
S'wsgi.multithread'
p2279
asbag61
(g82
g63
NtRp2280
(dp2281
g66
(dp2282
g93
g94
ssg75
g2271
sg68
(lp2283
S':'
asbag61
(g82
g63
NtRp2284
(dp2285
g66
(dp2286
sg75
g2271
sg68
(lp2287
g61
(g62
g63
NtRp2288
(dp2289
g66
(dp2290
g74
I3
ssg75
g2284
sg68
(lp2291
g401
asbasbasbag61
(g77
g63
NtRp2292
(dp2293
g66
(dp2294
sg75
g1823
sg68
(lp2295
g61
(g82
g63
NtRp2296
(dp2297
g66
(dp2298
g86
g87
ssg75
g2292
sg68
(lp2299
S'wsgi.run_once'
p2300
asbag61
(g82
g63
NtRp2301
(dp2302
g66
(dp2303
g93
g94
ssg75
g2292
sg68
(lp2304
S':'
asbag61
(g82
g63
NtRp2305
(dp2306
g66
(dp2307
sg75
g2292
sg68
(lp2308
g61
(g62
g63
NtRp2309
(dp2310
g66
(dp2311
g74
I3
ssg75
g2305
sg68
(lp2312
g104
asbasbasbag61
(g77
g63
NtRp2313
(dp2314
g66
(dp2315
sg75
g1823
sg68
(lp2316
g61
(g82
g63
NtRp2317
(dp2318
g66
(dp2319
g86
g87
ssg75
g2313
sg68
(lp2320
S'wsgi.url_scheme'
p2321
asbag61
(g82
g63
NtRp2322
(dp2323
g66
(dp2324
g93
g94
ssg75
g2313
sg68
(lp2325
S':'
asbag61
(g82
g63
NtRp2326
(dp2327
g66
(dp2328
sg75
g2313
sg68
(lp2329
g61
(g62
g63
NtRp2330
(dp2331
g66
(dp2332
g74
I3
ssg75
g2326
sg68
(lp2333
g1117
asbasbasbag61
(g77
g63
NtRp2334
(dp2335
g66
(dp2336
sg75
g1823
sg68
(lp2337
g61
(g82
g63
NtRp2338
(dp2339
g66
(dp2340
g86
g87
ssg75
g2334
sg68
(lp2341
S'wsgi.version'
p2342
asbag61
(g82
g63
NtRp2343
(dp2344
g66
(dp2345
g93
g94
ssg75
g2334
sg68
(lp2346
S':'
asbag61
(g82
g63
NtRp2347
(dp2348
g66
(dp2349
sg75
g2334
sg68
(lp2350
g61
(g62
g63
NtRp2351
(dp2352
g66
(dp2353
g74
I3
ssg75
g2347
sg68
(lp2354
S'1'
asbasbasbasbasbasbasbasbasbasbasbasbasbsS'frames'
p2355
(lp2356
(dp2357
S'file'
p2358
S'C:\\Users\\Bussiere\\Dropbox\\Projets\\jackpoint\\web2py\\gluon\\restricted.py'
p2359
sS'dump'
p2360
(dp2361
sS'lnum'
p2362
I204
sS'lines'
p2363
(dp2364
I199
S"    environment['__name__'] = '__restricted__'"
p2365
sI200
S'    try:'
p2366
sI201
S'        if type(code) == types.CodeType:'
p2367
sI202
S'            ccode = code'
p2368
sI203
S'        else:'
p2369
sI204
S'            ccode = compile2(code,layer)'
p2370
sI205
S'        exec ccode in environment'
p2371
sI206
S'    except HTTP:'
p2372
sI207
S'        raise'
p2373
sI208
S'    except RestrictedError:'
p2374
ssS'call'
p2375
S"(code='# -*- coding: utf-8 -*-\\n# this file is released ...=crud())\\n\\nresponse._vars=response._caller(index)\\n', environment={'A': <class 'gluon.html.A'>, 'Auth': <class 'gluon.tools.Auth'>, 'AutocompleteWidget': <class 'gluon.sqlhtml.AutocompleteWidget'>, 'B': <class 'gluon.html.B'>, 'BEAUTIFY': <class 'gluon.html.BEAUTIFY'>, 'BODY': <class 'gluon.html.BODY'>, 'BR': <class 'gluon.html.BR'>, 'BUTTON': <class 'gluon.html.BUTTON'>, 'BooleanWidget': <class 'gluon.sqlhtml.BooleanWidget'>, 'CALLABLETYPES': (<type 'function'>, <type 'function'>, <type 'builtin_function_or_method'>, <type 'instancemethod'>, <type 'builtin_function_or_method'>), ...}, layer=r'C:\\Users\\Bussiere\\Dropbox\\Projets\\jackpoint\\web2py\\applications\\init\\controllers/default.py')"
p2376
sS'func'
p2377
S'restricted'
p2378
sa(dp2379
g2358
S'C:\\Users\\Bussiere\\Dropbox\\Projets\\jackpoint\\web2py\\gluon\\restricted.py'
p2380
sg2360
(dp2381
sg2362
I189
sg2363
(dp2382
I192
S'    """'
p2383
sI193
S'    runs code in environment and returns the output. if an exception occurs'
p2384
sI184
S''
sI185
S'def compile2(code,layer):'
p2385
sI186
S'    """'
p2386
sI187
S"    The +'\\n' is necessary else compile fails when code ends in a comment."
p2387
sI188
S'    """'
p2388
sI189
S"    return compile(code.rstrip().replace('\\r\\n','\\n')+'\\n', layer, 'exec')"
p2389
sI190
S''
sI191
S"def restricted(code, environment=None, layer='Unknown'):"
p2390
ssg2375
S"(code='# -*- coding: utf-8 -*-\\n# this file is released ...=crud())\\n\\nresponse._vars=response._caller(index)\\n', layer=r'C:\\Users\\Bussiere\\Dropbox\\Projets\\jackpoint\\web2py\\applications\\init\\controllers/default.py')"
p2391
sg2377
S'compile2'
p2392
sasS'pyver'
p2393
S'Python 2.5.4: C:\\Users\\Bussiere\\Dropbox\\Projets\\jackpoint\\web2py\\web2py.exe'
p2394
sS'session'
p2395
g61
(g62
g63
NtRp2396
(dp2397
g66
(dp2398
sg68
(lp2399
g61
(g70
g63
NtRp2400
(dp2401
g66
(dp2402
g74
I5
ssg75
Nsg68
(lp2403
sbasbsS'etype'
p2404
S"<type 'exceptions.SyntaxError'>"
p2405
sS'date'
p2406
S'Sat Mar 24 23:52:43 2012'
p2407
sS'response'
p2408
g61
(g62
g63
NtRp2409
(dp2410
g66
(dp2411
sg68
(lp2412
g61
(g70
g63
NtRp2413
(dp2414
g66
(dp2415
g74
I5
ssg75
Nsg68
(lp2416
g61
(g77
g63
NtRp2417
(dp2418
g66
(dp2419
sg75
g2413
sg68
(lp2420
g61
(g82
g63
NtRp2421
(dp2422
g66
(dp2423
g86
g87
ssg75
g2417
sg68
(lp2424
g159
asbag61
(g82
g63
NtRp2425
(dp2426
g66
(dp2427
g93
g94
ssg75
g2417
sg68
(lp2428
S':'
asbag61
(g82
g63
NtRp2429
(dp2430
g66
(dp2431
sg75
g2417
sg68
(lp2432
g61
(g62
g63
NtRp2433
(dp2434
g66
(dp2435
g74
I5
ssg75
g2429
sg68
(lp2436
S'<cStringIO.StringO object at 0x072BF1C0>'
p2437
asbasbasbag61
(g77
g63
NtRp2438
(dp2439
g66
(dp2440
sg75
g2413
sg68
(lp2441
g61
(g82
g63
NtRp2442
(dp2443
g66
(dp2444
g86
g87
ssg75
g2438
sg68
(lp2445
g225
asbag61
(g82
g63
NtRp2446
(dp2447
g66
(dp2448
g93
g94
ssg75
g2438
sg68
(lp2449
S':'
asbag61
(g82
g63
NtRp2450
(dp2451
g66
(dp2452
sg75
g2438
sg68
(lp2453
g61
(g62
g63
NtRp2454
(dp2455
g66
(dp2456
g74
I5
ssg75
g2450
sg68
(lp2457
g61
(g70
g63
NtRp2458
(dp2459
g66
(dp2460
g74
I4
ssg75
Nsg68
(lp2461
g61
(g77
g63
NtRp2462
(dp2463
g66
(dp2464
sg75
g2458
sg68
(lp2465
g61
(g82
g63
NtRp2466
(dp2467
g66
(dp2468
g86
g87
ssg75
g2462
sg68
(lp2469
S'session_id_init'
p2470
asbag61
(g82
g63
NtRp2471
(dp2472
g66
(dp2473
g93
g94
ssg75
g2462
sg68
(lp2474
S':'
asbag61
(g82
g63
NtRp2475
(dp2476
g66
(dp2477
sg75
g2462
sg68
(lp2478
g61
(g62
g63
NtRp2479
(dp2480
g66
(dp2481
g74
I4
ssg75
g2475
sg68
(lp2482
g61
(g70
g63
NtRp2483
(dp2484
g66
(dp2485
g74
I3
ssg75
Nsg68
(lp2486
g61
(g77
g63
NtRp2487
(dp2488
g66
(dp2489
sg75
g2483
sg68
(lp2490
g61
(g82
g63
NtRp2491
(dp2492
g66
(dp2493
g86
g87
ssg75
g2487
sg68
(lp2494
S'comment'
p2495
asbag61
(g82
g63
NtRp2496
(dp2497
g66
(dp2498
g93
g94
ssg75
g2487
sg68
(lp2499
S':'
asbag61
(g82
g63
NtRp2500
(dp2501
g66
(dp2502
sg75
g2487
sg68
(lp2503
g61
(g62
g63
NtRp2504
(dp2505
g66
(dp2506
g74
I3
ssg75
g2500
sg68
(lp2507
S''
asbasbasbag61
(g77
g63
NtRp2508
(dp2509
g66
(dp2510
sg75
g2483
sg68
(lp2511
g61
(g82
g63
NtRp2512
(dp2513
g66
(dp2514
g86
g87
ssg75
g2508
sg68
(lp2515
S'domain'
p2516
asbag61
(g82
g63
NtRp2517
(dp2518
g66
(dp2519
g93
g94
ssg75
g2508
sg68
(lp2520
S':'
asbag61
(g82
g63
NtRp2521
(dp2522
g66
(dp2523
sg75
g2508
sg68
(lp2524
g61
(g62
g63
NtRp2525
(dp2526
g66
(dp2527
g74
I3
ssg75
g2521
sg68
(lp2528
S''
asbasbasbag61
(g77
g63
NtRp2529
(dp2530
g66
(dp2531
sg75
g2483
sg68
(lp2532
g61
(g82
g63
NtRp2533
(dp2534
g66
(dp2535
g86
g87
ssg75
g2529
sg68
(lp2536
S'expires'
p2537
asbag61
(g82
g63
NtRp2538
(dp2539
g66
(dp2540
g93
g94
ssg75
g2529
sg68
(lp2541
S':'
asbag61
(g82
g63
NtRp2542
(dp2543
g66
(dp2544
sg75
g2529
sg68
(lp2545
g61
(g62
g63
NtRp2546
(dp2547
g66
(dp2548
g74
I3
ssg75
g2542
sg68
(lp2549
S''
asbasbasbag61
(g77
g63
NtRp2550
(dp2551
g66
(dp2552
sg75
g2483
sg68
(lp2553
g61
(g82
g63
NtRp2554
(dp2555
g66
(dp2556
g86
g87
ssg75
g2550
sg68
(lp2557
S'max-age'
p2558
asbag61
(g82
g63
NtRp2559
(dp2560
g66
(dp2561
g93
g94
ssg75
g2550
sg68
(lp2562
S':'
asbag61
(g82
g63
NtRp2563
(dp2564
g66
(dp2565
sg75
g2550
sg68
(lp2566
g61
(g62
g63
NtRp2567
(dp2568
g66
(dp2569
g74
I3
ssg75
g2563
sg68
(lp2570
S''
asbasbasbag61
(g77
g63
NtRp2571
(dp2572
g66
(dp2573
sg75
g2483
sg68
(lp2574
g61
(g82
g63
NtRp2575
(dp2576
g66
(dp2577
g86
g87
ssg75
g2571
sg68
(lp2578
S'path'
p2579
asbag61
(g82
g63
NtRp2580
(dp2581
g66
(dp2582
g93
g94
ssg75
g2571
sg68
(lp2583
S':'
asbag61
(g82
g63
NtRp2584
(dp2585
g66
(dp2586
sg75
g2571
sg68
(lp2587
g61
(g62
g63
NtRp2588
(dp2589
g66
(dp2590
g74
I3
ssg75
g2584
sg68
(lp2591
S'/'
asbasbasbag61
(g77
g63
NtRp2592
(dp2593
g66
(dp2594
sg75
g2483
sg68
(lp2595
g61
(g82
g63
NtRp2596
(dp2597
g66
(dp2598
g86
g87
ssg75
g2592
sg68
(lp2599
S'secure'
p2600
asbag61
(g82
g63
NtRp2601
(dp2602
g66
(dp2603
g93
g94
ssg75
g2592
sg68
(lp2604
S':'
asbag61
(g82
g63
NtRp2605
(dp2606
g66
(dp2607
sg75
g2592
sg68
(lp2608
g61
(g62
g63
NtRp2609
(dp2610
g66
(dp2611
g74
I3
ssg75
g2605
sg68
(lp2612
S''
asbasbasbag61
(g77
g63
NtRp2613
(dp2614
g66
(dp2615
sg75
g2483
sg68
(lp2616
g61
(g82
g63
NtRp2617
(dp2618
g66
(dp2619
g86
g87
ssg75
g2613
sg68
(lp2620
S'version'
p2621
asbag61
(g82
g63
NtRp2622
(dp2623
g66
(dp2624
g93
g94
ssg75
g2613
sg68
(lp2625
S':'
asbag61
(g82
g63
NtRp2626
(dp2627
g66
(dp2628
sg75
g2613
sg68
(lp2629
g61
(g62
g63
NtRp2630
(dp2631
g66
(dp2632
g74
I3
ssg75
g2626
sg68
(lp2633
S''
asbasbasbasbasbasbasbasbasbasbasbag61
(g77
g63
NtRp2634
(dp2635
g66
(dp2636
sg75
g2413
sg68
(lp2637
g61
(g82
g63
NtRp2638
(dp2639
g66
(dp2640
g86
g87
ssg75
g2634
sg68
(lp2641
S'delimiters'
p2642
asbag61
(g82
g63
NtRp2643
(dp2644
g66
(dp2645
g93
g94
ssg75
g2634
sg68
(lp2646
S':'
asbag61
(g82
g63
NtRp2647
(dp2648
g66
(dp2649
sg75
g2634
sg68
(lp2650
g61
(g62
g63
NtRp2651
(dp2652
g66
(dp2653
g74
I5
ssg75
g2647
sg68
(lp2654
g61
(g70
g63
NtRp2655
(dp2656
g66
(dp2657
g74
I4
ssg75
Nsg68
(lp2658
g61
(g77
g63
NtRp2659
(dp2660
g66
(dp2661
sg75
g2655
sg68
(lp2662
g61
(g82
g63
NtRp2663
(dp2664
g66
(dp2665
sg75
g2659
sg68
(lp2666
g61
(g62
g63
NtRp2667
(dp2668
g66
(dp2669
g74
I4
ssg75
g2663
sg68
(lp2670
S'{{'
p2671
asbasbasbag61
(g77
g63
NtRp2672
(dp2673
g66
(dp2674
sg75
g2655
sg68
(lp2675
g61
(g82
g63
NtRp2676
(dp2677
g66
(dp2678
sg75
g2672
sg68
(lp2679
g61
(g62
g63
NtRp2680
(dp2681
g66
(dp2682
g74
I4
ssg75
g2676
sg68
(lp2683
S'}}'
p2684
asbasbasbasbasbasbasbag61
(g77
g63
NtRp2685
(dp2686
g66
(dp2687
sg75
g2413
sg68
(lp2688
g61
(g82
g63
NtRp2689
(dp2690
g66
(dp2691
g86
g87
ssg75
g2685
sg68
(lp2692
S'files'
p2693
asbag61
(g82
g63
NtRp2694
(dp2695
g66
(dp2696
g93
g94
ssg75
g2685
sg68
(lp2697
S':'
asbag61
(g82
g63
NtRp2698
(dp2699
g66
(dp2700
sg75
g2685
sg68
(lp2701
g61
(g62
g63
NtRp2702
(dp2703
g66
(dp2704
g74
I5
ssg75
g2698
sg68
(lp2705
g61
(g70
g63
NtRp2706
(dp2707
g66
(dp2708
g74
I4
ssg75
Nsg68
(lp2709
sbasbasbasbag61
(g77
g63
NtRp2710
(dp2711
g66
(dp2712
sg75
g2413
sg68
(lp2713
g61
(g82
g63
NtRp2714
(dp2715
g66
(dp2716
g86
g87
ssg75
g2710
sg68
(lp2717
S'flash'
p2718
asbag61
(g82
g63
NtRp2719
(dp2720
g66
(dp2721
g93
g94
ssg75
g2710
sg68
(lp2722
S':'
asbag61
(g82
g63
NtRp2723
(dp2724
g66
(dp2725
sg75
g2710
sg68
(lp2726
g61
(g62
g63
NtRp2727
(dp2728
g66
(dp2729
g74
I5
ssg75
g2723
sg68
(lp2730
S''
asbasbasbag61
(g77
g63
NtRp2731
(dp2732
g66
(dp2733
sg75
g2413
sg68
(lp2734
g61
(g82
g63
NtRp2735
(dp2736
g66
(dp2737
g86
g87
ssg75
g2731
sg68
(lp2738
S'generic_patterns'
p2739
asbag61
(g82
g63
NtRp2740
(dp2741
g66
(dp2742
g93
g94
ssg75
g2731
sg68
(lp2743
S':'
asbag61
(g82
g63
NtRp2744
(dp2745
g66
(dp2746
sg75
g2731
sg68
(lp2747
g61
(g62
g63
NtRp2748
(dp2749
g66
(dp2750
g74
I5
ssg75
g2744
sg68
(lp2751
g61
(g70
g63
NtRp2752
(dp2753
g66
(dp2754
g74
I4
ssg75
Nsg68
(lp2755
g61
(g77
g63
NtRp2756
(dp2757
g66
(dp2758
sg75
g2752
sg68
(lp2759
g61
(g82
g63
NtRp2760
(dp2761
g66
(dp2762
sg75
g2756
sg68
(lp2763
g61
(g62
g63
NtRp2764
(dp2765
g66
(dp2766
g74
I4
ssg75
g2760
sg68
(lp2767
S'*'
asbasbasbasbasbasbasbag61
(g77
g63
NtRp2768
(dp2769
g66
(dp2770
sg75
g2413
sg68
(lp2771
g61
(g82
g63
NtRp2772
(dp2773
g66
(dp2774
g86
g87
ssg75
g2768
sg68
(lp2775
S'headers'
p2776
asbag61
(g82
g63
NtRp2777
(dp2778
g66
(dp2779
g93
g94
ssg75
g2768
sg68
(lp2780
S':'
asbag61
(g82
g63
NtRp2781
(dp2782
g66
(dp2783
sg75
g2768
sg68
(lp2784
g61
(g62
g63
NtRp2785
(dp2786
g66
(dp2787
g74
I5
ssg75
g2781
sg68
(lp2788
g61
(g70
g63
NtRp2789
(dp2790
g66
(dp2791
g74
I4
ssg75
Nsg68
(lp2792
g61
(g77
g63
NtRp2793
(dp2794
g66
(dp2795
sg75
g2789
sg68
(lp2796
g61
(g82
g63
NtRp2797
(dp2798
g66
(dp2799
g86
g87
ssg75
g2793
sg68
(lp2800
S'Cache-Control'
p2801
asbag61
(g82
g63
NtRp2802
(dp2803
g66
(dp2804
g93
g94
ssg75
g2793
sg68
(lp2805
S':'
asbag61
(g82
g63
NtRp2806
(dp2807
g66
(dp2808
sg75
g2793
sg68
(lp2809
g61
(g62
g63
NtRp2810
(dp2811
g66
(dp2812
g74
I4
ssg75
g2806
sg68
(lp2813
S'no-store, no-cache, must-revalidate, post-check=0, pre-check=0'
p2814
asbasbasbag61
(g77
g63
NtRp2815
(dp2816
g66
(dp2817
sg75
g2789
sg68
(lp2818
g61
(g82
g63
NtRp2819
(dp2820
g66
(dp2821
g86
g87
ssg75
g2815
sg68
(lp2822
S'Content-Type'
p2823
asbag61
(g82
g63
NtRp2824
(dp2825
g66
(dp2826
g93
g94
ssg75
g2815
sg68
(lp2827
S':'
asbag61
(g82
g63
NtRp2828
(dp2829
g66
(dp2830
sg75
g2815
sg68
(lp2831
g61
(g62
g63
NtRp2832
(dp2833
g66
(dp2834
g74
I4
ssg75
g2828
sg68
(lp2835
S'text/html; charset=utf-8'
p2836
asbasbasbag61
(g77
g63
NtRp2837
(dp2838
g66
(dp2839
sg75
g2789
sg68
(lp2840
g61
(g82
g63
NtRp2841
(dp2842
g66
(dp2843
g86
g87
ssg75
g2837
sg68
(lp2844
S'Expires'
p2845
asbag61
(g82
g63
NtRp2846
(dp2847
g66
(dp2848
g93
g94
ssg75
g2837
sg68
(lp2849
S':'
asbag61
(g82
g63
NtRp2850
(dp2851
g66
(dp2852
sg75
g2837
sg68
(lp2853
g61
(g62
g63
NtRp2854
(dp2855
g66
(dp2856
g74
I4
ssg75
g2850
sg68
(lp2857
S'Sat, 24 Mar 2012 22:52:42 GMT'
p2858
asbasbasbag61
(g77
g63
NtRp2859
(dp2860
g66
(dp2861
sg75
g2789
sg68
(lp2862
g61
(g82
g63
NtRp2863
(dp2864
g66
(dp2865
g86
g87
ssg75
g2859
sg68
(lp2866
S'Pragma'
p2867
asbag61
(g82
g63
NtRp2868
(dp2869
g66
(dp2870
g93
g94
ssg75
g2859
sg68
(lp2871
S':'
asbag61
(g82
g63
NtRp2872
(dp2873
g66
(dp2874
sg75
g2859
sg68
(lp2875
g61
(g62
g63
NtRp2876
(dp2877
g66
(dp2878
g74
I4
ssg75
g2872
sg68
(lp2879
S'no-cache'
p2880
asbasbasbag61
(g77
g63
NtRp2881
(dp2882
g66
(dp2883
sg75
g2789
sg68
(lp2884
g61
(g82
g63
NtRp2885
(dp2886
g66
(dp2887
g86
g87
ssg75
g2881
sg68
(lp2888
S'X-Powered-By'
p2889
asbag61
(g82
g63
NtRp2890
(dp2891
g66
(dp2892
g93
g94
ssg75
g2881
sg68
(lp2893
S':'
asbag61
(g82
g63
NtRp2894
(dp2895
g66
(dp2896
sg75
g2881
sg68
(lp2897
g61
(g62
g63
NtRp2898
(dp2899
g66
(dp2900
g74
I4
ssg75
g2894
sg68
(lp2901
S'web2py'
p2902
asbasbasbasbasbasbasbag61
(g77
g63
NtRp2903
(dp2904
g66
(dp2905
sg75
g2413
sg68
(lp2906
g61
(g82
g63
NtRp2907
(dp2908
g66
(dp2909
g86
g87
ssg75
g2903
sg68
(lp2910
S'menu'
p2911
asbag61
(g82
g63
NtRp2912
(dp2913
g66
(dp2914
g93
g94
ssg75
g2903
sg68
(lp2915
S':'
asbag61
(g82
g63
NtRp2916
(dp2917
g66
(dp2918
sg75
g2903
sg68
(lp2919
g61
(g62
g63
NtRp2920
(dp2921
g66
(dp2922
g74
I5
ssg75
g2916
sg68
(lp2923
g61
(g70
g63
NtRp2924
(dp2925
g66
(dp2926
g74
I4
ssg75
Nsg68
(lp2927
g61
(g77
g63
NtRp2928
(dp2929
g66
(dp2930
sg75
g2924
sg68
(lp2931
g61
(g82
g63
NtRp2932
(dp2933
g66
(dp2934
sg75
g2928
sg68
(lp2935
g61
(g62
g63
NtRp2936
(dp2937
g66
(dp2938
g74
I4
ssg75
g2932
sg68
(lp2939
g61
(g70
g63
NtRp2940
(dp2941
g66
(dp2942
g74
I3
ssg75
Nsg68
(lp2943
g61
(g77
g63
NtRp2944
(dp2945
g66
(dp2946
sg75
g2940
sg68
(lp2947
g61
(g82
g63
NtRp2948
(dp2949
g66
(dp2950
sg75
g2944
sg68
(lp2951
g61
(g62
g63
NtRp2952
(dp2953
g66
(dp2954
g74
I3
ssg75
g2948
sg68
(lp2955
cgluon.languages
lazyT_unpickle
p2956
(S's\x04\x00\x00\x00Home'
tRp2957
asbasbasbag61
(g77
g63
NtRp2958
(dp2959
g66
(dp2960
sg75
g2940
sg68
(lp2961
g61
(g82
g63
NtRp2962
(dp2963
g66
(dp2964
sg75
g2958
sg68
(lp2965
g61
(g62
g63
NtRp2966
(dp2967
g66
(dp2968
g74
I3
ssg75
g2962
sg68
(lp2969
g104
asbasbasbag61
(g77
g63
NtRp2970
(dp2971
g66
(dp2972
sg75
g2940
sg68
(lp2973
g61
(g82
g63
NtRp2974
(dp2975
g66
(dp2976
sg75
g2970
sg68
(lp2977
g61
(g62
g63
NtRp2978
(dp2979
g66
(dp2980
g74
I3
ssg75
g2974
sg68
(lp2981
S'/init/default/index'
p2982
asbasbasbag61
(g77
g63
NtRp2983
(dp2984
g66
(dp2985
sg75
g2940
sg68
(lp2986
g61
(g82
g63
NtRp2987
(dp2988
g66
(dp2989
sg75
g2983
sg68
(lp2990
g61
(g62
g63
NtRp2991
(dp2992
g66
(dp2993
g74
I3
ssg75
g2987
sg68
(lp2994
g61
(g70
g63
NtRp2995
(dp2996
g66
(dp2997
g74
I2
ssg75
Nsg68
(lp2998
sbasbasbasbasbasbasbasbag61
(g77
g63
NtRp2999
(dp3000
g66
(dp3001
sg75
g2924
sg68
(lp3002
g61
(g82
g63
NtRp3003
(dp3004
g66
(dp3005
sg75
g2999
sg68
(lp3006
g61
(g62
g63
NtRp3007
(dp3008
g66
(dp3009
g74
I4
ssg75
g3003
sg68
(lp3010
g61
(g70
g63
NtRp3011
(dp3012
g66
(dp3013
g74
I3
ssg75
Nsg68
(lp3014
g61
(g77
g63
NtRp3015
(dp3016
g66
(dp3017
sg75
g3011
sg68
(lp3018
g61
(g82
g63
NtRp3019
(dp3020
g66
(dp3021
sg75
g3015
sg68
(lp3022
g61
(g62
g63
NtRp3023
(dp3024
g66
(dp3025
g74
I3
ssg75
g3019
sg68
(lp3026
g61
(cgluon.html
SPAN
p3027
g63
NtRp3028
(dp3029
g66
(dp3030
g86
S'color:yellow'
p3031
ssg75
Nsg68
(lp3032
g2902
asbasbasbasbag61
(g77
g63
NtRp3033
(dp3034
g66
(dp3035
sg75
g3011
sg68
(lp3036
g61
(g82
g63
NtRp3037
(dp3038
g66
(dp3039
sg75
g3033
sg68
(lp3040
g61
(g62
g63
NtRp3041
(dp3042
g66
(dp3043
g74
I3
ssg75
g3037
sg68
(lp3044
g104
asbasbasbag61
(g77
g63
NtRp3045
(dp3046
g66
(dp3047
sg75
g3011
sg68
(lp3048
g61
(g82
g63
NtRp3049
(dp3050
g66
(dp3051
sg75
g3045
sg68
(lp3052
g61
(g62
g63
NtRp3053
(dp3054
g66
(dp3055
g74
I3
ssg75
g3049
sg68
(lp3056
S'None'
p3057
asbasbasbag61
(g77
g63
NtRp3058
(dp3059
g66
(dp3060
sg75
g3011
sg68
(lp3061
g61
(g82
g63
NtRp3062
(dp3063
g66
(dp3064
sg75
g3058
sg68
(lp3065
g61
(g62
g63
NtRp3066
(dp3067
g66
(dp3068
g74
I3
ssg75
g3062
sg68
(lp3069
g61
(g70
g63
NtRp3070
(dp3071
g66
(dp3072
g74
I2
ssg75
Nsg68
(lp3073
g61
(g77
g63
NtRp3074
(dp3075
g66
(dp3076
sg75
g3070
sg68
(lp3077
g61
(g82
g63
NtRp3078
(dp3079
g66
(dp3080
sg75
g3074
sg68
(lp3081
g61
(g62
g63
NtRp3082
(dp3083
g66
(dp3084
g74
I2
ssg75
g3078
sg68
(lp3085
g61
(g70
g63
NtRp3086
(dp3087
g66
(dp3088
g74
I1
ssg75
Nsg68
(lp3089
g61
(g77
g63
NtRp3090
(dp3091
g66
(dp3092
sg75
g3086
sg68
(lp3093
g61
(g82
g63
NtRp3094
(dp3095
g66
(dp3096
sg75
g3090
sg68
(lp3097
g61
(g62
g63
NtRp3098
(dp3099
g66
(dp3100
g74
I1
ssg75
g3094
sg68
(lp3101
g2956
(S's\x08\x00\x00\x00My Sites'
tRp3102
asbasbasbag61
(g77
g63
NtRp3103
(dp3104
g66
(dp3105
sg75
g3086
sg68
(lp3106
g61
(g82
g63
NtRp3107
(dp3108
g66
(dp3109
sg75
g3103
sg68
(lp3110
g61
(g62
g63
NtRp3111
(dp3112
g66
(dp3113
g74
I1
ssg75
g3107
sg68
(lp3114
I00
asbasbasbag61
(g77
g63
NtRp3115
(dp3116
g66
(dp3117
sg75
g3086
sg68
(lp3118
g61
(g82
g63
NtRp3119
(dp3120
g66
(dp3121
sg75
g3115
sg68
(lp3122
g61
(g62
g63
NtRp3123
(dp3124
g66
(dp3125
g74
I1
ssg75
g3119
sg68
(lp3126
S'/admin/default/site'
p3127
asbasbasbasbasbasbasbag61
(g77
g63
NtRp3128
(dp3129
g66
(dp3130
sg75
g3070
sg68
(lp3131
g61
(g82
g63
NtRp3132
(dp3133
g66
(dp3134
sg75
g3128
sg68
(lp3135
g61
(g62
g63
NtRp3136
(dp3137
g66
(dp3138
g74
I2
ssg75
g3132
sg68
(lp3139
g61
(g70
g63
NtRp3140
(dp3141
g66
(dp3142
g74
I1
ssg75
Nsg68
(lp3143
g61
(g77
g63
NtRp3144
(dp3145
g66
(dp3146
sg75
g3140
sg68
(lp3147
g61
(g82
g63
NtRp3148
(dp3149
g66
(dp3150
sg75
g3144
sg68
(lp3151
g61
(g62
g63
NtRp3152
(dp3153
g66
(dp3154
g74
I1
ssg75
g3148
sg68
(lp3155
g2956
(S's\x08\x00\x00\x00This App'
tRp3156
asbasbasbag61
(g77
g63
NtRp3157
(dp3158
g66
(dp3159
sg75
g3140
sg68
(lp3160
g61
(g82
g63
NtRp3161
(dp3162
g66
(dp3163
sg75
g3157
sg68
(lp3164
g61
(g62
g63
NtRp3165
(dp3166
g66
(dp3167
g74
I1
ssg75
g3161
sg68
(lp3168
I00
asbasbasbag61
(g77
g63
NtRp3169
(dp3170
g66
(dp3171
sg75
g3140
sg68
(lp3172
g61
(g82
g63
NtRp3173
(dp3174
g66
(dp3175
sg75
g3169
sg68
(lp3176
g61
(g62
g63
NtRp3177
(dp3178
g66
(dp3179
g74
I1
ssg75
g3173
sg68
(lp3180
S'/admin/default/design/init'
p3181
asbasbasbag61
(g77
g63
NtRp3182
(dp3183
g66
(dp3184
sg75
g3140
sg68
(lp3185
g61
(g82
g63
NtRp3186
(dp3187
g66
(dp3188
sg75
g3182
sg68
(lp3189
g61
(g62
g63
NtRp3190
(dp3191
g66
(dp3192
g74
I1
ssg75
g3186
sg68
(lp3193
(lp3194
(g2956
(S's\n\x00\x00\x00Controller'
tRp3195
I00
S'/admin/default/edit/init/controllers/default.py'
tp3196
a(g2956
(S's\x04\x00\x00\x00View'
tRp3197
I00
S'/admin/default/edit/init/views/default/index.html'
tp3198
a(g2956
(S's\x06\x00\x00\x00Layout'
tRp3199
I00
S'/admin/default/edit/init/views/layout.html'
tp3200
a(g2956
(S's\n\x00\x00\x00Stylesheet'
tRp3201
I00
S'/admin/default/edit/init/static/css/web2py.css'
tp3202
a(g2956
(S's\x08\x00\x00\x00DB Model'
tRp3203
I00
S'/admin/default/edit/init/models/db.py'
tp3204
a(g2956
(S's\n\x00\x00\x00Menu Model'
tRp3205
I00
S'/admin/default/edit/init/models/menu.py'
tp3206
a(g2956
(S's\x08\x00\x00\x00Database'
tRp3207
I00
S'/init/appadmin/index'
tp3208
a(g2956
(S's\x06\x00\x00\x00Errors'
tRp3209
I00
S'/admin/default/errors/init'
tp3210
a(g2956
(S's\x05\x00\x00\x00About'
tRp3211
I00
S'/admin/default/about/init'
tp3212
aasbasbasbasbasbasbasbag61
(g77
g63
NtRp3213
(dp3214
g66
(dp3215
sg75
g3070
sg68
(lp3216
g61
(g82
g63
NtRp3217
(dp3218
g66
(dp3219
sg75
g3213
sg68
(lp3220
g61
(g62
g63
NtRp3221
(dp3222
g66
(dp3223
g74
I2
ssg75
g3217
sg68
(lp3224
g61
(g70
g63
NtRp3225
(dp3226
g66
(dp3227
g74
I1
ssg75
Nsg68
(lp3228
g61
(g77
g63
NtRp3229
(dp3230
g66
(dp3231
sg75
g3225
sg68
(lp3232
g61
(g82
g63
NtRp3233
(dp3234
g66
(dp3235
sg75
g3229
sg68
(lp3236
g61
(g62
g63
NtRp3237
(dp3238
g66
(dp3239
g74
I1
ssg75
g3233
sg68
(lp3240
S'web2py.com'
p3241
asbasbasbag61
(g77
g63
NtRp3242
(dp3243
g66
(dp3244
sg75
g3225
sg68
(lp3245
g61
(g82
g63
NtRp3246
(dp3247
g66
(dp3248
sg75
g3242
sg68
(lp3249
g61
(g62
g63
NtRp3250
(dp3251
g66
(dp3252
g74
I1
ssg75
g3246
sg68
(lp3253
I00
asbasbasbag61
(g77
g63
NtRp3254
(dp3255
g66
(dp3256
sg75
g3225
sg68
(lp3257
g61
(g82
g63
NtRp3258
(dp3259
g66
(dp3260
sg75
g3254
sg68
(lp3261
g61
(g62
g63
NtRp3262
(dp3263
g66
(dp3264
g74
I1
ssg75
g3258
sg68
(lp3265
S'http://www.web2py.com'
p3266
asbasbasbag61
(g77
g63
NtRp3267
(dp3268
g66
(dp3269
sg75
g3225
sg68
(lp3270
g61
(g82
g63
NtRp3271
(dp3272
g66
(dp3273
sg75
g3267
sg68
(lp3274
g61
(g62
g63
NtRp3275
(dp3276
g66
(dp3277
g74
I1
ssg75
g3271
sg68
(lp3278
(lp3279
(g2956
(S's\x08\x00\x00\x00Download'
tRp3280
I00
S'http://www.web2py.com/examples/default/download'
p3281
tp3282
a(g2956
(S's\x07\x00\x00\x00Support'
tRp3283
I00
S'http://www.web2py.com/examples/default/support'
p3284
tp3285
a(g2956
(S's\x04\x00\x00\x00Demo'
tRp3286
I00
S'http://web2py.com/demo_admin'
p3287
tp3288
a(g2956
(S's\x0e\x00\x00\x00Quick Examples'
tRp3289
I00
S'http://web2py.com/examples/default/examples'
p3290
tp3291
a(g2956
(S's\x03\x00\x00\x00FAQ'
tRp3292
I00
S'http://web2py.com/AlterEgo'
p3293
tp3294
a(g2956
(S's\x06\x00\x00\x00Videos'
tRp3295
I00
S'http://www.web2py.com/examples/default/videos/'
p3296
tp3297
a(g2956
(S's\x11\x00\x00\x00Free Applications'
tRp3298
I00
S'http://web2py.com/appliances'
p3299
tp3300
a(g2956
(S's\x07\x00\x00\x00Plugins'
tRp3301
I00
S'http://web2py.com/plugins'
p3302
tp3303
a(g2956
(S's\x07\x00\x00\x00Layouts'
tRp3304
I00
S'http://web2py.com/layouts'
p3305
tp3306
a(g2956
(S's\x07\x00\x00\x00Recipes'
tRp3307
I00
S'http://web2pyslices.com/'
p3308
tp3309
a(g2956
(S's\x08\x00\x00\x00Semantic'
tRp3310
I00
S'http://web2py.com/semantic'
p3311
tp3312
aasbasbasbasbasbasbasbag61
(g77
g63
NtRp3313
(dp3314
g66
(dp3315
sg75
g3070
sg68
(lp3316
g61
(g82
g63
NtRp3317
(dp3318
g66
(dp3319
sg75
g3313
sg68
(lp3320
g61
(g62
g63
NtRp3321
(dp3322
g66
(dp3323
g74
I2
ssg75
g3317
sg68
(lp3324
g61
(g70
g63
NtRp3325
(dp3326
g66
(dp3327
g74
I1
ssg75
Nsg68
(lp3328
g61
(g77
g63
NtRp3329
(dp3330
g66
(dp3331
sg75
g3325
sg68
(lp3332
g61
(g82
g63
NtRp3333
(dp3334
g66
(dp3335
sg75
g3329
sg68
(lp3336
g61
(g62
g63
NtRp3337
(dp3338
g66
(dp3339
g74
I1
ssg75
g3333
sg68
(lp3340
g2956
(S's\r\x00\x00\x00Documentation'
tRp3341
asbasbasbag61
(g77
g63
NtRp3342
(dp3343
g66
(dp3344
sg75
g3325
sg68
(lp3345
g61
(g82
g63
NtRp3346
(dp3347
g66
(dp3348
sg75
g3342
sg68
(lp3349
g61
(g62
g63
NtRp3350
(dp3351
g66
(dp3352
g74
I1
ssg75
g3346
sg68
(lp3353
I00
asbasbasbag61
(g77
g63
NtRp3354
(dp3355
g66
(dp3356
sg75
g3325
sg68
(lp3357
g61
(g82
g63
NtRp3358
(dp3359
g66
(dp3360
sg75
g3354
sg68
(lp3361
g61
(g62
g63
NtRp3362
(dp3363
g66
(dp3364
g74
I1
ssg75
g3358
sg68
(lp3365
S'http://www.web2py.com/book'
p3366
asbasbasbag61
(g77
g63
NtRp3367
(dp3368
g66
(dp3369
sg75
g3325
sg68
(lp3370
g61
(g82
g63
NtRp3371
(dp3372
g66
(dp3373
sg75
g3367
sg68
(lp3374
g61
(g62
g63
NtRp3375
(dp3376
g66
(dp3377
g74
I1
ssg75
g3371
sg68
(lp3378
(lp3379
(g2956
(S's\x07\x00\x00\x00Preface'
tRp3380
I00
S'http://www.web2py.com/book/default/chapter/00'
p3381
tp3382
a(g2956
(S's\x0c\x00\x00\x00Introduction'
tRp3383
I00
S'http://www.web2py.com/book/default/chapter/01'
p3384
tp3385
a(g2956
(S's\x06\x00\x00\x00Python'
tRp3386
I00
S'http://www.web2py.com/book/default/chapter/02'
p3387
tp3388
a(g2956
(S's\x08\x00\x00\x00Overview'
tRp3389
I00
S'http://www.web2py.com/book/default/chapter/03'
p3390
tp3391
a(g2956
(S's\x08\x00\x00\x00The Core'
tRp3392
I00
S'http://www.web2py.com/book/default/chapter/04'
p3393
tp3394
a(g2956
(S's\t\x00\x00\x00The Views'
tRp3395
I00
S'http://www.web2py.com/book/default/chapter/05'
p3396
tp3397
a(g2956
(S's\x08\x00\x00\x00Database'
tRp3398
I00
S'http://www.web2py.com/book/default/chapter/06'
p3399
tp3400
a(g2956
(S's\x14\x00\x00\x00Forms and Validators'
tRp3401
I00
S'http://www.web2py.com/book/default/chapter/07'
p3402
tp3403
a(g2956
(S's\r\x00\x00\x00Email and SMS'
tRp3404
I00
S'http://www.web2py.com/book/default/chapter/08'
p3405
tp3406
a(g2956
(S's\x0e\x00\x00\x00Access Control'
tRp3407
I00
S'http://www.web2py.com/book/default/chapter/09'
p3408
tp3409
a(g2956
(S's\x08\x00\x00\x00Services'
tRp3410
I00
S'http://www.web2py.com/book/default/chapter/10'
p3411
tp3412
a(g2956
(S's\x0c\x00\x00\x00Ajax Recipes'
tRp3413
I00
S'http://www.web2py.com/book/default/chapter/11'
p3414
tp3415
a(g2956
(S's\x16\x00\x00\x00Components and Plugins'
tRp3416
I00
S'http://www.web2py.com/book/default/chapter/12'
p3417
tp3418
a(g2956
(S's\x12\x00\x00\x00Deployment Recipes'
tRp3419
I00
S'http://www.web2py.com/book/default/chapter/13'
p3420
tp3421
a(g2956
(S's\r\x00\x00\x00Other Recipes'
tRp3422
I00
S'http://www.web2py.com/book/default/chapter/14'
p3423
tp3424
a(g2956
(S's\r\x00\x00\x00Buy this book'
tRp3425
I00
S'http://stores.lulu.com/web2py'
p3426
tp3427
aasbasbasbasbasbasbasbag61
(g77
g63
NtRp3428
(dp3429
g66
(dp3430
sg75
g3070
sg68
(lp3431
g61
(g82
g63
NtRp3432
(dp3433
g66
(dp3434
sg75
g3428
sg68
(lp3435
g61
(g62
g63
NtRp3436
(dp3437
g66
(dp3438
g74
I2
ssg75
g3432
sg68
(lp3439
g61
(g70
g63
NtRp3440
(dp3441
g66
(dp3442
g74
I1
ssg75
Nsg68
(lp3443
g61
(g77
g63
NtRp3444
(dp3445
g66
(dp3446
sg75
g3440
sg68
(lp3447
g61
(g82
g63
NtRp3448
(dp3449
g66
(dp3450
sg75
g3444
sg68
(lp3451
g61
(g62
g63
NtRp3452
(dp3453
g66
(dp3454
g74
I1
ssg75
g3448
sg68
(lp3455
g2956
(S's\t\x00\x00\x00Community'
tRp3456
asbasbasbag61
(g77
g63
NtRp3457
(dp3458
g66
(dp3459
sg75
g3440
sg68
(lp3460
g61
(g82
g63
NtRp3461
(dp3462
g66
(dp3463
sg75
g3457
sg68
(lp3464
g61
(g62
g63
NtRp3465
(dp3466
g66
(dp3467
g74
I1
ssg75
g3461
sg68
(lp3468
I00
asbasbasbag61
(g77
g63
NtRp3469
(dp3470
g66
(dp3471
sg75
g3440
sg68
(lp3472
g61
(g82
g63
NtRp3473
(dp3474
g66
(dp3475
sg75
g3469
sg68
(lp3476
g61
(g62
g63
NtRp3477
(dp3478
g66
(dp3479
g74
I1
ssg75
g3473
sg68
(lp3480
Nasbasbasbag61
(g77
g63
NtRp3481
(dp3482
g66
(dp3483
sg75
g3440
sg68
(lp3484
g61
(g82
g63
NtRp3485
(dp3486
g66
(dp3487
sg75
g3481
sg68
(lp3488
g61
(g62
g63
NtRp3489
(dp3490
g66
(dp3491
g74
I1
ssg75
g3485
sg68
(lp3492
(lp3493
(g2956
(S's\x06\x00\x00\x00Groups'
tRp3494
I00
S'http://www.web2py.com/examples/default/usergroups'
p3495
tp3496
a(g2956
(S's\x07\x00\x00\x00Twitter'
tRp3497
I00
S'http://twitter.com/web2py'
p3498
tp3499
a(g2956
(S's\t\x00\x00\x00Live Chat'
tRp3500
I00
S'http://webchat.freenode.net/?channels=web2py'
p3501
tp3502
aasbasbasbasbasbasbasbag61
(g77
g63
NtRp3503
(dp3504
g66
(dp3505
sg75
g3070
sg68
(lp3506
g61
(g82
g63
NtRp3507
(dp3508
g66
(dp3509
sg75
g3503
sg68
(lp3510
g61
(g62
g63
NtRp3511
(dp3512
g66
(dp3513
g74
I2
ssg75
g3507
sg68
(lp3514
g61
(g70
g63
NtRp3515
(dp3516
g66
(dp3517
g74
I1
ssg75
Nsg68
(lp3518
g61
(g77
g63
NtRp3519
(dp3520
g66
(dp3521
sg75
g3515
sg68
(lp3522
g61
(g82
g63
NtRp3523
(dp3524
g66
(dp3525
sg75
g3519
sg68
(lp3526
g61
(g62
g63
NtRp3527
(dp3528
g66
(dp3529
g74
I1
ssg75
g3523
sg68
(lp3530
g2956
(S's\x07\x00\x00\x00Plugins'
tRp3531
asbasbasbag61
(g77
g63
NtRp3532
(dp3533
g66
(dp3534
sg75
g3515
sg68
(lp3535
g61
(g82
g63
NtRp3536
(dp3537
g66
(dp3538
sg75
g3532
sg68
(lp3539
g61
(g62
g63
NtRp3540
(dp3541
g66
(dp3542
g74
I1
ssg75
g3536
sg68
(lp3543
I00
asbasbasbag61
(g77
g63
NtRp3544
(dp3545
g66
(dp3546
sg75
g3515
sg68
(lp3547
g61
(g82
g63
NtRp3548
(dp3549
g66
(dp3550
sg75
g3544
sg68
(lp3551
g61
(g62
g63
NtRp3552
(dp3553
g66
(dp3554
g74
I1
ssg75
g3548
sg68
(lp3555
Nasbasbasbag61
(g77
g63
NtRp3556
(dp3557
g66
(dp3558
sg75
g3515
sg68
(lp3559
g61
(g82
g63
NtRp3560
(dp3561
g66
(dp3562
sg75
g3556
sg68
(lp3563
g61
(g62
g63
NtRp3564
(dp3565
g66
(dp3566
g74
I1
ssg75
g3560
sg68
(lp3567
(lp3568
(S'plugin_wiki'
p3569
I00
S'http://web2py.com/examples/default/download'
p3570
tp3571
a(g2956
(S's\r\x00\x00\x00Other Plugins'
tRp3572
I00
g3302
tp3573
a(g2956
(S's\x0e\x00\x00\x00Layout Plugins'
tRp3574
I00
g3305
tp3575
aasbasbasbasbasbasbasbasbasbasbasbasbasbasbasbasbasbasbasbag61
(g77
g63
NtRp3576
(dp3577
g66
(dp3578
sg75
g2413
sg68
(lp3579
g61
(g82
g63
NtRp3580
(dp3581
g66
(dp3582
g86
g87
ssg75
g3576
sg68
(lp3583
S'meta'
p3584
asbag61
(g82
g63
NtRp3585
(dp3586
g66
(dp3587
g93
g94
ssg75
g3576
sg68
(lp3588
S':'
asbag61
(g82
g63
NtRp3589
(dp3590
g66
(dp3591
sg75
g3576
sg68
(lp3592
g61
(g62
g63
NtRp3593
(dp3594
g66
(dp3595
g74
I5
ssg75
g3589
sg68
(lp3596
g61
(g70
g63
NtRp3597
(dp3598
g66
(dp3599
g74
I4
ssg75
Nsg68
(lp3600
g61
(g77
g63
NtRp3601
(dp3602
g66
(dp3603
sg75
g3597
sg68
(lp3604
g61
(g82
g63
NtRp3605
(dp3606
g66
(dp3607
g86
g87
ssg75
g3601
sg68
(lp3608
S'author'
p3609
asbag61
(g82
g63
NtRp3610
(dp3611
g66
(dp3612
g93
g94
ssg75
g3601
sg68
(lp3613
S':'
asbag61
(g82
g63
NtRp3614
(dp3615
g66
(dp3616
sg75
g3601
sg68
(lp3617
g61
(g62
g63
NtRp3618
(dp3619
g66
(dp3620
g74
I4
ssg75
g3614
sg68
(lp3621
S'Your Name <you@example.com>'
p3622
asbasbasbag61
(g77
g63
NtRp3623
(dp3624
g66
(dp3625
sg75
g3597
sg68
(lp3626
g61
(g82
g63
NtRp3627
(dp3628
g66
(dp3629
g86
g87
ssg75
g3623
sg68
(lp3630
S'copyright'
p3631
asbag61
(g82
g63
NtRp3632
(dp3633
g66
(dp3634
g93
g94
ssg75
g3623
sg68
(lp3635
S':'
asbag61
(g82
g63
NtRp3636
(dp3637
g66
(dp3638
sg75
g3623
sg68
(lp3639
g61
(g62
g63
NtRp3640
(dp3641
g66
(dp3642
g74
I4
ssg75
g3636
sg68
(lp3643
S'Copyright 2011'
p3644
asbasbasbag61
(g77
g63
NtRp3645
(dp3646
g66
(dp3647
sg75
g3597
sg68
(lp3648
g61
(g82
g63
NtRp3649
(dp3650
g66
(dp3651
g86
g87
ssg75
g3645
sg68
(lp3652
S'description'
p3653
asbag61
(g82
g63
NtRp3654
(dp3655
g66
(dp3656
g93
g94
ssg75
g3645
sg68
(lp3657
S':'
asbag61
(g82
g63
NtRp3658
(dp3659
g66
(dp3660
sg75
g3645
sg68
(lp3661
g61
(g62
g63
NtRp3662
(dp3663
g66
(dp3664
g74
I4
ssg75
g3658
sg68
(lp3665
S'a cool new app'
p3666
asbasbasbag61
(g77
g63
NtRp3667
(dp3668
g66
(dp3669
sg75
g3597
sg68
(lp3670
g61
(g82
g63
NtRp3671
(dp3672
g66
(dp3673
g86
g87
ssg75
g3667
sg68
(lp3674
S'generator'
p3675
asbag61
(g82
g63
NtRp3676
(dp3677
g66
(dp3678
g93
g94
ssg75
g3667
sg68
(lp3679
S':'
asbag61
(g82
g63
NtRp3680
(dp3681
g66
(dp3682
sg75
g3667
sg68
(lp3683
g61
(g62
g63
NtRp3684
(dp3685
g66
(dp3686
g74
I4
ssg75
g3680
sg68
(lp3687
S'Web2py Web Framework'
p3688
asbasbasbag61
(g77
g63
NtRp3689
(dp3690
g66
(dp3691
sg75
g3597
sg68
(lp3692
g61
(g82
g63
NtRp3693
(dp3694
g66
(dp3695
g86
g87
ssg75
g3689
sg68
(lp3696
S'keywords'
p3697
asbag61
(g82
g63
NtRp3698
(dp3699
g66
(dp3700
g93
g94
ssg75
g3689
sg68
(lp3701
S':'
asbag61
(g82
g63
NtRp3702
(dp3703
g66
(dp3704
sg75
g3689
sg68
(lp3705
g61
(g62
g63
NtRp3706
(dp3707
g66
(dp3708
g74
I4
ssg75
g3702
sg68
(lp3709
S'web2py, python, framework'
p3710
asbasbasbasbasbasbasbag61
(g77
g63
NtRp3711
(dp3712
g66
(dp3713
sg75
g2413
sg68
(lp3714
g61
(g82
g63
NtRp3715
(dp3716
g66
(dp3717
g86
g87
ssg75
g3711
sg68
(lp3718
S'postprocessing'
p3719
asbag61
(g82
g63
NtRp3720
(dp3721
g66
(dp3722
g93
g94
ssg75
g3711
sg68
(lp3723
S':'
asbag61
(g82
g63
NtRp3724
(dp3725
g66
(dp3726
sg75
g3711
sg68
(lp3727
g61
(g62
g63
NtRp3728
(dp3729
g66
(dp3730
g74
I5
ssg75
g3724
sg68
(lp3731
g61
(g70
g63
NtRp3732
(dp3733
g66
(dp3734
g74
I4
ssg75
Nsg68
(lp3735
sbasbasbasbag61
(g77
g63
NtRp3736
(dp3737
g66
(dp3738
sg75
g2413
sg68
(lp3739
g61
(g82
g63
NtRp3740
(dp3741
g66
(dp3742
g86
g87
ssg75
g3736
sg68
(lp3743
S'session_db'
p3744
asbag61
(g82
g63
NtRp3745
(dp3746
g66
(dp3747
g93
g94
ssg75
g3736
sg68
(lp3748
S':'
asbag61
(g82
g63
NtRp3749
(dp3750
g66
(dp3751
sg75
g3736
sg68
(lp3752
g61
(g62
g63
NtRp3753
(dp3754
g66
(dp3755
g74
I5
ssg75
g3749
sg68
(lp3756
g401
asbasbasbag61
(g77
g63
NtRp3757
(dp3758
g66
(dp3759
sg75
g2413
sg68
(lp3760
g61
(g82
g63
NtRp3761
(dp3762
g66
(dp3763
g86
g87
ssg75
g3757
sg68
(lp3764
S'session_id'
p3765
asbag61
(g82
g63
NtRp3766
(dp3767
g66
(dp3768
g93
g94
ssg75
g3757
sg68
(lp3769
S':'
asbag61
(g82
g63
NtRp3770
(dp3771
g66
(dp3772
sg75
g3757
sg68
(lp3773
g61
(g62
g63
NtRp3774
(dp3775
g66
(dp3776
g74
I5
ssg75
g3770
sg68
(lp3777
S'None:60530acc-3862-49f8-be38-fa5df9545c48'
p3778
asbasbasbag61
(g77
g63
NtRp3779
(dp3780
g66
(dp3781
sg75
g2413
sg68
(lp3782
g61
(g82
g63
NtRp3783
(dp3784
g66
(dp3785
g86
g87
ssg75
g3779
sg68
(lp3786
S'session_id_name'
p3787
asbag61
(g82
g63
NtRp3788
(dp3789
g66
(dp3790
g93
g94
ssg75
g3779
sg68
(lp3791
S':'
asbag61
(g82
g63
NtRp3792
(dp3793
g66
(dp3794
sg75
g3779
sg68
(lp3795
g61
(g62
g63
NtRp3796
(dp3797
g66
(dp3798
g74
I5
ssg75
g3792
sg68
(lp3799
S'session_id_init'
p3800
asbasbasbag61
(g77
g63
NtRp3801
(dp3802
g66
(dp3803
sg75
g2413
sg68
(lp3804
g61
(g82
g63
NtRp3805
(dp3806
g66
(dp3807
g86
g87
ssg75
g3801
sg68
(lp3808
S'status'
p3809
asbag61
(g82
g63
NtRp3810
(dp3811
g66
(dp3812
g93
g94
ssg75
g3801
sg68
(lp3813
S':'
asbag61
(g82
g63
NtRp3814
(dp3815
g66
(dp3816
sg75
g3801
sg68
(lp3817
g61
(g62
g63
NtRp3818
(dp3819
g66
(dp3820
g74
I5
ssg75
g3814
sg68
(lp3821
S'200'
p3822
asbasbasbag61
(g77
g63
NtRp3823
(dp3824
g66
(dp3825
sg75
g2413
sg68
(lp3826
g61
(g82
g63
NtRp3827
(dp3828
g66
(dp3829
g86
g87
ssg75
g3823
sg68
(lp3830
S'subtitle'
p3831
asbag61
(g82
g63
NtRp3832
(dp3833
g66
(dp3834
g93
g94
ssg75
g3823
sg68
(lp3835
S':'
asbag61
(g82
g63
NtRp3836
(dp3837
g66
(dp3838
sg75
g3823
sg68
(lp3839
g61
(g62
g63
NtRp3840
(dp3841
g66
(dp3842
g74
I5
ssg75
g3836
sg68
(lp3843
g2956
(S's\r\x00\x00\x00customize me!'
tRp3844
asbasbasbag61
(g77
g63
NtRp3845
(dp3846
g66
(dp3847
sg75
g2413
sg68
(lp3848
g61
(g82
g63
NtRp3849
(dp3850
g66
(dp3851
g86
g87
ssg75
g3845
sg68
(lp3852
S'title'
p3853
asbag61
(g82
g63
NtRp3854
(dp3855
g66
(dp3856
g93
g94
ssg75
g3845
sg68
(lp3857
S':'
asbag61
(g82
g63
NtRp3858
(dp3859
g66
(dp3860
sg75
g3845
sg68
(lp3861
g61
(g62
g63
NtRp3862
(dp3863
g66
(dp3864
g74
I5
ssg75
g3858
sg68
(lp3865
S'Init'
p3866
asbasbasbag61
(g77
g63
NtRp3867
(dp3868
g66
(dp3869
sg75
g2413
sg68
(lp3870
g61
(g82
g63
NtRp3871
(dp3872
g66
(dp3873
g86
g87
ssg75
g3867
sg68
(lp3874
g1738
asbag61
(g82
g63
NtRp3875
(dp3876
g66
(dp3877
g93
g94
ssg75
g3867
sg68
(lp3878
S':'
asbag61
(g82
g63
NtRp3879
(dp3880
g66
(dp3881
sg75
g3867
sg68
(lp3882
g61
(g62
g63
NtRp3883
(dp3884
g66
(dp3885
g74
I5
ssg75
g3879
sg68
(lp3886
g1751
asbasbasbag61
(g77
g63
NtRp3887
(dp3888
g66
(dp3889
sg75
g2413
sg68
(lp3890
g61
(g82
g63
NtRp3891
(dp3892
g66
(dp3893
g86
g87
ssg75
g3887
sg68
(lp3894
S'view'
p3895
asbag61
(g82
g63
NtRp3896
(dp3897
g66
(dp3898
g93
g94
ssg75
g3887
sg68
(lp3899
S':'
asbag61
(g82
g63
NtRp3900
(dp3901
g66
(dp3902
sg75
g3887
sg68
(lp3903
g61
(g62
g63
NtRp3904
(dp3905
g66
(dp3906
g74
I5
ssg75
g3900
sg68
(lp3907
S'default/index.html'
p3908
asbasbasbasbasbsS'locals'
p3909
(dp3910
g4
S"r'C:\\Users\\Bussiere\\Dropbox\\Projets\\jackpoint\\web2py\\applications\\init\\controllers/default.py'"
p3911
sg6
S"'# -*- coding: utf-8 -*-\\n# this file is released ...=crud())\\n\\nresponse._vars=response._caller(index)\\n'"
p3912
sssS'traceback'
p3913
S'Traceback (most recent call last):\n  File "gluon/restricted.py", line 204, in restricted\n  File "gluon/restricted.py", line 189, in compile2\n  File "C:\\Users\\Bussiere\\Dropbox\\Projets\\jackpoint\\web2py\\applications\\init\\controllers/default.py", line 281\n    redirect(URL(\'inscription\'))\n           ^\nSyntaxError: invalid syntax\n'
p3914
s.