(dp1
S'output'
p2
S"<class 'sqlite3.IntegrityError'> column email is not unique"
p3
sS'layer'
p4
S'C:\\Users\\Bussiere\\Dropbox\\Projets\\jackpoint\\web2py\\applications\\init\\controllers/default.py'
p5
sS'code'
p6
S'\xef\xbb\xbf# -*- coding: utf-8 -*-\n# this file is released under public domain and you can use without limitations\n\n#########################################################################\n## This is a samples controller\n## - index is the default action of any application\n## - user is required for authentication and authorization\n## - download is for downloading files uploaded in the db (does streaming)\n## - call exposes all registered services (none by default)\n#########################################################################\n# Static analyzer import helpers: (STATIC_IMPORT_MARK)\nif 0: \n    import gluon\n    global cache; cache = gluon.cache.Cache()\n    global LOAD; LOAD  = gluon.compileapp.LoadFactory()\n    import gluon.compileapp.local_import_aux as local_import #@UnusedImport\n    from gluon.contrib.gql import GQLDB #@UnusedImport\n    from gluon.dal import Field #@UnusedImport\n    global request; request = gluon.globals.Request()\n    global response; response = gluon.globals.Response()\n    global session; session = gluon.globals.Session()\n    from gluon.html import A #@UnusedImport\n    from gluon.html import B #@UnusedImport\n    from gluon.html import BEAUTIFY #@UnusedImport\n    from gluon.html import BODY #@UnusedImport\n    from gluon.html import BR #@UnusedImport\n    from gluon.html import CENTER #@UnusedImport\n    from gluon.html import CODE #@UnusedImport\n    from gluon.html import DIV #@UnusedImport\n    from gluon.html import EM #@UnusedImport\n    from gluon.html import EMBED #@UnusedImport\n    from gluon.html import embed64 #@UnusedImport\n    from gluon.html import FIELDSET #@UnusedImport\n    from gluon.html import FORM #@UnusedImport\n    from gluon.html import H1 #@UnusedImport\n    from gluon.html import H2 #@UnusedImport\n    from gluon.html import H3 #@UnusedImport\n    from gluon.html import H4 #@UnusedImport\n    from gluon.html import H5 #@UnusedImport\n    from gluon.html import H6 #@UnusedImport\n    from gluon.html import HEAD #@UnusedImport\n    from gluon.html import HR #@UnusedImport\n    from gluon.html import HTML #@UnusedImport\n    from gluon.html import I #@UnusedImport\n    from gluon.html import IFRAME #@UnusedImport\n    from gluon.html import IMG #@UnusedImport\n    from gluon.html import INPUT #@UnusedImport\n    from gluon.html import LABEL #@UnusedImport\n    from gluon.html import LEGEND #@UnusedImport\n    from gluon.html import LI #@UnusedImport\n    from gluon.html import LINK #@UnusedImport\n    from gluon.html import MARKMIN #@UnusedImport\n    from gluon.html import MENU #@UnusedImport\n    from gluon.html import META #@UnusedImport\n    from gluon.html import OBJECT #@UnusedImport\n    from gluon.html import OL #@UnusedImport\n    from gluon.html import ON #@UnusedImport\n    from gluon.html import OPTGROUP #@UnusedImport\n    from gluon.html import OPTION #@UnusedImport\n    from gluon.html import P #@UnusedImport\n    from gluon.html import PRE #@UnusedImport\n    from gluon.html import STYLE #@UnusedImport\n    from gluon.html import SCRIPT #@UnusedImport\n    from gluon.html import SELECT #@UnusedImport\n    from gluon.html import SPAN #@UnusedImport\n    from gluon.html import TABLE #@UnusedImport\n    from gluon.html import TAG #@UnusedImport\n    from gluon.html import TBODY #@UnusedImport\n    from gluon.html import TD #@UnusedImport\n    from gluon.html import TEXTAREA #@UnusedImport\n    from gluon.html import TFOOT #@UnusedImport\n    from gluon.html import TH  #@UnusedImport\n    from gluon.html import THEAD #@UnusedImport\n    from gluon.html import TITLE #@UnusedImport\n    from gluon.html import TR #@UnusedImport\n    from gluon.html import TT #@UnusedImport\n    from gluon.html import UL #@UnusedImport\n    from gluon.html import URL #@UnusedImport\n    from gluon.html import XHTML #@UnusedImport\n    from gluon.html import XML #@UnusedImport\n    from gluon.html import xmlescape #@UnusedImport\n    from gluon.http import HTTP #@UnusedImport\n    from gluon.http import redirect #@UnusedImport\n    import gluon.languages.translator as T #@UnusedImport\n    from gluon.sql import DAL\n    global db; db = DAL()\n    from gluon.sql import SQLDB #@UnusedImport\n    from gluon.sql import SQLField #@UnusedImport\n    from gluon.sqlhtml import SQLFORM #@UnusedImport\n    from gluon.sqlhtml import SQLTABLE #@UnusedImport\n    from gluon.tools import  Auth\n    global auth; auth = Auth()\n    from gluon.tools import Crud\n    global crud; crud = Crud()\n    from gluon.tools import fetch #@UnusedImport\n    from gluon.tools import geocode #@UnusedImport\n    from gluon.tools import Mail\n    global mail; mail = Mail()\n    from gluon.tools import PluginManager\n    global plugins; plugins = PluginManager()\n    from gluon.tools import prettydate #@UnusedImport\n    from gluon.tools import Recaptcha #@UnusedImport\n    from gluon.tools import Service\n    global service; service = Service()\n    from gluon.validators import CLEANUP  #@UnusedImport\n    from gluon.validators import CRYPT #@UnusedImport\n    from gluon.validators import IS_ALPHANUMERIC #@UnusedImport\n    from gluon.validators import IS_DATE #@UnusedImport\n    from gluon.validators import IS_DATE_IN_RANGE #@UnusedImport\n    from gluon.validators import IS_DATETIME #@UnusedImport\n    from gluon.validators import IS_DATETIME_IN_RANGE #@UnusedImport\n    from gluon.validators import IS_DECIMAL_IN_RANGE #@UnusedImport\n    from gluon.validators import IS_EMAIL #@UnusedImport\n    from gluon.validators import IS_EMPTY_OR #@UnusedImport\n    from gluon.validators import IS_EQUAL_TO #@UnusedImport\n    from gluon.validators import IS_EXPR #@UnusedImport\n    from gluon.validators import IS_FLOAT_IN_RANGE #@UnusedImport\n    from gluon.validators import IS_IMAGE #@UnusedImport\n    from gluon.validators import IS_IN_DB #@UnusedImport\n    from gluon.validators import IS_IN_SET #@UnusedImport\n    from gluon.validators import IS_INT_IN_RANGE #@UnusedImport\n    from gluon.validators import IS_IPV4 #@UnusedImport\n    from gluon.validators import IS_LENGTH #@UnusedImport\n    from gluon.validators import IS_LIST_OF #@UnusedImport\n    from gluon.validators import IS_LOWER #@UnusedImport\n    from gluon.validators import IS_MATCH #@UnusedImport\n    from gluon.validators import IS_NOT_EMPTY #@UnusedImport\n    from gluon.validators import IS_NOT_IN_DB #@UnusedImport\n    from gluon.validators import IS_NULL_OR #@UnusedImport\n    from gluon.validators import IS_SLUG #@UnusedImport\n    from gluon.validators import IS_STRONG  #@UnusedImport\n    from gluon.validators import IS_TIME #@UnusedImport\n    from gluon.validators import IS_UPLOAD_FILENAME #@UnusedImport\n    from gluon.validators import IS_UPPER #@UnusedImpor\n\n\nimport random\nfrom uuid import uuid4\nfrom gluon.storage import Storage\nsettings = Storage()\n\n\ndef logout():\n    return auth.logout()\n\n\ndef index():\n    if auth.is_logged_in() :\n        return "You get the blue pills"\n    else :\n        return dict(form=auth.login(),faq=URL(\'faq\'))\n\n\n\ndef ensurefirstuser(Surnom, email, password):\n  users = db(db.auth_user.email == email).select()\n  if users:\n    user_id = users[0].id\n    created = False\n    print (\'found user_id so created equals %s\') % created\n    if settings.debug_ensure_first_user == True:\n      print (\'found user_id so created equals %s\') % created\n    return (user_id, created)\n\n  else:\n    my_crypt = CRYPT(key=auth.settings.hmac_key)\n    crypt_pass = my_crypt(password)[0]    \n    id_user = db.auth_user.insert(\n                   Surnom=Surnom,\n                   email=email,\n                   username=email,\n                   Items = None,\n                   Skills = None,\n                   password=crypt_pass,\n                                   )\n    db.commit()\n    created = True\n    print (\'creating user_id\')\n    if settings.debug_ensure_first_user == True:\n      print (\'creating user_id\')\n    return (id_user, created)\n\n    \n\n\ndef ensure_users():\n  user_id, created = _ensure_user(\'first\', \'last\', \'email@address.com\', \'UserPassword12345\')\n  if settings.debug_ensure_users == True:\n    print (\'user id %i\') % user_id\n    print (\'created %s\') % created\n\ndef ensure_group_role(role, description):\n  if not auth.id_group(role=role):  \n    auth.add_group(role=role, description=description)  \n    if settings.debug_ensure_group_role == True:\n      print (\'created role %s\') % (role)\n\ndef ensure_membership(group_id, user_id):\n  return_group_id = auth.add_membership(role=role, user_id=user_id)\n  if settings.debug_ensure_membership == True:\n    print (\'made user_id member of %s\') % (role)\n  return return_group_id\n \ndef ensure_permissions(role, description, user_id):\n  ensure_group_role(role, description)\n  return_group_id = ensure_membership(group_id, user_id)\n  if settings.debug_ensure_permissions == True:\n    print return_group_id\n\ndef generate_invitation(number,word=4,num=1,numdigit=5):\n    code = [\n[\'BELCHER\', \'FIX\', \'EEL\', \'PANZERBOY\', \'DESK_JOCKEY\', \'CHILLED\', \'ENFORCER\', \'CHERRY_PICKING\', \'COUNTRY_CLUB\', \'BOMBSHELL\', \'PLUGGED_IN\', \'FINI\', \'LEGIT\', \'JAM\', \'BONED_OUT\', \'BLADE\', \'ROUST\', \'SAMURAI\', \'DISK\', \'INPUT\', \'POST_TIME\', \'SOUNDS\', \'SKIP\', \'FLATBACKER\', \'WILSON\', \'SHOEMAKER\', \'DELTA_SIERRA\', \'HEART\', \'CROAK\', \'HEAD_HUNTER\', \'HOSHO_KAISHA\', "DELTA\'D", "\'FACE_(also,_FACE,_EYE-FACE,_I-FACE)", \'WEEFLE\', \'DIRTGIRL\', \'KEYBOARD\', \'BRAIN_BUCKET\', \'DRYING_OUT\', \'OVERCOOK\', \'PIG\', \'COLD_TEA\', \'RECONFIG\', \'PAD\', \'LIT_UP\', \'WRAITH\', \'HANDLE\', \'L.P.\', \'PINCH\', \'TAKE_A_CAB\', \'SPILL\', \'ACE_KOOL\', \'DO\', \'BIZ\', \'BROWNIE\', \'CANDLE_AND_BLOOD\', \'BLUEBOY\', \'UP_ON_IT\', \'BURN\', \'USER_INTERFACE\', \'HOB\', \'GYRO\', \'STUFFIT\', \'THATCH\', \'ICEBREAKER\', \'ZIP_GUN\', \'PETERMAN\', \'PLAY_DOUGH\', \'TREY-EIGHT\', \'SETTLE\', "CHIPPIN\'_IN", \'MEATBALL\', \'RAFFLES\', \'YUBITSUME\', \'CROAKER\', \'SUCKER_POCKETS\', \'L.A.M.A.\', \'GEEK\', \'BUTTONHEAD\'],\n[\'TAKE\', \'TEKIYA\', \'KURUMAKU\', \'BLOC\', \'GAT\', \'JOHATSU\', \'CRYSTAL\', \'A.I.\', \'ZEROED\', \'OVER_THE_SHOULDER\', \'GRAB_GEE\', \'PANZER\', \'GO_LEO\', \'WASHED\', \'I.C.E.\', \'COPSHOP\', \'COLLATERAL_DAMAGE\', \'BIG_DARK\', \'DOUBLE-DEUCE\', \'ZONEDANCE\', \'MARK\', \'COBBERS\', \'CHIMPIRA\', \'TRIADS\', \'SHANK\', \'FRAG\', \'BREATH_VAC\', "CHARLIE\'S_ANGEL", \'MULE\', \'BURNER\', "PACKIN\'", \'HOTDOGGER\', \'BOSOZOKU\', \'RIPPERDOC\', \'THIRDMAN\', \'MAXIMUM,_MAX\', \'CHOOH2_("CHOO")\', \'CRYO_MAX\', \'HEATER\', \'SHARK\', \'JOYGIRL\', \'GURENTAI\', \'BANDIT\', \'VENICE\', \'MIZU_SHOBAI\', \'PASTA_BOYS\', \'SQUID\', \'CYBERED_UP\', \'DEAD_RECKONING\', \'POPSICLE\', \'FAUST\', \'COLLARBOY\', \'SHOES\', \'TORCH\', \'DELTAJOCK\', \'BUTTERFLY_MAN\', \'WISE_GUYS\', \'BOOST\', \'CAIN\', \'FOUR-FIVE\', \'BREAK-DOWN\', \'POLYMER_ONE-SHOT\', \'FLAG\', \'CALL_GIRL\', \'IN_THE_HUNT\', \'HYDRO\', \'DOCK\', \'FENCE\', \'SHAIKUJIN\', \'GOMI\', \'FILTER\', \'SAINT_NICK\', \'LINEFOOT\', \'CAVALRY\', \'PUKE\', \'CONVERSION\', \'FINGER\', \'CONTRACT\'],\n[\'PLASTIC\', \'CRYSTALJOCKEY,_CRYSTALJOCK\', \'SCREW\', \'TOYSTORE\', \'DREAM_TIME\', \'EXOTIC\', \'WALKABOUT\', \'DIAMOND_SEASON\', \'SARAKIN\', \'CHRISTMAS_BUNDLES\', \'SHADES\', \'BUTTON_MAN\', \'FOXTROT_UNIFORM\', \'KAI\', \'UNDER_THE_PAINT\', \'MINIMUM\', \'TRIPLE_A\', \'PIG_ON_A_WHEEL\', \'BAG_MAN\', \'DIP\', \'PIGEONS\', \'MAN\', \'ADAM_HENRY\', \'HIGH\', \'HEAT\', \'NINJO\', \'KNIFE_FIGHT\', \'MOUTHPIECE\', \'AGRIPLEX\', \'DATA_TERM\', \'LIZ\', \'CHROMER\', \'OUTPUT\', \'N.O.E.\', \'CLOSE_A_CONTRACT\', \'LASSIE\', \'FLATLINE\', \'CHIV\', \'SING\', \'AMMO\', \'RAT\', \'MATCHBOX\', \'PULL_AN_ASH\', \'BORYOKUDAN\', \'SQUEEZE\', \'RONIN\', \'HIT\', \'RAGS\', \'TAKE_OUT\', \'BEAT_THE_RAP\', \'GIRI\', \'RUNNING_THE_LINE\', \'HARNESS\', \'GRAVEROBBER\', \'DROP_A_DIME\', \'BADGE_ON_A_BEAVER\', \'FLETCHER\', \'AMPED-OUT\', \'NEUTRALIZE\', \'PETER\', \'CONFIG\', \'HARDFIRE\', \'B.A.M.A.\', \'CHROMATIC_ROCK\', \'MOLDED\', \'RAD\', \'CREASED\', \'CHATTER_BOX\', \'HAND_CANNON\', \'NIPPERS\', \'SIERRA_HOTEL\', \'HOOK_UP\', \'-JOCKEY,_-JOCK\', \'BUG\', \'BATMAN_AND_ROBIN\', \'BLACK_OPERATIONS\', "D.C.\'S", \'SO_KA\'],\n[\'_A.A.A.\', \'HOME_PLATE\', \'LITEJACK\', \'PINEAPPLE\', \'MAKE\', \'THE_STREET\', \'SITREP\', \'HANGING_PAPER\', \'PAINT_BOYS\', \'WETWORK\', \'NINER\', \'BOOKIE\', \'WHIPLASH\', \'TORPEDO\', \'HEATWAVE\', \'SOLAR_WIND\', \'QUIFF\', \'BIKE\', \'TRAFFIC\', \'WIRE_ROOM\', \'OYABUN\', \'COWBOY\', \'KOBUN\', \'MUDBOY\', \'COP_OUT\', \'SOKAIYA\', "\'DORPH", \'JOYBOY\', \'DIRTY\', \'BOAT\', \'DROP\', \'GRAV_or_GEE\', \'APOGEE\', \'BOOSTER\', \'BOOK\', \'FRY\', \'PULLING_TEETH\', \'ONE_LARGE\', \'COMBAT_DRUGS\', \'THRASH\', \'DO_A_GHOST\', \'DELTA\', \'RIN_TIN_TIN\', \'DROP_OUT\', \'GUMI\', \'ROCKERBOY/GIRL\', \'BULLET\', \'DEB\', \'THREADING_THE_NEEDLE\', \'MOTOR\', \'BLEEDER\', \'ARC\', \'BOPPER\', \'WASTE\', \'_DEMUKAI\', \'BREAK\', \'HOLDING_DOWN\', \'FEDS\', \'GAP\', \'RABBI\', \'BAKUTO\', \'CHOMBATTA_(CHOOMBA)\', \'BIG_HATS\', \'MR._JOHNSON\', \'EXEC\', \'BULL\', \'BULLSEYE\', \'POSERGANG\', \'CHAOL\', \'GEISHA\', \'SLAMMIT_ON\', \'POP_CAPS\', \'HARD_TIME\', \'BENJI\', \'MAKING_BANK\', \'PAPERHANGER\', \'NETRUN\', \'BOGEY\'],\n]     \n    i = 0\n    invits = []\n    print number\n    while (i < number):\n        invit = ""\n        j = 0\n        while (j < word):\n            debut = random.randint(0,len(code)-1)\n            codepick = code[debut][random.randint(0,len(code[debut])-1)]\n            j += 1\n            invit += codepick+"-"\n        j = 0\n        while (j < num):\n            invit += randomdig(numdigit)+"-"\n            j += 1\n        i+= 1\n        invit = invit[:-1]\n        if invit not in invits :\n            invits.append(invit[:-1])\n            print invit\n    return invits\n        \ndef randomdig(number):\n    max = "9"*number\n    max = int(max)\n    rand =  random.randint(0,max)\n    rand = str(rand)\n    rand = "0"*(number-len(rand))+rand\n    return rand\n\n@auth.requires_login()\ndef inscriptioninvit():\n    form = SQLFORM(db[auth.settings.table_user_name])\n    return dict(form=form)\n\n\ndef userstuff():\n    return dict(rows1 = db().select(db.Carac.ALL),rows2 = db().select(db.SkillLevel.ALL) )\n\ndef initdbjack():\n    if db(db.auth_user.username == "bussiere").count() == 0:\n            password= "titi" \n            my_crypt = CRYPT(key=auth.settings.hmac_key)\n            crypt_pass = my_crypt(password)[0]  \n            buss = db.auth_user.insert(\n               email= "bussiere@gmail.com",\n               username="bussiere",\n               password=crypt_pass,\n            )\n            jack = auth.add_group(\'Jack\', \'Jack master of none\')\n            auth.add_membership(jack, buss)\n            db.commit()  \n    db.commit() \n    carac = ["Force","Logique","Volonte","Charisme","Apparence","Dexterite"]\n    skillls = { \n    "Physique":{\n                "Sport":{\n                         "Capoeira" :{ \n                                      "bengale":{}\n                                      },\n                        "Karate":{\n                                  "Nord" : {},\n                                  "Sud" : {},\n                                 },\n                         },\n            },\n\n\n    "Technique":{\n                "Mettalerrie" : {\n                                 "Forge" : {},\n                                  \n                                  },\n                 \n    },\n\n    "Savoir":{\n              "Informatique" : {\n                                   "Programmation" :{\n                                                     "Python" :{\n                                                                 "Django" : {} ,\n                                                                  "Web2py" : {}\n                                                                },\n                                                     "Methode" :{\n                                                                 "Uml":{},\n                                                                  "Merise": {}\n                                                                },\n                                                     },\n                                   },\n\n            },\n    }\n\n    for c in carac :\n        if db(db.Carac.Nom == c).count() == 0:\n            db.Carac.insert(Nom=c)\n\n    for level1 in skills.keys() :\n        i = 0\n        if db(db.SkillLevel.Skill.Nom == level1).count() == 0:\n            Skill1 = db.SkillLevel.insert(Skill = (db.Skill.insert(Nom=level1)),Level = i)\n\n            for level2 in level1.keys() :\n                i = 1\n                if db(db.SkillLevel.Skill.Nom == level2).count() == 0:\n                    Skill2 = db.SkillLevel.insert(Skill = (db.Skill.insert(Nom=level2)),Level = i,parent = Skill1)\n                    for level3 in level2.keys() :\n                        i = 2\n                        if db(db.SkillLevel.Skill.Nom == level3).count() == 0:\n                            Skill3 = db.SkillLevel.insert(Skill = (db.Skill.insert(Nom=level3)),Level = i,parent = Skill2)\n                            for level4 in level3.keys() :\n                                i = 3\n                            if db(db.SkillLevel.Skill.Nom == level4).count() == 0:\n                                Skill3 = db.SkillLevel.insert(Skill = (db.Skill.insert(Nom=level4)),Level = i,parent = Skill3)\n                                for level5 in level4.keys() :\n                                    i = 4\n                                    if db(db.SkillLevel.Skill.Nom == level5).count() == 0:\n                                        Skill3 = db.SkillLevel.insert(Skill = (db.Skill.insert(Nom=level4)),Level = i,parent = Skill4)\n    db.commit() \n\n\n\n\n\n\n\ndef liste_invitations():\n    return dict(rows = db().select(db.Invitation.ALL))\n\ndef liste_user():\n    return dict(rows = db().select(db.auth_user.ALL))\n\n#@auth.requires_membership(\'manager\')\ndef generate_invitationpage():\n   form=FORM("Nombre d\'invit a generer:", INPUT(_name=\'nmbreinvit\'), INPUT(_type=\'submit\'))\n   if form.process().accepted and form.vars.nmbreinvit != None :\n       i = form.vars.nmbreinvit\n       invitsgenere = generate_invitation(int(i))\n       for invit in invitsgenere :\n           db.Invitation.insert(Code=invit)\n           db.commit()\n       session.flash = \'invitation inserted\'\n       form=FORM("Nombre d\'invit a generer:", INPUT(_name=\'nmbreinvit\'), INPUT(_type=\'submit\'))\n       #db.Invitation.insert(Code="Toto-5542")\n       db.commit()\n   return dict(form=form)\n\ndef verif_invitation(form):\n    print form.vars.invitation\n    if db.Invitation(db.Invitation.Code==form.vars.invitation) == None :\n        form.errors.invitation = \'code invitation incorrect\'\n        print "mauvais"\n    else :\n        print "bon"\n\ndef invitation():\n    form=FORM("Code Invitation :", INPUT(_name=\'invitation\'),"<Email :",INPUT(_name=\'email\'),  INPUT(_type=\'submit\'))\n    if form.process(onvalidation=verif_invitation).accepted and  form.vars.invitation != None  :\n        email = form.vars.email\n        if db(db.auth_user.email == email).count() == 0:\n            password= form.vars.invitation  \n            my_crypt = CRYPT(key=auth.settings.hmac_key)\n            crypt_pass = my_crypt(password)[0]  \n            db.auth_user.insert(\n               email= email,\n               username="John_Doe",\n               password=crypt_pass,\n            )\n            db.commit()  \n            user = db(db.auth_user.email==email).select().first()\n            auth.user = Storage(auth.settings.table_user._filter_fields(user, id=True))\n            auth.environment.session.auth = Storage(user=user, last_visit=request.now,\n                                                expiration=auth.settings.expiration)\n            redirect(URL(\'inscriptioninvit\'))\n    return dict(form=form)\n\ndef faq():\n\n    return dict()\ndef user():\n    """\n    exposes:\n    http://..../[app]/default/user/login\n    http://..../[app]/default/user/logout\n    http://..../[app]/default/user/register\n    http://..../[app]/default/user/profile\n    http://..../[app]/default/user/retrieve_password\n    http://..../[app]/default/user/change_password\n    use @auth.requires_login()\n        @auth.requires_membership(\'group name\')\n        @auth.requires_permission(\'read\',\'table name\',record_id)\n    to decorate functions that need access control\n    """\n    return dict(form=auth())\n\n\ndef download():\n    """\n    allows downloading of uploaded files\n    http://..../[app]/default/download/[filename]\n    """\n    return response.download(request,db)\n\n\ndef call():\n    """\n    exposes services. for example:\n    http://..../[app]/default/call/jsonrpc\n    decorate with @services.jsonrpc the functions to expose\n    supports xml, json, xmlrpc, jsonrpc, amfrpc, rss, csv\n    """\n    return service()\n\n\n@auth.requires_signature()\ndef data():\n    """\n    http://..../[app]/default/data/tables\n    http://..../[app]/default/data/create/[table]\n    http://..../[app]/default/data/read/[table]/[id]\n    http://..../[app]/default/data/update/[table]/[id]\n    http://..../[app]/default/data/delete/[table]/[id]\n    http://..../[app]/default/data/select/[table]\n    http://..../[app]/default/data/search/[table]\n    but URLs must be signed, i.e. linked with\n      A(\'table\',_href=URL(\'data/tables\',user_signature=True))\n    or with the signed load operator\n      LOAD(\'default\',\'data.load\',args=\'tables\',ajax=True,user_signature=True)\n    """\n    return dict(form=crud())\n\nresponse._vars=response._caller(initdbjack)\n'
p7
sS'snapshot'
p8
(dp9
S'exception'
p10
(dp11
S'__hash__'
p12
S"<method-wrapper '__hash__' of IntegrityError object at 0x03FB6B70>"
p13
sS'__module__'
p14
S"'sqlite3'"
p15
sS'__reduce_ex__'
p16
S'<built-in method __reduce_ex__ of IntegrityError object at 0x03FB6B70>'
p17
sS'__getslice__'
p18
S"<method-wrapper '__getslice__' of IntegrityError object at 0x03FB6B70>"
p19
sS'__getitem__'
p20
S"<method-wrapper '__getitem__' of IntegrityError object at 0x03FB6B70>"
p21
sS'__setstate__'
p22
S'<built-in method __setstate__ of IntegrityError object at 0x03FB6B70>'
p23
sS'__reduce__'
p24
S'<built-in method __reduce__ of IntegrityError object at 0x03FB6B70>'
p25
sS'__str__'
p26
S"<method-wrapper '__str__' of IntegrityError object at 0x03FB6B70>"
p27
sS'args'
p28
S"('column email is not unique',)"
p29
sS'__getattribute__'
p30
S"<method-wrapper '__getattribute__' of IntegrityError object at 0x03FB6B70>"
p31
sS'__class__'
p32
S"<class 'sqlite3.IntegrityError'>"
p33
sS'__delattr__'
p34
S"<method-wrapper '__delattr__' of IntegrityError object at 0x03FB6B70>"
p35
sS'__repr__'
p36
S"<method-wrapper '__repr__' of IntegrityError object at 0x03FB6B70>"
p37
sS'__setattr__'
p38
S"<method-wrapper '__setattr__' of IntegrityError object at 0x03FB6B70>"
p39
sS'__dict__'
p40
S'{}'
p41
sS'__weakref__'
p42
S'None'
p43
sS'__doc__'
p44
S'None'
p45
sS'__init__'
p46
S"<method-wrapper '__init__' of IntegrityError object at 0x03FB6B70>"
p47
sS'__new__'
p48
S'<built-in method __new__ of type object at 0x1E1CCCB0>'
p49
ssS'evalue'
p50
S'column email is not unique'
p51
sS'request'
p52
ccopy_reg
_reconstructor
p53
(cgluon.html
BEAUTIFY
p54
c__builtin__
object
p55
NtRp56
(dp57
S'attributes'
p58
(dp59
sS'components'
p60
(lp61
g53
(cgluon.html
TABLE
p62
g55
NtRp63
(dp64
g58
(dp65
S'level'
p66
I5
ssS'parent'
p67
Nsg60
(lp68
g53
(cgluon.html
TR
p69
g55
NtRp70
(dp71
g58
(dp72
sg67
g63
sg60
(lp73
g53
(cgluon.html
TD
p74
g55
NtRp75
(dp76
g58
(dp77
S'_style'
p78
S'font-weight:bold;vertical-align:top'
p79
ssg67
g70
sg60
(lp80
S'ajax'
p81
asbag53
(g74
g55
NtRp82
(dp83
g58
(dp84
S'_valign'
p85
S'top'
p86
ssg67
g70
sg60
(lp87
S':'
asbag53
(g74
g55
NtRp88
(dp89
g58
(dp90
sg67
g70
sg60
(lp91
g53
(g54
g55
NtRp92
(dp93
g58
(dp94
g66
I5
ssg67
g88
sg60
(lp95
S'False'
p96
asbasbasbag53
(g69
g55
NtRp97
(dp98
g58
(dp99
sg67
g63
sg60
(lp100
g53
(g74
g55
NtRp101
(dp102
g58
(dp103
g78
g79
ssg67
g97
sg60
(lp104
S'application'
p105
asbag53
(g74
g55
NtRp106
(dp107
g58
(dp108
g85
g86
ssg67
g97
sg60
(lp109
S':'
asbag53
(g74
g55
NtRp110
(dp111
g58
(dp112
sg67
g97
sg60
(lp113
g53
(g54
g55
NtRp114
(dp115
g58
(dp116
g66
I5
ssg67
g110
sg60
(lp117
S'init'
p118
asbasbasbag53
(g69
g55
NtRp119
(dp120
g58
(dp121
sg67
g63
sg60
(lp122
g53
(g74
g55
NtRp123
(dp124
g58
(dp125
g78
g79
ssg67
g119
sg60
(lp126
g28
asbag53
(g74
g55
NtRp127
(dp128
g58
(dp129
g85
g86
ssg67
g119
sg60
(lp130
S':'
asbag53
(g74
g55
NtRp131
(dp132
g58
(dp133
sg67
g119
sg60
(lp134
g53
(g54
g55
NtRp135
(dp136
g58
(dp137
g66
I5
ssg67
g131
sg60
(lp138
g53
(g62
g55
NtRp139
(dp140
g58
(dp141
g66
I4
ssg67
Nsg60
(lp142
sbasbasbasbag53
(g69
g55
NtRp143
(dp144
g58
(dp145
sg67
g63
sg60
(lp146
g53
(g74
g55
NtRp147
(dp148
g58
(dp149
g78
g79
ssg67
g143
sg60
(lp150
S'body'
p151
asbag53
(g74
g55
NtRp152
(dp153
g58
(dp154
g85
g86
ssg67
g143
sg60
(lp155
S':'
asbag53
(g74
g55
NtRp156
(dp157
g58
(dp158
sg67
g143
sg60
(lp159
g53
(g54
g55
NtRp160
(dp161
g58
(dp162
g66
I5
ssg67
g156
sg60
(lp163
S'<cStringIO.StringO object at 0x042FA320>'
p164
asbasbasbag53
(g69
g55
NtRp165
(dp166
g58
(dp167
sg67
g63
sg60
(lp168
g53
(g74
g55
NtRp169
(dp170
g58
(dp171
g78
g79
ssg67
g165
sg60
(lp172
S'client'
p173
asbag53
(g74
g55
NtRp174
(dp175
g58
(dp176
g85
g86
ssg67
g165
sg60
(lp177
S':'
asbag53
(g74
g55
NtRp178
(dp179
g58
(dp180
sg67
g165
sg60
(lp181
g53
(g54
g55
NtRp182
(dp183
g58
(dp184
g66
I5
ssg67
g178
sg60
(lp185
S'127.0.0.1'
p186
asbasbasbag53
(g69
g55
NtRp187
(dp188
g58
(dp189
sg67
g63
sg60
(lp190
g53
(g74
g55
NtRp191
(dp192
g58
(dp193
g78
g79
ssg67
g187
sg60
(lp194
S'controller'
p195
asbag53
(g74
g55
NtRp196
(dp197
g58
(dp198
g85
g86
ssg67
g187
sg60
(lp199
S':'
asbag53
(g74
g55
NtRp200
(dp201
g58
(dp202
sg67
g187
sg60
(lp203
g53
(g54
g55
NtRp204
(dp205
g58
(dp206
g66
I5
ssg67
g200
sg60
(lp207
S'default'
p208
asbasbasbag53
(g69
g55
NtRp209
(dp210
g58
(dp211
sg67
g63
sg60
(lp212
g53
(g74
g55
NtRp213
(dp214
g58
(dp215
g78
g79
ssg67
g209
sg60
(lp216
S'cookies'
p217
asbag53
(g74
g55
NtRp218
(dp219
g58
(dp220
g85
g86
ssg67
g209
sg60
(lp221
S':'
asbag53
(g74
g55
NtRp222
(dp223
g58
(dp224
sg67
g209
sg60
(lp225
g53
(g54
g55
NtRp226
(dp227
g58
(dp228
g66
I5
ssg67
g222
sg60
(lp229
g53
(g62
g55
NtRp230
(dp231
g58
(dp232
g66
I4
ssg67
Nsg60
(lp233
g53
(g69
g55
NtRp234
(dp235
g58
(dp236
sg67
g230
sg60
(lp237
g53
(g74
g55
NtRp238
(dp239
g58
(dp240
g78
g79
ssg67
g234
sg60
(lp241
S'session_id_admin'
p242
asbag53
(g74
g55
NtRp243
(dp244
g58
(dp245
g85
g86
ssg67
g234
sg60
(lp246
S':'
asbag53
(g74
g55
NtRp247
(dp248
g58
(dp249
sg67
g234
sg60
(lp250
g53
(g54
g55
NtRp251
(dp252
g58
(dp253
g66
I4
ssg67
g247
sg60
(lp254
g53
(g62
g55
NtRp255
(dp256
g58
(dp257
g66
I3
ssg67
Nsg60
(lp258
g53
(g69
g55
NtRp259
(dp260
g58
(dp261
sg67
g255
sg60
(lp262
g53
(g74
g55
NtRp263
(dp264
g58
(dp265
g78
g79
ssg67
g259
sg60
(lp266
S'comment'
p267
asbag53
(g74
g55
NtRp268
(dp269
g58
(dp270
g85
g86
ssg67
g259
sg60
(lp271
S':'
asbag53
(g74
g55
NtRp272
(dp273
g58
(dp274
sg67
g259
sg60
(lp275
g53
(g54
g55
NtRp276
(dp277
g58
(dp278
g66
I3
ssg67
g272
sg60
(lp279
S''
asbasbasbag53
(g69
g55
NtRp280
(dp281
g58
(dp282
sg67
g255
sg60
(lp283
g53
(g74
g55
NtRp284
(dp285
g58
(dp286
g78
g79
ssg67
g280
sg60
(lp287
S'domain'
p288
asbag53
(g74
g55
NtRp289
(dp290
g58
(dp291
g85
g86
ssg67
g280
sg60
(lp292
S':'
asbag53
(g74
g55
NtRp293
(dp294
g58
(dp295
sg67
g280
sg60
(lp296
g53
(g54
g55
NtRp297
(dp298
g58
(dp299
g66
I3
ssg67
g293
sg60
(lp300
S''
asbasbasbag53
(g69
g55
NtRp301
(dp302
g58
(dp303
sg67
g255
sg60
(lp304
g53
(g74
g55
NtRp305
(dp306
g58
(dp307
g78
g79
ssg67
g301
sg60
(lp308
S'expires'
p309
asbag53
(g74
g55
NtRp310
(dp311
g58
(dp312
g85
g86
ssg67
g301
sg60
(lp313
S':'
asbag53
(g74
g55
NtRp314
(dp315
g58
(dp316
sg67
g301
sg60
(lp317
g53
(g54
g55
NtRp318
(dp319
g58
(dp320
g66
I3
ssg67
g314
sg60
(lp321
S''
asbasbasbag53
(g69
g55
NtRp322
(dp323
g58
(dp324
sg67
g255
sg60
(lp325
g53
(g74
g55
NtRp326
(dp327
g58
(dp328
g78
g79
ssg67
g322
sg60
(lp329
S'max-age'
p330
asbag53
(g74
g55
NtRp331
(dp332
g58
(dp333
g85
g86
ssg67
g322
sg60
(lp334
S':'
asbag53
(g74
g55
NtRp335
(dp336
g58
(dp337
sg67
g322
sg60
(lp338
g53
(g54
g55
NtRp339
(dp340
g58
(dp341
g66
I3
ssg67
g335
sg60
(lp342
S''
asbasbasbag53
(g69
g55
NtRp343
(dp344
g58
(dp345
sg67
g255
sg60
(lp346
g53
(g74
g55
NtRp347
(dp348
g58
(dp349
g78
g79
ssg67
g343
sg60
(lp350
S'path'
p351
asbag53
(g74
g55
NtRp352
(dp353
g58
(dp354
g85
g86
ssg67
g343
sg60
(lp355
S':'
asbag53
(g74
g55
NtRp356
(dp357
g58
(dp358
sg67
g343
sg60
(lp359
g53
(g54
g55
NtRp360
(dp361
g58
(dp362
g66
I3
ssg67
g356
sg60
(lp363
S''
asbasbasbag53
(g69
g55
NtRp364
(dp365
g58
(dp366
sg67
g255
sg60
(lp367
g53
(g74
g55
NtRp368
(dp369
g58
(dp370
g78
g79
ssg67
g364
sg60
(lp371
S'secure'
p372
asbag53
(g74
g55
NtRp373
(dp374
g58
(dp375
g85
g86
ssg67
g364
sg60
(lp376
S':'
asbag53
(g74
g55
NtRp377
(dp378
g58
(dp379
sg67
g364
sg60
(lp380
g53
(g54
g55
NtRp381
(dp382
g58
(dp383
g66
I3
ssg67
g377
sg60
(lp384
S''
asbasbasbag53
(g69
g55
NtRp385
(dp386
g58
(dp387
sg67
g255
sg60
(lp388
g53
(g74
g55
NtRp389
(dp390
g58
(dp391
g78
g79
ssg67
g385
sg60
(lp392
S'version'
p393
asbag53
(g74
g55
NtRp394
(dp395
g58
(dp396
g85
g86
ssg67
g385
sg60
(lp397
S':'
asbag53
(g74
g55
NtRp398
(dp399
g58
(dp400
sg67
g385
sg60
(lp401
g53
(g54
g55
NtRp402
(dp403
g58
(dp404
g66
I3
ssg67
g398
sg60
(lp405
S''
asbasbasbasbasbasbasbag53
(g69
g55
NtRp406
(dp407
g58
(dp408
sg67
g230
sg60
(lp409
g53
(g74
g55
NtRp410
(dp411
g58
(dp412
g78
g79
ssg67
g406
sg60
(lp413
S'session_id_init'
p414
asbag53
(g74
g55
NtRp415
(dp416
g58
(dp417
g85
g86
ssg67
g406
sg60
(lp418
S':'
asbag53
(g74
g55
NtRp419
(dp420
g58
(dp421
sg67
g406
sg60
(lp422
g53
(g54
g55
NtRp423
(dp424
g58
(dp425
g66
I4
ssg67
g419
sg60
(lp426
g53
(g62
g55
NtRp427
(dp428
g58
(dp429
g66
I3
ssg67
Nsg60
(lp430
g53
(g69
g55
NtRp431
(dp432
g58
(dp433
sg67
g427
sg60
(lp434
g53
(g74
g55
NtRp435
(dp436
g58
(dp437
g78
g79
ssg67
g431
sg60
(lp438
g267
asbag53
(g74
g55
NtRp439
(dp440
g58
(dp441
g85
g86
ssg67
g431
sg60
(lp442
S':'
asbag53
(g74
g55
NtRp443
(dp444
g58
(dp445
sg67
g431
sg60
(lp446
g53
(g54
g55
NtRp447
(dp448
g58
(dp449
g66
I3
ssg67
g443
sg60
(lp450
S''
asbasbasbag53
(g69
g55
NtRp451
(dp452
g58
(dp453
sg67
g427
sg60
(lp454
g53
(g74
g55
NtRp455
(dp456
g58
(dp457
g78
g79
ssg67
g451
sg60
(lp458
g288
asbag53
(g74
g55
NtRp459
(dp460
g58
(dp461
g85
g86
ssg67
g451
sg60
(lp462
S':'
asbag53
(g74
g55
NtRp463
(dp464
g58
(dp465
sg67
g451
sg60
(lp466
g53
(g54
g55
NtRp467
(dp468
g58
(dp469
g66
I3
ssg67
g463
sg60
(lp470
S''
asbasbasbag53
(g69
g55
NtRp471
(dp472
g58
(dp473
sg67
g427
sg60
(lp474
g53
(g74
g55
NtRp475
(dp476
g58
(dp477
g78
g79
ssg67
g471
sg60
(lp478
g309
asbag53
(g74
g55
NtRp479
(dp480
g58
(dp481
g85
g86
ssg67
g471
sg60
(lp482
S':'
asbag53
(g74
g55
NtRp483
(dp484
g58
(dp485
sg67
g471
sg60
(lp486
g53
(g54
g55
NtRp487
(dp488
g58
(dp489
g66
I3
ssg67
g483
sg60
(lp490
S''
asbasbasbag53
(g69
g55
NtRp491
(dp492
g58
(dp493
sg67
g427
sg60
(lp494
g53
(g74
g55
NtRp495
(dp496
g58
(dp497
g78
g79
ssg67
g491
sg60
(lp498
g330
asbag53
(g74
g55
NtRp499
(dp500
g58
(dp501
g85
g86
ssg67
g491
sg60
(lp502
S':'
asbag53
(g74
g55
NtRp503
(dp504
g58
(dp505
sg67
g491
sg60
(lp506
g53
(g54
g55
NtRp507
(dp508
g58
(dp509
g66
I3
ssg67
g503
sg60
(lp510
S''
asbasbasbag53
(g69
g55
NtRp511
(dp512
g58
(dp513
sg67
g427
sg60
(lp514
g53
(g74
g55
NtRp515
(dp516
g58
(dp517
g78
g79
ssg67
g511
sg60
(lp518
g351
asbag53
(g74
g55
NtRp519
(dp520
g58
(dp521
g85
g86
ssg67
g511
sg60
(lp522
S':'
asbag53
(g74
g55
NtRp523
(dp524
g58
(dp525
sg67
g511
sg60
(lp526
g53
(g54
g55
NtRp527
(dp528
g58
(dp529
g66
I3
ssg67
g523
sg60
(lp530
S''
asbasbasbag53
(g69
g55
NtRp531
(dp532
g58
(dp533
sg67
g427
sg60
(lp534
g53
(g74
g55
NtRp535
(dp536
g58
(dp537
g78
g79
ssg67
g531
sg60
(lp538
g372
asbag53
(g74
g55
NtRp539
(dp540
g58
(dp541
g85
g86
ssg67
g531
sg60
(lp542
S':'
asbag53
(g74
g55
NtRp543
(dp544
g58
(dp545
sg67
g531
sg60
(lp546
g53
(g54
g55
NtRp547
(dp548
g58
(dp549
g66
I3
ssg67
g543
sg60
(lp550
S''
asbasbasbag53
(g69
g55
NtRp551
(dp552
g58
(dp553
sg67
g427
sg60
(lp554
g53
(g74
g55
NtRp555
(dp556
g58
(dp557
g78
g79
ssg67
g551
sg60
(lp558
g393
asbag53
(g74
g55
NtRp559
(dp560
g58
(dp561
g85
g86
ssg67
g551
sg60
(lp562
S':'
asbag53
(g74
g55
NtRp563
(dp564
g58
(dp565
sg67
g551
sg60
(lp566
g53
(g54
g55
NtRp567
(dp568
g58
(dp569
g66
I3
ssg67
g563
sg60
(lp570
S''
asbasbasbasbasbasbasbasbasbasbasbag53
(g69
g55
NtRp571
(dp572
g58
(dp573
sg67
g63
sg60
(lp574
g53
(g74
g55
NtRp575
(dp576
g58
(dp577
g78
g79
ssg67
g571
sg60
(lp578
S'env'
p579
asbag53
(g74
g55
NtRp580
(dp581
g58
(dp582
g85
g86
ssg67
g571
sg60
(lp583
S':'
asbag53
(g74
g55
NtRp584
(dp585
g58
(dp586
sg67
g571
sg60
(lp587
g53
(g54
g55
NtRp588
(dp589
g58
(dp590
g66
I5
ssg67
g584
sg60
(lp591
g53
(g62
g55
NtRp592
(dp593
g58
(dp594
g66
I4
ssg67
Nsg60
(lp595
g53
(g69
g55
NtRp596
(dp597
g58
(dp598
sg67
g592
sg60
(lp599
g53
(g74
g55
NtRp600
(dp601
g58
(dp602
g78
g79
ssg67
g596
sg60
(lp603
S'app_folders'
p604
asbag53
(g74
g55
NtRp605
(dp606
g58
(dp607
g85
g86
ssg67
g596
sg60
(lp608
S':'
asbag53
(g74
g55
NtRp609
(dp610
g58
(dp611
sg67
g596
sg60
(lp612
g53
(g54
g55
NtRp613
(dp614
g58
(dp615
g66
I4
ssg67
g609
sg60
(lp616
S"set(['C:\\\\Users\\\\Bussiere\\\\Dropbox\\\\Projets\\\\jackpoint\\\\web2py\\\\applications\\\\init\\\\', 'C:\\\\Users\\\\Bussiere\\\\Dropbox\\\\Projets\\\\jackpoint\\\\web2py\\\\applications\\\\admin\\\\'])"
p617
asbasbasbag53
(g69
g55
NtRp618
(dp619
g58
(dp620
sg67
g592
sg60
(lp621
g53
(g74
g55
NtRp622
(dp623
g58
(dp624
g78
g79
ssg67
g618
sg60
(lp625
S'applications_parent'
p626
asbag53
(g74
g55
NtRp627
(dp628
g58
(dp629
g85
g86
ssg67
g618
sg60
(lp630
S':'
asbag53
(g74
g55
NtRp631
(dp632
g58
(dp633
sg67
g618
sg60
(lp634
g53
(g54
g55
NtRp635
(dp636
g58
(dp637
g66
I4
ssg67
g631
sg60
(lp638
S'C:\\Users\\Bussiere\\Dropbox\\Projets\\jackpoint\\web2py'
p639
asbasbasbag53
(g69
g55
NtRp640
(dp641
g58
(dp642
sg67
g592
sg60
(lp643
g53
(g74
g55
NtRp644
(dp645
g58
(dp646
g78
g79
ssg67
g640
sg60
(lp647
S'cmd_args'
p648
asbag53
(g74
g55
NtRp649
(dp650
g58
(dp651
g85
g86
ssg67
g640
sg60
(lp652
S':'
asbag53
(g74
g55
NtRp653
(dp654
g58
(dp655
sg67
g640
sg60
(lp656
g53
(g54
g55
NtRp657
(dp658
g58
(dp659
g66
I4
ssg67
g653
sg60
(lp660
g53
(g62
g55
NtRp661
(dp662
g58
(dp663
g66
I3
ssg67
Nsg60
(lp664
sbasbasbasbag53
(g69
g55
NtRp665
(dp666
g58
(dp667
sg67
g592
sg60
(lp668
g53
(g74
g55
NtRp669
(dp670
g58
(dp671
g78
g79
ssg67
g665
sg60
(lp672
S'cmd_options'
p673
asbag53
(g74
g55
NtRp674
(dp675
g58
(dp676
g85
g86
ssg67
g665
sg60
(lp677
S':'
asbag53
(g74
g55
NtRp678
(dp679
g58
(dp680
sg67
g665
sg60
(lp681
g53
(g54
g55
NtRp682
(dp683
g58
(dp684
g66
I4
ssg67
g678
sg60
(lp685
S"<Values at 0x3d15fa8: {'verbose': False, 'ip': '127.0.0.1', 'shutdown_timeout': 5, 'taskbar': False, 'nocron': False, 'pid_filename': 'httpserver.pid', 'maxthreads': None, 'softcron': False, 'server_name': 'Batou', 'bpython': False, 'nogui': False, 'port': 8000, 'extcron': False, 'debuglevel': 30, 'test': None, 'folder': 'C:\\\\Users\\\\Bussiere\\\\Dropbox\\\\Projets\\\\jackpoint\\\\web2py', 'config': '', 'import_models': False, 'winservice': '', 'shell': None, 'run': '', 'log_filename': 'httpserver.log', 'args': [''], 'socket_timeout': 5, 'ssl_ca_certificate': None, 'scheduler': None, 'profiler_filename': None, 'ssl_private_key': '', 'password': '<ask>', 'request_queue_size': 5, 'ssl_certificate': '', 'cronjob': False, 'numthreads': None, 'quiet': False, 'interfaces': None, 'minthreads': None, 'timeout': 10, 'plain': False, 'nobanner': False}>"
p686
asbasbasbag53
(g69
g55
NtRp687
(dp688
g58
(dp689
sg67
g592
sg60
(lp690
g53
(g74
g55
NtRp691
(dp692
g58
(dp693
g78
g79
ssg67
g687
sg60
(lp694
S'db_sessions'
p695
asbag53
(g74
g55
NtRp696
(dp697
g58
(dp698
g85
g86
ssg67
g687
sg60
(lp699
S':'
asbag53
(g74
g55
NtRp700
(dp701
g58
(dp702
sg67
g687
sg60
(lp703
g53
(g54
g55
NtRp704
(dp705
g58
(dp706
g66
I4
ssg67
g700
sg60
(lp707
S"set(['init'])"
p708
asbasbasbag53
(g69
g55
NtRp709
(dp710
g58
(dp711
sg67
g592
sg60
(lp712
g53
(g74
g55
NtRp713
(dp714
g58
(dp715
g78
g79
ssg67
g709
sg60
(lp716
S'debugging'
p717
asbag53
(g74
g55
NtRp718
(dp719
g58
(dp720
g85
g86
ssg67
g709
sg60
(lp721
S':'
asbag53
(g74
g55
NtRp722
(dp723
g58
(dp724
sg67
g709
sg60
(lp725
g53
(g54
g55
NtRp726
(dp727
g58
(dp728
g66
I4
ssg67
g722
sg60
(lp729
S'True'
p730
asbasbasbag53
(g69
g55
NtRp731
(dp732
g58
(dp733
sg67
g592
sg60
(lp734
g53
(g74
g55
NtRp735
(dp736
g58
(dp737
g78
g79
ssg67
g731
sg60
(lp738
S'gluon_parent'
p739
asbag53
(g74
g55
NtRp740
(dp741
g58
(dp742
g85
g86
ssg67
g731
sg60
(lp743
S':'
asbag53
(g74
g55
NtRp744
(dp745
g58
(dp746
sg67
g731
sg60
(lp747
g53
(g54
g55
NtRp748
(dp749
g58
(dp750
g66
I4
ssg67
g744
sg60
(lp751
S'C:\\Users\\Bussiere\\Dropbox\\Projets\\jackpoint\\web2py'
p752
asbasbasbag53
(g69
g55
NtRp753
(dp754
g58
(dp755
sg67
g592
sg60
(lp756
g53
(g74
g55
NtRp757
(dp758
g58
(dp759
g78
g79
ssg67
g753
sg60
(lp760
S'http_accept'
p761
asbag53
(g74
g55
NtRp762
(dp763
g58
(dp764
g85
g86
ssg67
g753
sg60
(lp765
S':'
asbag53
(g74
g55
NtRp766
(dp767
g58
(dp768
sg67
g753
sg60
(lp769
g53
(g54
g55
NtRp770
(dp771
g58
(dp772
g66
I4
ssg67
g766
sg60
(lp773
S'text/html,application/xhtml+xml,application/xml;q=0.9,*/*;q=0.8'
p774
asbasbasbag53
(g69
g55
NtRp775
(dp776
g58
(dp777
sg67
g592
sg60
(lp778
g53
(g74
g55
NtRp779
(dp780
g58
(dp781
g78
g79
ssg67
g775
sg60
(lp782
S'http_accept_charset'
p783
asbag53
(g74
g55
NtRp784
(dp785
g58
(dp786
g85
g86
ssg67
g775
sg60
(lp787
S':'
asbag53
(g74
g55
NtRp788
(dp789
g58
(dp790
sg67
g775
sg60
(lp791
g53
(g54
g55
NtRp792
(dp793
g58
(dp794
g66
I4
ssg67
g788
sg60
(lp795
S'ISO-8859-1,utf-8;q=0.7,*;q=0.3'
p796
asbasbasbag53
(g69
g55
NtRp797
(dp798
g58
(dp799
sg67
g592
sg60
(lp800
g53
(g74
g55
NtRp801
(dp802
g58
(dp803
g78
g79
ssg67
g797
sg60
(lp804
S'http_accept_encoding'
p805
asbag53
(g74
g55
NtRp806
(dp807
g58
(dp808
g85
g86
ssg67
g797
sg60
(lp809
S':'
asbag53
(g74
g55
NtRp810
(dp811
g58
(dp812
sg67
g797
sg60
(lp813
g53
(g54
g55
NtRp814
(dp815
g58
(dp816
g66
I4
ssg67
g810
sg60
(lp817
S'gzip,deflate,sdch'
p818
asbasbasbag53
(g69
g55
NtRp819
(dp820
g58
(dp821
sg67
g592
sg60
(lp822
g53
(g74
g55
NtRp823
(dp824
g58
(dp825
g78
g79
ssg67
g819
sg60
(lp826
S'http_accept_language'
p827
asbag53
(g74
g55
NtRp828
(dp829
g58
(dp830
g85
g86
ssg67
g819
sg60
(lp831
S':'
asbag53
(g74
g55
NtRp832
(dp833
g58
(dp834
sg67
g819
sg60
(lp835
g53
(g54
g55
NtRp836
(dp837
g58
(dp838
g66
I4
ssg67
g832
sg60
(lp839
S'fr-FR,fr;q=0.8,en-US;q=0.6,en;q=0.4'
p840
asbasbasbag53
(g69
g55
NtRp841
(dp842
g58
(dp843
sg67
g592
sg60
(lp844
g53
(g74
g55
NtRp845
(dp846
g58
(dp847
g78
g79
ssg67
g841
sg60
(lp848
S'http_connection'
p849
asbag53
(g74
g55
NtRp850
(dp851
g58
(dp852
g85
g86
ssg67
g841
sg60
(lp853
S':'
asbag53
(g74
g55
NtRp854
(dp855
g58
(dp856
sg67
g841
sg60
(lp857
g53
(g54
g55
NtRp858
(dp859
g58
(dp860
g66
I4
ssg67
g854
sg60
(lp861
S'keep-alive'
p862
asbasbasbag53
(g69
g55
NtRp863
(dp864
g58
(dp865
sg67
g592
sg60
(lp866
g53
(g74
g55
NtRp867
(dp868
g58
(dp869
g78
g79
ssg67
g863
sg60
(lp870
S'http_cookie'
p871
asbag53
(g74
g55
NtRp872
(dp873
g58
(dp874
g85
g86
ssg67
g863
sg60
(lp875
S':'
asbag53
(g74
g55
NtRp876
(dp877
g58
(dp878
sg67
g863
sg60
(lp879
g53
(g54
g55
NtRp880
(dp881
g58
(dp882
g66
I4
ssg67
g876
sg60
(lp883
S'session_id_admin=127.0.0.1-cd0804c6-e511-44b3-a98c-c288110cd656; session_id_init="19:a8687721-5787-4713-9329-1674aeb3f1bb"'
p884
asbasbasbag53
(g69
g55
NtRp885
(dp886
g58
(dp887
sg67
g592
sg60
(lp888
g53
(g74
g55
NtRp889
(dp890
g58
(dp891
g78
g79
ssg67
g885
sg60
(lp892
S'http_host'
p893
asbag53
(g74
g55
NtRp894
(dp895
g58
(dp896
g85
g86
ssg67
g885
sg60
(lp897
S':'
asbag53
(g74
g55
NtRp898
(dp899
g58
(dp900
sg67
g885
sg60
(lp901
g53
(g54
g55
NtRp902
(dp903
g58
(dp904
g66
I4
ssg67
g898
sg60
(lp905
S'localhost:8000'
p906
asbasbasbag53
(g69
g55
NtRp907
(dp908
g58
(dp909
sg67
g592
sg60
(lp910
g53
(g74
g55
NtRp911
(dp912
g58
(dp913
g78
g79
ssg67
g907
sg60
(lp914
S'http_user_agent'
p915
asbag53
(g74
g55
NtRp916
(dp917
g58
(dp918
g85
g86
ssg67
g907
sg60
(lp919
S':'
asbag53
(g74
g55
NtRp920
(dp921
g58
(dp922
sg67
g907
sg60
(lp923
g53
(g54
g55
NtRp924
(dp925
g58
(dp926
g66
I4
ssg67
g920
sg60
(lp927
S'Mozilla/5.0 (Windows NT 6.1; WOW64) AppleWebKit/535.11 (KHTML, like Gecko) Chrome/17.0.963.83 Safari/535.11'
p928
asbasbasbag53
(g69
g55
NtRp929
(dp930
g58
(dp931
sg67
g592
sg60
(lp932
g53
(g74
g55
NtRp933
(dp934
g58
(dp935
g78
g79
ssg67
g929
sg60
(lp936
S'is_jython'
p937
asbag53
(g74
g55
NtRp938
(dp939
g58
(dp940
g85
g86
ssg67
g929
sg60
(lp941
S':'
asbag53
(g74
g55
NtRp942
(dp943
g58
(dp944
sg67
g929
sg60
(lp945
g53
(g54
g55
NtRp946
(dp947
g58
(dp948
g66
I4
ssg67
g942
sg60
(lp949
g96
asbasbasbag53
(g69
g55
NtRp950
(dp951
g58
(dp952
sg67
g592
sg60
(lp953
g53
(g74
g55
NtRp954
(dp955
g58
(dp956
g78
g79
ssg67
g950
sg60
(lp957
S'is_pypy'
p958
asbag53
(g74
g55
NtRp959
(dp960
g58
(dp961
g85
g86
ssg67
g950
sg60
(lp962
S':'
asbag53
(g74
g55
NtRp963
(dp964
g58
(dp965
sg67
g950
sg60
(lp966
g53
(g54
g55
NtRp967
(dp968
g58
(dp969
g66
I4
ssg67
g963
sg60
(lp970
g96
asbasbasbag53
(g69
g55
NtRp971
(dp972
g58
(dp973
sg67
g592
sg60
(lp974
g53
(g74
g55
NtRp975
(dp976
g58
(dp977
g78
g79
ssg67
g971
sg60
(lp978
S'path_info'
p979
asbag53
(g74
g55
NtRp980
(dp981
g58
(dp982
g85
g86
ssg67
g971
sg60
(lp983
S':'
asbag53
(g74
g55
NtRp984
(dp985
g58
(dp986
sg67
g971
sg60
(lp987
g53
(g54
g55
NtRp988
(dp989
g58
(dp990
g66
I4
ssg67
g984
sg60
(lp991
S'/init/default/initdbjack'
p992
asbasbasbag53
(g69
g55
NtRp993
(dp994
g58
(dp995
sg67
g592
sg60
(lp996
g53
(g74
g55
NtRp997
(dp998
g58
(dp999
g78
g79
ssg67
g993
sg60
(lp1000
S'query_string'
p1001
asbag53
(g74
g55
NtRp1002
(dp1003
g58
(dp1004
g85
g86
ssg67
g993
sg60
(lp1005
S':'
asbag53
(g74
g55
NtRp1006
(dp1007
g58
(dp1008
sg67
g993
sg60
(lp1009
g53
(g54
g55
NtRp1010
(dp1011
g58
(dp1012
g66
I4
ssg67
g1006
sg60
(lp1013
S''
asbasbasbag53
(g69
g55
NtRp1014
(dp1015
g58
(dp1016
sg67
g592
sg60
(lp1017
g53
(g74
g55
NtRp1018
(dp1019
g58
(dp1020
g78
g79
ssg67
g1014
sg60
(lp1021
S'remote_addr'
p1022
asbag53
(g74
g55
NtRp1023
(dp1024
g58
(dp1025
g85
g86
ssg67
g1014
sg60
(lp1026
S':'
asbag53
(g74
g55
NtRp1027
(dp1028
g58
(dp1029
sg67
g1014
sg60
(lp1030
g53
(g54
g55
NtRp1031
(dp1032
g58
(dp1033
g66
I4
ssg67
g1027
sg60
(lp1034
g186
asbasbasbag53
(g69
g55
NtRp1035
(dp1036
g58
(dp1037
sg67
g592
sg60
(lp1038
g53
(g74
g55
NtRp1039
(dp1040
g58
(dp1041
g78
g79
ssg67
g1035
sg60
(lp1042
S'remote_port'
p1043
asbag53
(g74
g55
NtRp1044
(dp1045
g58
(dp1046
g85
g86
ssg67
g1035
sg60
(lp1047
S':'
asbag53
(g74
g55
NtRp1048
(dp1049
g58
(dp1050
sg67
g1035
sg60
(lp1051
g53
(g54
g55
NtRp1052
(dp1053
g58
(dp1054
g66
I4
ssg67
g1048
sg60
(lp1055
S'58878'
p1056
asbasbasbag53
(g69
g55
NtRp1057
(dp1058
g58
(dp1059
sg67
g592
sg60
(lp1060
g53
(g74
g55
NtRp1061
(dp1062
g58
(dp1063
g78
g79
ssg67
g1057
sg60
(lp1064
S'request_method'
p1065
asbag53
(g74
g55
NtRp1066
(dp1067
g58
(dp1068
g85
g86
ssg67
g1057
sg60
(lp1069
S':'
asbag53
(g74
g55
NtRp1070
(dp1071
g58
(dp1072
sg67
g1057
sg60
(lp1073
g53
(g54
g55
NtRp1074
(dp1075
g58
(dp1076
g66
I4
ssg67
g1070
sg60
(lp1077
S'GET'
p1078
asbasbasbag53
(g69
g55
NtRp1079
(dp1080
g58
(dp1081
sg67
g592
sg60
(lp1082
g53
(g74
g55
NtRp1083
(dp1084
g58
(dp1085
g78
g79
ssg67
g1079
sg60
(lp1086
S'script_name'
p1087
asbag53
(g74
g55
NtRp1088
(dp1089
g58
(dp1090
g85
g86
ssg67
g1079
sg60
(lp1091
S':'
asbag53
(g74
g55
NtRp1092
(dp1093
g58
(dp1094
sg67
g1079
sg60
(lp1095
g53
(g54
g55
NtRp1096
(dp1097
g58
(dp1098
g66
I4
ssg67
g1092
sg60
(lp1099
S''
asbasbasbag53
(g69
g55
NtRp1100
(dp1101
g58
(dp1102
sg67
g592
sg60
(lp1103
g53
(g74
g55
NtRp1104
(dp1105
g58
(dp1106
g78
g79
ssg67
g1100
sg60
(lp1107
S'server_name'
p1108
asbag53
(g74
g55
NtRp1109
(dp1110
g58
(dp1111
g85
g86
ssg67
g1100
sg60
(lp1112
S':'
asbag53
(g74
g55
NtRp1113
(dp1114
g58
(dp1115
sg67
g1100
sg60
(lp1116
g53
(g54
g55
NtRp1117
(dp1118
g58
(dp1119
g66
I4
ssg67
g1113
sg60
(lp1120
S'Batou'
p1121
asbasbasbag53
(g69
g55
NtRp1122
(dp1123
g58
(dp1124
sg67
g592
sg60
(lp1125
g53
(g74
g55
NtRp1126
(dp1127
g58
(dp1128
g78
g79
ssg67
g1122
sg60
(lp1129
S'server_port'
p1130
asbag53
(g74
g55
NtRp1131
(dp1132
g58
(dp1133
g85
g86
ssg67
g1122
sg60
(lp1134
S':'
asbag53
(g74
g55
NtRp1135
(dp1136
g58
(dp1137
sg67
g1122
sg60
(lp1138
g53
(g54
g55
NtRp1139
(dp1140
g58
(dp1141
g66
I4
ssg67
g1135
sg60
(lp1142
S'8000'
p1143
asbasbasbag53
(g69
g55
NtRp1144
(dp1145
g58
(dp1146
sg67
g592
sg60
(lp1147
g53
(g74
g55
NtRp1148
(dp1149
g58
(dp1150
g78
g79
ssg67
g1144
sg60
(lp1151
S'server_protocol'
p1152
asbag53
(g74
g55
NtRp1153
(dp1154
g58
(dp1155
g85
g86
ssg67
g1144
sg60
(lp1156
S':'
asbag53
(g74
g55
NtRp1157
(dp1158
g58
(dp1159
sg67
g1144
sg60
(lp1160
g53
(g54
g55
NtRp1161
(dp1162
g58
(dp1163
g66
I4
ssg67
g1157
sg60
(lp1164
S'HTTP/1.1'
p1165
asbasbasbag53
(g69
g55
NtRp1166
(dp1167
g58
(dp1168
sg67
g592
sg60
(lp1169
g53
(g74
g55
NtRp1170
(dp1171
g58
(dp1172
g78
g79
ssg67
g1166
sg60
(lp1173
S'server_software'
p1174
asbag53
(g74
g55
NtRp1175
(dp1176
g58
(dp1177
g85
g86
ssg67
g1166
sg60
(lp1178
S':'
asbag53
(g74
g55
NtRp1179
(dp1180
g58
(dp1181
sg67
g1166
sg60
(lp1182
g53
(g54
g55
NtRp1183
(dp1184
g58
(dp1185
g66
I4
ssg67
g1179
sg60
(lp1186
S'Rocket 1.2.4'
p1187
asbasbasbag53
(g69
g55
NtRp1188
(dp1189
g58
(dp1190
sg67
g592
sg60
(lp1191
g53
(g74
g55
NtRp1192
(dp1193
g58
(dp1194
g78
g79
ssg67
g1188
sg60
(lp1195
S'web2py_crontype'
p1196
asbag53
(g74
g55
NtRp1197
(dp1198
g58
(dp1199
g85
g86
ssg67
g1188
sg60
(lp1200
S':'
asbag53
(g74
g55
NtRp1201
(dp1202
g58
(dp1203
sg67
g1188
sg60
(lp1204
g53
(g54
g55
NtRp1205
(dp1206
g58
(dp1207
g66
I4
ssg67
g1201
sg60
(lp1208
S'hard'
p1209
asbasbasbag53
(g69
g55
NtRp1210
(dp1211
g58
(dp1212
sg67
g592
sg60
(lp1213
g53
(g74
g55
NtRp1214
(dp1215
g58
(dp1216
g78
g79
ssg67
g1210
sg60
(lp1217
S'web2py_path'
p1218
asbag53
(g74
g55
NtRp1219
(dp1220
g58
(dp1221
g85
g86
ssg67
g1210
sg60
(lp1222
S':'
asbag53
(g74
g55
NtRp1223
(dp1224
g58
(dp1225
sg67
g1210
sg60
(lp1226
g53
(g54
g55
NtRp1227
(dp1228
g58
(dp1229
g66
I4
ssg67
g1223
sg60
(lp1230
g639
asbasbasbag53
(g69
g55
NtRp1231
(dp1232
g58
(dp1233
sg67
g592
sg60
(lp1234
g53
(g74
g55
NtRp1235
(dp1236
g58
(dp1237
g78
g79
ssg67
g1231
sg60
(lp1238
S'web2py_version'
p1239
asbag53
(g74
g55
NtRp1240
(dp1241
g58
(dp1242
g85
g86
ssg67
g1231
sg60
(lp1243
S':'
asbag53
(g74
g55
NtRp1244
(dp1245
g58
(dp1246
sg67
g1231
sg60
(lp1247
g53
(g54
g55
NtRp1248
(dp1249
g58
(dp1250
g66
I4
ssg67
g1244
sg60
(lp1251
g53
(g62
g55
NtRp1252
(dp1253
g58
(dp1254
g66
I3
ssg67
Nsg60
(lp1255
g53
(g69
g55
NtRp1256
(dp1257
g58
(dp1258
sg67
g1252
sg60
(lp1259
g53
(g74
g55
NtRp1260
(dp1261
g58
(dp1262
sg67
g1256
sg60
(lp1263
g53
(g54
g55
NtRp1264
(dp1265
g58
(dp1266
g66
I3
ssg67
g1260
sg60
(lp1267
S'1'
asbasbasbag53
(g69
g55
NtRp1268
(dp1269
g58
(dp1270
sg67
g1252
sg60
(lp1271
g53
(g74
g55
NtRp1272
(dp1273
g58
(dp1274
sg67
g1268
sg60
(lp1275
g53
(g54
g55
NtRp1276
(dp1277
g58
(dp1278
g66
I3
ssg67
g1272
sg60
(lp1279
S'99'
p1280
asbasbasbag53
(g69
g55
NtRp1281
(dp1282
g58
(dp1283
sg67
g1252
sg60
(lp1284
g53
(g74
g55
NtRp1285
(dp1286
g58
(dp1287
sg67
g1281
sg60
(lp1288
g53
(g54
g55
NtRp1289
(dp1290
g58
(dp1291
g66
I3
ssg67
g1285
sg60
(lp1292
S'7'
asbasbasbag53
(g69
g55
NtRp1293
(dp1294
g58
(dp1295
sg67
g1252
sg60
(lp1296
g53
(g74
g55
NtRp1297
(dp1298
g58
(dp1299
sg67
g1293
sg60
(lp1300
g53
(g54
g55
NtRp1301
(dp1302
g58
(dp1303
g66
I3
ssg67
g1297
sg60
(lp1304
S'datetime.datetime(2012, 3, 4, 22, 12, 8)'
p1305
asbasbasbag53
(g69
g55
NtRp1306
(dp1307
g58
(dp1308
sg67
g1252
sg60
(lp1309
g53
(g74
g55
NtRp1310
(dp1311
g58
(dp1312
sg67
g1306
sg60
(lp1313
g53
(g54
g55
NtRp1314
(dp1315
g58
(dp1316
g66
I3
ssg67
g1310
sg60
(lp1317
S'stable'
p1318
asbasbasbasbasbasbasbag53
(g69
g55
NtRp1319
(dp1320
g58
(dp1321
sg67
g592
sg60
(lp1322
g53
(g74
g55
NtRp1323
(dp1324
g58
(dp1325
g78
g79
ssg67
g1319
sg60
(lp1326
S'wsgi_errors'
p1327
asbag53
(g74
g55
NtRp1328
(dp1329
g58
(dp1330
g85
g86
ssg67
g1319
sg60
(lp1331
S':'
asbag53
(g74
g55
NtRp1332
(dp1333
g58
(dp1334
sg67
g1319
sg60
(lp1335
g53
(g54
g55
NtRp1336
(dp1337
g58
(dp1338
g66
I4
ssg67
g1332
sg60
(lp1339
S"<open file '<stderr>', mode 'w' at 0x005300B0>"
p1340
asbasbasbag53
(g69
g55
NtRp1341
(dp1342
g58
(dp1343
sg67
g592
sg60
(lp1344
g53
(g74
g55
NtRp1345
(dp1346
g58
(dp1347
g78
g79
ssg67
g1341
sg60
(lp1348
S'wsgi_file_wrapper'
p1349
asbag53
(g74
g55
NtRp1350
(dp1351
g58
(dp1352
g85
g86
ssg67
g1341
sg60
(lp1353
S':'
asbag53
(g74
g55
NtRp1354
(dp1355
g58
(dp1356
sg67
g1341
sg60
(lp1357
g53
(g54
g55
NtRp1358
(dp1359
g58
(dp1360
g66
I4
ssg67
g1354
sg60
(lp1361
S'<class wsgiref.util.FileWrapper at 0x02C34900>'
p1362
asbasbasbag53
(g69
g55
NtRp1363
(dp1364
g58
(dp1365
sg67
g592
sg60
(lp1366
g53
(g74
g55
NtRp1367
(dp1368
g58
(dp1369
g78
g79
ssg67
g1363
sg60
(lp1370
S'wsgi_input'
p1371
asbag53
(g74
g55
NtRp1372
(dp1373
g58
(dp1374
g85
g86
ssg67
g1363
sg60
(lp1375
S':'
asbag53
(g74
g55
NtRp1376
(dp1377
g58
(dp1378
sg67
g1363
sg60
(lp1379
g53
(g54
g55
NtRp1380
(dp1381
g58
(dp1382
g66
I4
ssg67
g1376
sg60
(lp1383
S'<socket._fileobject object at 0x0427F270>'
p1384
asbasbasbag53
(g69
g55
NtRp1385
(dp1386
g58
(dp1387
sg67
g592
sg60
(lp1388
g53
(g74
g55
NtRp1389
(dp1390
g58
(dp1391
g78
g79
ssg67
g1385
sg60
(lp1392
S'wsgi_multiprocess'
p1393
asbag53
(g74
g55
NtRp1394
(dp1395
g58
(dp1396
g85
g86
ssg67
g1385
sg60
(lp1397
S':'
asbag53
(g74
g55
NtRp1398
(dp1399
g58
(dp1400
sg67
g1385
sg60
(lp1401
g53
(g54
g55
NtRp1402
(dp1403
g58
(dp1404
g66
I4
ssg67
g1398
sg60
(lp1405
g96
asbasbasbag53
(g69
g55
NtRp1406
(dp1407
g58
(dp1408
sg67
g592
sg60
(lp1409
g53
(g74
g55
NtRp1410
(dp1411
g58
(dp1412
g78
g79
ssg67
g1406
sg60
(lp1413
S'wsgi_multithread'
p1414
asbag53
(g74
g55
NtRp1415
(dp1416
g58
(dp1417
g85
g86
ssg67
g1406
sg60
(lp1418
S':'
asbag53
(g74
g55
NtRp1419
(dp1420
g58
(dp1421
sg67
g1406
sg60
(lp1422
g53
(g54
g55
NtRp1423
(dp1424
g58
(dp1425
g66
I4
ssg67
g1419
sg60
(lp1426
g730
asbasbasbag53
(g69
g55
NtRp1427
(dp1428
g58
(dp1429
sg67
g592
sg60
(lp1430
g53
(g74
g55
NtRp1431
(dp1432
g58
(dp1433
g78
g79
ssg67
g1427
sg60
(lp1434
S'wsgi_run_once'
p1435
asbag53
(g74
g55
NtRp1436
(dp1437
g58
(dp1438
g85
g86
ssg67
g1427
sg60
(lp1439
S':'
asbag53
(g74
g55
NtRp1440
(dp1441
g58
(dp1442
sg67
g1427
sg60
(lp1443
g53
(g54
g55
NtRp1444
(dp1445
g58
(dp1446
g66
I4
ssg67
g1440
sg60
(lp1447
g96
asbasbasbag53
(g69
g55
NtRp1448
(dp1449
g58
(dp1450
sg67
g592
sg60
(lp1451
g53
(g74
g55
NtRp1452
(dp1453
g58
(dp1454
g78
g79
ssg67
g1448
sg60
(lp1455
S'wsgi_url_scheme'
p1456
asbag53
(g74
g55
NtRp1457
(dp1458
g58
(dp1459
g85
g86
ssg67
g1448
sg60
(lp1460
S':'
asbag53
(g74
g55
NtRp1461
(dp1462
g58
(dp1463
sg67
g1448
sg60
(lp1464
g53
(g54
g55
NtRp1465
(dp1466
g58
(dp1467
g66
I4
ssg67
g1461
sg60
(lp1468
S'http'
p1469
asbasbasbag53
(g69
g55
NtRp1470
(dp1471
g58
(dp1472
sg67
g592
sg60
(lp1473
g53
(g74
g55
NtRp1474
(dp1475
g58
(dp1476
g78
g79
ssg67
g1470
sg60
(lp1477
S'wsgi_version'
p1478
asbag53
(g74
g55
NtRp1479
(dp1480
g58
(dp1481
g85
g86
ssg67
g1470
sg60
(lp1482
S':'
asbag53
(g74
g55
NtRp1483
(dp1484
g58
(dp1485
sg67
g1470
sg60
(lp1486
g53
(g54
g55
NtRp1487
(dp1488
g58
(dp1489
g66
I4
ssg67
g1483
sg60
(lp1490
g53
(g62
g55
NtRp1491
(dp1492
g58
(dp1493
g66
I3
ssg67
Nsg60
(lp1494
g53
(g69
g55
NtRp1495
(dp1496
g58
(dp1497
sg67
g1491
sg60
(lp1498
g53
(g74
g55
NtRp1499
(dp1500
g58
(dp1501
sg67
g1495
sg60
(lp1502
g53
(g54
g55
NtRp1503
(dp1504
g58
(dp1505
g66
I3
ssg67
g1499
sg60
(lp1506
S'1'
asbasbasbag53
(g69
g55
NtRp1507
(dp1508
g58
(dp1509
sg67
g1491
sg60
(lp1510
g53
(g74
g55
NtRp1511
(dp1512
g58
(dp1513
sg67
g1507
sg60
(lp1514
g53
(g54
g55
NtRp1515
(dp1516
g58
(dp1517
g66
I3
ssg67
g1511
sg60
(lp1518
S'0'
asbasbasbasbasbasbasbasbasbasbasbag53
(g69
g55
NtRp1519
(dp1520
g58
(dp1521
sg67
g63
sg60
(lp1522
g53
(g74
g55
NtRp1523
(dp1524
g58
(dp1525
g78
g79
ssg67
g1519
sg60
(lp1526
S'extension'
p1527
asbag53
(g74
g55
NtRp1528
(dp1529
g58
(dp1530
g85
g86
ssg67
g1519
sg60
(lp1531
S':'
asbag53
(g74
g55
NtRp1532
(dp1533
g58
(dp1534
sg67
g1519
sg60
(lp1535
g53
(g54
g55
NtRp1536
(dp1537
g58
(dp1538
g66
I5
ssg67
g1532
sg60
(lp1539
S'html'
p1540
asbasbasbag53
(g69
g55
NtRp1541
(dp1542
g58
(dp1543
sg67
g63
sg60
(lp1544
g53
(g74
g55
NtRp1545
(dp1546
g58
(dp1547
g78
g79
ssg67
g1541
sg60
(lp1548
S'folder'
p1549
asbag53
(g74
g55
NtRp1550
(dp1551
g58
(dp1552
g85
g86
ssg67
g1541
sg60
(lp1553
S':'
asbag53
(g74
g55
NtRp1554
(dp1555
g58
(dp1556
sg67
g1541
sg60
(lp1557
g53
(g54
g55
NtRp1558
(dp1559
g58
(dp1560
g66
I5
ssg67
g1554
sg60
(lp1561
S'C:\\Users\\Bussiere\\Dropbox\\Projets\\jackpoint\\web2py\\applications\\init\\'
p1562
asbasbasbag53
(g69
g55
NtRp1563
(dp1564
g58
(dp1565
sg67
g63
sg60
(lp1566
g53
(g74
g55
NtRp1567
(dp1568
g58
(dp1569
g78
g79
ssg67
g1563
sg60
(lp1570
S'function'
p1571
asbag53
(g74
g55
NtRp1572
(dp1573
g58
(dp1574
g85
g86
ssg67
g1563
sg60
(lp1575
S':'
asbag53
(g74
g55
NtRp1576
(dp1577
g58
(dp1578
sg67
g1563
sg60
(lp1579
g53
(g54
g55
NtRp1580
(dp1581
g58
(dp1582
g66
I5
ssg67
g1576
sg60
(lp1583
S'initdbjack'
p1584
asbasbasbag53
(g69
g55
NtRp1585
(dp1586
g58
(dp1587
sg67
g63
sg60
(lp1588
g53
(g74
g55
NtRp1589
(dp1590
g58
(dp1591
g78
g79
ssg67
g1585
sg60
(lp1592
S'get_vars'
p1593
asbag53
(g74
g55
NtRp1594
(dp1595
g58
(dp1596
g85
g86
ssg67
g1585
sg60
(lp1597
S':'
asbag53
(g74
g55
NtRp1598
(dp1599
g58
(dp1600
sg67
g1585
sg60
(lp1601
g53
(g54
g55
NtRp1602
(dp1603
g58
(dp1604
g66
I5
ssg67
g1598
sg60
(lp1605
g53
(g62
g55
NtRp1606
(dp1607
g58
(dp1608
g66
I4
ssg67
Nsg60
(lp1609
sbasbasbasbag53
(g69
g55
NtRp1610
(dp1611
g58
(dp1612
sg67
g63
sg60
(lp1613
g53
(g74
g55
NtRp1614
(dp1615
g58
(dp1616
g78
g79
ssg67
g1610
sg60
(lp1617
S'global_settings'
p1618
asbag53
(g74
g55
NtRp1619
(dp1620
g58
(dp1621
g85
g86
ssg67
g1610
sg60
(lp1622
S':'
asbag53
(g74
g55
NtRp1623
(dp1624
g58
(dp1625
sg67
g1610
sg60
(lp1626
g53
(g54
g55
NtRp1627
(dp1628
g58
(dp1629
g66
I5
ssg67
g1623
sg60
(lp1630
g53
(g62
g55
NtRp1631
(dp1632
g58
(dp1633
g66
I4
ssg67
Nsg60
(lp1634
g53
(g69
g55
NtRp1635
(dp1636
g58
(dp1637
sg67
g1631
sg60
(lp1638
g53
(g74
g55
NtRp1639
(dp1640
g58
(dp1641
g78
g79
ssg67
g1635
sg60
(lp1642
g604
asbag53
(g74
g55
NtRp1643
(dp1644
g58
(dp1645
g85
g86
ssg67
g1635
sg60
(lp1646
S':'
asbag53
(g74
g55
NtRp1647
(dp1648
g58
(dp1649
sg67
g1635
sg60
(lp1650
g53
(g54
g55
NtRp1651
(dp1652
g58
(dp1653
g66
I4
ssg67
g1647
sg60
(lp1654
S"set(['C:\\\\Users\\\\Bussiere\\\\Dropbox\\\\Projets\\\\jackpoint\\\\web2py\\\\applications\\\\init\\\\', 'C:\\\\Users\\\\Bussiere\\\\Dropbox\\\\Projets\\\\jackpoint\\\\web2py\\\\applications\\\\admin\\\\'])"
p1655
asbasbasbag53
(g69
g55
NtRp1656
(dp1657
g58
(dp1658
sg67
g1631
sg60
(lp1659
g53
(g74
g55
NtRp1660
(dp1661
g58
(dp1662
g78
g79
ssg67
g1656
sg60
(lp1663
g626
asbag53
(g74
g55
NtRp1664
(dp1665
g58
(dp1666
g85
g86
ssg67
g1656
sg60
(lp1667
S':'
asbag53
(g74
g55
NtRp1668
(dp1669
g58
(dp1670
sg67
g1656
sg60
(lp1671
g53
(g54
g55
NtRp1672
(dp1673
g58
(dp1674
g66
I4
ssg67
g1668
sg60
(lp1675
g639
asbasbasbag53
(g69
g55
NtRp1676
(dp1677
g58
(dp1678
sg67
g1631
sg60
(lp1679
g53
(g74
g55
NtRp1680
(dp1681
g58
(dp1682
g78
g79
ssg67
g1676
sg60
(lp1683
g648
asbag53
(g74
g55
NtRp1684
(dp1685
g58
(dp1686
g85
g86
ssg67
g1676
sg60
(lp1687
S':'
asbag53
(g74
g55
NtRp1688
(dp1689
g58
(dp1690
sg67
g1676
sg60
(lp1691
g53
(g54
g55
NtRp1692
(dp1693
g58
(dp1694
g66
I4
ssg67
g1688
sg60
(lp1695
g53
(g62
g55
NtRp1696
(dp1697
g58
(dp1698
g66
I3
ssg67
Nsg60
(lp1699
sbasbasbasbag53
(g69
g55
NtRp1700
(dp1701
g58
(dp1702
sg67
g1631
sg60
(lp1703
g53
(g74
g55
NtRp1704
(dp1705
g58
(dp1706
g78
g79
ssg67
g1700
sg60
(lp1707
g673
asbag53
(g74
g55
NtRp1708
(dp1709
g58
(dp1710
g85
g86
ssg67
g1700
sg60
(lp1711
S':'
asbag53
(g74
g55
NtRp1712
(dp1713
g58
(dp1714
sg67
g1700
sg60
(lp1715
g53
(g54
g55
NtRp1716
(dp1717
g58
(dp1718
g66
I4
ssg67
g1712
sg60
(lp1719
S"<Values at 0x3d15fa8: {'verbose': False, 'ip': '127.0.0.1', 'shutdown_timeout': 5, 'taskbar': False, 'nocron': False, 'pid_filename': 'httpserver.pid', 'maxthreads': None, 'softcron': False, 'server_name': 'Batou', 'bpython': False, 'nogui': False, 'port': 8000, 'extcron': False, 'debuglevel': 30, 'test': None, 'folder': 'C:\\\\Users\\\\Bussiere\\\\Dropbox\\\\Projets\\\\jackpoint\\\\web2py', 'config': '', 'import_models': False, 'winservice': '', 'shell': None, 'run': '', 'log_filename': 'httpserver.log', 'args': [''], 'socket_timeout': 5, 'ssl_ca_certificate': None, 'scheduler': None, 'profiler_filename': None, 'ssl_private_key': '', 'password': '<ask>', 'request_queue_size': 5, 'ssl_certificate': '', 'cronjob': False, 'numthreads': None, 'quiet': False, 'interfaces': None, 'minthreads': None, 'timeout': 10, 'plain': False, 'nobanner': False}>"
p1720
asbasbasbag53
(g69
g55
NtRp1721
(dp1722
g58
(dp1723
sg67
g1631
sg60
(lp1724
g53
(g74
g55
NtRp1725
(dp1726
g58
(dp1727
g78
g79
ssg67
g1721
sg60
(lp1728
g695
asbag53
(g74
g55
NtRp1729
(dp1730
g58
(dp1731
g85
g86
ssg67
g1721
sg60
(lp1732
S':'
asbag53
(g74
g55
NtRp1733
(dp1734
g58
(dp1735
sg67
g1721
sg60
(lp1736
g53
(g54
g55
NtRp1737
(dp1738
g58
(dp1739
g66
I4
ssg67
g1733
sg60
(lp1740
S"set(['init'])"
p1741
asbasbasbag53
(g69
g55
NtRp1742
(dp1743
g58
(dp1744
sg67
g1631
sg60
(lp1745
g53
(g74
g55
NtRp1746
(dp1747
g58
(dp1748
g78
g79
ssg67
g1742
sg60
(lp1749
g717
asbag53
(g74
g55
NtRp1750
(dp1751
g58
(dp1752
g85
g86
ssg67
g1742
sg60
(lp1753
S':'
asbag53
(g74
g55
NtRp1754
(dp1755
g58
(dp1756
sg67
g1742
sg60
(lp1757
g53
(g54
g55
NtRp1758
(dp1759
g58
(dp1760
g66
I4
ssg67
g1754
sg60
(lp1761
g730
asbasbasbag53
(g69
g55
NtRp1762
(dp1763
g58
(dp1764
sg67
g1631
sg60
(lp1765
g53
(g74
g55
NtRp1766
(dp1767
g58
(dp1768
g78
g79
ssg67
g1762
sg60
(lp1769
g739
asbag53
(g74
g55
NtRp1770
(dp1771
g58
(dp1772
g85
g86
ssg67
g1762
sg60
(lp1773
S':'
asbag53
(g74
g55
NtRp1774
(dp1775
g58
(dp1776
sg67
g1762
sg60
(lp1777
g53
(g54
g55
NtRp1778
(dp1779
g58
(dp1780
g66
I4
ssg67
g1774
sg60
(lp1781
g752
asbasbasbag53
(g69
g55
NtRp1782
(dp1783
g58
(dp1784
sg67
g1631
sg60
(lp1785
g53
(g74
g55
NtRp1786
(dp1787
g58
(dp1788
g78
g79
ssg67
g1782
sg60
(lp1789
g937
asbag53
(g74
g55
NtRp1790
(dp1791
g58
(dp1792
g85
g86
ssg67
g1782
sg60
(lp1793
S':'
asbag53
(g74
g55
NtRp1794
(dp1795
g58
(dp1796
sg67
g1782
sg60
(lp1797
g53
(g54
g55
NtRp1798
(dp1799
g58
(dp1800
g66
I4
ssg67
g1794
sg60
(lp1801
g96
asbasbasbag53
(g69
g55
NtRp1802
(dp1803
g58
(dp1804
sg67
g1631
sg60
(lp1805
g53
(g74
g55
NtRp1806
(dp1807
g58
(dp1808
g78
g79
ssg67
g1802
sg60
(lp1809
g958
asbag53
(g74
g55
NtRp1810
(dp1811
g58
(dp1812
g85
g86
ssg67
g1802
sg60
(lp1813
S':'
asbag53
(g74
g55
NtRp1814
(dp1815
g58
(dp1816
sg67
g1802
sg60
(lp1817
g53
(g54
g55
NtRp1818
(dp1819
g58
(dp1820
g66
I4
ssg67
g1814
sg60
(lp1821
g96
asbasbasbag53
(g69
g55
NtRp1822
(dp1823
g58
(dp1824
sg67
g1631
sg60
(lp1825
g53
(g74
g55
NtRp1826
(dp1827
g58
(dp1828
g78
g79
ssg67
g1822
sg60
(lp1829
g1196
asbag53
(g74
g55
NtRp1830
(dp1831
g58
(dp1832
g85
g86
ssg67
g1822
sg60
(lp1833
S':'
asbag53
(g74
g55
NtRp1834
(dp1835
g58
(dp1836
sg67
g1822
sg60
(lp1837
g53
(g54
g55
NtRp1838
(dp1839
g58
(dp1840
g66
I4
ssg67
g1834
sg60
(lp1841
g1209
asbasbasbag53
(g69
g55
NtRp1842
(dp1843
g58
(dp1844
sg67
g1631
sg60
(lp1845
g53
(g74
g55
NtRp1846
(dp1847
g58
(dp1848
g78
g79
ssg67
g1842
sg60
(lp1849
g1239
asbag53
(g74
g55
NtRp1850
(dp1851
g58
(dp1852
g85
g86
ssg67
g1842
sg60
(lp1853
S':'
asbag53
(g74
g55
NtRp1854
(dp1855
g58
(dp1856
sg67
g1842
sg60
(lp1857
g53
(g54
g55
NtRp1858
(dp1859
g58
(dp1860
g66
I4
ssg67
g1854
sg60
(lp1861
g53
(g62
g55
NtRp1862
(dp1863
g58
(dp1864
g66
I3
ssg67
Nsg60
(lp1865
g53
(g69
g55
NtRp1866
(dp1867
g58
(dp1868
sg67
g1862
sg60
(lp1869
g53
(g74
g55
NtRp1870
(dp1871
g58
(dp1872
sg67
g1866
sg60
(lp1873
g53
(g54
g55
NtRp1874
(dp1875
g58
(dp1876
g66
I3
ssg67
g1870
sg60
(lp1877
S'1'
asbasbasbag53
(g69
g55
NtRp1878
(dp1879
g58
(dp1880
sg67
g1862
sg60
(lp1881
g53
(g74
g55
NtRp1882
(dp1883
g58
(dp1884
sg67
g1878
sg60
(lp1885
g53
(g54
g55
NtRp1886
(dp1887
g58
(dp1888
g66
I3
ssg67
g1882
sg60
(lp1889
S'99'
p1890
asbasbasbag53
(g69
g55
NtRp1891
(dp1892
g58
(dp1893
sg67
g1862
sg60
(lp1894
g53
(g74
g55
NtRp1895
(dp1896
g58
(dp1897
sg67
g1891
sg60
(lp1898
g53
(g54
g55
NtRp1899
(dp1900
g58
(dp1901
g66
I3
ssg67
g1895
sg60
(lp1902
S'7'
asbasbasbag53
(g69
g55
NtRp1903
(dp1904
g58
(dp1905
sg67
g1862
sg60
(lp1906
g53
(g74
g55
NtRp1907
(dp1908
g58
(dp1909
sg67
g1903
sg60
(lp1910
g53
(g54
g55
NtRp1911
(dp1912
g58
(dp1913
g66
I3
ssg67
g1907
sg60
(lp1914
S'datetime.datetime(2012, 3, 4, 22, 12, 8)'
p1915
asbasbasbag53
(g69
g55
NtRp1916
(dp1917
g58
(dp1918
sg67
g1862
sg60
(lp1919
g53
(g74
g55
NtRp1920
(dp1921
g58
(dp1922
sg67
g1916
sg60
(lp1923
g53
(g54
g55
NtRp1924
(dp1925
g58
(dp1926
g66
I3
ssg67
g1920
sg60
(lp1927
g1318
asbasbasbasbasbasbasbasbasbasbasbag53
(g69
g55
NtRp1928
(dp1929
g58
(dp1930
sg67
g63
sg60
(lp1931
g53
(g74
g55
NtRp1932
(dp1933
g58
(dp1934
g78
g79
ssg67
g1928
sg60
(lp1935
S'is_https'
p1936
asbag53
(g74
g55
NtRp1937
(dp1938
g58
(dp1939
g85
g86
ssg67
g1928
sg60
(lp1940
S':'
asbag53
(g74
g55
NtRp1941
(dp1942
g58
(dp1943
sg67
g1928
sg60
(lp1944
g53
(g54
g55
NtRp1945
(dp1946
g58
(dp1947
g66
I5
ssg67
g1941
sg60
(lp1948
g96
asbasbasbag53
(g69
g55
NtRp1949
(dp1950
g58
(dp1951
sg67
g63
sg60
(lp1952
g53
(g74
g55
NtRp1953
(dp1954
g58
(dp1955
g78
g79
ssg67
g1949
sg60
(lp1956
S'is_local'
p1957
asbag53
(g74
g55
NtRp1958
(dp1959
g58
(dp1960
g85
g86
ssg67
g1949
sg60
(lp1961
S':'
asbag53
(g74
g55
NtRp1962
(dp1963
g58
(dp1964
sg67
g1949
sg60
(lp1965
g53
(g54
g55
NtRp1966
(dp1967
g58
(dp1968
g66
I5
ssg67
g1962
sg60
(lp1969
g730
asbasbasbag53
(g69
g55
NtRp1970
(dp1971
g58
(dp1972
sg67
g63
sg60
(lp1973
g53
(g74
g55
NtRp1974
(dp1975
g58
(dp1976
g78
g79
ssg67
g1970
sg60
(lp1977
S'is_restful'
p1978
asbag53
(g74
g55
NtRp1979
(dp1980
g58
(dp1981
g85
g86
ssg67
g1970
sg60
(lp1982
S':'
asbag53
(g74
g55
NtRp1983
(dp1984
g58
(dp1985
sg67
g1970
sg60
(lp1986
g53
(g54
g55
NtRp1987
(dp1988
g58
(dp1989
g66
I5
ssg67
g1983
sg60
(lp1990
g96
asbasbasbag53
(g69
g55
NtRp1991
(dp1992
g58
(dp1993
sg67
g63
sg60
(lp1994
g53
(g74
g55
NtRp1995
(dp1996
g58
(dp1997
g78
g79
ssg67
g1991
sg60
(lp1998
S'now'
p1999
asbag53
(g74
g55
NtRp2000
(dp2001
g58
(dp2002
g85
g86
ssg67
g1991
sg60
(lp2003
S':'
asbag53
(g74
g55
NtRp2004
(dp2005
g58
(dp2006
sg67
g1991
sg60
(lp2007
g53
(g54
g55
NtRp2008
(dp2009
g58
(dp2010
g66
I5
ssg67
g2004
sg60
(lp2011
S'datetime.datetime(2012, 3, 29, 11, 22, 43, 45000)'
p2012
asbasbasbag53
(g69
g55
NtRp2013
(dp2014
g58
(dp2015
sg67
g63
sg60
(lp2016
g53
(g74
g55
NtRp2017
(dp2018
g58
(dp2019
g78
g79
ssg67
g2013
sg60
(lp2020
S'post_vars'
p2021
asbag53
(g74
g55
NtRp2022
(dp2023
g58
(dp2024
g85
g86
ssg67
g2013
sg60
(lp2025
S':'
asbag53
(g74
g55
NtRp2026
(dp2027
g58
(dp2028
sg67
g2013
sg60
(lp2029
g53
(g54
g55
NtRp2030
(dp2031
g58
(dp2032
g66
I5
ssg67
g2026
sg60
(lp2033
g53
(g62
g55
NtRp2034
(dp2035
g58
(dp2036
g66
I4
ssg67
Nsg60
(lp2037
sbasbasbasbag53
(g69
g55
NtRp2038
(dp2039
g58
(dp2040
sg67
g63
sg60
(lp2041
g53
(g74
g55
NtRp2042
(dp2043
g58
(dp2044
g78
g79
ssg67
g2038
sg60
(lp2045
S'url'
p2046
asbag53
(g74
g55
NtRp2047
(dp2048
g58
(dp2049
g85
g86
ssg67
g2038
sg60
(lp2050
S':'
asbag53
(g74
g55
NtRp2051
(dp2052
g58
(dp2053
sg67
g2038
sg60
(lp2054
g53
(g54
g55
NtRp2055
(dp2056
g58
(dp2057
g66
I5
ssg67
g2051
sg60
(lp2058
S'/init/default/initdbjack'
p2059
asbasbasbag53
(g69
g55
NtRp2060
(dp2061
g58
(dp2062
sg67
g63
sg60
(lp2063
g53
(g74
g55
NtRp2064
(dp2065
g58
(dp2066
g78
g79
ssg67
g2060
sg60
(lp2067
S'utcnow'
p2068
asbag53
(g74
g55
NtRp2069
(dp2070
g58
(dp2071
g85
g86
ssg67
g2060
sg60
(lp2072
S':'
asbag53
(g74
g55
NtRp2073
(dp2074
g58
(dp2075
sg67
g2060
sg60
(lp2076
g53
(g54
g55
NtRp2077
(dp2078
g58
(dp2079
g66
I5
ssg67
g2073
sg60
(lp2080
S'datetime.datetime(2012, 3, 29, 9, 22, 43, 45000)'
p2081
asbasbasbag53
(g69
g55
NtRp2082
(dp2083
g58
(dp2084
sg67
g63
sg60
(lp2085
g53
(g74
g55
NtRp2086
(dp2087
g58
(dp2088
g78
g79
ssg67
g2082
sg60
(lp2089
S'uuid'
p2090
asbag53
(g74
g55
NtRp2091
(dp2092
g58
(dp2093
g85
g86
ssg67
g2082
sg60
(lp2094
S':'
asbag53
(g74
g55
NtRp2095
(dp2096
g58
(dp2097
sg67
g2082
sg60
(lp2098
g53
(g54
g55
NtRp2099
(dp2100
g58
(dp2101
g66
I5
ssg67
g2095
sg60
(lp2102
S'init/127.0.0.1.2012-03-29.11-22-43.c8a417eb-8ba5-4145-9234-36f6e87a0e99'
p2103
asbasbasbag53
(g69
g55
NtRp2104
(dp2105
g58
(dp2106
sg67
g63
sg60
(lp2107
g53
(g74
g55
NtRp2108
(dp2109
g58
(dp2110
g78
g79
ssg67
g2104
sg60
(lp2111
S'vars'
p2112
asbag53
(g74
g55
NtRp2113
(dp2114
g58
(dp2115
g85
g86
ssg67
g2104
sg60
(lp2116
S':'
asbag53
(g74
g55
NtRp2117
(dp2118
g58
(dp2119
sg67
g2104
sg60
(lp2120
g53
(g54
g55
NtRp2121
(dp2122
g58
(dp2123
g66
I5
ssg67
g2117
sg60
(lp2124
g53
(g62
g55
NtRp2125
(dp2126
g58
(dp2127
g66
I4
ssg67
Nsg60
(lp2128
sbasbasbasbag53
(g69
g55
NtRp2129
(dp2130
g58
(dp2131
sg67
g63
sg60
(lp2132
g53
(g74
g55
NtRp2133
(dp2134
g58
(dp2135
g78
g79
ssg67
g2129
sg60
(lp2136
S'wsgi'
p2137
asbag53
(g74
g55
NtRp2138
(dp2139
g58
(dp2140
g85
g86
ssg67
g2129
sg60
(lp2141
S':'
asbag53
(g74
g55
NtRp2142
(dp2143
g58
(dp2144
sg67
g2129
sg60
(lp2145
g53
(g54
g55
NtRp2146
(dp2147
g58
(dp2148
g66
I5
ssg67
g2142
sg60
(lp2149
g53
(g62
g55
NtRp2150
(dp2151
g58
(dp2152
g66
I4
ssg67
Nsg60
(lp2153
g53
(g69
g55
NtRp2154
(dp2155
g58
(dp2156
sg67
g2150
sg60
(lp2157
g53
(g74
g55
NtRp2158
(dp2159
g58
(dp2160
g78
g79
ssg67
g2154
sg60
(lp2161
S'environ'
p2162
asbag53
(g74
g55
NtRp2163
(dp2164
g58
(dp2165
g85
g86
ssg67
g2154
sg60
(lp2166
S':'
asbag53
(g74
g55
NtRp2167
(dp2168
g58
(dp2169
sg67
g2154
sg60
(lp2170
g53
(g54
g55
NtRp2171
(dp2172
g58
(dp2173
g66
I4
ssg67
g2167
sg60
(lp2174
g53
(g62
g55
NtRp2175
(dp2176
g58
(dp2177
g66
I3
ssg67
Nsg60
(lp2178
g53
(g69
g55
NtRp2179
(dp2180
g58
(dp2181
sg67
g2175
sg60
(lp2182
g53
(g74
g55
NtRp2183
(dp2184
g58
(dp2185
g78
g79
ssg67
g2179
sg60
(lp2186
S'HTTP_ACCEPT'
p2187
asbag53
(g74
g55
NtRp2188
(dp2189
g58
(dp2190
g85
g86
ssg67
g2179
sg60
(lp2191
S':'
asbag53
(g74
g55
NtRp2192
(dp2193
g58
(dp2194
sg67
g2179
sg60
(lp2195
g53
(g54
g55
NtRp2196
(dp2197
g58
(dp2198
g66
I3
ssg67
g2192
sg60
(lp2199
g774
asbasbasbag53
(g69
g55
NtRp2200
(dp2201
g58
(dp2202
sg67
g2175
sg60
(lp2203
g53
(g74
g55
NtRp2204
(dp2205
g58
(dp2206
g78
g79
ssg67
g2200
sg60
(lp2207
S'HTTP_ACCEPT_CHARSET'
p2208
asbag53
(g74
g55
NtRp2209
(dp2210
g58
(dp2211
g85
g86
ssg67
g2200
sg60
(lp2212
S':'
asbag53
(g74
g55
NtRp2213
(dp2214
g58
(dp2215
sg67
g2200
sg60
(lp2216
g53
(g54
g55
NtRp2217
(dp2218
g58
(dp2219
g66
I3
ssg67
g2213
sg60
(lp2220
g796
asbasbasbag53
(g69
g55
NtRp2221
(dp2222
g58
(dp2223
sg67
g2175
sg60
(lp2224
g53
(g74
g55
NtRp2225
(dp2226
g58
(dp2227
g78
g79
ssg67
g2221
sg60
(lp2228
S'HTTP_ACCEPT_ENCODING'
p2229
asbag53
(g74
g55
NtRp2230
(dp2231
g58
(dp2232
g85
g86
ssg67
g2221
sg60
(lp2233
S':'
asbag53
(g74
g55
NtRp2234
(dp2235
g58
(dp2236
sg67
g2221
sg60
(lp2237
g53
(g54
g55
NtRp2238
(dp2239
g58
(dp2240
g66
I3
ssg67
g2234
sg60
(lp2241
g818
asbasbasbag53
(g69
g55
NtRp2242
(dp2243
g58
(dp2244
sg67
g2175
sg60
(lp2245
g53
(g74
g55
NtRp2246
(dp2247
g58
(dp2248
g78
g79
ssg67
g2242
sg60
(lp2249
S'HTTP_ACCEPT_LANGUAGE'
p2250
asbag53
(g74
g55
NtRp2251
(dp2252
g58
(dp2253
g85
g86
ssg67
g2242
sg60
(lp2254
S':'
asbag53
(g74
g55
NtRp2255
(dp2256
g58
(dp2257
sg67
g2242
sg60
(lp2258
g53
(g54
g55
NtRp2259
(dp2260
g58
(dp2261
g66
I3
ssg67
g2255
sg60
(lp2262
g840
asbasbasbag53
(g69
g55
NtRp2263
(dp2264
g58
(dp2265
sg67
g2175
sg60
(lp2266
g53
(g74
g55
NtRp2267
(dp2268
g58
(dp2269
g78
g79
ssg67
g2263
sg60
(lp2270
S'HTTP_CONNECTION'
p2271
asbag53
(g74
g55
NtRp2272
(dp2273
g58
(dp2274
g85
g86
ssg67
g2263
sg60
(lp2275
S':'
asbag53
(g74
g55
NtRp2276
(dp2277
g58
(dp2278
sg67
g2263
sg60
(lp2279
g53
(g54
g55
NtRp2280
(dp2281
g58
(dp2282
g66
I3
ssg67
g2276
sg60
(lp2283
g862
asbasbasbag53
(g69
g55
NtRp2284
(dp2285
g58
(dp2286
sg67
g2175
sg60
(lp2287
g53
(g74
g55
NtRp2288
(dp2289
g58
(dp2290
g78
g79
ssg67
g2284
sg60
(lp2291
S'HTTP_COOKIE'
p2292
asbag53
(g74
g55
NtRp2293
(dp2294
g58
(dp2295
g85
g86
ssg67
g2284
sg60
(lp2296
S':'
asbag53
(g74
g55
NtRp2297
(dp2298
g58
(dp2299
sg67
g2284
sg60
(lp2300
g53
(g54
g55
NtRp2301
(dp2302
g58
(dp2303
g66
I3
ssg67
g2297
sg60
(lp2304
g884
asbasbasbag53
(g69
g55
NtRp2305
(dp2306
g58
(dp2307
sg67
g2175
sg60
(lp2308
g53
(g74
g55
NtRp2309
(dp2310
g58
(dp2311
g78
g79
ssg67
g2305
sg60
(lp2312
S'HTTP_HOST'
p2313
asbag53
(g74
g55
NtRp2314
(dp2315
g58
(dp2316
g85
g86
ssg67
g2305
sg60
(lp2317
S':'
asbag53
(g74
g55
NtRp2318
(dp2319
g58
(dp2320
sg67
g2305
sg60
(lp2321
g53
(g54
g55
NtRp2322
(dp2323
g58
(dp2324
g66
I3
ssg67
g2318
sg60
(lp2325
g906
asbasbasbag53
(g69
g55
NtRp2326
(dp2327
g58
(dp2328
sg67
g2175
sg60
(lp2329
g53
(g74
g55
NtRp2330
(dp2331
g58
(dp2332
g78
g79
ssg67
g2326
sg60
(lp2333
S'HTTP_USER_AGENT'
p2334
asbag53
(g74
g55
NtRp2335
(dp2336
g58
(dp2337
g85
g86
ssg67
g2326
sg60
(lp2338
S':'
asbag53
(g74
g55
NtRp2339
(dp2340
g58
(dp2341
sg67
g2326
sg60
(lp2342
g53
(g54
g55
NtRp2343
(dp2344
g58
(dp2345
g66
I3
ssg67
g2339
sg60
(lp2346
g928
asbasbasbag53
(g69
g55
NtRp2347
(dp2348
g58
(dp2349
sg67
g2175
sg60
(lp2350
g53
(g74
g55
NtRp2351
(dp2352
g58
(dp2353
g78
g79
ssg67
g2347
sg60
(lp2354
S'PATH_INFO'
p2355
asbag53
(g74
g55
NtRp2356
(dp2357
g58
(dp2358
g85
g86
ssg67
g2347
sg60
(lp2359
S':'
asbag53
(g74
g55
NtRp2360
(dp2361
g58
(dp2362
sg67
g2347
sg60
(lp2363
g53
(g54
g55
NtRp2364
(dp2365
g58
(dp2366
g66
I3
ssg67
g2360
sg60
(lp2367
g992
asbasbasbag53
(g69
g55
NtRp2368
(dp2369
g58
(dp2370
sg67
g2175
sg60
(lp2371
g53
(g74
g55
NtRp2372
(dp2373
g58
(dp2374
g78
g79
ssg67
g2368
sg60
(lp2375
S'QUERY_STRING'
p2376
asbag53
(g74
g55
NtRp2377
(dp2378
g58
(dp2379
g85
g86
ssg67
g2368
sg60
(lp2380
S':'
asbag53
(g74
g55
NtRp2381
(dp2382
g58
(dp2383
sg67
g2368
sg60
(lp2384
g53
(g54
g55
NtRp2385
(dp2386
g58
(dp2387
g66
I3
ssg67
g2381
sg60
(lp2388
S''
asbasbasbag53
(g69
g55
NtRp2389
(dp2390
g58
(dp2391
sg67
g2175
sg60
(lp2392
g53
(g74
g55
NtRp2393
(dp2394
g58
(dp2395
g78
g79
ssg67
g2389
sg60
(lp2396
S'REMOTE_ADDR'
p2397
asbag53
(g74
g55
NtRp2398
(dp2399
g58
(dp2400
g85
g86
ssg67
g2389
sg60
(lp2401
S':'
asbag53
(g74
g55
NtRp2402
(dp2403
g58
(dp2404
sg67
g2389
sg60
(lp2405
g53
(g54
g55
NtRp2406
(dp2407
g58
(dp2408
g66
I3
ssg67
g2402
sg60
(lp2409
g186
asbasbasbag53
(g69
g55
NtRp2410
(dp2411
g58
(dp2412
sg67
g2175
sg60
(lp2413
g53
(g74
g55
NtRp2414
(dp2415
g58
(dp2416
g78
g79
ssg67
g2410
sg60
(lp2417
S'REMOTE_PORT'
p2418
asbag53
(g74
g55
NtRp2419
(dp2420
g58
(dp2421
g85
g86
ssg67
g2410
sg60
(lp2422
S':'
asbag53
(g74
g55
NtRp2423
(dp2424
g58
(dp2425
sg67
g2410
sg60
(lp2426
g53
(g54
g55
NtRp2427
(dp2428
g58
(dp2429
g66
I3
ssg67
g2423
sg60
(lp2430
g1056
asbasbasbag53
(g69
g55
NtRp2431
(dp2432
g58
(dp2433
sg67
g2175
sg60
(lp2434
g53
(g74
g55
NtRp2435
(dp2436
g58
(dp2437
g78
g79
ssg67
g2431
sg60
(lp2438
S'REQUEST_METHOD'
p2439
asbag53
(g74
g55
NtRp2440
(dp2441
g58
(dp2442
g85
g86
ssg67
g2431
sg60
(lp2443
S':'
asbag53
(g74
g55
NtRp2444
(dp2445
g58
(dp2446
sg67
g2431
sg60
(lp2447
g53
(g54
g55
NtRp2448
(dp2449
g58
(dp2450
g66
I3
ssg67
g2444
sg60
(lp2451
g1078
asbasbasbag53
(g69
g55
NtRp2452
(dp2453
g58
(dp2454
sg67
g2175
sg60
(lp2455
g53
(g74
g55
NtRp2456
(dp2457
g58
(dp2458
g78
g79
ssg67
g2452
sg60
(lp2459
S'SCRIPT_NAME'
p2460
asbag53
(g74
g55
NtRp2461
(dp2462
g58
(dp2463
g85
g86
ssg67
g2452
sg60
(lp2464
S':'
asbag53
(g74
g55
NtRp2465
(dp2466
g58
(dp2467
sg67
g2452
sg60
(lp2468
g53
(g54
g55
NtRp2469
(dp2470
g58
(dp2471
g66
I3
ssg67
g2465
sg60
(lp2472
S''
asbasbasbag53
(g69
g55
NtRp2473
(dp2474
g58
(dp2475
sg67
g2175
sg60
(lp2476
g53
(g74
g55
NtRp2477
(dp2478
g58
(dp2479
g78
g79
ssg67
g2473
sg60
(lp2480
S'SERVER_NAME'
p2481
asbag53
(g74
g55
NtRp2482
(dp2483
g58
(dp2484
g85
g86
ssg67
g2473
sg60
(lp2485
S':'
asbag53
(g74
g55
NtRp2486
(dp2487
g58
(dp2488
sg67
g2473
sg60
(lp2489
g53
(g54
g55
NtRp2490
(dp2491
g58
(dp2492
g66
I3
ssg67
g2486
sg60
(lp2493
g1121
asbasbasbag53
(g69
g55
NtRp2494
(dp2495
g58
(dp2496
sg67
g2175
sg60
(lp2497
g53
(g74
g55
NtRp2498
(dp2499
g58
(dp2500
g78
g79
ssg67
g2494
sg60
(lp2501
S'SERVER_PORT'
p2502
asbag53
(g74
g55
NtRp2503
(dp2504
g58
(dp2505
g85
g86
ssg67
g2494
sg60
(lp2506
S':'
asbag53
(g74
g55
NtRp2507
(dp2508
g58
(dp2509
sg67
g2494
sg60
(lp2510
g53
(g54
g55
NtRp2511
(dp2512
g58
(dp2513
g66
I3
ssg67
g2507
sg60
(lp2514
g1143
asbasbasbag53
(g69
g55
NtRp2515
(dp2516
g58
(dp2517
sg67
g2175
sg60
(lp2518
g53
(g74
g55
NtRp2519
(dp2520
g58
(dp2521
g78
g79
ssg67
g2515
sg60
(lp2522
S'SERVER_PROTOCOL'
p2523
asbag53
(g74
g55
NtRp2524
(dp2525
g58
(dp2526
g85
g86
ssg67
g2515
sg60
(lp2527
S':'
asbag53
(g74
g55
NtRp2528
(dp2529
g58
(dp2530
sg67
g2515
sg60
(lp2531
g53
(g54
g55
NtRp2532
(dp2533
g58
(dp2534
g66
I3
ssg67
g2528
sg60
(lp2535
g1165
asbasbasbag53
(g69
g55
NtRp2536
(dp2537
g58
(dp2538
sg67
g2175
sg60
(lp2539
g53
(g74
g55
NtRp2540
(dp2541
g58
(dp2542
g78
g79
ssg67
g2536
sg60
(lp2543
S'SERVER_SOFTWARE'
p2544
asbag53
(g74
g55
NtRp2545
(dp2546
g58
(dp2547
g85
g86
ssg67
g2536
sg60
(lp2548
S':'
asbag53
(g74
g55
NtRp2549
(dp2550
g58
(dp2551
sg67
g2536
sg60
(lp2552
g53
(g54
g55
NtRp2553
(dp2554
g58
(dp2555
g66
I3
ssg67
g2549
sg60
(lp2556
g1187
asbasbasbag53
(g69
g55
NtRp2557
(dp2558
g58
(dp2559
sg67
g2175
sg60
(lp2560
g53
(g74
g55
NtRp2561
(dp2562
g58
(dp2563
g78
g79
ssg67
g2557
sg60
(lp2564
S'wsgi.errors'
p2565
asbag53
(g74
g55
NtRp2566
(dp2567
g58
(dp2568
g85
g86
ssg67
g2557
sg60
(lp2569
S':'
asbag53
(g74
g55
NtRp2570
(dp2571
g58
(dp2572
sg67
g2557
sg60
(lp2573
g53
(g54
g55
NtRp2574
(dp2575
g58
(dp2576
g66
I3
ssg67
g2570
sg60
(lp2577
S"<open file '<stderr>', mode 'w' at 0x005300B0>"
p2578
asbasbasbag53
(g69
g55
NtRp2579
(dp2580
g58
(dp2581
sg67
g2175
sg60
(lp2582
g53
(g74
g55
NtRp2583
(dp2584
g58
(dp2585
g78
g79
ssg67
g2579
sg60
(lp2586
S'wsgi.file_wrapper'
p2587
asbag53
(g74
g55
NtRp2588
(dp2589
g58
(dp2590
g85
g86
ssg67
g2579
sg60
(lp2591
S':'
asbag53
(g74
g55
NtRp2592
(dp2593
g58
(dp2594
sg67
g2579
sg60
(lp2595
g53
(g54
g55
NtRp2596
(dp2597
g58
(dp2598
g66
I3
ssg67
g2592
sg60
(lp2599
S'<class wsgiref.util.FileWrapper at 0x02C34900>'
p2600
asbasbasbag53
(g69
g55
NtRp2601
(dp2602
g58
(dp2603
sg67
g2175
sg60
(lp2604
g53
(g74
g55
NtRp2605
(dp2606
g58
(dp2607
g78
g79
ssg67
g2601
sg60
(lp2608
S'wsgi.input'
p2609
asbag53
(g74
g55
NtRp2610
(dp2611
g58
(dp2612
g85
g86
ssg67
g2601
sg60
(lp2613
S':'
asbag53
(g74
g55
NtRp2614
(dp2615
g58
(dp2616
sg67
g2601
sg60
(lp2617
g53
(g54
g55
NtRp2618
(dp2619
g58
(dp2620
g66
I3
ssg67
g2614
sg60
(lp2621
S'<cStringIO.StringO object at 0x042FA320>'
p2622
asbasbasbag53
(g69
g55
NtRp2623
(dp2624
g58
(dp2625
sg67
g2175
sg60
(lp2626
g53
(g74
g55
NtRp2627
(dp2628
g58
(dp2629
g78
g79
ssg67
g2623
sg60
(lp2630
S'wsgi.multiprocess'
p2631
asbag53
(g74
g55
NtRp2632
(dp2633
g58
(dp2634
g85
g86
ssg67
g2623
sg60
(lp2635
S':'
asbag53
(g74
g55
NtRp2636
(dp2637
g58
(dp2638
sg67
g2623
sg60
(lp2639
g53
(g54
g55
NtRp2640
(dp2641
g58
(dp2642
g66
I3
ssg67
g2636
sg60
(lp2643
g96
asbasbasbag53
(g69
g55
NtRp2644
(dp2645
g58
(dp2646
sg67
g2175
sg60
(lp2647
g53
(g74
g55
NtRp2648
(dp2649
g58
(dp2650
g78
g79
ssg67
g2644
sg60
(lp2651
S'wsgi.multithread'
p2652
asbag53
(g74
g55
NtRp2653
(dp2654
g58
(dp2655
g85
g86
ssg67
g2644
sg60
(lp2656
S':'
asbag53
(g74
g55
NtRp2657
(dp2658
g58
(dp2659
sg67
g2644
sg60
(lp2660
g53
(g54
g55
NtRp2661
(dp2662
g58
(dp2663
g66
I3
ssg67
g2657
sg60
(lp2664
g730
asbasbasbag53
(g69
g55
NtRp2665
(dp2666
g58
(dp2667
sg67
g2175
sg60
(lp2668
g53
(g74
g55
NtRp2669
(dp2670
g58
(dp2671
g78
g79
ssg67
g2665
sg60
(lp2672
S'wsgi.run_once'
p2673
asbag53
(g74
g55
NtRp2674
(dp2675
g58
(dp2676
g85
g86
ssg67
g2665
sg60
(lp2677
S':'
asbag53
(g74
g55
NtRp2678
(dp2679
g58
(dp2680
sg67
g2665
sg60
(lp2681
g53
(g54
g55
NtRp2682
(dp2683
g58
(dp2684
g66
I3
ssg67
g2678
sg60
(lp2685
g96
asbasbasbag53
(g69
g55
NtRp2686
(dp2687
g58
(dp2688
sg67
g2175
sg60
(lp2689
g53
(g74
g55
NtRp2690
(dp2691
g58
(dp2692
g78
g79
ssg67
g2686
sg60
(lp2693
S'wsgi.url_scheme'
p2694
asbag53
(g74
g55
NtRp2695
(dp2696
g58
(dp2697
g85
g86
ssg67
g2686
sg60
(lp2698
S':'
asbag53
(g74
g55
NtRp2699
(dp2700
g58
(dp2701
sg67
g2686
sg60
(lp2702
g53
(g54
g55
NtRp2703
(dp2704
g58
(dp2705
g66
I3
ssg67
g2699
sg60
(lp2706
g1469
asbasbasbag53
(g69
g55
NtRp2707
(dp2708
g58
(dp2709
sg67
g2175
sg60
(lp2710
g53
(g74
g55
NtRp2711
(dp2712
g58
(dp2713
g78
g79
ssg67
g2707
sg60
(lp2714
S'wsgi.version'
p2715
asbag53
(g74
g55
NtRp2716
(dp2717
g58
(dp2718
g85
g86
ssg67
g2707
sg60
(lp2719
S':'
asbag53
(g74
g55
NtRp2720
(dp2721
g58
(dp2722
sg67
g2707
sg60
(lp2723
g53
(g54
g55
NtRp2724
(dp2725
g58
(dp2726
g66
I3
ssg67
g2720
sg60
(lp2727
S'1'
asbasbasbasbasbasbasbasbasbasbasbasbasbsS'frames'
p2728
(lp2729
(dp2730
S'file'
p2731
S'C:\\Users\\Bussiere\\Dropbox\\Projets\\jackpoint\\web2py\\gluon\\restricted.py'
p2732
sS'dump'
p2733
(dp2734
sS'lnum'
p2735
I205
sS'lines'
p2736
(dp2737
I200
S'    try:'
p2738
sI201
S'        if type(code) == types.CodeType:'
p2739
sI202
S'            ccode = code'
p2740
sI203
S'        else:'
p2741
sI204
S'            ccode = compile2(code,layer)'
p2742
sI205
S'        exec ccode in environment'
p2743
sI206
S'    except HTTP:'
p2744
sI207
S'        raise'
p2745
sI208
S'    except RestrictedError:'
p2746
sI209
S'        # do not encapsulate (obfuscate) the original RestrictedError'
p2747
ssS'call'
p2748
S"(code='\\xef\\xbb\\xbf# -*- coding: utf-8 -*-\\n# this file is releas...())\\n\\nresponse._vars=response._caller(initdbjack)\\n', environment={'A': <class 'gluon.html.A'>, 'Auth': <class 'gluon.tools.Auth'>, 'AutocompleteWidget': <class 'gluon.sqlhtml.AutocompleteWidget'>, 'B': <class 'gluon.html.B'>, 'BEAUTIFY': <class 'gluon.html.BEAUTIFY'>, 'BODY': <class 'gluon.html.BODY'>, 'BR': <class 'gluon.html.BR'>, 'BUTTON': <class 'gluon.html.BUTTON'>, 'BooleanWidget': <class 'gluon.sqlhtml.BooleanWidget'>, 'CALLABLETYPES': (<type 'function'>, <type 'function'>, <type 'builtin_function_or_method'>, <type 'instancemethod'>, <type 'builtin_function_or_method'>), ...}, layer=r'C:\\Users\\Bussiere\\Dropbox\\Projets\\jackpoint\\web2py\\applications\\init\\controllers/default.py')"
p2749
sS'func'
p2750
S'restricted'
p2751
sa(dp2752
g2731
S'C:\\Users\\Bussiere\\Dropbox\\Projets\\jackpoint\\web2py\\applications\\init\\controllers\\default.py'
p2753
sg2733
(dp2754
sg2735
I448
sg2736
(dp2755
I437
S'    http://..../[app]/default/data/update/[table]/[id]'
p2756
sI438
S'    http://..../[app]/default/data/delete/[table]/[id]'
p2757
sI439
S'    http://..../[app]/default/data/select/[table]'
p2758
sI440
S'    http://..../[app]/default/data/search/[table]'
p2759
sI441
S'    but URLs must be signed, i.e. linked with'
p2760
sI442
S"      A('table',_href=URL('data/tables',user_signature=True))"
p2761
sI443
S'    or with the signed load operator'
p2762
sI444
S"      LOAD('default','data.load',args='tables',ajax=True,user_signature=True)"
p2763
sI445
S'    """'
p2764
sI446
S'    return dict(form=crud())'
p2765
ssg2748
S'()'
p2766
sg2750
S'<module>'
p2767
sa(dp2768
g2731
S'C:\\Users\\Bussiere\\Dropbox\\Projets\\jackpoint\\web2py\\gluon\\globals.py'
p2769
sg2733
(dp2770
sg2735
I173
sg2736
(dp2771
I168
S'        self.menu = []             # used by the default view layout'
p2772
sI169
S'        self.files = []            # used by web2py_ajax.html'
p2773
sI170
S'        self.generic_patterns = [] # patterns to allow generic views'
p2774
sI171
S"        self.delimiters = ('{{','}}')"
p2775
sI172
S'        self._vars = None'
p2776
sI173
S'        self._caller = lambda f: f()'
p2777
sI174
S'        self._view_environment = None'
p2778
sI175
S'        self._custom_commit = None'
p2779
sI176
S'        self._custom_rollback = None'
p2780
sI177
S''
ssg2748
S'(f=<function initdbjack at 0x042F8230>)'
p2781
sg2750
S'<lambda>'
p2782
sa(dp2783
g2731
S'C:\\Users\\Bussiere\\Dropbox\\Projets\\jackpoint\\web2py\\applications\\init\\controllers\\default.py'
p2784
sg2733
(dp2785
sg2735
I264
sg2736
(dp2786
I259
S'            my_crypt = CRYPT(key=auth.settings.hmac_key)'
p2787
sI260
S'            crypt_pass = my_crypt(password)[0]'
p2788
sI261
S'            buss = db.auth_user.insert('
p2789
sI262
S'               email= "bussiere@gmail.com",'
p2790
sI263
S'               username="bussiere",'
p2791
sI264
S'               password=crypt_pass,'
p2792
sI265
S'            )'
p2793
sI266
S"            jack = auth.add_group('Jack', 'Jack master of none')"
p2794
sI267
S'            auth.add_membership(jack, buss)'
p2795
sI268
S'            db.commit()'
p2796
ssg2748
S'()'
p2797
sg2750
S'initdbjack'
p2798
sa(dp2799
g2731
S'C:\\Users\\Bussiere\\Dropbox\\Projets\\jackpoint\\web2py\\gluon\\dal.py'
p2800
sg2733
(dp2801
sg2735
I6829
sg2736
(dp2802
I6824
S''
sI6825
S'    def _insert(self, **fields):'
p2803
sI6826
S'        return self._db._adapter._insert(self,self._listify(fields))'
p2804
sI6827
S''
sI6828
S'    def insert(self, **fields):'
p2805
sI6829
S'        return self._db._adapter.insert(self,self._listify(fields))'
p2806
sI6830
S''
sI6831
S'    def validate_and_insert(self,**fields):'
p2807
sI6832
S'        response = Row()'
p2808
sI6833
S'        response.errors = Row()'
p2809
ssg2748
S"(self=<Table {'_db': <DAL {'auth_event': <Table {'orig..., '_id': <gluon.dal.Field object at 0x042FBE70>}>, **fields={'email': 'bussiere@gmail.com', 'password': 'b718cac2c616a8bda72d25a1273e7b36', 'username': 'bussiere'})"
p2810
sg2750
S'insert'
p2811
sa(dp2812
g2731
S'C:\\Users\\Bussiere\\Dropbox\\Projets\\jackpoint\\web2py\\gluon\\dal.py'
p2813
sg2733
(dp2814
sg2735
I928
sg2736
(dp2815
I928
S'            raise e'
p2816
sI929
S"        if hasattr(table,'_primarykey'):"
p2817
sI930
S'            return dict([(k[0].name, k[1]) for k in fields \\'
p2818
sI931
S'                             if k[0].name in table._primarykey])'
p2819
sI932
S'        id = self.lastrowid(table)'
p2820
sI923
S'        try:'
p2821
sI924
S'            self.execute(query)'
p2822
sI925
S'        except Exception, e:'
p2823
sI926
S'            if isinstance(e,self.integrity_error_class()):'
p2824
sI927
S'                return None'
p2825
ssg2748
S"(self=<gluon.dal.SQLiteAdapter object at 0x042FA6F0>, table=<Table {'_db': <DAL {'auth_event': <Table {'orig..., '_id': <gluon.dal.Field object at 0x042FBE70>}>, fields=[(<gluon.dal.Field object at 0x042FB8F0>, 'bussiere'), (<gluon.dal.Field object at 0x042FB9D0>, 'b718cac2c616a8bda72d25a1273e7b36'), (<gluon.dal.Field object at 0x042FBA50>, 'bussiere@gmail.com'), (<gluon.dal.Field object at 0x042FBC90>, False), (<gluon.dal.Field object at 0x042FBBF0>, ''), (<gluon.dal.Field object at 0x042FBE30>, ''), (<gluon.dal.Field object at 0x042FB9B0>, '')])"
p2826
sg2750
g2811
sasS'pyver'
p2827
S'Python 2.5.4: C:\\Users\\Bussiere\\Dropbox\\Projets\\jackpoint\\web2py\\web2py.exe'
p2828
sS'session'
p2829
g53
(g54
g55
NtRp2830
(dp2831
g58
(dp2832
sg60
(lp2833
g53
(g62
g55
NtRp2834
(dp2835
g58
(dp2836
g66
I5
ssg67
Nsg60
(lp2837
sbasbsS'etype'
p2838
S"<class 'sqlite3.IntegrityError'>"
p2839
sS'date'
p2840
S'Thu Mar 29 11:22:44 2012'
p2841
sS'response'
p2842
g53
(g54
g55
NtRp2843
(dp2844
g58
(dp2845
sg60
(lp2846
g53
(g62
g55
NtRp2847
(dp2848
g58
(dp2849
g66
I5
ssg67
Nsg60
(lp2850
g53
(g69
g55
NtRp2851
(dp2852
g58
(dp2853
sg67
g2847
sg60
(lp2854
g53
(g74
g55
NtRp2855
(dp2856
g58
(dp2857
g78
g79
ssg67
g2851
sg60
(lp2858
g151
asbag53
(g74
g55
NtRp2859
(dp2860
g58
(dp2861
g85
g86
ssg67
g2851
sg60
(lp2862
S':'
asbag53
(g74
g55
NtRp2863
(dp2864
g58
(dp2865
sg67
g2851
sg60
(lp2866
g53
(g54
g55
NtRp2867
(dp2868
g58
(dp2869
g66
I5
ssg67
g2863
sg60
(lp2870
S'<cStringIO.StringO object at 0x042FA220>'
p2871
asbasbasbag53
(g69
g55
NtRp2872
(dp2873
g58
(dp2874
sg67
g2847
sg60
(lp2875
g53
(g74
g55
NtRp2876
(dp2877
g58
(dp2878
g78
g79
ssg67
g2872
sg60
(lp2879
g217
asbag53
(g74
g55
NtRp2880
(dp2881
g58
(dp2882
g85
g86
ssg67
g2872
sg60
(lp2883
S':'
asbag53
(g74
g55
NtRp2884
(dp2885
g58
(dp2886
sg67
g2872
sg60
(lp2887
g53
(g54
g55
NtRp2888
(dp2889
g58
(dp2890
g66
I5
ssg67
g2884
sg60
(lp2891
g53
(g62
g55
NtRp2892
(dp2893
g58
(dp2894
g66
I4
ssg67
Nsg60
(lp2895
g53
(g69
g55
NtRp2896
(dp2897
g58
(dp2898
sg67
g2892
sg60
(lp2899
g53
(g74
g55
NtRp2900
(dp2901
g58
(dp2902
g78
g79
ssg67
g2896
sg60
(lp2903
S'session_id_init'
p2904
asbag53
(g74
g55
NtRp2905
(dp2906
g58
(dp2907
g85
g86
ssg67
g2896
sg60
(lp2908
S':'
asbag53
(g74
g55
NtRp2909
(dp2910
g58
(dp2911
sg67
g2896
sg60
(lp2912
g53
(g54
g55
NtRp2913
(dp2914
g58
(dp2915
g66
I4
ssg67
g2909
sg60
(lp2916
g53
(g62
g55
NtRp2917
(dp2918
g58
(dp2919
g66
I3
ssg67
Nsg60
(lp2920
g53
(g69
g55
NtRp2921
(dp2922
g58
(dp2923
sg67
g2917
sg60
(lp2924
g53
(g74
g55
NtRp2925
(dp2926
g58
(dp2927
g78
g79
ssg67
g2921
sg60
(lp2928
g267
asbag53
(g74
g55
NtRp2929
(dp2930
g58
(dp2931
g85
g86
ssg67
g2921
sg60
(lp2932
S':'
asbag53
(g74
g55
NtRp2933
(dp2934
g58
(dp2935
sg67
g2921
sg60
(lp2936
g53
(g54
g55
NtRp2937
(dp2938
g58
(dp2939
g66
I3
ssg67
g2933
sg60
(lp2940
S''
asbasbasbag53
(g69
g55
NtRp2941
(dp2942
g58
(dp2943
sg67
g2917
sg60
(lp2944
g53
(g74
g55
NtRp2945
(dp2946
g58
(dp2947
g78
g79
ssg67
g2941
sg60
(lp2948
g288
asbag53
(g74
g55
NtRp2949
(dp2950
g58
(dp2951
g85
g86
ssg67
g2941
sg60
(lp2952
S':'
asbag53
(g74
g55
NtRp2953
(dp2954
g58
(dp2955
sg67
g2941
sg60
(lp2956
g53
(g54
g55
NtRp2957
(dp2958
g58
(dp2959
g66
I3
ssg67
g2953
sg60
(lp2960
S''
asbasbasbag53
(g69
g55
NtRp2961
(dp2962
g58
(dp2963
sg67
g2917
sg60
(lp2964
g53
(g74
g55
NtRp2965
(dp2966
g58
(dp2967
g78
g79
ssg67
g2961
sg60
(lp2968
g309
asbag53
(g74
g55
NtRp2969
(dp2970
g58
(dp2971
g85
g86
ssg67
g2961
sg60
(lp2972
S':'
asbag53
(g74
g55
NtRp2973
(dp2974
g58
(dp2975
sg67
g2961
sg60
(lp2976
g53
(g54
g55
NtRp2977
(dp2978
g58
(dp2979
g66
I3
ssg67
g2973
sg60
(lp2980
S''
asbasbasbag53
(g69
g55
NtRp2981
(dp2982
g58
(dp2983
sg67
g2917
sg60
(lp2984
g53
(g74
g55
NtRp2985
(dp2986
g58
(dp2987
g78
g79
ssg67
g2981
sg60
(lp2988
g330
asbag53
(g74
g55
NtRp2989
(dp2990
g58
(dp2991
g85
g86
ssg67
g2981
sg60
(lp2992
S':'
asbag53
(g74
g55
NtRp2993
(dp2994
g58
(dp2995
sg67
g2981
sg60
(lp2996
g53
(g54
g55
NtRp2997
(dp2998
g58
(dp2999
g66
I3
ssg67
g2993
sg60
(lp3000
S''
asbasbasbag53
(g69
g55
NtRp3001
(dp3002
g58
(dp3003
sg67
g2917
sg60
(lp3004
g53
(g74
g55
NtRp3005
(dp3006
g58
(dp3007
g78
g79
ssg67
g3001
sg60
(lp3008
g351
asbag53
(g74
g55
NtRp3009
(dp3010
g58
(dp3011
g85
g86
ssg67
g3001
sg60
(lp3012
S':'
asbag53
(g74
g55
NtRp3013
(dp3014
g58
(dp3015
sg67
g3001
sg60
(lp3016
g53
(g54
g55
NtRp3017
(dp3018
g58
(dp3019
g66
I3
ssg67
g3013
sg60
(lp3020
S'/'
asbasbasbag53
(g69
g55
NtRp3021
(dp3022
g58
(dp3023
sg67
g2917
sg60
(lp3024
g53
(g74
g55
NtRp3025
(dp3026
g58
(dp3027
g78
g79
ssg67
g3021
sg60
(lp3028
g372
asbag53
(g74
g55
NtRp3029
(dp3030
g58
(dp3031
g85
g86
ssg67
g3021
sg60
(lp3032
S':'
asbag53
(g74
g55
NtRp3033
(dp3034
g58
(dp3035
sg67
g3021
sg60
(lp3036
g53
(g54
g55
NtRp3037
(dp3038
g58
(dp3039
g66
I3
ssg67
g3033
sg60
(lp3040
S''
asbasbasbag53
(g69
g55
NtRp3041
(dp3042
g58
(dp3043
sg67
g2917
sg60
(lp3044
g53
(g74
g55
NtRp3045
(dp3046
g58
(dp3047
g78
g79
ssg67
g3041
sg60
(lp3048
g393
asbag53
(g74
g55
NtRp3049
(dp3050
g58
(dp3051
g85
g86
ssg67
g3041
sg60
(lp3052
S':'
asbag53
(g74
g55
NtRp3053
(dp3054
g58
(dp3055
sg67
g3041
sg60
(lp3056
g53
(g54
g55
NtRp3057
(dp3058
g58
(dp3059
g66
I3
ssg67
g3053
sg60
(lp3060
S''
asbasbasbasbasbasbasbasbasbasbasbag53
(g69
g55
NtRp3061
(dp3062
g58
(dp3063
sg67
g2847
sg60
(lp3064
g53
(g74
g55
NtRp3065
(dp3066
g58
(dp3067
g78
g79
ssg67
g3061
sg60
(lp3068
S'delimiters'
p3069
asbag53
(g74
g55
NtRp3070
(dp3071
g58
(dp3072
g85
g86
ssg67
g3061
sg60
(lp3073
S':'
asbag53
(g74
g55
NtRp3074
(dp3075
g58
(dp3076
sg67
g3061
sg60
(lp3077
g53
(g54
g55
NtRp3078
(dp3079
g58
(dp3080
g66
I5
ssg67
g3074
sg60
(lp3081
g53
(g62
g55
NtRp3082
(dp3083
g58
(dp3084
g66
I4
ssg67
Nsg60
(lp3085
g53
(g69
g55
NtRp3086
(dp3087
g58
(dp3088
sg67
g3082
sg60
(lp3089
g53
(g74
g55
NtRp3090
(dp3091
g58
(dp3092
sg67
g3086
sg60
(lp3093
g53
(g54
g55
NtRp3094
(dp3095
g58
(dp3096
g66
I4
ssg67
g3090
sg60
(lp3097
S'{{'
p3098
asbasbasbag53
(g69
g55
NtRp3099
(dp3100
g58
(dp3101
sg67
g3082
sg60
(lp3102
g53
(g74
g55
NtRp3103
(dp3104
g58
(dp3105
sg67
g3099
sg60
(lp3106
g53
(g54
g55
NtRp3107
(dp3108
g58
(dp3109
g66
I4
ssg67
g3103
sg60
(lp3110
S'}}'
p3111
asbasbasbasbasbasbasbag53
(g69
g55
NtRp3112
(dp3113
g58
(dp3114
sg67
g2847
sg60
(lp3115
g53
(g74
g55
NtRp3116
(dp3117
g58
(dp3118
g78
g79
ssg67
g3112
sg60
(lp3119
S'files'
p3120
asbag53
(g74
g55
NtRp3121
(dp3122
g58
(dp3123
g85
g86
ssg67
g3112
sg60
(lp3124
S':'
asbag53
(g74
g55
NtRp3125
(dp3126
g58
(dp3127
sg67
g3112
sg60
(lp3128
g53
(g54
g55
NtRp3129
(dp3130
g58
(dp3131
g66
I5
ssg67
g3125
sg60
(lp3132
g53
(g62
g55
NtRp3133
(dp3134
g58
(dp3135
g66
I4
ssg67
Nsg60
(lp3136
sbasbasbasbag53
(g69
g55
NtRp3137
(dp3138
g58
(dp3139
sg67
g2847
sg60
(lp3140
g53
(g74
g55
NtRp3141
(dp3142
g58
(dp3143
g78
g79
ssg67
g3137
sg60
(lp3144
S'flash'
p3145
asbag53
(g74
g55
NtRp3146
(dp3147
g58
(dp3148
g85
g86
ssg67
g3137
sg60
(lp3149
S':'
asbag53
(g74
g55
NtRp3150
(dp3151
g58
(dp3152
sg67
g3137
sg60
(lp3153
g53
(g54
g55
NtRp3154
(dp3155
g58
(dp3156
g66
I5
ssg67
g3150
sg60
(lp3157
S''
asbasbasbag53
(g69
g55
NtRp3158
(dp3159
g58
(dp3160
sg67
g2847
sg60
(lp3161
g53
(g74
g55
NtRp3162
(dp3163
g58
(dp3164
g78
g79
ssg67
g3158
sg60
(lp3165
S'generic_patterns'
p3166
asbag53
(g74
g55
NtRp3167
(dp3168
g58
(dp3169
g85
g86
ssg67
g3158
sg60
(lp3170
S':'
asbag53
(g74
g55
NtRp3171
(dp3172
g58
(dp3173
sg67
g3158
sg60
(lp3174
g53
(g54
g55
NtRp3175
(dp3176
g58
(dp3177
g66
I5
ssg67
g3171
sg60
(lp3178
g53
(g62
g55
NtRp3179
(dp3180
g58
(dp3181
g66
I4
ssg67
Nsg60
(lp3182
g53
(g69
g55
NtRp3183
(dp3184
g58
(dp3185
sg67
g3179
sg60
(lp3186
g53
(g74
g55
NtRp3187
(dp3188
g58
(dp3189
sg67
g3183
sg60
(lp3190
g53
(g54
g55
NtRp3191
(dp3192
g58
(dp3193
g66
I4
ssg67
g3187
sg60
(lp3194
S'*'
asbasbasbasbasbasbasbag53
(g69
g55
NtRp3195
(dp3196
g58
(dp3197
sg67
g2847
sg60
(lp3198
g53
(g74
g55
NtRp3199
(dp3200
g58
(dp3201
g78
g79
ssg67
g3195
sg60
(lp3202
S'headers'
p3203
asbag53
(g74
g55
NtRp3204
(dp3205
g58
(dp3206
g85
g86
ssg67
g3195
sg60
(lp3207
S':'
asbag53
(g74
g55
NtRp3208
(dp3209
g58
(dp3210
sg67
g3195
sg60
(lp3211
g53
(g54
g55
NtRp3212
(dp3213
g58
(dp3214
g66
I5
ssg67
g3208
sg60
(lp3215
g53
(g62
g55
NtRp3216
(dp3217
g58
(dp3218
g66
I4
ssg67
Nsg60
(lp3219
g53
(g69
g55
NtRp3220
(dp3221
g58
(dp3222
sg67
g3216
sg60
(lp3223
g53
(g74
g55
NtRp3224
(dp3225
g58
(dp3226
g78
g79
ssg67
g3220
sg60
(lp3227
S'Cache-Control'
p3228
asbag53
(g74
g55
NtRp3229
(dp3230
g58
(dp3231
g85
g86
ssg67
g3220
sg60
(lp3232
S':'
asbag53
(g74
g55
NtRp3233
(dp3234
g58
(dp3235
sg67
g3220
sg60
(lp3236
g53
(g54
g55
NtRp3237
(dp3238
g58
(dp3239
g66
I4
ssg67
g3233
sg60
(lp3240
S'no-store, no-cache, must-revalidate, post-check=0, pre-check=0'
p3241
asbasbasbag53
(g69
g55
NtRp3242
(dp3243
g58
(dp3244
sg67
g3216
sg60
(lp3245
g53
(g74
g55
NtRp3246
(dp3247
g58
(dp3248
g78
g79
ssg67
g3242
sg60
(lp3249
S'Content-Type'
p3250
asbag53
(g74
g55
NtRp3251
(dp3252
g58
(dp3253
g85
g86
ssg67
g3242
sg60
(lp3254
S':'
asbag53
(g74
g55
NtRp3255
(dp3256
g58
(dp3257
sg67
g3242
sg60
(lp3258
g53
(g54
g55
NtRp3259
(dp3260
g58
(dp3261
g66
I4
ssg67
g3255
sg60
(lp3262
S'text/html; charset=utf-8'
p3263
asbasbasbag53
(g69
g55
NtRp3264
(dp3265
g58
(dp3266
sg67
g3216
sg60
(lp3267
g53
(g74
g55
NtRp3268
(dp3269
g58
(dp3270
g78
g79
ssg67
g3264
sg60
(lp3271
S'Expires'
p3272
asbag53
(g74
g55
NtRp3273
(dp3274
g58
(dp3275
g85
g86
ssg67
g3264
sg60
(lp3276
S':'
asbag53
(g74
g55
NtRp3277
(dp3278
g58
(dp3279
sg67
g3264
sg60
(lp3280
g53
(g54
g55
NtRp3281
(dp3282
g58
(dp3283
g66
I4
ssg67
g3277
sg60
(lp3284
S'Thu, 29 Mar 2012 09:22:43 GMT'
p3285
asbasbasbag53
(g69
g55
NtRp3286
(dp3287
g58
(dp3288
sg67
g3216
sg60
(lp3289
g53
(g74
g55
NtRp3290
(dp3291
g58
(dp3292
g78
g79
ssg67
g3286
sg60
(lp3293
S'Pragma'
p3294
asbag53
(g74
g55
NtRp3295
(dp3296
g58
(dp3297
g85
g86
ssg67
g3286
sg60
(lp3298
S':'
asbag53
(g74
g55
NtRp3299
(dp3300
g58
(dp3301
sg67
g3286
sg60
(lp3302
g53
(g54
g55
NtRp3303
(dp3304
g58
(dp3305
g66
I4
ssg67
g3299
sg60
(lp3306
S'no-cache'
p3307
asbasbasbag53
(g69
g55
NtRp3308
(dp3309
g58
(dp3310
sg67
g3216
sg60
(lp3311
g53
(g74
g55
NtRp3312
(dp3313
g58
(dp3314
g78
g79
ssg67
g3308
sg60
(lp3315
S'X-Powered-By'
p3316
asbag53
(g74
g55
NtRp3317
(dp3318
g58
(dp3319
g85
g86
ssg67
g3308
sg60
(lp3320
S':'
asbag53
(g74
g55
NtRp3321
(dp3322
g58
(dp3323
sg67
g3308
sg60
(lp3324
g53
(g54
g55
NtRp3325
(dp3326
g58
(dp3327
g66
I4
ssg67
g3321
sg60
(lp3328
S'web2py'
p3329
asbasbasbasbasbasbasbag53
(g69
g55
NtRp3330
(dp3331
g58
(dp3332
sg67
g2847
sg60
(lp3333
g53
(g74
g55
NtRp3334
(dp3335
g58
(dp3336
g78
g79
ssg67
g3330
sg60
(lp3337
S'menu'
p3338
asbag53
(g74
g55
NtRp3339
(dp3340
g58
(dp3341
g85
g86
ssg67
g3330
sg60
(lp3342
S':'
asbag53
(g74
g55
NtRp3343
(dp3344
g58
(dp3345
sg67
g3330
sg60
(lp3346
g53
(g54
g55
NtRp3347
(dp3348
g58
(dp3349
g66
I5
ssg67
g3343
sg60
(lp3350
g53
(g62
g55
NtRp3351
(dp3352
g58
(dp3353
g66
I4
ssg67
Nsg60
(lp3354
g53
(g69
g55
NtRp3355
(dp3356
g58
(dp3357
sg67
g3351
sg60
(lp3358
g53
(g74
g55
NtRp3359
(dp3360
g58
(dp3361
sg67
g3355
sg60
(lp3362
g53
(g54
g55
NtRp3363
(dp3364
g58
(dp3365
g66
I4
ssg67
g3359
sg60
(lp3366
g53
(g62
g55
NtRp3367
(dp3368
g58
(dp3369
g66
I3
ssg67
Nsg60
(lp3370
g53
(g69
g55
NtRp3371
(dp3372
g58
(dp3373
sg67
g3367
sg60
(lp3374
g53
(g74
g55
NtRp3375
(dp3376
g58
(dp3377
sg67
g3371
sg60
(lp3378
g53
(g54
g55
NtRp3379
(dp3380
g58
(dp3381
g66
I3
ssg67
g3375
sg60
(lp3382
cgluon.languages
lazyT_unpickle
p3383
(S't\x07\x00\x00\x00Accueil'
tRp3384
asbasbasbag53
(g69
g55
NtRp3385
(dp3386
g58
(dp3387
sg67
g3367
sg60
(lp3388
g53
(g74
g55
NtRp3389
(dp3390
g58
(dp3391
sg67
g3385
sg60
(lp3392
g53
(g54
g55
NtRp3393
(dp3394
g58
(dp3395
g66
I3
ssg67
g3389
sg60
(lp3396
g96
asbasbasbag53
(g69
g55
NtRp3397
(dp3398
g58
(dp3399
sg67
g3367
sg60
(lp3400
g53
(g74
g55
NtRp3401
(dp3402
g58
(dp3403
sg67
g3397
sg60
(lp3404
g53
(g54
g55
NtRp3405
(dp3406
g58
(dp3407
g66
I3
ssg67
g3401
sg60
(lp3408
S'/init/default/index'
p3409
asbasbasbag53
(g69
g55
NtRp3410
(dp3411
g58
(dp3412
sg67
g3367
sg60
(lp3413
g53
(g74
g55
NtRp3414
(dp3415
g58
(dp3416
sg67
g3410
sg60
(lp3417
g53
(g54
g55
NtRp3418
(dp3419
g58
(dp3420
g66
I3
ssg67
g3414
sg60
(lp3421
g53
(g62
g55
NtRp3422
(dp3423
g58
(dp3424
g66
I2
ssg67
Nsg60
(lp3425
sbasbasbasbasbasbasbasbag53
(g69
g55
NtRp3426
(dp3427
g58
(dp3428
sg67
g3351
sg60
(lp3429
g53
(g74
g55
NtRp3430
(dp3431
g58
(dp3432
sg67
g3426
sg60
(lp3433
g53
(g54
g55
NtRp3434
(dp3435
g58
(dp3436
g66
I4
ssg67
g3430
sg60
(lp3437
g53
(g62
g55
NtRp3438
(dp3439
g58
(dp3440
g66
I3
ssg67
Nsg60
(lp3441
g53
(g69
g55
NtRp3442
(dp3443
g58
(dp3444
sg67
g3438
sg60
(lp3445
g53
(g74
g55
NtRp3446
(dp3447
g58
(dp3448
sg67
g3442
sg60
(lp3449
g53
(g54
g55
NtRp3450
(dp3451
g58
(dp3452
g66
I3
ssg67
g3446
sg60
(lp3453
g53
(cgluon.html
SPAN
p3454
g55
NtRp3455
(dp3456
g58
(dp3457
g78
S'color:yellow'
p3458
ssg67
Nsg60
(lp3459
g3329
asbasbasbasbag53
(g69
g55
NtRp3460
(dp3461
g58
(dp3462
sg67
g3438
sg60
(lp3463
g53
(g74
g55
NtRp3464
(dp3465
g58
(dp3466
sg67
g3460
sg60
(lp3467
g53
(g54
g55
NtRp3468
(dp3469
g58
(dp3470
g66
I3
ssg67
g3464
sg60
(lp3471
g96
asbasbasbag53
(g69
g55
NtRp3472
(dp3473
g58
(dp3474
sg67
g3438
sg60
(lp3475
g53
(g74
g55
NtRp3476
(dp3477
g58
(dp3478
sg67
g3472
sg60
(lp3479
g53
(g54
g55
NtRp3480
(dp3481
g58
(dp3482
g66
I3
ssg67
g3476
sg60
(lp3483
S'None'
p3484
asbasbasbag53
(g69
g55
NtRp3485
(dp3486
g58
(dp3487
sg67
g3438
sg60
(lp3488
g53
(g74
g55
NtRp3489
(dp3490
g58
(dp3491
sg67
g3485
sg60
(lp3492
g53
(g54
g55
NtRp3493
(dp3494
g58
(dp3495
g66
I3
ssg67
g3489
sg60
(lp3496
g53
(g62
g55
NtRp3497
(dp3498
g58
(dp3499
g66
I2
ssg67
Nsg60
(lp3500
g53
(g69
g55
NtRp3501
(dp3502
g58
(dp3503
sg67
g3497
sg60
(lp3504
g53
(g74
g55
NtRp3505
(dp3506
g58
(dp3507
sg67
g3501
sg60
(lp3508
g53
(g54
g55
NtRp3509
(dp3510
g58
(dp3511
g66
I2
ssg67
g3505
sg60
(lp3512
g53
(g62
g55
NtRp3513
(dp3514
g58
(dp3515
g66
I1
ssg67
Nsg60
(lp3516
g53
(g69
g55
NtRp3517
(dp3518
g58
(dp3519
sg67
g3513
sg60
(lp3520
g53
(g74
g55
NtRp3521
(dp3522
g58
(dp3523
sg67
g3517
sg60
(lp3524
g53
(g54
g55
NtRp3525
(dp3526
g58
(dp3527
g66
I1
ssg67
g3521
sg60
(lp3528
g3383
(S's\x08\x00\x00\x00My Sites'
tRp3529
asbasbasbag53
(g69
g55
NtRp3530
(dp3531
g58
(dp3532
sg67
g3513
sg60
(lp3533
g53
(g74
g55
NtRp3534
(dp3535
g58
(dp3536
sg67
g3530
sg60
(lp3537
g53
(g54
g55
NtRp3538
(dp3539
g58
(dp3540
g66
I1
ssg67
g3534
sg60
(lp3541
I00
asbasbasbag53
(g69
g55
NtRp3542
(dp3543
g58
(dp3544
sg67
g3513
sg60
(lp3545
g53
(g74
g55
NtRp3546
(dp3547
g58
(dp3548
sg67
g3542
sg60
(lp3549
g53
(g54
g55
NtRp3550
(dp3551
g58
(dp3552
g66
I1
ssg67
g3546
sg60
(lp3553
S'/admin/default/site'
p3554
asbasbasbasbasbasbasbag53
(g69
g55
NtRp3555
(dp3556
g58
(dp3557
sg67
g3497
sg60
(lp3558
g53
(g74
g55
NtRp3559
(dp3560
g58
(dp3561
sg67
g3555
sg60
(lp3562
g53
(g54
g55
NtRp3563
(dp3564
g58
(dp3565
g66
I2
ssg67
g3559
sg60
(lp3566
g53
(g62
g55
NtRp3567
(dp3568
g58
(dp3569
g66
I1
ssg67
Nsg60
(lp3570
g53
(g69
g55
NtRp3571
(dp3572
g58
(dp3573
sg67
g3567
sg60
(lp3574
g53
(g74
g55
NtRp3575
(dp3576
g58
(dp3577
sg67
g3571
sg60
(lp3578
g53
(g54
g55
NtRp3579
(dp3580
g58
(dp3581
g66
I1
ssg67
g3575
sg60
(lp3582
g3383
(S's\x0b\x00\x00\x00Cette Appli'
tRp3583
asbasbasbag53
(g69
g55
NtRp3584
(dp3585
g58
(dp3586
sg67
g3567
sg60
(lp3587
g53
(g74
g55
NtRp3588
(dp3589
g58
(dp3590
sg67
g3584
sg60
(lp3591
g53
(g54
g55
NtRp3592
(dp3593
g58
(dp3594
g66
I1
ssg67
g3588
sg60
(lp3595
I00
asbasbasbag53
(g69
g55
NtRp3596
(dp3597
g58
(dp3598
sg67
g3567
sg60
(lp3599
g53
(g74
g55
NtRp3600
(dp3601
g58
(dp3602
sg67
g3596
sg60
(lp3603
g53
(g54
g55
NtRp3604
(dp3605
g58
(dp3606
g66
I1
ssg67
g3600
sg60
(lp3607
S'/admin/default/design/init'
p3608
asbasbasbag53
(g69
g55
NtRp3609
(dp3610
g58
(dp3611
sg67
g3567
sg60
(lp3612
g53
(g74
g55
NtRp3613
(dp3614
g58
(dp3615
sg67
g3609
sg60
(lp3616
g53
(g54
g55
NtRp3617
(dp3618
g58
(dp3619
g66
I1
ssg67
g3613
sg60
(lp3620
(lp3621
(g3383
(S's\x0b\x00\x00\x00Contr\xc3\xb4leur'
tRp3622
I00
S'/admin/default/edit/init/controllers/default.py'
tp3623
a(g3383
(S's\r\x00\x00\x00Pr\xc3\xa9sentation'
tRp3624
I00
S'/admin/default/edit/init/views/default/initdbjack.html'
tp3625
a(g3383
(S's\x0c\x00\x00\x00Mise en page'
tRp3626
I00
S'/admin/default/edit/init/views/layout.html'
tp3627
a(g3383
(S's\x10\x00\x00\x00Feuille de style'
tRp3628
I00
S'/admin/default/edit/init/static/css/web2py.css'
tp3629
a(g3383
(S's\n\x00\x00\x00Mod\xc3\xa8le DB'
tRp3630
I00
S'/admin/default/edit/init/models/db.py'
tp3631
a(g3383
(S's\x0c\x00\x00\x00Menu mod\xc3\xa8le'
tRp3632
I00
S'/admin/default/edit/init/models/menu.py'
tp3633
a(g3383
(S's\x10\x00\x00\x00Base de donn\xc3\xa9es'
tRp3634
I00
S'/init/appadmin/index'
tp3635
a(g3383
(S't\x07\x00\x00\x00Erreurs'
tRp3636
I00
S'/admin/default/errors/init'
tp3637
a(g3383
(S's\t\x00\x00\x00\xc3\x80 propos'
tRp3638
I00
S'/admin/default/about/init'
tp3639
aasbasbasbasbasbasbasbag53
(g69
g55
NtRp3640
(dp3641
g58
(dp3642
sg67
g3497
sg60
(lp3643
g53
(g74
g55
NtRp3644
(dp3645
g58
(dp3646
sg67
g3640
sg60
(lp3647
g53
(g54
g55
NtRp3648
(dp3649
g58
(dp3650
g66
I2
ssg67
g3644
sg60
(lp3651
g53
(g62
g55
NtRp3652
(dp3653
g58
(dp3654
g66
I1
ssg67
Nsg60
(lp3655
g53
(g69
g55
NtRp3656
(dp3657
g58
(dp3658
sg67
g3652
sg60
(lp3659
g53
(g74
g55
NtRp3660
(dp3661
g58
(dp3662
sg67
g3656
sg60
(lp3663
g53
(g54
g55
NtRp3664
(dp3665
g58
(dp3666
g66
I1
ssg67
g3660
sg60
(lp3667
S'web2py.com'
p3668
asbasbasbag53
(g69
g55
NtRp3669
(dp3670
g58
(dp3671
sg67
g3652
sg60
(lp3672
g53
(g74
g55
NtRp3673
(dp3674
g58
(dp3675
sg67
g3669
sg60
(lp3676
g53
(g54
g55
NtRp3677
(dp3678
g58
(dp3679
g66
I1
ssg67
g3673
sg60
(lp3680
I00
asbasbasbag53
(g69
g55
NtRp3681
(dp3682
g58
(dp3683
sg67
g3652
sg60
(lp3684
g53
(g74
g55
NtRp3685
(dp3686
g58
(dp3687
sg67
g3681
sg60
(lp3688
g53
(g54
g55
NtRp3689
(dp3690
g58
(dp3691
g66
I1
ssg67
g3685
sg60
(lp3692
S'http://www.web2py.com'
p3693
asbasbasbag53
(g69
g55
NtRp3694
(dp3695
g58
(dp3696
sg67
g3652
sg60
(lp3697
g53
(g74
g55
NtRp3698
(dp3699
g58
(dp3700
sg67
g3694
sg60
(lp3701
g53
(g54
g55
NtRp3702
(dp3703
g58
(dp3704
g66
I1
ssg67
g3698
sg60
(lp3705
(lp3706
(g3383
(S's\x10\x00\x00\x00T\xc3\xa9l\xc3\xa9chargement'
tRp3707
I00
S'http://www.web2py.com/examples/default/download'
p3708
tp3709
a(g3383
(S't\x07\x00\x00\x00Support'
tRp3710
I00
S'http://www.web2py.com/examples/default/support'
p3711
tp3712
a(g3383
(S's\x05\x00\x00\x00D\xc3\xa9mo'
tRp3713
I00
S'http://web2py.com/demo_admin'
p3714
tp3715
a(g3383
(S's\x10\x00\x00\x00Examples Rapides'
tRp3716
I00
S'http://web2py.com/examples/default/examples'
p3717
tp3718
a(g3383
(S't\x03\x00\x00\x00FAQ'
tRp3719
I00
S'http://web2py.com/AlterEgo'
p3720
tp3721
a(g3383
(S's\x07\x00\x00\x00Vid\xc3\xa9os'
tRp3722
I00
S'http://www.web2py.com/examples/default/videos/'
p3723
tp3724
a(g3383
(S's\x16\x00\x00\x00Applications gratuites'
tRp3725
I00
S'http://web2py.com/appliances'
p3726
tp3727
a(g3383
(S't\n\x00\x00\x00Plugiciels'
tRp3728
I00
S'http://web2py.com/plugins'
p3729
tp3730
a(g3383
(S't\x07\x00\x00\x00Layouts'
tRp3731
I00
S'http://web2py.com/layouts'
p3732
tp3733
a(g3383
(S't\x08\x00\x00\x00Recettes'
tRp3734
I00
S'http://web2pyslices.com/'
p3735
tp3736
a(g3383
(S's\x0b\x00\x00\x00S\xc3\xa9mantique'
tRp3737
I00
S'http://web2py.com/semantic'
p3738
tp3739
aasbasbasbasbasbasbasbag53
(g69
g55
NtRp3740
(dp3741
g58
(dp3742
sg67
g3497
sg60
(lp3743
g53
(g74
g55
NtRp3744
(dp3745
g58
(dp3746
sg67
g3740
sg60
(lp3747
g53
(g54
g55
NtRp3748
(dp3749
g58
(dp3750
g66
I2
ssg67
g3744
sg60
(lp3751
g53
(g62
g55
NtRp3752
(dp3753
g58
(dp3754
g66
I1
ssg67
Nsg60
(lp3755
g53
(g69
g55
NtRp3756
(dp3757
g58
(dp3758
sg67
g3752
sg60
(lp3759
g53
(g74
g55
NtRp3760
(dp3761
g58
(dp3762
sg67
g3756
sg60
(lp3763
g53
(g54
g55
NtRp3764
(dp3765
g58
(dp3766
g66
I1
ssg67
g3760
sg60
(lp3767
g3383
(S't\r\x00\x00\x00Documentation'
tRp3768
asbasbasbag53
(g69
g55
NtRp3769
(dp3770
g58
(dp3771
sg67
g3752
sg60
(lp3772
g53
(g74
g55
NtRp3773
(dp3774
g58
(dp3775
sg67
g3769
sg60
(lp3776
g53
(g54
g55
NtRp3777
(dp3778
g58
(dp3779
g66
I1
ssg67
g3773
sg60
(lp3780
I00
asbasbasbag53
(g69
g55
NtRp3781
(dp3782
g58
(dp3783
sg67
g3752
sg60
(lp3784
g53
(g74
g55
NtRp3785
(dp3786
g58
(dp3787
sg67
g3781
sg60
(lp3788
g53
(g54
g55
NtRp3789
(dp3790
g58
(dp3791
g66
I1
ssg67
g3785
sg60
(lp3792
S'http://www.web2py.com/book'
p3793
asbasbasbag53
(g69
g55
NtRp3794
(dp3795
g58
(dp3796
sg67
g3752
sg60
(lp3797
g53
(g74
g55
NtRp3798
(dp3799
g58
(dp3800
sg67
g3794
sg60
(lp3801
g53
(g54
g55
NtRp3802
(dp3803
g58
(dp3804
g66
I1
ssg67
g3798
sg60
(lp3805
(lp3806
(g3383
(S's\x08\x00\x00\x00Pr\xc3\xa9face'
tRp3807
I00
S'http://www.web2py.com/book/default/chapter/00'
p3808
tp3809
a(g3383
(S't\x0c\x00\x00\x00Introduction'
tRp3810
I00
S'http://www.web2py.com/book/default/chapter/01'
p3811
tp3812
a(g3383
(S't\x06\x00\x00\x00Python'
tRp3813
I00
S'http://www.web2py.com/book/default/chapter/02'
p3814
tp3815
a(g3383
(S's\r\x00\x00\x00Pr\xc3\xa9sentation'
tRp3816
I00
S'http://www.web2py.com/book/default/chapter/03'
p3817
tp3818
a(g3383
(S's\x08\x00\x00\x00Le noyau'
tRp3819
I00
S'http://www.web2py.com/book/default/chapter/04'
p3820
tp3821
a(g3383
(S's\x08\x00\x00\x00Les Vues'
tRp3822
I00
S'http://www.web2py.com/book/default/chapter/05'
p3823
tp3824
a(g3383
(S's\x10\x00\x00\x00Base de donn\xc3\xa9es'
tRp3825
I00
S'http://www.web2py.com/book/default/chapter/06'
p3826
tp3827
a(g3383
(S's\x1a\x00\x00\x00Formulaires et Validateurs'
tRp3828
I00
S'http://www.web2py.com/book/default/chapter/07'
p3829
tp3830
a(g3383
(S's\r\x00\x00\x00Email and SMS'
tRp3831
I00
S'http://www.web2py.com/book/default/chapter/08'
p3832
tp3833
a(g3383
(S"s\x12\x00\x00\x00Contr\xc3\xb4le d'acc\xc3\xa8s"
tRp3834
I00
S'http://www.web2py.com/book/default/chapter/09'
p3835
tp3836
a(g3383
(S't\x08\x00\x00\x00Services'
tRp3837
I00
S'http://www.web2py.com/book/default/chapter/10'
p3838
tp3839
a(g3383
(S's\r\x00\x00\x00Recettes Ajax'
tRp3840
I00
S'http://www.web2py.com/book/default/chapter/11'
p3841
tp3842
a(g3383
(S's\x16\x00\x00\x00Components and Plugins'
tRp3843
I00
S'http://www.web2py.com/book/default/chapter/12'
p3844
tp3845
a(g3383
(S's\x18\x00\x00\x00Recettes de d\xc3\xa9ploiement'
tRp3846
I00
S'http://www.web2py.com/book/default/chapter/13'
p3847
tp3848
a(g3383
(S's\x0f\x00\x00\x00Autres recettes'
tRp3849
I00
S'http://www.web2py.com/book/default/chapter/14'
p3850
tp3851
a(g3383
(S's\x10\x00\x00\x00Acheter ce livre'
tRp3852
I00
S'http://stores.lulu.com/web2py'
p3853
tp3854
aasbasbasbasbasbasbasbag53
(g69
g55
NtRp3855
(dp3856
g58
(dp3857
sg67
g3497
sg60
(lp3858
g53
(g74
g55
NtRp3859
(dp3860
g58
(dp3861
sg67
g3855
sg60
(lp3862
g53
(g54
g55
NtRp3863
(dp3864
g58
(dp3865
g66
I2
ssg67
g3859
sg60
(lp3866
g53
(g62
g55
NtRp3867
(dp3868
g58
(dp3869
g66
I1
ssg67
Nsg60
(lp3870
g53
(g69
g55
NtRp3871
(dp3872
g58
(dp3873
sg67
g3867
sg60
(lp3874
g53
(g74
g55
NtRp3875
(dp3876
g58
(dp3877
sg67
g3871
sg60
(lp3878
g53
(g54
g55
NtRp3879
(dp3880
g58
(dp3881
g66
I1
ssg67
g3875
sg60
(lp3882
g3383
(S's\x0b\x00\x00\x00Communaut\xc3\xa9'
tRp3883
asbasbasbag53
(g69
g55
NtRp3884
(dp3885
g58
(dp3886
sg67
g3867
sg60
(lp3887
g53
(g74
g55
NtRp3888
(dp3889
g58
(dp3890
sg67
g3884
sg60
(lp3891
g53
(g54
g55
NtRp3892
(dp3893
g58
(dp3894
g66
I1
ssg67
g3888
sg60
(lp3895
I00
asbasbasbag53
(g69
g55
NtRp3896
(dp3897
g58
(dp3898
sg67
g3867
sg60
(lp3899
g53
(g74
g55
NtRp3900
(dp3901
g58
(dp3902
sg67
g3896
sg60
(lp3903
g53
(g54
g55
NtRp3904
(dp3905
g58
(dp3906
g66
I1
ssg67
g3900
sg60
(lp3907
Nasbasbasbag53
(g69
g55
NtRp3908
(dp3909
g58
(dp3910
sg67
g3867
sg60
(lp3911
g53
(g74
g55
NtRp3912
(dp3913
g58
(dp3914
sg67
g3908
sg60
(lp3915
g53
(g54
g55
NtRp3916
(dp3917
g58
(dp3918
g66
I1
ssg67
g3912
sg60
(lp3919
(lp3920
(g3383
(S't\x06\x00\x00\x00Groups'
tRp3921
I00
S'http://www.web2py.com/examples/default/usergroups'
p3922
tp3923
a(g3383
(S't\x07\x00\x00\x00Twitter'
tRp3924
I00
S'http://twitter.com/web2py'
p3925
tp3926
a(g3383
(S's\t\x00\x00\x00Live Chat'
tRp3927
I00
S'http://webchat.freenode.net/?channels=web2py'
p3928
tp3929
aasbasbasbasbasbasbasbag53
(g69
g55
NtRp3930
(dp3931
g58
(dp3932
sg67
g3497
sg60
(lp3933
g53
(g74
g55
NtRp3934
(dp3935
g58
(dp3936
sg67
g3930
sg60
(lp3937
g53
(g54
g55
NtRp3938
(dp3939
g58
(dp3940
g66
I2
ssg67
g3934
sg60
(lp3941
g53
(g62
g55
NtRp3942
(dp3943
g58
(dp3944
g66
I1
ssg67
Nsg60
(lp3945
g53
(g69
g55
NtRp3946
(dp3947
g58
(dp3948
sg67
g3942
sg60
(lp3949
g53
(g74
g55
NtRp3950
(dp3951
g58
(dp3952
sg67
g3946
sg60
(lp3953
g53
(g54
g55
NtRp3954
(dp3955
g58
(dp3956
g66
I1
ssg67
g3950
sg60
(lp3957
g3383
(S't\n\x00\x00\x00Plugiciels'
tRp3958
asbasbasbag53
(g69
g55
NtRp3959
(dp3960
g58
(dp3961
sg67
g3942
sg60
(lp3962
g53
(g74
g55
NtRp3963
(dp3964
g58
(dp3965
sg67
g3959
sg60
(lp3966
g53
(g54
g55
NtRp3967
(dp3968
g58
(dp3969
g66
I1
ssg67
g3963
sg60
(lp3970
I00
asbasbasbag53
(g69
g55
NtRp3971
(dp3972
g58
(dp3973
sg67
g3942
sg60
(lp3974
g53
(g74
g55
NtRp3975
(dp3976
g58
(dp3977
sg67
g3971
sg60
(lp3978
g53
(g54
g55
NtRp3979
(dp3980
g58
(dp3981
g66
I1
ssg67
g3975
sg60
(lp3982
Nasbasbasbag53
(g69
g55
NtRp3983
(dp3984
g58
(dp3985
sg67
g3942
sg60
(lp3986
g53
(g74
g55
NtRp3987
(dp3988
g58
(dp3989
sg67
g3983
sg60
(lp3990
g53
(g54
g55
NtRp3991
(dp3992
g58
(dp3993
g66
I1
ssg67
g3987
sg60
(lp3994
(lp3995
(S'plugin_wiki'
p3996
I00
S'http://web2py.com/examples/default/download'
p3997
tp3998
a(g3383
(S's\r\x00\x00\x00Other Plugins'
tRp3999
I00
g3729
tp4000
a(g3383
(S's\x0e\x00\x00\x00Layout Plugins'
tRp4001
I00
g3732
tp4002
aasbasbasbasbasbasbasbasbasbasbasbasbasbasbasbasbasbasbasbag53
(g69
g55
NtRp4003
(dp4004
g58
(dp4005
sg67
g2847
sg60
(lp4006
g53
(g74
g55
NtRp4007
(dp4008
g58
(dp4009
g78
g79
ssg67
g4003
sg60
(lp4010
S'meta'
p4011
asbag53
(g74
g55
NtRp4012
(dp4013
g58
(dp4014
g85
g86
ssg67
g4003
sg60
(lp4015
S':'
asbag53
(g74
g55
NtRp4016
(dp4017
g58
(dp4018
sg67
g4003
sg60
(lp4019
g53
(g54
g55
NtRp4020
(dp4021
g58
(dp4022
g66
I5
ssg67
g4016
sg60
(lp4023
g53
(g62
g55
NtRp4024
(dp4025
g58
(dp4026
g66
I4
ssg67
Nsg60
(lp4027
g53
(g69
g55
NtRp4028
(dp4029
g58
(dp4030
sg67
g4024
sg60
(lp4031
g53
(g74
g55
NtRp4032
(dp4033
g58
(dp4034
g78
g79
ssg67
g4028
sg60
(lp4035
S'author'
p4036
asbag53
(g74
g55
NtRp4037
(dp4038
g58
(dp4039
g85
g86
ssg67
g4028
sg60
(lp4040
S':'
asbag53
(g74
g55
NtRp4041
(dp4042
g58
(dp4043
sg67
g4028
sg60
(lp4044
g53
(g54
g55
NtRp4045
(dp4046
g58
(dp4047
g66
I4
ssg67
g4041
sg60
(lp4048
S'Your Name <you@example.com>'
p4049
asbasbasbag53
(g69
g55
NtRp4050
(dp4051
g58
(dp4052
sg67
g4024
sg60
(lp4053
g53
(g74
g55
NtRp4054
(dp4055
g58
(dp4056
g78
g79
ssg67
g4050
sg60
(lp4057
S'copyright'
p4058
asbag53
(g74
g55
NtRp4059
(dp4060
g58
(dp4061
g85
g86
ssg67
g4050
sg60
(lp4062
S':'
asbag53
(g74
g55
NtRp4063
(dp4064
g58
(dp4065
sg67
g4050
sg60
(lp4066
g53
(g54
g55
NtRp4067
(dp4068
g58
(dp4069
g66
I4
ssg67
g4063
sg60
(lp4070
S'Copyright 2011'
p4071
asbasbasbag53
(g69
g55
NtRp4072
(dp4073
g58
(dp4074
sg67
g4024
sg60
(lp4075
g53
(g74
g55
NtRp4076
(dp4077
g58
(dp4078
g78
g79
ssg67
g4072
sg60
(lp4079
S'description'
p4080
asbag53
(g74
g55
NtRp4081
(dp4082
g58
(dp4083
g85
g86
ssg67
g4072
sg60
(lp4084
S':'
asbag53
(g74
g55
NtRp4085
(dp4086
g58
(dp4087
sg67
g4072
sg60
(lp4088
g53
(g54
g55
NtRp4089
(dp4090
g58
(dp4091
g66
I4
ssg67
g4085
sg60
(lp4092
S'a cool new app'
p4093
asbasbasbag53
(g69
g55
NtRp4094
(dp4095
g58
(dp4096
sg67
g4024
sg60
(lp4097
g53
(g74
g55
NtRp4098
(dp4099
g58
(dp4100
g78
g79
ssg67
g4094
sg60
(lp4101
S'generator'
p4102
asbag53
(g74
g55
NtRp4103
(dp4104
g58
(dp4105
g85
g86
ssg67
g4094
sg60
(lp4106
S':'
asbag53
(g74
g55
NtRp4107
(dp4108
g58
(dp4109
sg67
g4094
sg60
(lp4110
g53
(g54
g55
NtRp4111
(dp4112
g58
(dp4113
g66
I4
ssg67
g4107
sg60
(lp4114
S'Web2py Web Framework'
p4115
asbasbasbag53
(g69
g55
NtRp4116
(dp4117
g58
(dp4118
sg67
g4024
sg60
(lp4119
g53
(g74
g55
NtRp4120
(dp4121
g58
(dp4122
g78
g79
ssg67
g4116
sg60
(lp4123
S'keywords'
p4124
asbag53
(g74
g55
NtRp4125
(dp4126
g58
(dp4127
g85
g86
ssg67
g4116
sg60
(lp4128
S':'
asbag53
(g74
g55
NtRp4129
(dp4130
g58
(dp4131
sg67
g4116
sg60
(lp4132
g53
(g54
g55
NtRp4133
(dp4134
g58
(dp4135
g66
I4
ssg67
g4129
sg60
(lp4136
S'web2py, python, framework'
p4137
asbasbasbasbasbasbasbag53
(g69
g55
NtRp4138
(dp4139
g58
(dp4140
sg67
g2847
sg60
(lp4141
g53
(g74
g55
NtRp4142
(dp4143
g58
(dp4144
g78
g79
ssg67
g4138
sg60
(lp4145
S'postprocessing'
p4146
asbag53
(g74
g55
NtRp4147
(dp4148
g58
(dp4149
g85
g86
ssg67
g4138
sg60
(lp4150
S':'
asbag53
(g74
g55
NtRp4151
(dp4152
g58
(dp4153
sg67
g4138
sg60
(lp4154
g53
(g54
g55
NtRp4155
(dp4156
g58
(dp4157
g66
I5
ssg67
g4151
sg60
(lp4158
g53
(g62
g55
NtRp4159
(dp4160
g58
(dp4161
g66
I4
ssg67
Nsg60
(lp4162
sbasbasbasbag53
(g69
g55
NtRp4163
(dp4164
g58
(dp4165
sg67
g2847
sg60
(lp4166
g53
(g74
g55
NtRp4167
(dp4168
g58
(dp4169
g78
g79
ssg67
g4163
sg60
(lp4170
S'session_db'
p4171
asbag53
(g74
g55
NtRp4172
(dp4173
g58
(dp4174
g85
g86
ssg67
g4163
sg60
(lp4175
S':'
asbag53
(g74
g55
NtRp4176
(dp4177
g58
(dp4178
sg67
g4163
sg60
(lp4179
g53
(g54
g55
NtRp4180
(dp4181
g58
(dp4182
g66
I5
ssg67
g4176
sg60
(lp4183
g730
asbasbasbag53
(g69
g55
NtRp4184
(dp4185
g58
(dp4186
sg67
g2847
sg60
(lp4187
g53
(g74
g55
NtRp4188
(dp4189
g58
(dp4190
g78
g79
ssg67
g4184
sg60
(lp4191
S'session_id'
p4192
asbag53
(g74
g55
NtRp4193
(dp4194
g58
(dp4195
g85
g86
ssg67
g4184
sg60
(lp4196
S':'
asbag53
(g74
g55
NtRp4197
(dp4198
g58
(dp4199
sg67
g4184
sg60
(lp4200
g53
(g54
g55
NtRp4201
(dp4202
g58
(dp4203
g66
I5
ssg67
g4197
sg60
(lp4204
S'19:a8687721-5787-4713-9329-1674aeb3f1bb'
p4205
asbasbasbag53
(g69
g55
NtRp4206
(dp4207
g58
(dp4208
sg67
g2847
sg60
(lp4209
g53
(g74
g55
NtRp4210
(dp4211
g58
(dp4212
g78
g79
ssg67
g4206
sg60
(lp4213
S'session_id_name'
p4214
asbag53
(g74
g55
NtRp4215
(dp4216
g58
(dp4217
g85
g86
ssg67
g4206
sg60
(lp4218
S':'
asbag53
(g74
g55
NtRp4219
(dp4220
g58
(dp4221
sg67
g4206
sg60
(lp4222
g53
(g54
g55
NtRp4223
(dp4224
g58
(dp4225
g66
I5
ssg67
g4219
sg60
(lp4226
S'session_id_init'
p4227
asbasbasbag53
(g69
g55
NtRp4228
(dp4229
g58
(dp4230
sg67
g2847
sg60
(lp4231
g53
(g74
g55
NtRp4232
(dp4233
g58
(dp4234
g78
g79
ssg67
g4228
sg60
(lp4235
S'status'
p4236
asbag53
(g74
g55
NtRp4237
(dp4238
g58
(dp4239
g85
g86
ssg67
g4228
sg60
(lp4240
S':'
asbag53
(g74
g55
NtRp4241
(dp4242
g58
(dp4243
sg67
g4228
sg60
(lp4244
g53
(g54
g55
NtRp4245
(dp4246
g58
(dp4247
g66
I5
ssg67
g4241
sg60
(lp4248
S'200'
p4249
asbasbasbag53
(g69
g55
NtRp4250
(dp4251
g58
(dp4252
sg67
g2847
sg60
(lp4253
g53
(g74
g55
NtRp4254
(dp4255
g58
(dp4256
g78
g79
ssg67
g4250
sg60
(lp4257
S'subtitle'
p4258
asbag53
(g74
g55
NtRp4259
(dp4260
g58
(dp4261
g85
g86
ssg67
g4250
sg60
(lp4262
S':'
asbag53
(g74
g55
NtRp4263
(dp4264
g58
(dp4265
sg67
g4250
sg60
(lp4266
g53
(g54
g55
NtRp4267
(dp4268
g58
(dp4269
g66
I5
ssg67
g4263
sg60
(lp4270
g3383
(S's\x12\x00\x00\x00personnalisez-moi!'
tRp4271
asbasbasbag53
(g69
g55
NtRp4272
(dp4273
g58
(dp4274
sg67
g2847
sg60
(lp4275
g53
(g74
g55
NtRp4276
(dp4277
g58
(dp4278
g78
g79
ssg67
g4272
sg60
(lp4279
S'title'
p4280
asbag53
(g74
g55
NtRp4281
(dp4282
g58
(dp4283
g85
g86
ssg67
g4272
sg60
(lp4284
S':'
asbag53
(g74
g55
NtRp4285
(dp4286
g58
(dp4287
sg67
g4272
sg60
(lp4288
g53
(g54
g55
NtRp4289
(dp4290
g58
(dp4291
g66
I5
ssg67
g4285
sg60
(lp4292
S'Init'
p4293
asbasbasbag53
(g69
g55
NtRp4294
(dp4295
g58
(dp4296
sg67
g2847
sg60
(lp4297
g53
(g74
g55
NtRp4298
(dp4299
g58
(dp4300
g78
g79
ssg67
g4294
sg60
(lp4301
g2090
asbag53
(g74
g55
NtRp4302
(dp4303
g58
(dp4304
g85
g86
ssg67
g4294
sg60
(lp4305
S':'
asbag53
(g74
g55
NtRp4306
(dp4307
g58
(dp4308
sg67
g4294
sg60
(lp4309
g53
(g54
g55
NtRp4310
(dp4311
g58
(dp4312
g66
I5
ssg67
g4306
sg60
(lp4313
g2103
asbasbasbag53
(g69
g55
NtRp4314
(dp4315
g58
(dp4316
sg67
g2847
sg60
(lp4317
g53
(g74
g55
NtRp4318
(dp4319
g58
(dp4320
g78
g79
ssg67
g4314
sg60
(lp4321
S'view'
p4322
asbag53
(g74
g55
NtRp4323
(dp4324
g58
(dp4325
g85
g86
ssg67
g4314
sg60
(lp4326
S':'
asbag53
(g74
g55
NtRp4327
(dp4328
g58
(dp4329
sg67
g4314
sg60
(lp4330
g53
(g54
g55
NtRp4331
(dp4332
g58
(dp4333
g66
I5
ssg67
g4327
sg60
(lp4334
S'default/initdbjack.html'
p4335
asbasbasbasbasbsS'locals'
p4336
(dp4337
S'fields'
p4338
S"[(<gluon.dal.Field object at 0x042FB8F0>, 'bussiere'), (<gluon.dal.Field object at 0x042FB9D0>, 'b718cac2c616a8bda72d25a1273e7b36'), (<gluon.dal.Field object at 0x042FBA50>, 'bussiere@gmail.com'), (<gluon.dal.Field object at 0x042FBC90>, False), (<gluon.dal.Field object at 0x042FBBF0>, ''), (<gluon.dal.Field object at 0x042FBE30>, ''), (<gluon.dal.Field object at 0x042FB9B0>, '')]"
p4339
sS'self'
p4340
S'<gluon.dal.SQLiteAdapter object at 0x042FA6F0>'
p4341
sS'e'
S"IntegrityError('column email is not unique',)"
p4342
sS'table'
p4343
S"<Table {'_db': <DAL {'auth_event': <Table {'orig..., '_id': <gluon.dal.Field object at 0x042FBE70>}>"
p4344
sS'query'
p4345
S'"INSERT INTO auth_user(username,password,email,va...25a1273e7b36\',\'bussiere@gmail.com\',\'F\',\'\',\'\',\'\');"'
p4346
sssS'traceback'
p4347
S'Traceback (most recent call last):\n  File "gluon/restricted.py", line 205, in restricted\n  File "C:\\Users\\Bussiere\\Dropbox\\Projets\\jackpoint\\web2py\\applications\\init\\controllers/default.py", line 448, in <module>\n  File "gluon/globals.py", line 173, in <lambda>\n  File "C:\\Users\\Bussiere\\Dropbox\\Projets\\jackpoint\\web2py\\applications\\init\\controllers/default.py", line 264, in initdbjack\n  File "gluon/dal.py", line 6829, in insert\n  File "gluon/dal.py", line 928, in insert\nIntegrityError: column email is not unique\n'
p4348
s.