(dp1
S'output'
p2
S"<class 'sqlite3.IntegrityError'> column email is not unique"
p3
sS'layer'
p4
S'C:\\Users\\Bussiere\\Dropbox\\Projets\\jackpoint\\web2py\\applications\\init\\controllers/default.py'
p5
sS'code'
p6
S'\xef\xbb\xbf# -*- coding: utf-8 -*-\n# this file is released under public domain and you can use without limitations\n\n#########################################################################\n## This is a samples controller\n## - index is the default action of any application\n## - user is required for authentication and authorization\n## - download is for downloading files uploaded in the db (does streaming)\n## - call exposes all registered services (none by default)\n#########################################################################\n# Static analyzer import helpers: (STATIC_IMPORT_MARK)\nif 0: \n    import gluon\n    global cache; cache = gluon.cache.Cache()\n    global LOAD; LOAD  = gluon.compileapp.LoadFactory()\n    import gluon.compileapp.local_import_aux as local_import #@UnusedImport\n    from gluon.contrib.gql import GQLDB #@UnusedImport\n    from gluon.dal import Field #@UnusedImport\n    global request; request = gluon.globals.Request()\n    global response; response = gluon.globals.Response()\n    global session; session = gluon.globals.Session()\n    from gluon.html import A #@UnusedImport\n    from gluon.html import B #@UnusedImport\n    from gluon.html import BEAUTIFY #@UnusedImport\n    from gluon.html import BODY #@UnusedImport\n    from gluon.html import BR #@UnusedImport\n    from gluon.html import CENTER #@UnusedImport\n    from gluon.html import CODE #@UnusedImport\n    from gluon.html import DIV #@UnusedImport\n    from gluon.html import EM #@UnusedImport\n    from gluon.html import EMBED #@UnusedImport\n    from gluon.html import embed64 #@UnusedImport\n    from gluon.html import FIELDSET #@UnusedImport\n    from gluon.html import FORM #@UnusedImport\n    from gluon.html import H1 #@UnusedImport\n    from gluon.html import H2 #@UnusedImport\n    from gluon.html import H3 #@UnusedImport\n    from gluon.html import H4 #@UnusedImport\n    from gluon.html import H5 #@UnusedImport\n    from gluon.html import H6 #@UnusedImport\n    from gluon.html import HEAD #@UnusedImport\n    from gluon.html import HR #@UnusedImport\n    from gluon.html import HTML #@UnusedImport\n    from gluon.html import I #@UnusedImport\n    from gluon.html import IFRAME #@UnusedImport\n    from gluon.html import IMG #@UnusedImport\n    from gluon.html import INPUT #@UnusedImport\n    from gluon.html import LABEL #@UnusedImport\n    from gluon.html import LEGEND #@UnusedImport\n    from gluon.html import LI #@UnusedImport\n    from gluon.html import LINK #@UnusedImport\n    from gluon.html import MARKMIN #@UnusedImport\n    from gluon.html import MENU #@UnusedImport\n    from gluon.html import META #@UnusedImport\n    from gluon.html import OBJECT #@UnusedImport\n    from gluon.html import OL #@UnusedImport\n    from gluon.html import ON #@UnusedImport\n    from gluon.html import OPTGROUP #@UnusedImport\n    from gluon.html import OPTION #@UnusedImport\n    from gluon.html import P #@UnusedImport\n    from gluon.html import PRE #@UnusedImport\n    from gluon.html import STYLE #@UnusedImport\n    from gluon.html import SCRIPT #@UnusedImport\n    from gluon.html import SELECT #@UnusedImport\n    from gluon.html import SPAN #@UnusedImport\n    from gluon.html import TABLE #@UnusedImport\n    from gluon.html import TAG #@UnusedImport\n    from gluon.html import TBODY #@UnusedImport\n    from gluon.html import TD #@UnusedImport\n    from gluon.html import TEXTAREA #@UnusedImport\n    from gluon.html import TFOOT #@UnusedImport\n    from gluon.html import TH  #@UnusedImport\n    from gluon.html import THEAD #@UnusedImport\n    from gluon.html import TITLE #@UnusedImport\n    from gluon.html import TR #@UnusedImport\n    from gluon.html import TT #@UnusedImport\n    from gluon.html import UL #@UnusedImport\n    from gluon.html import URL #@UnusedImport\n    from gluon.html import XHTML #@UnusedImport\n    from gluon.html import XML #@UnusedImport\n    from gluon.html import xmlescape #@UnusedImport\n    from gluon.http import HTTP #@UnusedImport\n    from gluon.http import redirect #@UnusedImport\n    import gluon.languages.translator as T #@UnusedImport\n    from gluon.sql import DAL\n    global db; db = DAL()\n    from gluon.sql import SQLDB #@UnusedImport\n    from gluon.sql import SQLField #@UnusedImport\n    from gluon.sqlhtml import SQLFORM #@UnusedImport\n    from gluon.sqlhtml import SQLTABLE #@UnusedImport\n    from gluon.tools import  Auth\n    global auth; auth = Auth()\n    from gluon.tools import Crud\n    global crud; crud = Crud()\n    from gluon.tools import fetch #@UnusedImport\n    from gluon.tools import geocode #@UnusedImport\n    from gluon.tools import Mail\n    global mail; mail = Mail()\n    from gluon.tools import PluginManager\n    global plugins; plugins = PluginManager()\n    from gluon.tools import prettydate #@UnusedImport\n    from gluon.tools import Recaptcha #@UnusedImport\n    from gluon.tools import Service\n    global service; service = Service()\n    from gluon.validators import CLEANUP  #@UnusedImport\n    from gluon.validators import CRYPT #@UnusedImport\n    from gluon.validators import IS_ALPHANUMERIC #@UnusedImport\n    from gluon.validators import IS_DATE #@UnusedImport\n    from gluon.validators import IS_DATE_IN_RANGE #@UnusedImport\n    from gluon.validators import IS_DATETIME #@UnusedImport\n    from gluon.validators import IS_DATETIME_IN_RANGE #@UnusedImport\n    from gluon.validators import IS_DECIMAL_IN_RANGE #@UnusedImport\n    from gluon.validators import IS_EMAIL #@UnusedImport\n    from gluon.validators import IS_EMPTY_OR #@UnusedImport\n    from gluon.validators import IS_EQUAL_TO #@UnusedImport\n    from gluon.validators import IS_EXPR #@UnusedImport\n    from gluon.validators import IS_FLOAT_IN_RANGE #@UnusedImport\n    from gluon.validators import IS_IMAGE #@UnusedImport\n    from gluon.validators import IS_IN_DB #@UnusedImport\n    from gluon.validators import IS_IN_SET #@UnusedImport\n    from gluon.validators import IS_INT_IN_RANGE #@UnusedImport\n    from gluon.validators import IS_IPV4 #@UnusedImport\n    from gluon.validators import IS_LENGTH #@UnusedImport\n    from gluon.validators import IS_LIST_OF #@UnusedImport\n    from gluon.validators import IS_LOWER #@UnusedImport\n    from gluon.validators import IS_MATCH #@UnusedImport\n    from gluon.validators import IS_NOT_EMPTY #@UnusedImport\n    from gluon.validators import IS_NOT_IN_DB #@UnusedImport\n    from gluon.validators import IS_NULL_OR #@UnusedImport\n    from gluon.validators import IS_SLUG #@UnusedImport\n    from gluon.validators import IS_STRONG  #@UnusedImport\n    from gluon.validators import IS_TIME #@UnusedImport\n    from gluon.validators import IS_UPLOAD_FILENAME #@UnusedImport\n    from gluon.validators import IS_UPPER #@UnusedImpor\n\n\nimport random\nfrom uuid import uuid4\nfrom gluon.storage import Storage\nsettings = Storage()\n\n\ndef logout():\n    return auth.logout()\n\n\ndef index():\n    if auth.is_logged_in() :\n        return "You get the blue pills"\n    else :\n        return dict(form=auth.login(),faq=URL(\'faq\'))\n\n\n\ndef ensurefirstuser(Surnom, email, password):\n  users = db(db.auth_user.email == email).select()\n  if users:\n    user_id = users[0].id\n    created = False\n    print (\'found user_id so created equals %s\') % created\n    if settings.debug_ensure_first_user == True:\n      print (\'found user_id so created equals %s\') % created\n    return (user_id, created)\n\n  else:\n    my_crypt = CRYPT(key=auth.settings.hmac_key)\n    crypt_pass = my_crypt(password)[0]    \n    id_user = db.auth_user.insert(\n                   Surnom=Surnom,\n                   email=email,\n                   username=email,\n                   Items = None,\n                   Skills = None,\n                   password=crypt_pass,\n                                   )\n    db.commit()\n    created = True\n    print (\'creating user_id\')\n    if settings.debug_ensure_first_user == True:\n      print (\'creating user_id\')\n    return (id_user, created)\n\n    \n\n\ndef ensure_users():\n  user_id, created = _ensure_user(\'first\', \'last\', \'email@address.com\', \'UserPassword12345\')\n  if settings.debug_ensure_users == True:\n    print (\'user id %i\') % user_id\n    print (\'created %s\') % created\n\ndef ensure_group_role(role, description):\n  if not auth.id_group(role=role):  \n    auth.add_group(role=role, description=description)  \n    if settings.debug_ensure_group_role == True:\n      print (\'created role %s\') % (role)\n\ndef ensure_membership(group_id, user_id):\n  return_group_id = auth.add_membership(role=role, user_id=user_id)\n  if settings.debug_ensure_membership == True:\n    print (\'made user_id member of %s\') % (role)\n  return return_group_id\n \ndef ensure_permissions(role, description, user_id):\n  ensure_group_role(role, description)\n  return_group_id = ensure_membership(group_id, user_id)\n  if settings.debug_ensure_permissions == True:\n    print return_group_id\n\ndef generate_invitation(number,word=4,num=1,numdigit=5):\n    code = [\n[\'BELCHER\', \'FIX\', \'EEL\', \'PANZERBOY\', \'DESK_JOCKEY\', \'CHILLED\', \'ENFORCER\', \'CHERRY_PICKING\', \'COUNTRY_CLUB\', \'BOMBSHELL\', \'PLUGGED_IN\', \'FINI\', \'LEGIT\', \'JAM\', \'BONED_OUT\', \'BLADE\', \'ROUST\', \'SAMURAI\', \'DISK\', \'INPUT\', \'POST_TIME\', \'SOUNDS\', \'SKIP\', \'FLATBACKER\', \'WILSON\', \'SHOEMAKER\', \'DELTA_SIERRA\', \'HEART\', \'CROAK\', \'HEAD_HUNTER\', \'HOSHO_KAISHA\', "DELTA\'D", "\'FACE_(also,_FACE,_EYE-FACE,_I-FACE)", \'WEEFLE\', \'DIRTGIRL\', \'KEYBOARD\', \'BRAIN_BUCKET\', \'DRYING_OUT\', \'OVERCOOK\', \'PIG\', \'COLD_TEA\', \'RECONFIG\', \'PAD\', \'LIT_UP\', \'WRAITH\', \'HANDLE\', \'L.P.\', \'PINCH\', \'TAKE_A_CAB\', \'SPILL\', \'ACE_KOOL\', \'DO\', \'BIZ\', \'BROWNIE\', \'CANDLE_AND_BLOOD\', \'BLUEBOY\', \'UP_ON_IT\', \'BURN\', \'USER_INTERFACE\', \'HOB\', \'GYRO\', \'STUFFIT\', \'THATCH\', \'ICEBREAKER\', \'ZIP_GUN\', \'PETERMAN\', \'PLAY_DOUGH\', \'TREY-EIGHT\', \'SETTLE\', "CHIPPIN\'_IN", \'MEATBALL\', \'RAFFLES\', \'YUBITSUME\', \'CROAKER\', \'SUCKER_POCKETS\', \'L.A.M.A.\', \'GEEK\', \'BUTTONHEAD\'],\n[\'TAKE\', \'TEKIYA\', \'KURUMAKU\', \'BLOC\', \'GAT\', \'JOHATSU\', \'CRYSTAL\', \'A.I.\', \'ZEROED\', \'OVER_THE_SHOULDER\', \'GRAB_GEE\', \'PANZER\', \'GO_LEO\', \'WASHED\', \'I.C.E.\', \'COPSHOP\', \'COLLATERAL_DAMAGE\', \'BIG_DARK\', \'DOUBLE-DEUCE\', \'ZONEDANCE\', \'MARK\', \'COBBERS\', \'CHIMPIRA\', \'TRIADS\', \'SHANK\', \'FRAG\', \'BREATH_VAC\', "CHARLIE\'S_ANGEL", \'MULE\', \'BURNER\', "PACKIN\'", \'HOTDOGGER\', \'BOSOZOKU\', \'RIPPERDOC\', \'THIRDMAN\', \'MAXIMUM,_MAX\', \'CHOOH2_("CHOO")\', \'CRYO_MAX\', \'HEATER\', \'SHARK\', \'JOYGIRL\', \'GURENTAI\', \'BANDIT\', \'VENICE\', \'MIZU_SHOBAI\', \'PASTA_BOYS\', \'SQUID\', \'CYBERED_UP\', \'DEAD_RECKONING\', \'POPSICLE\', \'FAUST\', \'COLLARBOY\', \'SHOES\', \'TORCH\', \'DELTAJOCK\', \'BUTTERFLY_MAN\', \'WISE_GUYS\', \'BOOST\', \'CAIN\', \'FOUR-FIVE\', \'BREAK-DOWN\', \'POLYMER_ONE-SHOT\', \'FLAG\', \'CALL_GIRL\', \'IN_THE_HUNT\', \'HYDRO\', \'DOCK\', \'FENCE\', \'SHAIKUJIN\', \'GOMI\', \'FILTER\', \'SAINT_NICK\', \'LINEFOOT\', \'CAVALRY\', \'PUKE\', \'CONVERSION\', \'FINGER\', \'CONTRACT\'],\n[\'PLASTIC\', \'CRYSTALJOCKEY,_CRYSTALJOCK\', \'SCREW\', \'TOYSTORE\', \'DREAM_TIME\', \'EXOTIC\', \'WALKABOUT\', \'DIAMOND_SEASON\', \'SARAKIN\', \'CHRISTMAS_BUNDLES\', \'SHADES\', \'BUTTON_MAN\', \'FOXTROT_UNIFORM\', \'KAI\', \'UNDER_THE_PAINT\', \'MINIMUM\', \'TRIPLE_A\', \'PIG_ON_A_WHEEL\', \'BAG_MAN\', \'DIP\', \'PIGEONS\', \'MAN\', \'ADAM_HENRY\', \'HIGH\', \'HEAT\', \'NINJO\', \'KNIFE_FIGHT\', \'MOUTHPIECE\', \'AGRIPLEX\', \'DATA_TERM\', \'LIZ\', \'CHROMER\', \'OUTPUT\', \'N.O.E.\', \'CLOSE_A_CONTRACT\', \'LASSIE\', \'FLATLINE\', \'CHIV\', \'SING\', \'AMMO\', \'RAT\', \'MATCHBOX\', \'PULL_AN_ASH\', \'BORYOKUDAN\', \'SQUEEZE\', \'RONIN\', \'HIT\', \'RAGS\', \'TAKE_OUT\', \'BEAT_THE_RAP\', \'GIRI\', \'RUNNING_THE_LINE\', \'HARNESS\', \'GRAVEROBBER\', \'DROP_A_DIME\', \'BADGE_ON_A_BEAVER\', \'FLETCHER\', \'AMPED-OUT\', \'NEUTRALIZE\', \'PETER\', \'CONFIG\', \'HARDFIRE\', \'B.A.M.A.\', \'CHROMATIC_ROCK\', \'MOLDED\', \'RAD\', \'CREASED\', \'CHATTER_BOX\', \'HAND_CANNON\', \'NIPPERS\', \'SIERRA_HOTEL\', \'HOOK_UP\', \'-JOCKEY,_-JOCK\', \'BUG\', \'BATMAN_AND_ROBIN\', \'BLACK_OPERATIONS\', "D.C.\'S", \'SO_KA\'],\n[\'_A.A.A.\', \'HOME_PLATE\', \'LITEJACK\', \'PINEAPPLE\', \'MAKE\', \'THE_STREET\', \'SITREP\', \'HANGING_PAPER\', \'PAINT_BOYS\', \'WETWORK\', \'NINER\', \'BOOKIE\', \'WHIPLASH\', \'TORPEDO\', \'HEATWAVE\', \'SOLAR_WIND\', \'QUIFF\', \'BIKE\', \'TRAFFIC\', \'WIRE_ROOM\', \'OYABUN\', \'COWBOY\', \'KOBUN\', \'MUDBOY\', \'COP_OUT\', \'SOKAIYA\', "\'DORPH", \'JOYBOY\', \'DIRTY\', \'BOAT\', \'DROP\', \'GRAV_or_GEE\', \'APOGEE\', \'BOOSTER\', \'BOOK\', \'FRY\', \'PULLING_TEETH\', \'ONE_LARGE\', \'COMBAT_DRUGS\', \'THRASH\', \'DO_A_GHOST\', \'DELTA\', \'RIN_TIN_TIN\', \'DROP_OUT\', \'GUMI\', \'ROCKERBOY/GIRL\', \'BULLET\', \'DEB\', \'THREADING_THE_NEEDLE\', \'MOTOR\', \'BLEEDER\', \'ARC\', \'BOPPER\', \'WASTE\', \'_DEMUKAI\', \'BREAK\', \'HOLDING_DOWN\', \'FEDS\', \'GAP\', \'RABBI\', \'BAKUTO\', \'CHOMBATTA_(CHOOMBA)\', \'BIG_HATS\', \'MR._JOHNSON\', \'EXEC\', \'BULL\', \'BULLSEYE\', \'POSERGANG\', \'CHAOL\', \'GEISHA\', \'SLAMMIT_ON\', \'POP_CAPS\', \'HARD_TIME\', \'BENJI\', \'MAKING_BANK\', \'PAPERHANGER\', \'NETRUN\', \'BOGEY\'],\n]     \n    i = 0\n    invits = []\n    print number\n    while (i < number):\n        invit = ""\n        j = 0\n        while (j < word):\n            debut = random.randint(0,len(code)-1)\n            codepick = code[debut][random.randint(0,len(code[debut])-1)]\n            j += 1\n            invit += codepick+"-"\n        j = 0\n        while (j < num):\n            invit += randomdig(numdigit)+"-"\n            j += 1\n        i+= 1\n        invit = invit[:-1]\n        if invit not in invits :\n            invits.append(invit[:-1])\n            print invit\n    return invits\n        \ndef randomdig(number):\n    max = "9"*number\n    max = int(max)\n    rand =  random.randint(0,max)\n    rand = str(rand)\n    rand = "0"*(number-len(rand))+rand\n    return rand\n\n@auth.requires_login()\ndef inscriptioninvit():\n    form = SQLFORM(db[auth.settings.table_user_name])\n    return dict(form=form)\n\n\ndef initdb():\n    if db(db.auth_user.username == "bussiere").count() == 0:\n            password= "titi" \n            my_crypt = CRYPT(key=auth.settings.hmac_key)\n            crypt_pass = my_crypt(password)[0]  \n            buss = db.auth_user.insert(\n               email= "bussiere@gmail.com",\n               username="bussiere",\n               password=crypt_pass,\n            )\n            jack = auth.add_group(\'Jack\', \'Jack master of none\')\n            auth.add_membership(jack, buss)\n            db.commit()  \n    db.commit() \n    carac = ["Force","Logique","Volonte","Charisme","Apparence","Dexterite"]\n    skillls = { \n    "Physique":{\n                "Sport":{\n                         "Capoeira" :{ \n                                      "bengale":{}\n                                      },\n                        "Karate":{\n                                  "Nord" : {},\n                                  "Sud" : {},\n                                 },\n                         },\n            },\n\n\n    "Technique":{\n                "Mettalerrie" : {\n                                 "Forge" : {},\n                                  \n                                  },\n                 \n    },\n\n    "Savoir":{\n              "Informatique" : {\n                                   "Programmation" :{\n                                                     "Python" :{\n                                                                 "Django" : {} ,\n                                                                  "Web2py" : {}\n                                                                },\n                                                     "Methode" :{\n                                                                 "Uml":{},\n                                                                  "Merise": {}\n                                                                },\n                                                     },\n                                   },\n\n            },\n    }\n\n    for c in carac :\n        if db(db.Carac.Nom == c).count() == 0:\n            db.Carac.insert(Nom=c)\n\n    for level1 in skills.keys() :\n        i = 0\n        if db(db.SkillLevel.Skill.Nom == level1).count() == 0:\n            Skill1 = db.SkillLevel.insert(Skill = (db.Skill.insert(Nom=level1)),Level = i)\n\n            for level2 in level1.keys() :\n                i = 1\n                if db(db.SkillLevel.Skill.Nom == level2).count() == 0:\n                    Skill2 = db.SkillLevel.insert(Skill = (db.Skill.insert(Nom=level2)),Level = i,parent = Skill1)\n                    for level3 in level2.keys() :\n                        i = 2\n                        if db(db.SkillLevel.Skill.Nom == level3).count() == 0:\n                            Skill3 = db.SkillLevel.insert(Skill = (db.Skill.insert(Nom=level3)),Level = i,parent = Skill2)\n                            for level4 in level3.keys() :\n                                i = 3\n                            if db(db.SkillLevel.Skill.Nom == level4).count() == 0:\n                                Skill3 = db.SkillLevel.insert(Skill = (db.Skill.insert(Nom=level4)),Level = i,parent = Skill3)\n                                for level5 in level4.keys() :\n                                    i = 4\n                                    if db(db.SkillLevel.Skill.Nom == level5).count() == 0:\n                                        Skill3 = db.SkillLevel.insert(Skill = (db.Skill.insert(Nom=level4)),Level = i,parent = Skill4)\n    db.commit() \n\n\n\n\n\n\n\ndef liste_invitations():\n    return dict(rows = db().select(db.Invitation.ALL))\n\ndef liste_user():\n    return dict(rows = db().select(db.auth_user.ALL))\n\n#@auth.requires_membership(\'manager\')\ndef generate_invitationpage():\n   form=FORM("Nombre d\'invit a generer:", INPUT(_name=\'nmbreinvit\'), INPUT(_type=\'submit\'))\n   if form.process().accepted and form.vars.nmbreinvit != None :\n       i = form.vars.nmbreinvit\n       invitsgenere = generate_invitation(int(i))\n       for invit in invitsgenere :\n           db.Invitation.insert(Code=invit)\n           db.commit()\n       session.flash = \'invitation inserted\'\n       form=FORM("Nombre d\'invit a generer:", INPUT(_name=\'nmbreinvit\'), INPUT(_type=\'submit\'))\n       #db.Invitation.insert(Code="Toto-5542")\n       db.commit()\n   return dict(form=form)\n\ndef verif_invitation(form):\n    print form.vars.invitation\n    if db.Invitation(db.Invitation.Code==form.vars.invitation) == None :\n        form.errors.invitation = \'code invitation incorrect\'\n        print "mauvais"\n    else :\n        print "bon"\n\ndef invitation():\n    form=FORM("Code Invitation :", INPUT(_name=\'invitation\'),"<Email :",INPUT(_name=\'email\'),  INPUT(_type=\'submit\'))\n    if form.process(onvalidation=verif_invitation).accepted and  form.vars.invitation != None  :\n        email = form.vars.email\n        if db(db.auth_user.email == email).count() == 0:\n            password= form.vars.invitation  \n            my_crypt = CRYPT(key=auth.settings.hmac_key)\n            crypt_pass = my_crypt(password)[0]  \n            db.auth_user.insert(\n               email= email,\n               username="John_Doe",\n               password=crypt_pass,\n            )\n            db.commit()  \n            user = db(db.auth_user.email==email).select().first()\n            auth.user = Storage(auth.settings.table_user._filter_fields(user, id=True))\n            auth.environment.session.auth = Storage(user=user, last_visit=request.now,\n                                                expiration=auth.settings.expiration)\n            redirect(URL(\'inscriptioninvit\'))\n    return dict(form=form)\n\ndef faq():\n\n    return dict()\ndef user():\n    """\n    exposes:\n    http://..../[app]/default/user/login\n    http://..../[app]/default/user/logout\n    http://..../[app]/default/user/register\n    http://..../[app]/default/user/profile\n    http://..../[app]/default/user/retrieve_password\n    http://..../[app]/default/user/change_password\n    use @auth.requires_login()\n        @auth.requires_membership(\'group name\')\n        @auth.requires_permission(\'read\',\'table name\',record_id)\n    to decorate functions that need access control\n    """\n    return dict(form=auth())\n\n\ndef download():\n    """\n    allows downloading of uploaded files\n    http://..../[app]/default/download/[filename]\n    """\n    return response.download(request,db)\n\n\ndef call():\n    """\n    exposes services. for example:\n    http://..../[app]/default/call/jsonrpc\n    decorate with @services.jsonrpc the functions to expose\n    supports xml, json, xmlrpc, jsonrpc, amfrpc, rss, csv\n    """\n    return service()\n\n\n@auth.requires_signature()\ndef data():\n    """\n    http://..../[app]/default/data/tables\n    http://..../[app]/default/data/create/[table]\n    http://..../[app]/default/data/read/[table]/[id]\n    http://..../[app]/default/data/update/[table]/[id]\n    http://..../[app]/default/data/delete/[table]/[id]\n    http://..../[app]/default/data/select/[table]\n    http://..../[app]/default/data/search/[table]\n    but URLs must be signed, i.e. linked with\n      A(\'table\',_href=URL(\'data/tables\',user_signature=True))\n    or with the signed load operator\n      LOAD(\'default\',\'data.load\',args=\'tables\',ajax=True,user_signature=True)\n    """\n    return dict(form=crud())\n\nresponse._vars=response._caller(initdb)\n'
p7
sS'snapshot'
p8
(dp9
S'exception'
p10
(dp11
S'__hash__'
p12
S"<method-wrapper '__hash__' of IntegrityError object at 0x03F798A0>"
p13
sS'__module__'
p14
S"'sqlite3'"
p15
sS'__reduce_ex__'
p16
S'<built-in method __reduce_ex__ of IntegrityError object at 0x03F798A0>'
p17
sS'__getslice__'
p18
S"<method-wrapper '__getslice__' of IntegrityError object at 0x03F798A0>"
p19
sS'__getitem__'
p20
S"<method-wrapper '__getitem__' of IntegrityError object at 0x03F798A0>"
p21
sS'__setstate__'
p22
S'<built-in method __setstate__ of IntegrityError object at 0x03F798A0>'
p23
sS'__reduce__'
p24
S'<built-in method __reduce__ of IntegrityError object at 0x03F798A0>'
p25
sS'__str__'
p26
S"<method-wrapper '__str__' of IntegrityError object at 0x03F798A0>"
p27
sS'args'
p28
S"('column email is not unique',)"
p29
sS'__getattribute__'
p30
S"<method-wrapper '__getattribute__' of IntegrityError object at 0x03F798A0>"
p31
sS'__class__'
p32
S"<class 'sqlite3.IntegrityError'>"
p33
sS'__delattr__'
p34
S"<method-wrapper '__delattr__' of IntegrityError object at 0x03F798A0>"
p35
sS'__repr__'
p36
S"<method-wrapper '__repr__' of IntegrityError object at 0x03F798A0>"
p37
sS'__setattr__'
p38
S"<method-wrapper '__setattr__' of IntegrityError object at 0x03F798A0>"
p39
sS'__dict__'
p40
S'{}'
p41
sS'__weakref__'
p42
S'None'
p43
sS'__doc__'
p44
S'None'
p45
sS'__init__'
p46
S"<method-wrapper '__init__' of IntegrityError object at 0x03F798A0>"
p47
sS'__new__'
p48
S'<built-in method __new__ of type object at 0x1E1CCCB0>'
p49
ssS'evalue'
p50
S'column email is not unique'
p51
sS'request'
p52
ccopy_reg
_reconstructor
p53
(cgluon.html
BEAUTIFY
p54
c__builtin__
object
p55
NtRp56
(dp57
S'attributes'
p58
(dp59
sS'components'
p60
(lp61
g53
(cgluon.html
TABLE
p62
g55
NtRp63
(dp64
g58
(dp65
S'level'
p66
I5
ssS'parent'
p67
Nsg60
(lp68
g53
(cgluon.html
TR
p69
g55
NtRp70
(dp71
g58
(dp72
sg67
g63
sg60
(lp73
g53
(cgluon.html
TD
p74
g55
NtRp75
(dp76
g58
(dp77
S'_style'
p78
S'font-weight:bold;vertical-align:top'
p79
ssg67
g70
sg60
(lp80
S'ajax'
p81
asbag53
(g74
g55
NtRp82
(dp83
g58
(dp84
S'_valign'
p85
S'top'
p86
ssg67
g70
sg60
(lp87
S':'
asbag53
(g74
g55
NtRp88
(dp89
g58
(dp90
sg67
g70
sg60
(lp91
g53
(g54
g55
NtRp92
(dp93
g58
(dp94
g66
I5
ssg67
g88
sg60
(lp95
S'False'
p96
asbasbasbag53
(g69
g55
NtRp97
(dp98
g58
(dp99
sg67
g63
sg60
(lp100
g53
(g74
g55
NtRp101
(dp102
g58
(dp103
g78
g79
ssg67
g97
sg60
(lp104
S'application'
p105
asbag53
(g74
g55
NtRp106
(dp107
g58
(dp108
g85
g86
ssg67
g97
sg60
(lp109
S':'
asbag53
(g74
g55
NtRp110
(dp111
g58
(dp112
sg67
g97
sg60
(lp113
g53
(g54
g55
NtRp114
(dp115
g58
(dp116
g66
I5
ssg67
g110
sg60
(lp117
S'init'
p118
asbasbasbag53
(g69
g55
NtRp119
(dp120
g58
(dp121
sg67
g63
sg60
(lp122
g53
(g74
g55
NtRp123
(dp124
g58
(dp125
g78
g79
ssg67
g119
sg60
(lp126
g28
asbag53
(g74
g55
NtRp127
(dp128
g58
(dp129
g85
g86
ssg67
g119
sg60
(lp130
S':'
asbag53
(g74
g55
NtRp131
(dp132
g58
(dp133
sg67
g119
sg60
(lp134
g53
(g54
g55
NtRp135
(dp136
g58
(dp137
g66
I5
ssg67
g131
sg60
(lp138
g53
(g62
g55
NtRp139
(dp140
g58
(dp141
g66
I4
ssg67
Nsg60
(lp142
sbasbasbasbag53
(g69
g55
NtRp143
(dp144
g58
(dp145
sg67
g63
sg60
(lp146
g53
(g74
g55
NtRp147
(dp148
g58
(dp149
g78
g79
ssg67
g143
sg60
(lp150
S'body'
p151
asbag53
(g74
g55
NtRp152
(dp153
g58
(dp154
g85
g86
ssg67
g143
sg60
(lp155
S':'
asbag53
(g74
g55
NtRp156
(dp157
g58
(dp158
sg67
g143
sg60
(lp159
g53
(g54
g55
NtRp160
(dp161
g58
(dp162
g66
I5
ssg67
g156
sg60
(lp163
S'<cStringIO.StringO object at 0x04094340>'
p164
asbasbasbag53
(g69
g55
NtRp165
(dp166
g58
(dp167
sg67
g63
sg60
(lp168
g53
(g74
g55
NtRp169
(dp170
g58
(dp171
g78
g79
ssg67
g165
sg60
(lp172
S'client'
p173
asbag53
(g74
g55
NtRp174
(dp175
g58
(dp176
g85
g86
ssg67
g165
sg60
(lp177
S':'
asbag53
(g74
g55
NtRp178
(dp179
g58
(dp180
sg67
g165
sg60
(lp181
g53
(g54
g55
NtRp182
(dp183
g58
(dp184
g66
I5
ssg67
g178
sg60
(lp185
S'127.0.0.1'
p186
asbasbasbag53
(g69
g55
NtRp187
(dp188
g58
(dp189
sg67
g63
sg60
(lp190
g53
(g74
g55
NtRp191
(dp192
g58
(dp193
g78
g79
ssg67
g187
sg60
(lp194
S'controller'
p195
asbag53
(g74
g55
NtRp196
(dp197
g58
(dp198
g85
g86
ssg67
g187
sg60
(lp199
S':'
asbag53
(g74
g55
NtRp200
(dp201
g58
(dp202
sg67
g187
sg60
(lp203
g53
(g54
g55
NtRp204
(dp205
g58
(dp206
g66
I5
ssg67
g200
sg60
(lp207
S'default'
p208
asbasbasbag53
(g69
g55
NtRp209
(dp210
g58
(dp211
sg67
g63
sg60
(lp212
g53
(g74
g55
NtRp213
(dp214
g58
(dp215
g78
g79
ssg67
g209
sg60
(lp216
S'cookies'
p217
asbag53
(g74
g55
NtRp218
(dp219
g58
(dp220
g85
g86
ssg67
g209
sg60
(lp221
S':'
asbag53
(g74
g55
NtRp222
(dp223
g58
(dp224
sg67
g209
sg60
(lp225
g53
(g54
g55
NtRp226
(dp227
g58
(dp228
g66
I5
ssg67
g222
sg60
(lp229
g53
(g62
g55
NtRp230
(dp231
g58
(dp232
g66
I4
ssg67
Nsg60
(lp233
g53
(g69
g55
NtRp234
(dp235
g58
(dp236
sg67
g230
sg60
(lp237
g53
(g74
g55
NtRp238
(dp239
g58
(dp240
g78
g79
ssg67
g234
sg60
(lp241
S'session_id_init'
p242
asbag53
(g74
g55
NtRp243
(dp244
g58
(dp245
g85
g86
ssg67
g234
sg60
(lp246
S':'
asbag53
(g74
g55
NtRp247
(dp248
g58
(dp249
sg67
g234
sg60
(lp250
g53
(g54
g55
NtRp251
(dp252
g58
(dp253
g66
I4
ssg67
g247
sg60
(lp254
g53
(g62
g55
NtRp255
(dp256
g58
(dp257
g66
I3
ssg67
Nsg60
(lp258
g53
(g69
g55
NtRp259
(dp260
g58
(dp261
sg67
g255
sg60
(lp262
g53
(g74
g55
NtRp263
(dp264
g58
(dp265
g78
g79
ssg67
g259
sg60
(lp266
S'comment'
p267
asbag53
(g74
g55
NtRp268
(dp269
g58
(dp270
g85
g86
ssg67
g259
sg60
(lp271
S':'
asbag53
(g74
g55
NtRp272
(dp273
g58
(dp274
sg67
g259
sg60
(lp275
g53
(g54
g55
NtRp276
(dp277
g58
(dp278
g66
I3
ssg67
g272
sg60
(lp279
S''
asbasbasbag53
(g69
g55
NtRp280
(dp281
g58
(dp282
sg67
g255
sg60
(lp283
g53
(g74
g55
NtRp284
(dp285
g58
(dp286
g78
g79
ssg67
g280
sg60
(lp287
S'domain'
p288
asbag53
(g74
g55
NtRp289
(dp290
g58
(dp291
g85
g86
ssg67
g280
sg60
(lp292
S':'
asbag53
(g74
g55
NtRp293
(dp294
g58
(dp295
sg67
g280
sg60
(lp296
g53
(g54
g55
NtRp297
(dp298
g58
(dp299
g66
I3
ssg67
g293
sg60
(lp300
S''
asbasbasbag53
(g69
g55
NtRp301
(dp302
g58
(dp303
sg67
g255
sg60
(lp304
g53
(g74
g55
NtRp305
(dp306
g58
(dp307
g78
g79
ssg67
g301
sg60
(lp308
S'expires'
p309
asbag53
(g74
g55
NtRp310
(dp311
g58
(dp312
g85
g86
ssg67
g301
sg60
(lp313
S':'
asbag53
(g74
g55
NtRp314
(dp315
g58
(dp316
sg67
g301
sg60
(lp317
g53
(g54
g55
NtRp318
(dp319
g58
(dp320
g66
I3
ssg67
g314
sg60
(lp321
S''
asbasbasbag53
(g69
g55
NtRp322
(dp323
g58
(dp324
sg67
g255
sg60
(lp325
g53
(g74
g55
NtRp326
(dp327
g58
(dp328
g78
g79
ssg67
g322
sg60
(lp329
S'max-age'
p330
asbag53
(g74
g55
NtRp331
(dp332
g58
(dp333
g85
g86
ssg67
g322
sg60
(lp334
S':'
asbag53
(g74
g55
NtRp335
(dp336
g58
(dp337
sg67
g322
sg60
(lp338
g53
(g54
g55
NtRp339
(dp340
g58
(dp341
g66
I3
ssg67
g335
sg60
(lp342
S''
asbasbasbag53
(g69
g55
NtRp343
(dp344
g58
(dp345
sg67
g255
sg60
(lp346
g53
(g74
g55
NtRp347
(dp348
g58
(dp349
g78
g79
ssg67
g343
sg60
(lp350
S'path'
p351
asbag53
(g74
g55
NtRp352
(dp353
g58
(dp354
g85
g86
ssg67
g343
sg60
(lp355
S':'
asbag53
(g74
g55
NtRp356
(dp357
g58
(dp358
sg67
g343
sg60
(lp359
g53
(g54
g55
NtRp360
(dp361
g58
(dp362
g66
I3
ssg67
g356
sg60
(lp363
S''
asbasbasbag53
(g69
g55
NtRp364
(dp365
g58
(dp366
sg67
g255
sg60
(lp367
g53
(g74
g55
NtRp368
(dp369
g58
(dp370
g78
g79
ssg67
g364
sg60
(lp371
S'secure'
p372
asbag53
(g74
g55
NtRp373
(dp374
g58
(dp375
g85
g86
ssg67
g364
sg60
(lp376
S':'
asbag53
(g74
g55
NtRp377
(dp378
g58
(dp379
sg67
g364
sg60
(lp380
g53
(g54
g55
NtRp381
(dp382
g58
(dp383
g66
I3
ssg67
g377
sg60
(lp384
S''
asbasbasbag53
(g69
g55
NtRp385
(dp386
g58
(dp387
sg67
g255
sg60
(lp388
g53
(g74
g55
NtRp389
(dp390
g58
(dp391
g78
g79
ssg67
g385
sg60
(lp392
S'version'
p393
asbag53
(g74
g55
NtRp394
(dp395
g58
(dp396
g85
g86
ssg67
g385
sg60
(lp397
S':'
asbag53
(g74
g55
NtRp398
(dp399
g58
(dp400
sg67
g385
sg60
(lp401
g53
(g54
g55
NtRp402
(dp403
g58
(dp404
g66
I3
ssg67
g398
sg60
(lp405
S''
asbasbasbasbasbasbasbasbasbasbasbag53
(g69
g55
NtRp406
(dp407
g58
(dp408
sg67
g63
sg60
(lp409
g53
(g74
g55
NtRp410
(dp411
g58
(dp412
g78
g79
ssg67
g406
sg60
(lp413
S'env'
p414
asbag53
(g74
g55
NtRp415
(dp416
g58
(dp417
g85
g86
ssg67
g406
sg60
(lp418
S':'
asbag53
(g74
g55
NtRp419
(dp420
g58
(dp421
sg67
g406
sg60
(lp422
g53
(g54
g55
NtRp423
(dp424
g58
(dp425
g66
I5
ssg67
g419
sg60
(lp426
g53
(g62
g55
NtRp427
(dp428
g58
(dp429
g66
I4
ssg67
Nsg60
(lp430
g53
(g69
g55
NtRp431
(dp432
g58
(dp433
sg67
g427
sg60
(lp434
g53
(g74
g55
NtRp435
(dp436
g58
(dp437
g78
g79
ssg67
g431
sg60
(lp438
S'app_folders'
p439
asbag53
(g74
g55
NtRp440
(dp441
g58
(dp442
g85
g86
ssg67
g431
sg60
(lp443
S':'
asbag53
(g74
g55
NtRp444
(dp445
g58
(dp446
sg67
g431
sg60
(lp447
g53
(g54
g55
NtRp448
(dp449
g58
(dp450
g66
I4
ssg67
g444
sg60
(lp451
S"set(['C:\\\\Users\\\\Bussiere\\\\Dropbox\\\\Projets\\\\jackpoint\\\\web2py\\\\applications\\\\init\\\\'])"
p452
asbasbasbag53
(g69
g55
NtRp453
(dp454
g58
(dp455
sg67
g427
sg60
(lp456
g53
(g74
g55
NtRp457
(dp458
g58
(dp459
g78
g79
ssg67
g453
sg60
(lp460
S'applications_parent'
p461
asbag53
(g74
g55
NtRp462
(dp463
g58
(dp464
g85
g86
ssg67
g453
sg60
(lp465
S':'
asbag53
(g74
g55
NtRp466
(dp467
g58
(dp468
sg67
g453
sg60
(lp469
g53
(g54
g55
NtRp470
(dp471
g58
(dp472
g66
I4
ssg67
g466
sg60
(lp473
S'C:\\Users\\Bussiere\\Dropbox\\Projets\\jackpoint\\web2py'
p474
asbasbasbag53
(g69
g55
NtRp475
(dp476
g58
(dp477
sg67
g427
sg60
(lp478
g53
(g74
g55
NtRp479
(dp480
g58
(dp481
g78
g79
ssg67
g475
sg60
(lp482
S'cmd_args'
p483
asbag53
(g74
g55
NtRp484
(dp485
g58
(dp486
g85
g86
ssg67
g475
sg60
(lp487
S':'
asbag53
(g74
g55
NtRp488
(dp489
g58
(dp490
sg67
g475
sg60
(lp491
g53
(g54
g55
NtRp492
(dp493
g58
(dp494
g66
I4
ssg67
g488
sg60
(lp495
g53
(g62
g55
NtRp496
(dp497
g58
(dp498
g66
I3
ssg67
Nsg60
(lp499
sbasbasbasbag53
(g69
g55
NtRp500
(dp501
g58
(dp502
sg67
g427
sg60
(lp503
g53
(g74
g55
NtRp504
(dp505
g58
(dp506
g78
g79
ssg67
g500
sg60
(lp507
S'cmd_options'
p508
asbag53
(g74
g55
NtRp509
(dp510
g58
(dp511
g85
g86
ssg67
g500
sg60
(lp512
S':'
asbag53
(g74
g55
NtRp513
(dp514
g58
(dp515
sg67
g500
sg60
(lp516
g53
(g54
g55
NtRp517
(dp518
g58
(dp519
g66
I4
ssg67
g513
sg60
(lp520
S"<Values at 0x3d15fa8: {'verbose': False, 'ip': '127.0.0.1', 'shutdown_timeout': 5, 'taskbar': False, 'nocron': False, 'pid_filename': 'httpserver.pid', 'maxthreads': None, 'softcron': False, 'server_name': 'Batou', 'bpython': False, 'nogui': False, 'port': 8000, 'extcron': False, 'debuglevel': 30, 'test': None, 'folder': 'C:\\\\Users\\\\Bussiere\\\\Dropbox\\\\Projets\\\\jackpoint\\\\web2py', 'config': '', 'import_models': False, 'winservice': '', 'shell': None, 'run': '', 'log_filename': 'httpserver.log', 'args': [''], 'socket_timeout': 5, 'ssl_ca_certificate': None, 'scheduler': None, 'profiler_filename': None, 'ssl_private_key': '', 'password': '<ask>', 'request_queue_size': 5, 'ssl_certificate': '', 'cronjob': False, 'numthreads': None, 'quiet': False, 'interfaces': None, 'minthreads': None, 'timeout': 10, 'plain': False, 'nobanner': False}>"
p521
asbasbasbag53
(g69
g55
NtRp522
(dp523
g58
(dp524
sg67
g427
sg60
(lp525
g53
(g74
g55
NtRp526
(dp527
g58
(dp528
g78
g79
ssg67
g522
sg60
(lp529
S'db_sessions'
p530
asbag53
(g74
g55
NtRp531
(dp532
g58
(dp533
g85
g86
ssg67
g522
sg60
(lp534
S':'
asbag53
(g74
g55
NtRp535
(dp536
g58
(dp537
sg67
g522
sg60
(lp538
g53
(g54
g55
NtRp539
(dp540
g58
(dp541
g66
I4
ssg67
g535
sg60
(lp542
S"set(['init'])"
p543
asbasbasbag53
(g69
g55
NtRp544
(dp545
g58
(dp546
sg67
g427
sg60
(lp547
g53
(g74
g55
NtRp548
(dp549
g58
(dp550
g78
g79
ssg67
g544
sg60
(lp551
S'debugging'
p552
asbag53
(g74
g55
NtRp553
(dp554
g58
(dp555
g85
g86
ssg67
g544
sg60
(lp556
S':'
asbag53
(g74
g55
NtRp557
(dp558
g58
(dp559
sg67
g544
sg60
(lp560
g53
(g54
g55
NtRp561
(dp562
g58
(dp563
g66
I4
ssg67
g557
sg60
(lp564
S'True'
p565
asbasbasbag53
(g69
g55
NtRp566
(dp567
g58
(dp568
sg67
g427
sg60
(lp569
g53
(g74
g55
NtRp570
(dp571
g58
(dp572
g78
g79
ssg67
g566
sg60
(lp573
S'gluon_parent'
p574
asbag53
(g74
g55
NtRp575
(dp576
g58
(dp577
g85
g86
ssg67
g566
sg60
(lp578
S':'
asbag53
(g74
g55
NtRp579
(dp580
g58
(dp581
sg67
g566
sg60
(lp582
g53
(g54
g55
NtRp583
(dp584
g58
(dp585
g66
I4
ssg67
g579
sg60
(lp586
S'C:\\Users\\Bussiere\\Dropbox\\Projets\\jackpoint\\web2py'
p587
asbasbasbag53
(g69
g55
NtRp588
(dp589
g58
(dp590
sg67
g427
sg60
(lp591
g53
(g74
g55
NtRp592
(dp593
g58
(dp594
g78
g79
ssg67
g588
sg60
(lp595
S'http_accept'
p596
asbag53
(g74
g55
NtRp597
(dp598
g58
(dp599
g85
g86
ssg67
g588
sg60
(lp600
S':'
asbag53
(g74
g55
NtRp601
(dp602
g58
(dp603
sg67
g588
sg60
(lp604
g53
(g54
g55
NtRp605
(dp606
g58
(dp607
g66
I4
ssg67
g601
sg60
(lp608
S'text/html,application/xhtml+xml,application/xml;q=0.9,*/*;q=0.8'
p609
asbasbasbag53
(g69
g55
NtRp610
(dp611
g58
(dp612
sg67
g427
sg60
(lp613
g53
(g74
g55
NtRp614
(dp615
g58
(dp616
g78
g79
ssg67
g610
sg60
(lp617
S'http_accept_charset'
p618
asbag53
(g74
g55
NtRp619
(dp620
g58
(dp621
g85
g86
ssg67
g610
sg60
(lp622
S':'
asbag53
(g74
g55
NtRp623
(dp624
g58
(dp625
sg67
g610
sg60
(lp626
g53
(g54
g55
NtRp627
(dp628
g58
(dp629
g66
I4
ssg67
g623
sg60
(lp630
S'ISO-8859-1,utf-8;q=0.7,*;q=0.3'
p631
asbasbasbag53
(g69
g55
NtRp632
(dp633
g58
(dp634
sg67
g427
sg60
(lp635
g53
(g74
g55
NtRp636
(dp637
g58
(dp638
g78
g79
ssg67
g632
sg60
(lp639
S'http_accept_encoding'
p640
asbag53
(g74
g55
NtRp641
(dp642
g58
(dp643
g85
g86
ssg67
g632
sg60
(lp644
S':'
asbag53
(g74
g55
NtRp645
(dp646
g58
(dp647
sg67
g632
sg60
(lp648
g53
(g54
g55
NtRp649
(dp650
g58
(dp651
g66
I4
ssg67
g645
sg60
(lp652
S'gzip,deflate,sdch'
p653
asbasbasbag53
(g69
g55
NtRp654
(dp655
g58
(dp656
sg67
g427
sg60
(lp657
g53
(g74
g55
NtRp658
(dp659
g58
(dp660
g78
g79
ssg67
g654
sg60
(lp661
S'http_accept_language'
p662
asbag53
(g74
g55
NtRp663
(dp664
g58
(dp665
g85
g86
ssg67
g654
sg60
(lp666
S':'
asbag53
(g74
g55
NtRp667
(dp668
g58
(dp669
sg67
g654
sg60
(lp670
g53
(g54
g55
NtRp671
(dp672
g58
(dp673
g66
I4
ssg67
g667
sg60
(lp674
S'fr-FR,fr;q=0.8,en-US;q=0.6,en;q=0.4'
p675
asbasbasbag53
(g69
g55
NtRp676
(dp677
g58
(dp678
sg67
g427
sg60
(lp679
g53
(g74
g55
NtRp680
(dp681
g58
(dp682
g78
g79
ssg67
g676
sg60
(lp683
S'http_connection'
p684
asbag53
(g74
g55
NtRp685
(dp686
g58
(dp687
g85
g86
ssg67
g676
sg60
(lp688
S':'
asbag53
(g74
g55
NtRp689
(dp690
g58
(dp691
sg67
g676
sg60
(lp692
g53
(g54
g55
NtRp693
(dp694
g58
(dp695
g66
I4
ssg67
g689
sg60
(lp696
S'keep-alive'
p697
asbasbasbag53
(g69
g55
NtRp698
(dp699
g58
(dp700
sg67
g427
sg60
(lp701
g53
(g74
g55
NtRp702
(dp703
g58
(dp704
g78
g79
ssg67
g698
sg60
(lp705
S'http_cookie'
p706
asbag53
(g74
g55
NtRp707
(dp708
g58
(dp709
g85
g86
ssg67
g698
sg60
(lp710
S':'
asbag53
(g74
g55
NtRp711
(dp712
g58
(dp713
sg67
g698
sg60
(lp714
g53
(g54
g55
NtRp715
(dp716
g58
(dp717
g66
I4
ssg67
g711
sg60
(lp718
S'session_id_init="19:a8687721-5787-4713-9329-1674aeb3f1bb"'
p719
asbasbasbag53
(g69
g55
NtRp720
(dp721
g58
(dp722
sg67
g427
sg60
(lp723
g53
(g74
g55
NtRp724
(dp725
g58
(dp726
g78
g79
ssg67
g720
sg60
(lp727
S'http_host'
p728
asbag53
(g74
g55
NtRp729
(dp730
g58
(dp731
g85
g86
ssg67
g720
sg60
(lp732
S':'
asbag53
(g74
g55
NtRp733
(dp734
g58
(dp735
sg67
g720
sg60
(lp736
g53
(g54
g55
NtRp737
(dp738
g58
(dp739
g66
I4
ssg67
g733
sg60
(lp740
S'localhost:8000'
p741
asbasbasbag53
(g69
g55
NtRp742
(dp743
g58
(dp744
sg67
g427
sg60
(lp745
g53
(g74
g55
NtRp746
(dp747
g58
(dp748
g78
g79
ssg67
g742
sg60
(lp749
S'http_user_agent'
p750
asbag53
(g74
g55
NtRp751
(dp752
g58
(dp753
g85
g86
ssg67
g742
sg60
(lp754
S':'
asbag53
(g74
g55
NtRp755
(dp756
g58
(dp757
sg67
g742
sg60
(lp758
g53
(g54
g55
NtRp759
(dp760
g58
(dp761
g66
I4
ssg67
g755
sg60
(lp762
S'Mozilla/5.0 (Windows NT 6.1; WOW64) AppleWebKit/535.11 (KHTML, like Gecko) Chrome/17.0.963.83 Safari/535.11'
p763
asbasbasbag53
(g69
g55
NtRp764
(dp765
g58
(dp766
sg67
g427
sg60
(lp767
g53
(g74
g55
NtRp768
(dp769
g58
(dp770
g78
g79
ssg67
g764
sg60
(lp771
S'is_jython'
p772
asbag53
(g74
g55
NtRp773
(dp774
g58
(dp775
g85
g86
ssg67
g764
sg60
(lp776
S':'
asbag53
(g74
g55
NtRp777
(dp778
g58
(dp779
sg67
g764
sg60
(lp780
g53
(g54
g55
NtRp781
(dp782
g58
(dp783
g66
I4
ssg67
g777
sg60
(lp784
g96
asbasbasbag53
(g69
g55
NtRp785
(dp786
g58
(dp787
sg67
g427
sg60
(lp788
g53
(g74
g55
NtRp789
(dp790
g58
(dp791
g78
g79
ssg67
g785
sg60
(lp792
S'is_pypy'
p793
asbag53
(g74
g55
NtRp794
(dp795
g58
(dp796
g85
g86
ssg67
g785
sg60
(lp797
S':'
asbag53
(g74
g55
NtRp798
(dp799
g58
(dp800
sg67
g785
sg60
(lp801
g53
(g54
g55
NtRp802
(dp803
g58
(dp804
g66
I4
ssg67
g798
sg60
(lp805
g96
asbasbasbag53
(g69
g55
NtRp806
(dp807
g58
(dp808
sg67
g427
sg60
(lp809
g53
(g74
g55
NtRp810
(dp811
g58
(dp812
g78
g79
ssg67
g806
sg60
(lp813
S'path_info'
p814
asbag53
(g74
g55
NtRp815
(dp816
g58
(dp817
g85
g86
ssg67
g806
sg60
(lp818
S':'
asbag53
(g74
g55
NtRp819
(dp820
g58
(dp821
sg67
g806
sg60
(lp822
g53
(g54
g55
NtRp823
(dp824
g58
(dp825
g66
I4
ssg67
g819
sg60
(lp826
S'/init/default/initdb/'
p827
asbasbasbag53
(g69
g55
NtRp828
(dp829
g58
(dp830
sg67
g427
sg60
(lp831
g53
(g74
g55
NtRp832
(dp833
g58
(dp834
g78
g79
ssg67
g828
sg60
(lp835
S'query_string'
p836
asbag53
(g74
g55
NtRp837
(dp838
g58
(dp839
g85
g86
ssg67
g828
sg60
(lp840
S':'
asbag53
(g74
g55
NtRp841
(dp842
g58
(dp843
sg67
g828
sg60
(lp844
g53
(g54
g55
NtRp845
(dp846
g58
(dp847
g66
I4
ssg67
g841
sg60
(lp848
S''
asbasbasbag53
(g69
g55
NtRp849
(dp850
g58
(dp851
sg67
g427
sg60
(lp852
g53
(g74
g55
NtRp853
(dp854
g58
(dp855
g78
g79
ssg67
g849
sg60
(lp856
S'remote_addr'
p857
asbag53
(g74
g55
NtRp858
(dp859
g58
(dp860
g85
g86
ssg67
g849
sg60
(lp861
S':'
asbag53
(g74
g55
NtRp862
(dp863
g58
(dp864
sg67
g849
sg60
(lp865
g53
(g54
g55
NtRp866
(dp867
g58
(dp868
g66
I4
ssg67
g862
sg60
(lp869
g186
asbasbasbag53
(g69
g55
NtRp870
(dp871
g58
(dp872
sg67
g427
sg60
(lp873
g53
(g74
g55
NtRp874
(dp875
g58
(dp876
g78
g79
ssg67
g870
sg60
(lp877
S'remote_port'
p878
asbag53
(g74
g55
NtRp879
(dp880
g58
(dp881
g85
g86
ssg67
g870
sg60
(lp882
S':'
asbag53
(g74
g55
NtRp883
(dp884
g58
(dp885
sg67
g870
sg60
(lp886
g53
(g54
g55
NtRp887
(dp888
g58
(dp889
g66
I4
ssg67
g883
sg60
(lp890
S'58572'
p891
asbasbasbag53
(g69
g55
NtRp892
(dp893
g58
(dp894
sg67
g427
sg60
(lp895
g53
(g74
g55
NtRp896
(dp897
g58
(dp898
g78
g79
ssg67
g892
sg60
(lp899
S'request_method'
p900
asbag53
(g74
g55
NtRp901
(dp902
g58
(dp903
g85
g86
ssg67
g892
sg60
(lp904
S':'
asbag53
(g74
g55
NtRp905
(dp906
g58
(dp907
sg67
g892
sg60
(lp908
g53
(g54
g55
NtRp909
(dp910
g58
(dp911
g66
I4
ssg67
g905
sg60
(lp912
S'GET'
p913
asbasbasbag53
(g69
g55
NtRp914
(dp915
g58
(dp916
sg67
g427
sg60
(lp917
g53
(g74
g55
NtRp918
(dp919
g58
(dp920
g78
g79
ssg67
g914
sg60
(lp921
S'script_name'
p922
asbag53
(g74
g55
NtRp923
(dp924
g58
(dp925
g85
g86
ssg67
g914
sg60
(lp926
S':'
asbag53
(g74
g55
NtRp927
(dp928
g58
(dp929
sg67
g914
sg60
(lp930
g53
(g54
g55
NtRp931
(dp932
g58
(dp933
g66
I4
ssg67
g927
sg60
(lp934
S''
asbasbasbag53
(g69
g55
NtRp935
(dp936
g58
(dp937
sg67
g427
sg60
(lp938
g53
(g74
g55
NtRp939
(dp940
g58
(dp941
g78
g79
ssg67
g935
sg60
(lp942
S'server_name'
p943
asbag53
(g74
g55
NtRp944
(dp945
g58
(dp946
g85
g86
ssg67
g935
sg60
(lp947
S':'
asbag53
(g74
g55
NtRp948
(dp949
g58
(dp950
sg67
g935
sg60
(lp951
g53
(g54
g55
NtRp952
(dp953
g58
(dp954
g66
I4
ssg67
g948
sg60
(lp955
S'Batou'
p956
asbasbasbag53
(g69
g55
NtRp957
(dp958
g58
(dp959
sg67
g427
sg60
(lp960
g53
(g74
g55
NtRp961
(dp962
g58
(dp963
g78
g79
ssg67
g957
sg60
(lp964
S'server_port'
p965
asbag53
(g74
g55
NtRp966
(dp967
g58
(dp968
g85
g86
ssg67
g957
sg60
(lp969
S':'
asbag53
(g74
g55
NtRp970
(dp971
g58
(dp972
sg67
g957
sg60
(lp973
g53
(g54
g55
NtRp974
(dp975
g58
(dp976
g66
I4
ssg67
g970
sg60
(lp977
S'8000'
p978
asbasbasbag53
(g69
g55
NtRp979
(dp980
g58
(dp981
sg67
g427
sg60
(lp982
g53
(g74
g55
NtRp983
(dp984
g58
(dp985
g78
g79
ssg67
g979
sg60
(lp986
S'server_protocol'
p987
asbag53
(g74
g55
NtRp988
(dp989
g58
(dp990
g85
g86
ssg67
g979
sg60
(lp991
S':'
asbag53
(g74
g55
NtRp992
(dp993
g58
(dp994
sg67
g979
sg60
(lp995
g53
(g54
g55
NtRp996
(dp997
g58
(dp998
g66
I4
ssg67
g992
sg60
(lp999
S'HTTP/1.1'
p1000
asbasbasbag53
(g69
g55
NtRp1001
(dp1002
g58
(dp1003
sg67
g427
sg60
(lp1004
g53
(g74
g55
NtRp1005
(dp1006
g58
(dp1007
g78
g79
ssg67
g1001
sg60
(lp1008
S'server_software'
p1009
asbag53
(g74
g55
NtRp1010
(dp1011
g58
(dp1012
g85
g86
ssg67
g1001
sg60
(lp1013
S':'
asbag53
(g74
g55
NtRp1014
(dp1015
g58
(dp1016
sg67
g1001
sg60
(lp1017
g53
(g54
g55
NtRp1018
(dp1019
g58
(dp1020
g66
I4
ssg67
g1014
sg60
(lp1021
S'Rocket 1.2.4'
p1022
asbasbasbag53
(g69
g55
NtRp1023
(dp1024
g58
(dp1025
sg67
g427
sg60
(lp1026
g53
(g74
g55
NtRp1027
(dp1028
g58
(dp1029
g78
g79
ssg67
g1023
sg60
(lp1030
S'web2py_crontype'
p1031
asbag53
(g74
g55
NtRp1032
(dp1033
g58
(dp1034
g85
g86
ssg67
g1023
sg60
(lp1035
S':'
asbag53
(g74
g55
NtRp1036
(dp1037
g58
(dp1038
sg67
g1023
sg60
(lp1039
g53
(g54
g55
NtRp1040
(dp1041
g58
(dp1042
g66
I4
ssg67
g1036
sg60
(lp1043
S'hard'
p1044
asbasbasbag53
(g69
g55
NtRp1045
(dp1046
g58
(dp1047
sg67
g427
sg60
(lp1048
g53
(g74
g55
NtRp1049
(dp1050
g58
(dp1051
g78
g79
ssg67
g1045
sg60
(lp1052
S'web2py_path'
p1053
asbag53
(g74
g55
NtRp1054
(dp1055
g58
(dp1056
g85
g86
ssg67
g1045
sg60
(lp1057
S':'
asbag53
(g74
g55
NtRp1058
(dp1059
g58
(dp1060
sg67
g1045
sg60
(lp1061
g53
(g54
g55
NtRp1062
(dp1063
g58
(dp1064
g66
I4
ssg67
g1058
sg60
(lp1065
g474
asbasbasbag53
(g69
g55
NtRp1066
(dp1067
g58
(dp1068
sg67
g427
sg60
(lp1069
g53
(g74
g55
NtRp1070
(dp1071
g58
(dp1072
g78
g79
ssg67
g1066
sg60
(lp1073
S'web2py_version'
p1074
asbag53
(g74
g55
NtRp1075
(dp1076
g58
(dp1077
g85
g86
ssg67
g1066
sg60
(lp1078
S':'
asbag53
(g74
g55
NtRp1079
(dp1080
g58
(dp1081
sg67
g1066
sg60
(lp1082
g53
(g54
g55
NtRp1083
(dp1084
g58
(dp1085
g66
I4
ssg67
g1079
sg60
(lp1086
g53
(g62
g55
NtRp1087
(dp1088
g58
(dp1089
g66
I3
ssg67
Nsg60
(lp1090
g53
(g69
g55
NtRp1091
(dp1092
g58
(dp1093
sg67
g1087
sg60
(lp1094
g53
(g74
g55
NtRp1095
(dp1096
g58
(dp1097
sg67
g1091
sg60
(lp1098
g53
(g54
g55
NtRp1099
(dp1100
g58
(dp1101
g66
I3
ssg67
g1095
sg60
(lp1102
S'1'
asbasbasbag53
(g69
g55
NtRp1103
(dp1104
g58
(dp1105
sg67
g1087
sg60
(lp1106
g53
(g74
g55
NtRp1107
(dp1108
g58
(dp1109
sg67
g1103
sg60
(lp1110
g53
(g54
g55
NtRp1111
(dp1112
g58
(dp1113
g66
I3
ssg67
g1107
sg60
(lp1114
S'99'
p1115
asbasbasbag53
(g69
g55
NtRp1116
(dp1117
g58
(dp1118
sg67
g1087
sg60
(lp1119
g53
(g74
g55
NtRp1120
(dp1121
g58
(dp1122
sg67
g1116
sg60
(lp1123
g53
(g54
g55
NtRp1124
(dp1125
g58
(dp1126
g66
I3
ssg67
g1120
sg60
(lp1127
S'7'
asbasbasbag53
(g69
g55
NtRp1128
(dp1129
g58
(dp1130
sg67
g1087
sg60
(lp1131
g53
(g74
g55
NtRp1132
(dp1133
g58
(dp1134
sg67
g1128
sg60
(lp1135
g53
(g54
g55
NtRp1136
(dp1137
g58
(dp1138
g66
I3
ssg67
g1132
sg60
(lp1139
S'datetime.datetime(2012, 3, 4, 22, 12, 8)'
p1140
asbasbasbag53
(g69
g55
NtRp1141
(dp1142
g58
(dp1143
sg67
g1087
sg60
(lp1144
g53
(g74
g55
NtRp1145
(dp1146
g58
(dp1147
sg67
g1141
sg60
(lp1148
g53
(g54
g55
NtRp1149
(dp1150
g58
(dp1151
g66
I3
ssg67
g1145
sg60
(lp1152
S'stable'
p1153
asbasbasbasbasbasbasbag53
(g69
g55
NtRp1154
(dp1155
g58
(dp1156
sg67
g427
sg60
(lp1157
g53
(g74
g55
NtRp1158
(dp1159
g58
(dp1160
g78
g79
ssg67
g1154
sg60
(lp1161
S'wsgi_errors'
p1162
asbag53
(g74
g55
NtRp1163
(dp1164
g58
(dp1165
g85
g86
ssg67
g1154
sg60
(lp1166
S':'
asbag53
(g74
g55
NtRp1167
(dp1168
g58
(dp1169
sg67
g1154
sg60
(lp1170
g53
(g54
g55
NtRp1171
(dp1172
g58
(dp1173
g66
I4
ssg67
g1167
sg60
(lp1174
S"<open file '<stderr>', mode 'w' at 0x005300B0>"
p1175
asbasbasbag53
(g69
g55
NtRp1176
(dp1177
g58
(dp1178
sg67
g427
sg60
(lp1179
g53
(g74
g55
NtRp1180
(dp1181
g58
(dp1182
g78
g79
ssg67
g1176
sg60
(lp1183
S'wsgi_file_wrapper'
p1184
asbag53
(g74
g55
NtRp1185
(dp1186
g58
(dp1187
g85
g86
ssg67
g1176
sg60
(lp1188
S':'
asbag53
(g74
g55
NtRp1189
(dp1190
g58
(dp1191
sg67
g1176
sg60
(lp1192
g53
(g54
g55
NtRp1193
(dp1194
g58
(dp1195
g66
I4
ssg67
g1189
sg60
(lp1196
S'<class wsgiref.util.FileWrapper at 0x02C34900>'
p1197
asbasbasbag53
(g69
g55
NtRp1198
(dp1199
g58
(dp1200
sg67
g427
sg60
(lp1201
g53
(g74
g55
NtRp1202
(dp1203
g58
(dp1204
g78
g79
ssg67
g1198
sg60
(lp1205
S'wsgi_input'
p1206
asbag53
(g74
g55
NtRp1207
(dp1208
g58
(dp1209
g85
g86
ssg67
g1198
sg60
(lp1210
S':'
asbag53
(g74
g55
NtRp1211
(dp1212
g58
(dp1213
sg67
g1198
sg60
(lp1214
g53
(g54
g55
NtRp1215
(dp1216
g58
(dp1217
g66
I4
ssg67
g1211
sg60
(lp1218
S'<socket._fileobject object at 0x03F7B3B0>'
p1219
asbasbasbag53
(g69
g55
NtRp1220
(dp1221
g58
(dp1222
sg67
g427
sg60
(lp1223
g53
(g74
g55
NtRp1224
(dp1225
g58
(dp1226
g78
g79
ssg67
g1220
sg60
(lp1227
S'wsgi_multiprocess'
p1228
asbag53
(g74
g55
NtRp1229
(dp1230
g58
(dp1231
g85
g86
ssg67
g1220
sg60
(lp1232
S':'
asbag53
(g74
g55
NtRp1233
(dp1234
g58
(dp1235
sg67
g1220
sg60
(lp1236
g53
(g54
g55
NtRp1237
(dp1238
g58
(dp1239
g66
I4
ssg67
g1233
sg60
(lp1240
g96
asbasbasbag53
(g69
g55
NtRp1241
(dp1242
g58
(dp1243
sg67
g427
sg60
(lp1244
g53
(g74
g55
NtRp1245
(dp1246
g58
(dp1247
g78
g79
ssg67
g1241
sg60
(lp1248
S'wsgi_multithread'
p1249
asbag53
(g74
g55
NtRp1250
(dp1251
g58
(dp1252
g85
g86
ssg67
g1241
sg60
(lp1253
S':'
asbag53
(g74
g55
NtRp1254
(dp1255
g58
(dp1256
sg67
g1241
sg60
(lp1257
g53
(g54
g55
NtRp1258
(dp1259
g58
(dp1260
g66
I4
ssg67
g1254
sg60
(lp1261
g565
asbasbasbag53
(g69
g55
NtRp1262
(dp1263
g58
(dp1264
sg67
g427
sg60
(lp1265
g53
(g74
g55
NtRp1266
(dp1267
g58
(dp1268
g78
g79
ssg67
g1262
sg60
(lp1269
S'wsgi_run_once'
p1270
asbag53
(g74
g55
NtRp1271
(dp1272
g58
(dp1273
g85
g86
ssg67
g1262
sg60
(lp1274
S':'
asbag53
(g74
g55
NtRp1275
(dp1276
g58
(dp1277
sg67
g1262
sg60
(lp1278
g53
(g54
g55
NtRp1279
(dp1280
g58
(dp1281
g66
I4
ssg67
g1275
sg60
(lp1282
g96
asbasbasbag53
(g69
g55
NtRp1283
(dp1284
g58
(dp1285
sg67
g427
sg60
(lp1286
g53
(g74
g55
NtRp1287
(dp1288
g58
(dp1289
g78
g79
ssg67
g1283
sg60
(lp1290
S'wsgi_url_scheme'
p1291
asbag53
(g74
g55
NtRp1292
(dp1293
g58
(dp1294
g85
g86
ssg67
g1283
sg60
(lp1295
S':'
asbag53
(g74
g55
NtRp1296
(dp1297
g58
(dp1298
sg67
g1283
sg60
(lp1299
g53
(g54
g55
NtRp1300
(dp1301
g58
(dp1302
g66
I4
ssg67
g1296
sg60
(lp1303
S'http'
p1304
asbasbasbag53
(g69
g55
NtRp1305
(dp1306
g58
(dp1307
sg67
g427
sg60
(lp1308
g53
(g74
g55
NtRp1309
(dp1310
g58
(dp1311
g78
g79
ssg67
g1305
sg60
(lp1312
S'wsgi_version'
p1313
asbag53
(g74
g55
NtRp1314
(dp1315
g58
(dp1316
g85
g86
ssg67
g1305
sg60
(lp1317
S':'
asbag53
(g74
g55
NtRp1318
(dp1319
g58
(dp1320
sg67
g1305
sg60
(lp1321
g53
(g54
g55
NtRp1322
(dp1323
g58
(dp1324
g66
I4
ssg67
g1318
sg60
(lp1325
g53
(g62
g55
NtRp1326
(dp1327
g58
(dp1328
g66
I3
ssg67
Nsg60
(lp1329
g53
(g69
g55
NtRp1330
(dp1331
g58
(dp1332
sg67
g1326
sg60
(lp1333
g53
(g74
g55
NtRp1334
(dp1335
g58
(dp1336
sg67
g1330
sg60
(lp1337
g53
(g54
g55
NtRp1338
(dp1339
g58
(dp1340
g66
I3
ssg67
g1334
sg60
(lp1341
S'1'
asbasbasbag53
(g69
g55
NtRp1342
(dp1343
g58
(dp1344
sg67
g1326
sg60
(lp1345
g53
(g74
g55
NtRp1346
(dp1347
g58
(dp1348
sg67
g1342
sg60
(lp1349
g53
(g54
g55
NtRp1350
(dp1351
g58
(dp1352
g66
I3
ssg67
g1346
sg60
(lp1353
S'0'
asbasbasbasbasbasbasbasbasbasbasbag53
(g69
g55
NtRp1354
(dp1355
g58
(dp1356
sg67
g63
sg60
(lp1357
g53
(g74
g55
NtRp1358
(dp1359
g58
(dp1360
g78
g79
ssg67
g1354
sg60
(lp1361
S'extension'
p1362
asbag53
(g74
g55
NtRp1363
(dp1364
g58
(dp1365
g85
g86
ssg67
g1354
sg60
(lp1366
S':'
asbag53
(g74
g55
NtRp1367
(dp1368
g58
(dp1369
sg67
g1354
sg60
(lp1370
g53
(g54
g55
NtRp1371
(dp1372
g58
(dp1373
g66
I5
ssg67
g1367
sg60
(lp1374
S'html'
p1375
asbasbasbag53
(g69
g55
NtRp1376
(dp1377
g58
(dp1378
sg67
g63
sg60
(lp1379
g53
(g74
g55
NtRp1380
(dp1381
g58
(dp1382
g78
g79
ssg67
g1376
sg60
(lp1383
S'folder'
p1384
asbag53
(g74
g55
NtRp1385
(dp1386
g58
(dp1387
g85
g86
ssg67
g1376
sg60
(lp1388
S':'
asbag53
(g74
g55
NtRp1389
(dp1390
g58
(dp1391
sg67
g1376
sg60
(lp1392
g53
(g54
g55
NtRp1393
(dp1394
g58
(dp1395
g66
I5
ssg67
g1389
sg60
(lp1396
S'C:\\Users\\Bussiere\\Dropbox\\Projets\\jackpoint\\web2py\\applications\\init\\'
p1397
asbasbasbag53
(g69
g55
NtRp1398
(dp1399
g58
(dp1400
sg67
g63
sg60
(lp1401
g53
(g74
g55
NtRp1402
(dp1403
g58
(dp1404
g78
g79
ssg67
g1398
sg60
(lp1405
S'function'
p1406
asbag53
(g74
g55
NtRp1407
(dp1408
g58
(dp1409
g85
g86
ssg67
g1398
sg60
(lp1410
S':'
asbag53
(g74
g55
NtRp1411
(dp1412
g58
(dp1413
sg67
g1398
sg60
(lp1414
g53
(g54
g55
NtRp1415
(dp1416
g58
(dp1417
g66
I5
ssg67
g1411
sg60
(lp1418
S'initdb'
p1419
asbasbasbag53
(g69
g55
NtRp1420
(dp1421
g58
(dp1422
sg67
g63
sg60
(lp1423
g53
(g74
g55
NtRp1424
(dp1425
g58
(dp1426
g78
g79
ssg67
g1420
sg60
(lp1427
S'get_vars'
p1428
asbag53
(g74
g55
NtRp1429
(dp1430
g58
(dp1431
g85
g86
ssg67
g1420
sg60
(lp1432
S':'
asbag53
(g74
g55
NtRp1433
(dp1434
g58
(dp1435
sg67
g1420
sg60
(lp1436
g53
(g54
g55
NtRp1437
(dp1438
g58
(dp1439
g66
I5
ssg67
g1433
sg60
(lp1440
g53
(g62
g55
NtRp1441
(dp1442
g58
(dp1443
g66
I4
ssg67
Nsg60
(lp1444
sbasbasbasbag53
(g69
g55
NtRp1445
(dp1446
g58
(dp1447
sg67
g63
sg60
(lp1448
g53
(g74
g55
NtRp1449
(dp1450
g58
(dp1451
g78
g79
ssg67
g1445
sg60
(lp1452
S'global_settings'
p1453
asbag53
(g74
g55
NtRp1454
(dp1455
g58
(dp1456
g85
g86
ssg67
g1445
sg60
(lp1457
S':'
asbag53
(g74
g55
NtRp1458
(dp1459
g58
(dp1460
sg67
g1445
sg60
(lp1461
g53
(g54
g55
NtRp1462
(dp1463
g58
(dp1464
g66
I5
ssg67
g1458
sg60
(lp1465
g53
(g62
g55
NtRp1466
(dp1467
g58
(dp1468
g66
I4
ssg67
Nsg60
(lp1469
g53
(g69
g55
NtRp1470
(dp1471
g58
(dp1472
sg67
g1466
sg60
(lp1473
g53
(g74
g55
NtRp1474
(dp1475
g58
(dp1476
g78
g79
ssg67
g1470
sg60
(lp1477
g439
asbag53
(g74
g55
NtRp1478
(dp1479
g58
(dp1480
g85
g86
ssg67
g1470
sg60
(lp1481
S':'
asbag53
(g74
g55
NtRp1482
(dp1483
g58
(dp1484
sg67
g1470
sg60
(lp1485
g53
(g54
g55
NtRp1486
(dp1487
g58
(dp1488
g66
I4
ssg67
g1482
sg60
(lp1489
S"set(['C:\\\\Users\\\\Bussiere\\\\Dropbox\\\\Projets\\\\jackpoint\\\\web2py\\\\applications\\\\init\\\\'])"
p1490
asbasbasbag53
(g69
g55
NtRp1491
(dp1492
g58
(dp1493
sg67
g1466
sg60
(lp1494
g53
(g74
g55
NtRp1495
(dp1496
g58
(dp1497
g78
g79
ssg67
g1491
sg60
(lp1498
g461
asbag53
(g74
g55
NtRp1499
(dp1500
g58
(dp1501
g85
g86
ssg67
g1491
sg60
(lp1502
S':'
asbag53
(g74
g55
NtRp1503
(dp1504
g58
(dp1505
sg67
g1491
sg60
(lp1506
g53
(g54
g55
NtRp1507
(dp1508
g58
(dp1509
g66
I4
ssg67
g1503
sg60
(lp1510
g474
asbasbasbag53
(g69
g55
NtRp1511
(dp1512
g58
(dp1513
sg67
g1466
sg60
(lp1514
g53
(g74
g55
NtRp1515
(dp1516
g58
(dp1517
g78
g79
ssg67
g1511
sg60
(lp1518
g483
asbag53
(g74
g55
NtRp1519
(dp1520
g58
(dp1521
g85
g86
ssg67
g1511
sg60
(lp1522
S':'
asbag53
(g74
g55
NtRp1523
(dp1524
g58
(dp1525
sg67
g1511
sg60
(lp1526
g53
(g54
g55
NtRp1527
(dp1528
g58
(dp1529
g66
I4
ssg67
g1523
sg60
(lp1530
g53
(g62
g55
NtRp1531
(dp1532
g58
(dp1533
g66
I3
ssg67
Nsg60
(lp1534
sbasbasbasbag53
(g69
g55
NtRp1535
(dp1536
g58
(dp1537
sg67
g1466
sg60
(lp1538
g53
(g74
g55
NtRp1539
(dp1540
g58
(dp1541
g78
g79
ssg67
g1535
sg60
(lp1542
g508
asbag53
(g74
g55
NtRp1543
(dp1544
g58
(dp1545
g85
g86
ssg67
g1535
sg60
(lp1546
S':'
asbag53
(g74
g55
NtRp1547
(dp1548
g58
(dp1549
sg67
g1535
sg60
(lp1550
g53
(g54
g55
NtRp1551
(dp1552
g58
(dp1553
g66
I4
ssg67
g1547
sg60
(lp1554
S"<Values at 0x3d15fa8: {'verbose': False, 'ip': '127.0.0.1', 'shutdown_timeout': 5, 'taskbar': False, 'nocron': False, 'pid_filename': 'httpserver.pid', 'maxthreads': None, 'softcron': False, 'server_name': 'Batou', 'bpython': False, 'nogui': False, 'port': 8000, 'extcron': False, 'debuglevel': 30, 'test': None, 'folder': 'C:\\\\Users\\\\Bussiere\\\\Dropbox\\\\Projets\\\\jackpoint\\\\web2py', 'config': '', 'import_models': False, 'winservice': '', 'shell': None, 'run': '', 'log_filename': 'httpserver.log', 'args': [''], 'socket_timeout': 5, 'ssl_ca_certificate': None, 'scheduler': None, 'profiler_filename': None, 'ssl_private_key': '', 'password': '<ask>', 'request_queue_size': 5, 'ssl_certificate': '', 'cronjob': False, 'numthreads': None, 'quiet': False, 'interfaces': None, 'minthreads': None, 'timeout': 10, 'plain': False, 'nobanner': False}>"
p1555
asbasbasbag53
(g69
g55
NtRp1556
(dp1557
g58
(dp1558
sg67
g1466
sg60
(lp1559
g53
(g74
g55
NtRp1560
(dp1561
g58
(dp1562
g78
g79
ssg67
g1556
sg60
(lp1563
g530
asbag53
(g74
g55
NtRp1564
(dp1565
g58
(dp1566
g85
g86
ssg67
g1556
sg60
(lp1567
S':'
asbag53
(g74
g55
NtRp1568
(dp1569
g58
(dp1570
sg67
g1556
sg60
(lp1571
g53
(g54
g55
NtRp1572
(dp1573
g58
(dp1574
g66
I4
ssg67
g1568
sg60
(lp1575
S"set(['init'])"
p1576
asbasbasbag53
(g69
g55
NtRp1577
(dp1578
g58
(dp1579
sg67
g1466
sg60
(lp1580
g53
(g74
g55
NtRp1581
(dp1582
g58
(dp1583
g78
g79
ssg67
g1577
sg60
(lp1584
g552
asbag53
(g74
g55
NtRp1585
(dp1586
g58
(dp1587
g85
g86
ssg67
g1577
sg60
(lp1588
S':'
asbag53
(g74
g55
NtRp1589
(dp1590
g58
(dp1591
sg67
g1577
sg60
(lp1592
g53
(g54
g55
NtRp1593
(dp1594
g58
(dp1595
g66
I4
ssg67
g1589
sg60
(lp1596
g565
asbasbasbag53
(g69
g55
NtRp1597
(dp1598
g58
(dp1599
sg67
g1466
sg60
(lp1600
g53
(g74
g55
NtRp1601
(dp1602
g58
(dp1603
g78
g79
ssg67
g1597
sg60
(lp1604
g574
asbag53
(g74
g55
NtRp1605
(dp1606
g58
(dp1607
g85
g86
ssg67
g1597
sg60
(lp1608
S':'
asbag53
(g74
g55
NtRp1609
(dp1610
g58
(dp1611
sg67
g1597
sg60
(lp1612
g53
(g54
g55
NtRp1613
(dp1614
g58
(dp1615
g66
I4
ssg67
g1609
sg60
(lp1616
g587
asbasbasbag53
(g69
g55
NtRp1617
(dp1618
g58
(dp1619
sg67
g1466
sg60
(lp1620
g53
(g74
g55
NtRp1621
(dp1622
g58
(dp1623
g78
g79
ssg67
g1617
sg60
(lp1624
g772
asbag53
(g74
g55
NtRp1625
(dp1626
g58
(dp1627
g85
g86
ssg67
g1617
sg60
(lp1628
S':'
asbag53
(g74
g55
NtRp1629
(dp1630
g58
(dp1631
sg67
g1617
sg60
(lp1632
g53
(g54
g55
NtRp1633
(dp1634
g58
(dp1635
g66
I4
ssg67
g1629
sg60
(lp1636
g96
asbasbasbag53
(g69
g55
NtRp1637
(dp1638
g58
(dp1639
sg67
g1466
sg60
(lp1640
g53
(g74
g55
NtRp1641
(dp1642
g58
(dp1643
g78
g79
ssg67
g1637
sg60
(lp1644
g793
asbag53
(g74
g55
NtRp1645
(dp1646
g58
(dp1647
g85
g86
ssg67
g1637
sg60
(lp1648
S':'
asbag53
(g74
g55
NtRp1649
(dp1650
g58
(dp1651
sg67
g1637
sg60
(lp1652
g53
(g54
g55
NtRp1653
(dp1654
g58
(dp1655
g66
I4
ssg67
g1649
sg60
(lp1656
g96
asbasbasbag53
(g69
g55
NtRp1657
(dp1658
g58
(dp1659
sg67
g1466
sg60
(lp1660
g53
(g74
g55
NtRp1661
(dp1662
g58
(dp1663
g78
g79
ssg67
g1657
sg60
(lp1664
g1031
asbag53
(g74
g55
NtRp1665
(dp1666
g58
(dp1667
g85
g86
ssg67
g1657
sg60
(lp1668
S':'
asbag53
(g74
g55
NtRp1669
(dp1670
g58
(dp1671
sg67
g1657
sg60
(lp1672
g53
(g54
g55
NtRp1673
(dp1674
g58
(dp1675
g66
I4
ssg67
g1669
sg60
(lp1676
g1044
asbasbasbag53
(g69
g55
NtRp1677
(dp1678
g58
(dp1679
sg67
g1466
sg60
(lp1680
g53
(g74
g55
NtRp1681
(dp1682
g58
(dp1683
g78
g79
ssg67
g1677
sg60
(lp1684
g1074
asbag53
(g74
g55
NtRp1685
(dp1686
g58
(dp1687
g85
g86
ssg67
g1677
sg60
(lp1688
S':'
asbag53
(g74
g55
NtRp1689
(dp1690
g58
(dp1691
sg67
g1677
sg60
(lp1692
g53
(g54
g55
NtRp1693
(dp1694
g58
(dp1695
g66
I4
ssg67
g1689
sg60
(lp1696
g53
(g62
g55
NtRp1697
(dp1698
g58
(dp1699
g66
I3
ssg67
Nsg60
(lp1700
g53
(g69
g55
NtRp1701
(dp1702
g58
(dp1703
sg67
g1697
sg60
(lp1704
g53
(g74
g55
NtRp1705
(dp1706
g58
(dp1707
sg67
g1701
sg60
(lp1708
g53
(g54
g55
NtRp1709
(dp1710
g58
(dp1711
g66
I3
ssg67
g1705
sg60
(lp1712
S'1'
asbasbasbag53
(g69
g55
NtRp1713
(dp1714
g58
(dp1715
sg67
g1697
sg60
(lp1716
g53
(g74
g55
NtRp1717
(dp1718
g58
(dp1719
sg67
g1713
sg60
(lp1720
g53
(g54
g55
NtRp1721
(dp1722
g58
(dp1723
g66
I3
ssg67
g1717
sg60
(lp1724
S'99'
p1725
asbasbasbag53
(g69
g55
NtRp1726
(dp1727
g58
(dp1728
sg67
g1697
sg60
(lp1729
g53
(g74
g55
NtRp1730
(dp1731
g58
(dp1732
sg67
g1726
sg60
(lp1733
g53
(g54
g55
NtRp1734
(dp1735
g58
(dp1736
g66
I3
ssg67
g1730
sg60
(lp1737
S'7'
asbasbasbag53
(g69
g55
NtRp1738
(dp1739
g58
(dp1740
sg67
g1697
sg60
(lp1741
g53
(g74
g55
NtRp1742
(dp1743
g58
(dp1744
sg67
g1738
sg60
(lp1745
g53
(g54
g55
NtRp1746
(dp1747
g58
(dp1748
g66
I3
ssg67
g1742
sg60
(lp1749
S'datetime.datetime(2012, 3, 4, 22, 12, 8)'
p1750
asbasbasbag53
(g69
g55
NtRp1751
(dp1752
g58
(dp1753
sg67
g1697
sg60
(lp1754
g53
(g74
g55
NtRp1755
(dp1756
g58
(dp1757
sg67
g1751
sg60
(lp1758
g53
(g54
g55
NtRp1759
(dp1760
g58
(dp1761
g66
I3
ssg67
g1755
sg60
(lp1762
g1153
asbasbasbasbasbasbasbasbasbasbasbag53
(g69
g55
NtRp1763
(dp1764
g58
(dp1765
sg67
g63
sg60
(lp1766
g53
(g74
g55
NtRp1767
(dp1768
g58
(dp1769
g78
g79
ssg67
g1763
sg60
(lp1770
S'is_https'
p1771
asbag53
(g74
g55
NtRp1772
(dp1773
g58
(dp1774
g85
g86
ssg67
g1763
sg60
(lp1775
S':'
asbag53
(g74
g55
NtRp1776
(dp1777
g58
(dp1778
sg67
g1763
sg60
(lp1779
g53
(g54
g55
NtRp1780
(dp1781
g58
(dp1782
g66
I5
ssg67
g1776
sg60
(lp1783
g96
asbasbasbag53
(g69
g55
NtRp1784
(dp1785
g58
(dp1786
sg67
g63
sg60
(lp1787
g53
(g74
g55
NtRp1788
(dp1789
g58
(dp1790
g78
g79
ssg67
g1784
sg60
(lp1791
S'is_local'
p1792
asbag53
(g74
g55
NtRp1793
(dp1794
g58
(dp1795
g85
g86
ssg67
g1784
sg60
(lp1796
S':'
asbag53
(g74
g55
NtRp1797
(dp1798
g58
(dp1799
sg67
g1784
sg60
(lp1800
g53
(g54
g55
NtRp1801
(dp1802
g58
(dp1803
g66
I5
ssg67
g1797
sg60
(lp1804
g565
asbasbasbag53
(g69
g55
NtRp1805
(dp1806
g58
(dp1807
sg67
g63
sg60
(lp1808
g53
(g74
g55
NtRp1809
(dp1810
g58
(dp1811
g78
g79
ssg67
g1805
sg60
(lp1812
S'is_restful'
p1813
asbag53
(g74
g55
NtRp1814
(dp1815
g58
(dp1816
g85
g86
ssg67
g1805
sg60
(lp1817
S':'
asbag53
(g74
g55
NtRp1818
(dp1819
g58
(dp1820
sg67
g1805
sg60
(lp1821
g53
(g54
g55
NtRp1822
(dp1823
g58
(dp1824
g66
I5
ssg67
g1818
sg60
(lp1825
g96
asbasbasbag53
(g69
g55
NtRp1826
(dp1827
g58
(dp1828
sg67
g63
sg60
(lp1829
g53
(g74
g55
NtRp1830
(dp1831
g58
(dp1832
g78
g79
ssg67
g1826
sg60
(lp1833
S'now'
p1834
asbag53
(g74
g55
NtRp1835
(dp1836
g58
(dp1837
g85
g86
ssg67
g1826
sg60
(lp1838
S':'
asbag53
(g74
g55
NtRp1839
(dp1840
g58
(dp1841
sg67
g1826
sg60
(lp1842
g53
(g54
g55
NtRp1843
(dp1844
g58
(dp1845
g66
I5
ssg67
g1839
sg60
(lp1846
S'datetime.datetime(2012, 3, 29, 11, 14, 55, 860000)'
p1847
asbasbasbag53
(g69
g55
NtRp1848
(dp1849
g58
(dp1850
sg67
g63
sg60
(lp1851
g53
(g74
g55
NtRp1852
(dp1853
g58
(dp1854
g78
g79
ssg67
g1848
sg60
(lp1855
S'post_vars'
p1856
asbag53
(g74
g55
NtRp1857
(dp1858
g58
(dp1859
g85
g86
ssg67
g1848
sg60
(lp1860
S':'
asbag53
(g74
g55
NtRp1861
(dp1862
g58
(dp1863
sg67
g1848
sg60
(lp1864
g53
(g54
g55
NtRp1865
(dp1866
g58
(dp1867
g66
I5
ssg67
g1861
sg60
(lp1868
g53
(g62
g55
NtRp1869
(dp1870
g58
(dp1871
g66
I4
ssg67
Nsg60
(lp1872
sbasbasbasbag53
(g69
g55
NtRp1873
(dp1874
g58
(dp1875
sg67
g63
sg60
(lp1876
g53
(g74
g55
NtRp1877
(dp1878
g58
(dp1879
g78
g79
ssg67
g1873
sg60
(lp1880
S'raw_args'
p1881
asbag53
(g74
g55
NtRp1882
(dp1883
g58
(dp1884
g85
g86
ssg67
g1873
sg60
(lp1885
S':'
asbag53
(g74
g55
NtRp1886
(dp1887
g58
(dp1888
sg67
g1873
sg60
(lp1889
g53
(g54
g55
NtRp1890
(dp1891
g58
(dp1892
g66
I5
ssg67
g1886
sg60
(lp1893
S''
asbasbasbag53
(g69
g55
NtRp1894
(dp1895
g58
(dp1896
sg67
g63
sg60
(lp1897
g53
(g74
g55
NtRp1898
(dp1899
g58
(dp1900
g78
g79
ssg67
g1894
sg60
(lp1901
S'url'
p1902
asbag53
(g74
g55
NtRp1903
(dp1904
g58
(dp1905
g85
g86
ssg67
g1894
sg60
(lp1906
S':'
asbag53
(g74
g55
NtRp1907
(dp1908
g58
(dp1909
sg67
g1894
sg60
(lp1910
g53
(g54
g55
NtRp1911
(dp1912
g58
(dp1913
g66
I5
ssg67
g1907
sg60
(lp1914
S'/init/default/initdb'
p1915
asbasbasbag53
(g69
g55
NtRp1916
(dp1917
g58
(dp1918
sg67
g63
sg60
(lp1919
g53
(g74
g55
NtRp1920
(dp1921
g58
(dp1922
g78
g79
ssg67
g1916
sg60
(lp1923
S'utcnow'
p1924
asbag53
(g74
g55
NtRp1925
(dp1926
g58
(dp1927
g85
g86
ssg67
g1916
sg60
(lp1928
S':'
asbag53
(g74
g55
NtRp1929
(dp1930
g58
(dp1931
sg67
g1916
sg60
(lp1932
g53
(g54
g55
NtRp1933
(dp1934
g58
(dp1935
g66
I5
ssg67
g1929
sg60
(lp1936
S'datetime.datetime(2012, 3, 29, 9, 14, 55, 860000)'
p1937
asbasbasbag53
(g69
g55
NtRp1938
(dp1939
g58
(dp1940
sg67
g63
sg60
(lp1941
g53
(g74
g55
NtRp1942
(dp1943
g58
(dp1944
g78
g79
ssg67
g1938
sg60
(lp1945
S'uuid'
p1946
asbag53
(g74
g55
NtRp1947
(dp1948
g58
(dp1949
g85
g86
ssg67
g1938
sg60
(lp1950
S':'
asbag53
(g74
g55
NtRp1951
(dp1952
g58
(dp1953
sg67
g1938
sg60
(lp1954
g53
(g54
g55
NtRp1955
(dp1956
g58
(dp1957
g66
I5
ssg67
g1951
sg60
(lp1958
S'init/127.0.0.1.2012-03-29.11-14-55.3c3bcee8-03f1-4788-a372-740eda6b7b3e'
p1959
asbasbasbag53
(g69
g55
NtRp1960
(dp1961
g58
(dp1962
sg67
g63
sg60
(lp1963
g53
(g74
g55
NtRp1964
(dp1965
g58
(dp1966
g78
g79
ssg67
g1960
sg60
(lp1967
S'vars'
p1968
asbag53
(g74
g55
NtRp1969
(dp1970
g58
(dp1971
g85
g86
ssg67
g1960
sg60
(lp1972
S':'
asbag53
(g74
g55
NtRp1973
(dp1974
g58
(dp1975
sg67
g1960
sg60
(lp1976
g53
(g54
g55
NtRp1977
(dp1978
g58
(dp1979
g66
I5
ssg67
g1973
sg60
(lp1980
g53
(g62
g55
NtRp1981
(dp1982
g58
(dp1983
g66
I4
ssg67
Nsg60
(lp1984
sbasbasbasbag53
(g69
g55
NtRp1985
(dp1986
g58
(dp1987
sg67
g63
sg60
(lp1988
g53
(g74
g55
NtRp1989
(dp1990
g58
(dp1991
g78
g79
ssg67
g1985
sg60
(lp1992
S'wsgi'
p1993
asbag53
(g74
g55
NtRp1994
(dp1995
g58
(dp1996
g85
g86
ssg67
g1985
sg60
(lp1997
S':'
asbag53
(g74
g55
NtRp1998
(dp1999
g58
(dp2000
sg67
g1985
sg60
(lp2001
g53
(g54
g55
NtRp2002
(dp2003
g58
(dp2004
g66
I5
ssg67
g1998
sg60
(lp2005
g53
(g62
g55
NtRp2006
(dp2007
g58
(dp2008
g66
I4
ssg67
Nsg60
(lp2009
g53
(g69
g55
NtRp2010
(dp2011
g58
(dp2012
sg67
g2006
sg60
(lp2013
g53
(g74
g55
NtRp2014
(dp2015
g58
(dp2016
g78
g79
ssg67
g2010
sg60
(lp2017
S'environ'
p2018
asbag53
(g74
g55
NtRp2019
(dp2020
g58
(dp2021
g85
g86
ssg67
g2010
sg60
(lp2022
S':'
asbag53
(g74
g55
NtRp2023
(dp2024
g58
(dp2025
sg67
g2010
sg60
(lp2026
g53
(g54
g55
NtRp2027
(dp2028
g58
(dp2029
g66
I4
ssg67
g2023
sg60
(lp2030
g53
(g62
g55
NtRp2031
(dp2032
g58
(dp2033
g66
I3
ssg67
Nsg60
(lp2034
g53
(g69
g55
NtRp2035
(dp2036
g58
(dp2037
sg67
g2031
sg60
(lp2038
g53
(g74
g55
NtRp2039
(dp2040
g58
(dp2041
g78
g79
ssg67
g2035
sg60
(lp2042
S'HTTP_ACCEPT'
p2043
asbag53
(g74
g55
NtRp2044
(dp2045
g58
(dp2046
g85
g86
ssg67
g2035
sg60
(lp2047
S':'
asbag53
(g74
g55
NtRp2048
(dp2049
g58
(dp2050
sg67
g2035
sg60
(lp2051
g53
(g54
g55
NtRp2052
(dp2053
g58
(dp2054
g66
I3
ssg67
g2048
sg60
(lp2055
g609
asbasbasbag53
(g69
g55
NtRp2056
(dp2057
g58
(dp2058
sg67
g2031
sg60
(lp2059
g53
(g74
g55
NtRp2060
(dp2061
g58
(dp2062
g78
g79
ssg67
g2056
sg60
(lp2063
S'HTTP_ACCEPT_CHARSET'
p2064
asbag53
(g74
g55
NtRp2065
(dp2066
g58
(dp2067
g85
g86
ssg67
g2056
sg60
(lp2068
S':'
asbag53
(g74
g55
NtRp2069
(dp2070
g58
(dp2071
sg67
g2056
sg60
(lp2072
g53
(g54
g55
NtRp2073
(dp2074
g58
(dp2075
g66
I3
ssg67
g2069
sg60
(lp2076
g631
asbasbasbag53
(g69
g55
NtRp2077
(dp2078
g58
(dp2079
sg67
g2031
sg60
(lp2080
g53
(g74
g55
NtRp2081
(dp2082
g58
(dp2083
g78
g79
ssg67
g2077
sg60
(lp2084
S'HTTP_ACCEPT_ENCODING'
p2085
asbag53
(g74
g55
NtRp2086
(dp2087
g58
(dp2088
g85
g86
ssg67
g2077
sg60
(lp2089
S':'
asbag53
(g74
g55
NtRp2090
(dp2091
g58
(dp2092
sg67
g2077
sg60
(lp2093
g53
(g54
g55
NtRp2094
(dp2095
g58
(dp2096
g66
I3
ssg67
g2090
sg60
(lp2097
g653
asbasbasbag53
(g69
g55
NtRp2098
(dp2099
g58
(dp2100
sg67
g2031
sg60
(lp2101
g53
(g74
g55
NtRp2102
(dp2103
g58
(dp2104
g78
g79
ssg67
g2098
sg60
(lp2105
S'HTTP_ACCEPT_LANGUAGE'
p2106
asbag53
(g74
g55
NtRp2107
(dp2108
g58
(dp2109
g85
g86
ssg67
g2098
sg60
(lp2110
S':'
asbag53
(g74
g55
NtRp2111
(dp2112
g58
(dp2113
sg67
g2098
sg60
(lp2114
g53
(g54
g55
NtRp2115
(dp2116
g58
(dp2117
g66
I3
ssg67
g2111
sg60
(lp2118
g675
asbasbasbag53
(g69
g55
NtRp2119
(dp2120
g58
(dp2121
sg67
g2031
sg60
(lp2122
g53
(g74
g55
NtRp2123
(dp2124
g58
(dp2125
g78
g79
ssg67
g2119
sg60
(lp2126
S'HTTP_CONNECTION'
p2127
asbag53
(g74
g55
NtRp2128
(dp2129
g58
(dp2130
g85
g86
ssg67
g2119
sg60
(lp2131
S':'
asbag53
(g74
g55
NtRp2132
(dp2133
g58
(dp2134
sg67
g2119
sg60
(lp2135
g53
(g54
g55
NtRp2136
(dp2137
g58
(dp2138
g66
I3
ssg67
g2132
sg60
(lp2139
g697
asbasbasbag53
(g69
g55
NtRp2140
(dp2141
g58
(dp2142
sg67
g2031
sg60
(lp2143
g53
(g74
g55
NtRp2144
(dp2145
g58
(dp2146
g78
g79
ssg67
g2140
sg60
(lp2147
S'HTTP_COOKIE'
p2148
asbag53
(g74
g55
NtRp2149
(dp2150
g58
(dp2151
g85
g86
ssg67
g2140
sg60
(lp2152
S':'
asbag53
(g74
g55
NtRp2153
(dp2154
g58
(dp2155
sg67
g2140
sg60
(lp2156
g53
(g54
g55
NtRp2157
(dp2158
g58
(dp2159
g66
I3
ssg67
g2153
sg60
(lp2160
g719
asbasbasbag53
(g69
g55
NtRp2161
(dp2162
g58
(dp2163
sg67
g2031
sg60
(lp2164
g53
(g74
g55
NtRp2165
(dp2166
g58
(dp2167
g78
g79
ssg67
g2161
sg60
(lp2168
S'HTTP_HOST'
p2169
asbag53
(g74
g55
NtRp2170
(dp2171
g58
(dp2172
g85
g86
ssg67
g2161
sg60
(lp2173
S':'
asbag53
(g74
g55
NtRp2174
(dp2175
g58
(dp2176
sg67
g2161
sg60
(lp2177
g53
(g54
g55
NtRp2178
(dp2179
g58
(dp2180
g66
I3
ssg67
g2174
sg60
(lp2181
g741
asbasbasbag53
(g69
g55
NtRp2182
(dp2183
g58
(dp2184
sg67
g2031
sg60
(lp2185
g53
(g74
g55
NtRp2186
(dp2187
g58
(dp2188
g78
g79
ssg67
g2182
sg60
(lp2189
S'HTTP_USER_AGENT'
p2190
asbag53
(g74
g55
NtRp2191
(dp2192
g58
(dp2193
g85
g86
ssg67
g2182
sg60
(lp2194
S':'
asbag53
(g74
g55
NtRp2195
(dp2196
g58
(dp2197
sg67
g2182
sg60
(lp2198
g53
(g54
g55
NtRp2199
(dp2200
g58
(dp2201
g66
I3
ssg67
g2195
sg60
(lp2202
g763
asbasbasbag53
(g69
g55
NtRp2203
(dp2204
g58
(dp2205
sg67
g2031
sg60
(lp2206
g53
(g74
g55
NtRp2207
(dp2208
g58
(dp2209
g78
g79
ssg67
g2203
sg60
(lp2210
S'PATH_INFO'
p2211
asbag53
(g74
g55
NtRp2212
(dp2213
g58
(dp2214
g85
g86
ssg67
g2203
sg60
(lp2215
S':'
asbag53
(g74
g55
NtRp2216
(dp2217
g58
(dp2218
sg67
g2203
sg60
(lp2219
g53
(g54
g55
NtRp2220
(dp2221
g58
(dp2222
g66
I3
ssg67
g2216
sg60
(lp2223
g827
asbasbasbag53
(g69
g55
NtRp2224
(dp2225
g58
(dp2226
sg67
g2031
sg60
(lp2227
g53
(g74
g55
NtRp2228
(dp2229
g58
(dp2230
g78
g79
ssg67
g2224
sg60
(lp2231
S'QUERY_STRING'
p2232
asbag53
(g74
g55
NtRp2233
(dp2234
g58
(dp2235
g85
g86
ssg67
g2224
sg60
(lp2236
S':'
asbag53
(g74
g55
NtRp2237
(dp2238
g58
(dp2239
sg67
g2224
sg60
(lp2240
g53
(g54
g55
NtRp2241
(dp2242
g58
(dp2243
g66
I3
ssg67
g2237
sg60
(lp2244
S''
asbasbasbag53
(g69
g55
NtRp2245
(dp2246
g58
(dp2247
sg67
g2031
sg60
(lp2248
g53
(g74
g55
NtRp2249
(dp2250
g58
(dp2251
g78
g79
ssg67
g2245
sg60
(lp2252
S'REMOTE_ADDR'
p2253
asbag53
(g74
g55
NtRp2254
(dp2255
g58
(dp2256
g85
g86
ssg67
g2245
sg60
(lp2257
S':'
asbag53
(g74
g55
NtRp2258
(dp2259
g58
(dp2260
sg67
g2245
sg60
(lp2261
g53
(g54
g55
NtRp2262
(dp2263
g58
(dp2264
g66
I3
ssg67
g2258
sg60
(lp2265
g186
asbasbasbag53
(g69
g55
NtRp2266
(dp2267
g58
(dp2268
sg67
g2031
sg60
(lp2269
g53
(g74
g55
NtRp2270
(dp2271
g58
(dp2272
g78
g79
ssg67
g2266
sg60
(lp2273
S'REMOTE_PORT'
p2274
asbag53
(g74
g55
NtRp2275
(dp2276
g58
(dp2277
g85
g86
ssg67
g2266
sg60
(lp2278
S':'
asbag53
(g74
g55
NtRp2279
(dp2280
g58
(dp2281
sg67
g2266
sg60
(lp2282
g53
(g54
g55
NtRp2283
(dp2284
g58
(dp2285
g66
I3
ssg67
g2279
sg60
(lp2286
g891
asbasbasbag53
(g69
g55
NtRp2287
(dp2288
g58
(dp2289
sg67
g2031
sg60
(lp2290
g53
(g74
g55
NtRp2291
(dp2292
g58
(dp2293
g78
g79
ssg67
g2287
sg60
(lp2294
S'REQUEST_METHOD'
p2295
asbag53
(g74
g55
NtRp2296
(dp2297
g58
(dp2298
g85
g86
ssg67
g2287
sg60
(lp2299
S':'
asbag53
(g74
g55
NtRp2300
(dp2301
g58
(dp2302
sg67
g2287
sg60
(lp2303
g53
(g54
g55
NtRp2304
(dp2305
g58
(dp2306
g66
I3
ssg67
g2300
sg60
(lp2307
g913
asbasbasbag53
(g69
g55
NtRp2308
(dp2309
g58
(dp2310
sg67
g2031
sg60
(lp2311
g53
(g74
g55
NtRp2312
(dp2313
g58
(dp2314
g78
g79
ssg67
g2308
sg60
(lp2315
S'SCRIPT_NAME'
p2316
asbag53
(g74
g55
NtRp2317
(dp2318
g58
(dp2319
g85
g86
ssg67
g2308
sg60
(lp2320
S':'
asbag53
(g74
g55
NtRp2321
(dp2322
g58
(dp2323
sg67
g2308
sg60
(lp2324
g53
(g54
g55
NtRp2325
(dp2326
g58
(dp2327
g66
I3
ssg67
g2321
sg60
(lp2328
S''
asbasbasbag53
(g69
g55
NtRp2329
(dp2330
g58
(dp2331
sg67
g2031
sg60
(lp2332
g53
(g74
g55
NtRp2333
(dp2334
g58
(dp2335
g78
g79
ssg67
g2329
sg60
(lp2336
S'SERVER_NAME'
p2337
asbag53
(g74
g55
NtRp2338
(dp2339
g58
(dp2340
g85
g86
ssg67
g2329
sg60
(lp2341
S':'
asbag53
(g74
g55
NtRp2342
(dp2343
g58
(dp2344
sg67
g2329
sg60
(lp2345
g53
(g54
g55
NtRp2346
(dp2347
g58
(dp2348
g66
I3
ssg67
g2342
sg60
(lp2349
g956
asbasbasbag53
(g69
g55
NtRp2350
(dp2351
g58
(dp2352
sg67
g2031
sg60
(lp2353
g53
(g74
g55
NtRp2354
(dp2355
g58
(dp2356
g78
g79
ssg67
g2350
sg60
(lp2357
S'SERVER_PORT'
p2358
asbag53
(g74
g55
NtRp2359
(dp2360
g58
(dp2361
g85
g86
ssg67
g2350
sg60
(lp2362
S':'
asbag53
(g74
g55
NtRp2363
(dp2364
g58
(dp2365
sg67
g2350
sg60
(lp2366
g53
(g54
g55
NtRp2367
(dp2368
g58
(dp2369
g66
I3
ssg67
g2363
sg60
(lp2370
g978
asbasbasbag53
(g69
g55
NtRp2371
(dp2372
g58
(dp2373
sg67
g2031
sg60
(lp2374
g53
(g74
g55
NtRp2375
(dp2376
g58
(dp2377
g78
g79
ssg67
g2371
sg60
(lp2378
S'SERVER_PROTOCOL'
p2379
asbag53
(g74
g55
NtRp2380
(dp2381
g58
(dp2382
g85
g86
ssg67
g2371
sg60
(lp2383
S':'
asbag53
(g74
g55
NtRp2384
(dp2385
g58
(dp2386
sg67
g2371
sg60
(lp2387
g53
(g54
g55
NtRp2388
(dp2389
g58
(dp2390
g66
I3
ssg67
g2384
sg60
(lp2391
g1000
asbasbasbag53
(g69
g55
NtRp2392
(dp2393
g58
(dp2394
sg67
g2031
sg60
(lp2395
g53
(g74
g55
NtRp2396
(dp2397
g58
(dp2398
g78
g79
ssg67
g2392
sg60
(lp2399
S'SERVER_SOFTWARE'
p2400
asbag53
(g74
g55
NtRp2401
(dp2402
g58
(dp2403
g85
g86
ssg67
g2392
sg60
(lp2404
S':'
asbag53
(g74
g55
NtRp2405
(dp2406
g58
(dp2407
sg67
g2392
sg60
(lp2408
g53
(g54
g55
NtRp2409
(dp2410
g58
(dp2411
g66
I3
ssg67
g2405
sg60
(lp2412
g1022
asbasbasbag53
(g69
g55
NtRp2413
(dp2414
g58
(dp2415
sg67
g2031
sg60
(lp2416
g53
(g74
g55
NtRp2417
(dp2418
g58
(dp2419
g78
g79
ssg67
g2413
sg60
(lp2420
S'wsgi.errors'
p2421
asbag53
(g74
g55
NtRp2422
(dp2423
g58
(dp2424
g85
g86
ssg67
g2413
sg60
(lp2425
S':'
asbag53
(g74
g55
NtRp2426
(dp2427
g58
(dp2428
sg67
g2413
sg60
(lp2429
g53
(g54
g55
NtRp2430
(dp2431
g58
(dp2432
g66
I3
ssg67
g2426
sg60
(lp2433
S"<open file '<stderr>', mode 'w' at 0x005300B0>"
p2434
asbasbasbag53
(g69
g55
NtRp2435
(dp2436
g58
(dp2437
sg67
g2031
sg60
(lp2438
g53
(g74
g55
NtRp2439
(dp2440
g58
(dp2441
g78
g79
ssg67
g2435
sg60
(lp2442
S'wsgi.file_wrapper'
p2443
asbag53
(g74
g55
NtRp2444
(dp2445
g58
(dp2446
g85
g86
ssg67
g2435
sg60
(lp2447
S':'
asbag53
(g74
g55
NtRp2448
(dp2449
g58
(dp2450
sg67
g2435
sg60
(lp2451
g53
(g54
g55
NtRp2452
(dp2453
g58
(dp2454
g66
I3
ssg67
g2448
sg60
(lp2455
S'<class wsgiref.util.FileWrapper at 0x02C34900>'
p2456
asbasbasbag53
(g69
g55
NtRp2457
(dp2458
g58
(dp2459
sg67
g2031
sg60
(lp2460
g53
(g74
g55
NtRp2461
(dp2462
g58
(dp2463
g78
g79
ssg67
g2457
sg60
(lp2464
S'wsgi.input'
p2465
asbag53
(g74
g55
NtRp2466
(dp2467
g58
(dp2468
g85
g86
ssg67
g2457
sg60
(lp2469
S':'
asbag53
(g74
g55
NtRp2470
(dp2471
g58
(dp2472
sg67
g2457
sg60
(lp2473
g53
(g54
g55
NtRp2474
(dp2475
g58
(dp2476
g66
I3
ssg67
g2470
sg60
(lp2477
S'<cStringIO.StringO object at 0x04094340>'
p2478
asbasbasbag53
(g69
g55
NtRp2479
(dp2480
g58
(dp2481
sg67
g2031
sg60
(lp2482
g53
(g74
g55
NtRp2483
(dp2484
g58
(dp2485
g78
g79
ssg67
g2479
sg60
(lp2486
S'wsgi.multiprocess'
p2487
asbag53
(g74
g55
NtRp2488
(dp2489
g58
(dp2490
g85
g86
ssg67
g2479
sg60
(lp2491
S':'
asbag53
(g74
g55
NtRp2492
(dp2493
g58
(dp2494
sg67
g2479
sg60
(lp2495
g53
(g54
g55
NtRp2496
(dp2497
g58
(dp2498
g66
I3
ssg67
g2492
sg60
(lp2499
g96
asbasbasbag53
(g69
g55
NtRp2500
(dp2501
g58
(dp2502
sg67
g2031
sg60
(lp2503
g53
(g74
g55
NtRp2504
(dp2505
g58
(dp2506
g78
g79
ssg67
g2500
sg60
(lp2507
S'wsgi.multithread'
p2508
asbag53
(g74
g55
NtRp2509
(dp2510
g58
(dp2511
g85
g86
ssg67
g2500
sg60
(lp2512
S':'
asbag53
(g74
g55
NtRp2513
(dp2514
g58
(dp2515
sg67
g2500
sg60
(lp2516
g53
(g54
g55
NtRp2517
(dp2518
g58
(dp2519
g66
I3
ssg67
g2513
sg60
(lp2520
g565
asbasbasbag53
(g69
g55
NtRp2521
(dp2522
g58
(dp2523
sg67
g2031
sg60
(lp2524
g53
(g74
g55
NtRp2525
(dp2526
g58
(dp2527
g78
g79
ssg67
g2521
sg60
(lp2528
S'wsgi.run_once'
p2529
asbag53
(g74
g55
NtRp2530
(dp2531
g58
(dp2532
g85
g86
ssg67
g2521
sg60
(lp2533
S':'
asbag53
(g74
g55
NtRp2534
(dp2535
g58
(dp2536
sg67
g2521
sg60
(lp2537
g53
(g54
g55
NtRp2538
(dp2539
g58
(dp2540
g66
I3
ssg67
g2534
sg60
(lp2541
g96
asbasbasbag53
(g69
g55
NtRp2542
(dp2543
g58
(dp2544
sg67
g2031
sg60
(lp2545
g53
(g74
g55
NtRp2546
(dp2547
g58
(dp2548
g78
g79
ssg67
g2542
sg60
(lp2549
S'wsgi.url_scheme'
p2550
asbag53
(g74
g55
NtRp2551
(dp2552
g58
(dp2553
g85
g86
ssg67
g2542
sg60
(lp2554
S':'
asbag53
(g74
g55
NtRp2555
(dp2556
g58
(dp2557
sg67
g2542
sg60
(lp2558
g53
(g54
g55
NtRp2559
(dp2560
g58
(dp2561
g66
I3
ssg67
g2555
sg60
(lp2562
g1304
asbasbasbag53
(g69
g55
NtRp2563
(dp2564
g58
(dp2565
sg67
g2031
sg60
(lp2566
g53
(g74
g55
NtRp2567
(dp2568
g58
(dp2569
g78
g79
ssg67
g2563
sg60
(lp2570
S'wsgi.version'
p2571
asbag53
(g74
g55
NtRp2572
(dp2573
g58
(dp2574
g85
g86
ssg67
g2563
sg60
(lp2575
S':'
asbag53
(g74
g55
NtRp2576
(dp2577
g58
(dp2578
sg67
g2563
sg60
(lp2579
g53
(g54
g55
NtRp2580
(dp2581
g58
(dp2582
g66
I3
ssg67
g2576
sg60
(lp2583
S'1'
asbasbasbasbasbasbasbasbasbasbasbasbasbsS'frames'
p2584
(lp2585
(dp2586
S'file'
p2587
S'C:\\Users\\Bussiere\\Dropbox\\Projets\\jackpoint\\web2py\\gluon\\restricted.py'
p2588
sS'dump'
p2589
(dp2590
sS'lnum'
p2591
I205
sS'lines'
p2592
(dp2593
I200
S'    try:'
p2594
sI201
S'        if type(code) == types.CodeType:'
p2595
sI202
S'            ccode = code'
p2596
sI203
S'        else:'
p2597
sI204
S'            ccode = compile2(code,layer)'
p2598
sI205
S'        exec ccode in environment'
p2599
sI206
S'    except HTTP:'
p2600
sI207
S'        raise'
p2601
sI208
S'    except RestrictedError:'
p2602
sI209
S'        # do not encapsulate (obfuscate) the original RestrictedError'
p2603
ssS'call'
p2604
S"(code='\\xef\\xbb\\xbf# -*- coding: utf-8 -*-\\n# this file is releas...crud())\\n\\nresponse._vars=response._caller(initdb)\\n', environment={'A': <class 'gluon.html.A'>, 'Auth': <class 'gluon.tools.Auth'>, 'AutocompleteWidget': <class 'gluon.sqlhtml.AutocompleteWidget'>, 'B': <class 'gluon.html.B'>, 'BEAUTIFY': <class 'gluon.html.BEAUTIFY'>, 'BODY': <class 'gluon.html.BODY'>, 'BR': <class 'gluon.html.BR'>, 'BUTTON': <class 'gluon.html.BUTTON'>, 'BooleanWidget': <class 'gluon.sqlhtml.BooleanWidget'>, 'CALLABLETYPES': (<type 'function'>, <type 'function'>, <type 'builtin_function_or_method'>, <type 'instancemethod'>, <type 'builtin_function_or_method'>), ...}, layer=r'C:\\Users\\Bussiere\\Dropbox\\Projets\\jackpoint\\web2py\\applications\\init\\controllers/default.py')"
p2605
sS'func'
p2606
S'restricted'
p2607
sa(dp2608
g2587
S'C:\\Users\\Bussiere\\Dropbox\\Projets\\jackpoint\\web2py\\applications\\init\\controllers\\default.py'
p2609
sg2589
(dp2610
sg2591
I445
sg2592
(dp2611
I434
S'    http://..../[app]/default/data/update/[table]/[id]'
p2612
sI435
S'    http://..../[app]/default/data/delete/[table]/[id]'
p2613
sI436
S'    http://..../[app]/default/data/select/[table]'
p2614
sI437
S'    http://..../[app]/default/data/search/[table]'
p2615
sI438
S'    but URLs must be signed, i.e. linked with'
p2616
sI439
S"      A('table',_href=URL('data/tables',user_signature=True))"
p2617
sI440
S'    or with the signed load operator'
p2618
sI441
S"      LOAD('default','data.load',args='tables',ajax=True,user_signature=True)"
p2619
sI442
S'    """'
p2620
sI443
S'    return dict(form=crud())'
p2621
ssg2604
S'()'
p2622
sg2606
S'<module>'
p2623
sa(dp2624
g2587
S'C:\\Users\\Bussiere\\Dropbox\\Projets\\jackpoint\\web2py\\gluon\\globals.py'
p2625
sg2589
(dp2626
sg2591
I173
sg2592
(dp2627
I168
S'        self.menu = []             # used by the default view layout'
p2628
sI169
S'        self.files = []            # used by web2py_ajax.html'
p2629
sI170
S'        self.generic_patterns = [] # patterns to allow generic views'
p2630
sI171
S"        self.delimiters = ('{{','}}')"
p2631
sI172
S'        self._vars = None'
p2632
sI173
S'        self._caller = lambda f: f()'
p2633
sI174
S'        self._view_environment = None'
p2634
sI175
S'        self._custom_commit = None'
p2635
sI176
S'        self._custom_rollback = None'
p2636
sI177
S''
ssg2604
S'(f=<function initdb at 0x03F8BE30>)'
p2637
sg2606
S'<lambda>'
p2638
sa(dp2639
g2587
S'C:\\Users\\Bussiere\\Dropbox\\Projets\\jackpoint\\web2py\\applications\\init\\controllers\\default.py'
p2640
sg2589
(dp2641
sg2591
I261
sg2592
(dp2642
I256
S'            my_crypt = CRYPT(key=auth.settings.hmac_key)'
p2643
sI257
S'            crypt_pass = my_crypt(password)[0]'
p2644
sI258
S'            buss = db.auth_user.insert('
p2645
sI259
S'               email= "bussiere@gmail.com",'
p2646
sI260
S'               username="bussiere",'
p2647
sI261
S'               password=crypt_pass,'
p2648
sI262
S'            )'
p2649
sI263
S"            jack = auth.add_group('Jack', 'Jack master of none')"
p2650
sI264
S'            auth.add_membership(jack, buss)'
p2651
sI265
S'            db.commit()'
p2652
ssg2604
S'()'
p2653
sg2606
S'initdb'
p2654
sa(dp2655
g2587
S'C:\\Users\\Bussiere\\Dropbox\\Projets\\jackpoint\\web2py\\gluon\\dal.py'
p2656
sg2589
(dp2657
sg2591
I6829
sg2592
(dp2658
I6824
S''
sI6825
S'    def _insert(self, **fields):'
p2659
sI6826
S'        return self._db._adapter._insert(self,self._listify(fields))'
p2660
sI6827
S''
sI6828
S'    def insert(self, **fields):'
p2661
sI6829
S'        return self._db._adapter.insert(self,self._listify(fields))'
p2662
sI6830
S''
sI6831
S'    def validate_and_insert(self,**fields):'
p2663
sI6832
S'        response = Row()'
p2664
sI6833
S'        response.errors = Row()'
p2665
ssg2604
S"(self=<Table {'_db': <DAL {'auth_event': <Table {'orig..., '_id': <gluon.dal.Field object at 0x03F871F0>}>, **fields={'email': 'bussiere@gmail.com', 'password': 'b718cac2c616a8bda72d25a1273e7b36', 'username': 'bussiere'})"
p2666
sg2606
S'insert'
p2667
sa(dp2668
g2587
S'C:\\Users\\Bussiere\\Dropbox\\Projets\\jackpoint\\web2py\\gluon\\dal.py'
p2669
sg2589
(dp2670
sg2591
I928
sg2592
(dp2671
I928
S'            raise e'
p2672
sI929
S"        if hasattr(table,'_primarykey'):"
p2673
sI930
S'            return dict([(k[0].name, k[1]) for k in fields \\'
p2674
sI931
S'                             if k[0].name in table._primarykey])'
p2675
sI932
S'        id = self.lastrowid(table)'
p2676
sI923
S'        try:'
p2677
sI924
S'            self.execute(query)'
p2678
sI925
S'        except Exception, e:'
p2679
sI926
S'            if isinstance(e,self.integrity_error_class()):'
p2680
sI927
S'                return None'
p2681
ssg2604
S"(self=<gluon.dal.SQLiteAdapter object at 0x03F6E6B0>, table=<Table {'_db': <DAL {'auth_event': <Table {'orig..., '_id': <gluon.dal.Field object at 0x03F871F0>}>, fields=[(<gluon.dal.Field object at 0x04095C50>, 'bussiere'), (<gluon.dal.Field object at 0x04095BD0>, 'b718cac2c616a8bda72d25a1273e7b36'), (<gluon.dal.Field object at 0x04095FB0>, 'bussiere@gmail.com'), (<gluon.dal.Field object at 0x03F87130>, False), (<gluon.dal.Field object at 0x03F870B0>, ''), (<gluon.dal.Field object at 0x03F871B0>, ''), (<gluon.dal.Field object at 0x03F87030>, '')])"
p2682
sg2606
g2667
sasS'pyver'
p2683
S'Python 2.5.4: C:\\Users\\Bussiere\\Dropbox\\Projets\\jackpoint\\web2py\\web2py.exe'
p2684
sS'session'
p2685
g53
(g54
g55
NtRp2686
(dp2687
g58
(dp2688
sg60
(lp2689
g53
(g62
g55
NtRp2690
(dp2691
g58
(dp2692
g66
I5
ssg67
Nsg60
(lp2693
sbasbsS'etype'
p2694
S"<class 'sqlite3.IntegrityError'>"
p2695
sS'date'
p2696
S'Thu Mar 29 11:14:56 2012'
p2697
sS'response'
p2698
g53
(g54
g55
NtRp2699
(dp2700
g58
(dp2701
sg60
(lp2702
g53
(g62
g55
NtRp2703
(dp2704
g58
(dp2705
g66
I5
ssg67
Nsg60
(lp2706
g53
(g69
g55
NtRp2707
(dp2708
g58
(dp2709
sg67
g2703
sg60
(lp2710
g53
(g74
g55
NtRp2711
(dp2712
g58
(dp2713
g78
g79
ssg67
g2707
sg60
(lp2714
g151
asbag53
(g74
g55
NtRp2715
(dp2716
g58
(dp2717
g85
g86
ssg67
g2707
sg60
(lp2718
S':'
asbag53
(g74
g55
NtRp2719
(dp2720
g58
(dp2721
sg67
g2707
sg60
(lp2722
g53
(g54
g55
NtRp2723
(dp2724
g58
(dp2725
g66
I5
ssg67
g2719
sg60
(lp2726
S'<cStringIO.StringO object at 0x04094300>'
p2727
asbasbasbag53
(g69
g55
NtRp2728
(dp2729
g58
(dp2730
sg67
g2703
sg60
(lp2731
g53
(g74
g55
NtRp2732
(dp2733
g58
(dp2734
g78
g79
ssg67
g2728
sg60
(lp2735
g217
asbag53
(g74
g55
NtRp2736
(dp2737
g58
(dp2738
g85
g86
ssg67
g2728
sg60
(lp2739
S':'
asbag53
(g74
g55
NtRp2740
(dp2741
g58
(dp2742
sg67
g2728
sg60
(lp2743
g53
(g54
g55
NtRp2744
(dp2745
g58
(dp2746
g66
I5
ssg67
g2740
sg60
(lp2747
g53
(g62
g55
NtRp2748
(dp2749
g58
(dp2750
g66
I4
ssg67
Nsg60
(lp2751
g53
(g69
g55
NtRp2752
(dp2753
g58
(dp2754
sg67
g2748
sg60
(lp2755
g53
(g74
g55
NtRp2756
(dp2757
g58
(dp2758
g78
g79
ssg67
g2752
sg60
(lp2759
S'session_id_init'
p2760
asbag53
(g74
g55
NtRp2761
(dp2762
g58
(dp2763
g85
g86
ssg67
g2752
sg60
(lp2764
S':'
asbag53
(g74
g55
NtRp2765
(dp2766
g58
(dp2767
sg67
g2752
sg60
(lp2768
g53
(g54
g55
NtRp2769
(dp2770
g58
(dp2771
g66
I4
ssg67
g2765
sg60
(lp2772
g53
(g62
g55
NtRp2773
(dp2774
g58
(dp2775
g66
I3
ssg67
Nsg60
(lp2776
g53
(g69
g55
NtRp2777
(dp2778
g58
(dp2779
sg67
g2773
sg60
(lp2780
g53
(g74
g55
NtRp2781
(dp2782
g58
(dp2783
g78
g79
ssg67
g2777
sg60
(lp2784
g267
asbag53
(g74
g55
NtRp2785
(dp2786
g58
(dp2787
g85
g86
ssg67
g2777
sg60
(lp2788
S':'
asbag53
(g74
g55
NtRp2789
(dp2790
g58
(dp2791
sg67
g2777
sg60
(lp2792
g53
(g54
g55
NtRp2793
(dp2794
g58
(dp2795
g66
I3
ssg67
g2789
sg60
(lp2796
S''
asbasbasbag53
(g69
g55
NtRp2797
(dp2798
g58
(dp2799
sg67
g2773
sg60
(lp2800
g53
(g74
g55
NtRp2801
(dp2802
g58
(dp2803
g78
g79
ssg67
g2797
sg60
(lp2804
g288
asbag53
(g74
g55
NtRp2805
(dp2806
g58
(dp2807
g85
g86
ssg67
g2797
sg60
(lp2808
S':'
asbag53
(g74
g55
NtRp2809
(dp2810
g58
(dp2811
sg67
g2797
sg60
(lp2812
g53
(g54
g55
NtRp2813
(dp2814
g58
(dp2815
g66
I3
ssg67
g2809
sg60
(lp2816
S''
asbasbasbag53
(g69
g55
NtRp2817
(dp2818
g58
(dp2819
sg67
g2773
sg60
(lp2820
g53
(g74
g55
NtRp2821
(dp2822
g58
(dp2823
g78
g79
ssg67
g2817
sg60
(lp2824
g309
asbag53
(g74
g55
NtRp2825
(dp2826
g58
(dp2827
g85
g86
ssg67
g2817
sg60
(lp2828
S':'
asbag53
(g74
g55
NtRp2829
(dp2830
g58
(dp2831
sg67
g2817
sg60
(lp2832
g53
(g54
g55
NtRp2833
(dp2834
g58
(dp2835
g66
I3
ssg67
g2829
sg60
(lp2836
S''
asbasbasbag53
(g69
g55
NtRp2837
(dp2838
g58
(dp2839
sg67
g2773
sg60
(lp2840
g53
(g74
g55
NtRp2841
(dp2842
g58
(dp2843
g78
g79
ssg67
g2837
sg60
(lp2844
g330
asbag53
(g74
g55
NtRp2845
(dp2846
g58
(dp2847
g85
g86
ssg67
g2837
sg60
(lp2848
S':'
asbag53
(g74
g55
NtRp2849
(dp2850
g58
(dp2851
sg67
g2837
sg60
(lp2852
g53
(g54
g55
NtRp2853
(dp2854
g58
(dp2855
g66
I3
ssg67
g2849
sg60
(lp2856
S''
asbasbasbag53
(g69
g55
NtRp2857
(dp2858
g58
(dp2859
sg67
g2773
sg60
(lp2860
g53
(g74
g55
NtRp2861
(dp2862
g58
(dp2863
g78
g79
ssg67
g2857
sg60
(lp2864
g351
asbag53
(g74
g55
NtRp2865
(dp2866
g58
(dp2867
g85
g86
ssg67
g2857
sg60
(lp2868
S':'
asbag53
(g74
g55
NtRp2869
(dp2870
g58
(dp2871
sg67
g2857
sg60
(lp2872
g53
(g54
g55
NtRp2873
(dp2874
g58
(dp2875
g66
I3
ssg67
g2869
sg60
(lp2876
S'/'
asbasbasbag53
(g69
g55
NtRp2877
(dp2878
g58
(dp2879
sg67
g2773
sg60
(lp2880
g53
(g74
g55
NtRp2881
(dp2882
g58
(dp2883
g78
g79
ssg67
g2877
sg60
(lp2884
g372
asbag53
(g74
g55
NtRp2885
(dp2886
g58
(dp2887
g85
g86
ssg67
g2877
sg60
(lp2888
S':'
asbag53
(g74
g55
NtRp2889
(dp2890
g58
(dp2891
sg67
g2877
sg60
(lp2892
g53
(g54
g55
NtRp2893
(dp2894
g58
(dp2895
g66
I3
ssg67
g2889
sg60
(lp2896
S''
asbasbasbag53
(g69
g55
NtRp2897
(dp2898
g58
(dp2899
sg67
g2773
sg60
(lp2900
g53
(g74
g55
NtRp2901
(dp2902
g58
(dp2903
g78
g79
ssg67
g2897
sg60
(lp2904
g393
asbag53
(g74
g55
NtRp2905
(dp2906
g58
(dp2907
g85
g86
ssg67
g2897
sg60
(lp2908
S':'
asbag53
(g74
g55
NtRp2909
(dp2910
g58
(dp2911
sg67
g2897
sg60
(lp2912
g53
(g54
g55
NtRp2913
(dp2914
g58
(dp2915
g66
I3
ssg67
g2909
sg60
(lp2916
S''
asbasbasbasbasbasbasbasbasbasbasbag53
(g69
g55
NtRp2917
(dp2918
g58
(dp2919
sg67
g2703
sg60
(lp2920
g53
(g74
g55
NtRp2921
(dp2922
g58
(dp2923
g78
g79
ssg67
g2917
sg60
(lp2924
S'delimiters'
p2925
asbag53
(g74
g55
NtRp2926
(dp2927
g58
(dp2928
g85
g86
ssg67
g2917
sg60
(lp2929
S':'
asbag53
(g74
g55
NtRp2930
(dp2931
g58
(dp2932
sg67
g2917
sg60
(lp2933
g53
(g54
g55
NtRp2934
(dp2935
g58
(dp2936
g66
I5
ssg67
g2930
sg60
(lp2937
g53
(g62
g55
NtRp2938
(dp2939
g58
(dp2940
g66
I4
ssg67
Nsg60
(lp2941
g53
(g69
g55
NtRp2942
(dp2943
g58
(dp2944
sg67
g2938
sg60
(lp2945
g53
(g74
g55
NtRp2946
(dp2947
g58
(dp2948
sg67
g2942
sg60
(lp2949
g53
(g54
g55
NtRp2950
(dp2951
g58
(dp2952
g66
I4
ssg67
g2946
sg60
(lp2953
S'{{'
p2954
asbasbasbag53
(g69
g55
NtRp2955
(dp2956
g58
(dp2957
sg67
g2938
sg60
(lp2958
g53
(g74
g55
NtRp2959
(dp2960
g58
(dp2961
sg67
g2955
sg60
(lp2962
g53
(g54
g55
NtRp2963
(dp2964
g58
(dp2965
g66
I4
ssg67
g2959
sg60
(lp2966
S'}}'
p2967
asbasbasbasbasbasbasbag53
(g69
g55
NtRp2968
(dp2969
g58
(dp2970
sg67
g2703
sg60
(lp2971
g53
(g74
g55
NtRp2972
(dp2973
g58
(dp2974
g78
g79
ssg67
g2968
sg60
(lp2975
S'files'
p2976
asbag53
(g74
g55
NtRp2977
(dp2978
g58
(dp2979
g85
g86
ssg67
g2968
sg60
(lp2980
S':'
asbag53
(g74
g55
NtRp2981
(dp2982
g58
(dp2983
sg67
g2968
sg60
(lp2984
g53
(g54
g55
NtRp2985
(dp2986
g58
(dp2987
g66
I5
ssg67
g2981
sg60
(lp2988
g53
(g62
g55
NtRp2989
(dp2990
g58
(dp2991
g66
I4
ssg67
Nsg60
(lp2992
sbasbasbasbag53
(g69
g55
NtRp2993
(dp2994
g58
(dp2995
sg67
g2703
sg60
(lp2996
g53
(g74
g55
NtRp2997
(dp2998
g58
(dp2999
g78
g79
ssg67
g2993
sg60
(lp3000
S'flash'
p3001
asbag53
(g74
g55
NtRp3002
(dp3003
g58
(dp3004
g85
g86
ssg67
g2993
sg60
(lp3005
S':'
asbag53
(g74
g55
NtRp3006
(dp3007
g58
(dp3008
sg67
g2993
sg60
(lp3009
g53
(g54
g55
NtRp3010
(dp3011
g58
(dp3012
g66
I5
ssg67
g3006
sg60
(lp3013
S''
asbasbasbag53
(g69
g55
NtRp3014
(dp3015
g58
(dp3016
sg67
g2703
sg60
(lp3017
g53
(g74
g55
NtRp3018
(dp3019
g58
(dp3020
g78
g79
ssg67
g3014
sg60
(lp3021
S'generic_patterns'
p3022
asbag53
(g74
g55
NtRp3023
(dp3024
g58
(dp3025
g85
g86
ssg67
g3014
sg60
(lp3026
S':'
asbag53
(g74
g55
NtRp3027
(dp3028
g58
(dp3029
sg67
g3014
sg60
(lp3030
g53
(g54
g55
NtRp3031
(dp3032
g58
(dp3033
g66
I5
ssg67
g3027
sg60
(lp3034
g53
(g62
g55
NtRp3035
(dp3036
g58
(dp3037
g66
I4
ssg67
Nsg60
(lp3038
g53
(g69
g55
NtRp3039
(dp3040
g58
(dp3041
sg67
g3035
sg60
(lp3042
g53
(g74
g55
NtRp3043
(dp3044
g58
(dp3045
sg67
g3039
sg60
(lp3046
g53
(g54
g55
NtRp3047
(dp3048
g58
(dp3049
g66
I4
ssg67
g3043
sg60
(lp3050
S'*'
asbasbasbasbasbasbasbag53
(g69
g55
NtRp3051
(dp3052
g58
(dp3053
sg67
g2703
sg60
(lp3054
g53
(g74
g55
NtRp3055
(dp3056
g58
(dp3057
g78
g79
ssg67
g3051
sg60
(lp3058
S'headers'
p3059
asbag53
(g74
g55
NtRp3060
(dp3061
g58
(dp3062
g85
g86
ssg67
g3051
sg60
(lp3063
S':'
asbag53
(g74
g55
NtRp3064
(dp3065
g58
(dp3066
sg67
g3051
sg60
(lp3067
g53
(g54
g55
NtRp3068
(dp3069
g58
(dp3070
g66
I5
ssg67
g3064
sg60
(lp3071
g53
(g62
g55
NtRp3072
(dp3073
g58
(dp3074
g66
I4
ssg67
Nsg60
(lp3075
g53
(g69
g55
NtRp3076
(dp3077
g58
(dp3078
sg67
g3072
sg60
(lp3079
g53
(g74
g55
NtRp3080
(dp3081
g58
(dp3082
g78
g79
ssg67
g3076
sg60
(lp3083
S'Cache-Control'
p3084
asbag53
(g74
g55
NtRp3085
(dp3086
g58
(dp3087
g85
g86
ssg67
g3076
sg60
(lp3088
S':'
asbag53
(g74
g55
NtRp3089
(dp3090
g58
(dp3091
sg67
g3076
sg60
(lp3092
g53
(g54
g55
NtRp3093
(dp3094
g58
(dp3095
g66
I4
ssg67
g3089
sg60
(lp3096
S'no-store, no-cache, must-revalidate, post-check=0, pre-check=0'
p3097
asbasbasbag53
(g69
g55
NtRp3098
(dp3099
g58
(dp3100
sg67
g3072
sg60
(lp3101
g53
(g74
g55
NtRp3102
(dp3103
g58
(dp3104
g78
g79
ssg67
g3098
sg60
(lp3105
S'Content-Type'
p3106
asbag53
(g74
g55
NtRp3107
(dp3108
g58
(dp3109
g85
g86
ssg67
g3098
sg60
(lp3110
S':'
asbag53
(g74
g55
NtRp3111
(dp3112
g58
(dp3113
sg67
g3098
sg60
(lp3114
g53
(g54
g55
NtRp3115
(dp3116
g58
(dp3117
g66
I4
ssg67
g3111
sg60
(lp3118
S'text/html; charset=utf-8'
p3119
asbasbasbag53
(g69
g55
NtRp3120
(dp3121
g58
(dp3122
sg67
g3072
sg60
(lp3123
g53
(g74
g55
NtRp3124
(dp3125
g58
(dp3126
g78
g79
ssg67
g3120
sg60
(lp3127
S'Expires'
p3128
asbag53
(g74
g55
NtRp3129
(dp3130
g58
(dp3131
g85
g86
ssg67
g3120
sg60
(lp3132
S':'
asbag53
(g74
g55
NtRp3133
(dp3134
g58
(dp3135
sg67
g3120
sg60
(lp3136
g53
(g54
g55
NtRp3137
(dp3138
g58
(dp3139
g66
I4
ssg67
g3133
sg60
(lp3140
S'Thu, 29 Mar 2012 09:14:55 GMT'
p3141
asbasbasbag53
(g69
g55
NtRp3142
(dp3143
g58
(dp3144
sg67
g3072
sg60
(lp3145
g53
(g74
g55
NtRp3146
(dp3147
g58
(dp3148
g78
g79
ssg67
g3142
sg60
(lp3149
S'Pragma'
p3150
asbag53
(g74
g55
NtRp3151
(dp3152
g58
(dp3153
g85
g86
ssg67
g3142
sg60
(lp3154
S':'
asbag53
(g74
g55
NtRp3155
(dp3156
g58
(dp3157
sg67
g3142
sg60
(lp3158
g53
(g54
g55
NtRp3159
(dp3160
g58
(dp3161
g66
I4
ssg67
g3155
sg60
(lp3162
S'no-cache'
p3163
asbasbasbag53
(g69
g55
NtRp3164
(dp3165
g58
(dp3166
sg67
g3072
sg60
(lp3167
g53
(g74
g55
NtRp3168
(dp3169
g58
(dp3170
g78
g79
ssg67
g3164
sg60
(lp3171
S'X-Powered-By'
p3172
asbag53
(g74
g55
NtRp3173
(dp3174
g58
(dp3175
g85
g86
ssg67
g3164
sg60
(lp3176
S':'
asbag53
(g74
g55
NtRp3177
(dp3178
g58
(dp3179
sg67
g3164
sg60
(lp3180
g53
(g54
g55
NtRp3181
(dp3182
g58
(dp3183
g66
I4
ssg67
g3177
sg60
(lp3184
S'web2py'
p3185
asbasbasbasbasbasbasbag53
(g69
g55
NtRp3186
(dp3187
g58
(dp3188
sg67
g2703
sg60
(lp3189
g53
(g74
g55
NtRp3190
(dp3191
g58
(dp3192
g78
g79
ssg67
g3186
sg60
(lp3193
S'menu'
p3194
asbag53
(g74
g55
NtRp3195
(dp3196
g58
(dp3197
g85
g86
ssg67
g3186
sg60
(lp3198
S':'
asbag53
(g74
g55
NtRp3199
(dp3200
g58
(dp3201
sg67
g3186
sg60
(lp3202
g53
(g54
g55
NtRp3203
(dp3204
g58
(dp3205
g66
I5
ssg67
g3199
sg60
(lp3206
g53
(g62
g55
NtRp3207
(dp3208
g58
(dp3209
g66
I4
ssg67
Nsg60
(lp3210
g53
(g69
g55
NtRp3211
(dp3212
g58
(dp3213
sg67
g3207
sg60
(lp3214
g53
(g74
g55
NtRp3215
(dp3216
g58
(dp3217
sg67
g3211
sg60
(lp3218
g53
(g54
g55
NtRp3219
(dp3220
g58
(dp3221
g66
I4
ssg67
g3215
sg60
(lp3222
g53
(g62
g55
NtRp3223
(dp3224
g58
(dp3225
g66
I3
ssg67
Nsg60
(lp3226
g53
(g69
g55
NtRp3227
(dp3228
g58
(dp3229
sg67
g3223
sg60
(lp3230
g53
(g74
g55
NtRp3231
(dp3232
g58
(dp3233
sg67
g3227
sg60
(lp3234
g53
(g54
g55
NtRp3235
(dp3236
g58
(dp3237
g66
I3
ssg67
g3231
sg60
(lp3238
cgluon.languages
lazyT_unpickle
p3239
(S't\x07\x00\x00\x00Accueil'
tRp3240
asbasbasbag53
(g69
g55
NtRp3241
(dp3242
g58
(dp3243
sg67
g3223
sg60
(lp3244
g53
(g74
g55
NtRp3245
(dp3246
g58
(dp3247
sg67
g3241
sg60
(lp3248
g53
(g54
g55
NtRp3249
(dp3250
g58
(dp3251
g66
I3
ssg67
g3245
sg60
(lp3252
g96
asbasbasbag53
(g69
g55
NtRp3253
(dp3254
g58
(dp3255
sg67
g3223
sg60
(lp3256
g53
(g74
g55
NtRp3257
(dp3258
g58
(dp3259
sg67
g3253
sg60
(lp3260
g53
(g54
g55
NtRp3261
(dp3262
g58
(dp3263
g66
I3
ssg67
g3257
sg60
(lp3264
S'/init/default/index'
p3265
asbasbasbag53
(g69
g55
NtRp3266
(dp3267
g58
(dp3268
sg67
g3223
sg60
(lp3269
g53
(g74
g55
NtRp3270
(dp3271
g58
(dp3272
sg67
g3266
sg60
(lp3273
g53
(g54
g55
NtRp3274
(dp3275
g58
(dp3276
g66
I3
ssg67
g3270
sg60
(lp3277
g53
(g62
g55
NtRp3278
(dp3279
g58
(dp3280
g66
I2
ssg67
Nsg60
(lp3281
sbasbasbasbasbasbasbasbag53
(g69
g55
NtRp3282
(dp3283
g58
(dp3284
sg67
g3207
sg60
(lp3285
g53
(g74
g55
NtRp3286
(dp3287
g58
(dp3288
sg67
g3282
sg60
(lp3289
g53
(g54
g55
NtRp3290
(dp3291
g58
(dp3292
g66
I4
ssg67
g3286
sg60
(lp3293
g53
(g62
g55
NtRp3294
(dp3295
g58
(dp3296
g66
I3
ssg67
Nsg60
(lp3297
g53
(g69
g55
NtRp3298
(dp3299
g58
(dp3300
sg67
g3294
sg60
(lp3301
g53
(g74
g55
NtRp3302
(dp3303
g58
(dp3304
sg67
g3298
sg60
(lp3305
g53
(g54
g55
NtRp3306
(dp3307
g58
(dp3308
g66
I3
ssg67
g3302
sg60
(lp3309
g53
(cgluon.html
SPAN
p3310
g55
NtRp3311
(dp3312
g58
(dp3313
g78
S'color:yellow'
p3314
ssg67
Nsg60
(lp3315
g3185
asbasbasbasbag53
(g69
g55
NtRp3316
(dp3317
g58
(dp3318
sg67
g3294
sg60
(lp3319
g53
(g74
g55
NtRp3320
(dp3321
g58
(dp3322
sg67
g3316
sg60
(lp3323
g53
(g54
g55
NtRp3324
(dp3325
g58
(dp3326
g66
I3
ssg67
g3320
sg60
(lp3327
g96
asbasbasbag53
(g69
g55
NtRp3328
(dp3329
g58
(dp3330
sg67
g3294
sg60
(lp3331
g53
(g74
g55
NtRp3332
(dp3333
g58
(dp3334
sg67
g3328
sg60
(lp3335
g53
(g54
g55
NtRp3336
(dp3337
g58
(dp3338
g66
I3
ssg67
g3332
sg60
(lp3339
S'None'
p3340
asbasbasbag53
(g69
g55
NtRp3341
(dp3342
g58
(dp3343
sg67
g3294
sg60
(lp3344
g53
(g74
g55
NtRp3345
(dp3346
g58
(dp3347
sg67
g3341
sg60
(lp3348
g53
(g54
g55
NtRp3349
(dp3350
g58
(dp3351
g66
I3
ssg67
g3345
sg60
(lp3352
g53
(g62
g55
NtRp3353
(dp3354
g58
(dp3355
g66
I2
ssg67
Nsg60
(lp3356
g53
(g69
g55
NtRp3357
(dp3358
g58
(dp3359
sg67
g3353
sg60
(lp3360
g53
(g74
g55
NtRp3361
(dp3362
g58
(dp3363
sg67
g3357
sg60
(lp3364
g53
(g54
g55
NtRp3365
(dp3366
g58
(dp3367
g66
I2
ssg67
g3361
sg60
(lp3368
g53
(g62
g55
NtRp3369
(dp3370
g58
(dp3371
g66
I1
ssg67
Nsg60
(lp3372
g53
(g69
g55
NtRp3373
(dp3374
g58
(dp3375
sg67
g3369
sg60
(lp3376
g53
(g74
g55
NtRp3377
(dp3378
g58
(dp3379
sg67
g3373
sg60
(lp3380
g53
(g54
g55
NtRp3381
(dp3382
g58
(dp3383
g66
I1
ssg67
g3377
sg60
(lp3384
g3239
(S's\x08\x00\x00\x00My Sites'
tRp3385
asbasbasbag53
(g69
g55
NtRp3386
(dp3387
g58
(dp3388
sg67
g3369
sg60
(lp3389
g53
(g74
g55
NtRp3390
(dp3391
g58
(dp3392
sg67
g3386
sg60
(lp3393
g53
(g54
g55
NtRp3394
(dp3395
g58
(dp3396
g66
I1
ssg67
g3390
sg60
(lp3397
I00
asbasbasbag53
(g69
g55
NtRp3398
(dp3399
g58
(dp3400
sg67
g3369
sg60
(lp3401
g53
(g74
g55
NtRp3402
(dp3403
g58
(dp3404
sg67
g3398
sg60
(lp3405
g53
(g54
g55
NtRp3406
(dp3407
g58
(dp3408
g66
I1
ssg67
g3402
sg60
(lp3409
S'/admin/default/site'
p3410
asbasbasbasbasbasbasbag53
(g69
g55
NtRp3411
(dp3412
g58
(dp3413
sg67
g3353
sg60
(lp3414
g53
(g74
g55
NtRp3415
(dp3416
g58
(dp3417
sg67
g3411
sg60
(lp3418
g53
(g54
g55
NtRp3419
(dp3420
g58
(dp3421
g66
I2
ssg67
g3415
sg60
(lp3422
g53
(g62
g55
NtRp3423
(dp3424
g58
(dp3425
g66
I1
ssg67
Nsg60
(lp3426
g53
(g69
g55
NtRp3427
(dp3428
g58
(dp3429
sg67
g3423
sg60
(lp3430
g53
(g74
g55
NtRp3431
(dp3432
g58
(dp3433
sg67
g3427
sg60
(lp3434
g53
(g54
g55
NtRp3435
(dp3436
g58
(dp3437
g66
I1
ssg67
g3431
sg60
(lp3438
g3239
(S's\x0b\x00\x00\x00Cette Appli'
tRp3439
asbasbasbag53
(g69
g55
NtRp3440
(dp3441
g58
(dp3442
sg67
g3423
sg60
(lp3443
g53
(g74
g55
NtRp3444
(dp3445
g58
(dp3446
sg67
g3440
sg60
(lp3447
g53
(g54
g55
NtRp3448
(dp3449
g58
(dp3450
g66
I1
ssg67
g3444
sg60
(lp3451
I00
asbasbasbag53
(g69
g55
NtRp3452
(dp3453
g58
(dp3454
sg67
g3423
sg60
(lp3455
g53
(g74
g55
NtRp3456
(dp3457
g58
(dp3458
sg67
g3452
sg60
(lp3459
g53
(g54
g55
NtRp3460
(dp3461
g58
(dp3462
g66
I1
ssg67
g3456
sg60
(lp3463
S'/admin/default/design/init'
p3464
asbasbasbag53
(g69
g55
NtRp3465
(dp3466
g58
(dp3467
sg67
g3423
sg60
(lp3468
g53
(g74
g55
NtRp3469
(dp3470
g58
(dp3471
sg67
g3465
sg60
(lp3472
g53
(g54
g55
NtRp3473
(dp3474
g58
(dp3475
g66
I1
ssg67
g3469
sg60
(lp3476
(lp3477
(g3239
(S's\x0b\x00\x00\x00Contr\xc3\xb4leur'
tRp3478
I00
S'/admin/default/edit/init/controllers/default.py'
tp3479
a(g3239
(S's\r\x00\x00\x00Pr\xc3\xa9sentation'
tRp3480
I00
S'/admin/default/edit/init/views/default/initdb.html'
tp3481
a(g3239
(S's\x0c\x00\x00\x00Mise en page'
tRp3482
I00
S'/admin/default/edit/init/views/layout.html'
tp3483
a(g3239
(S's\x10\x00\x00\x00Feuille de style'
tRp3484
I00
S'/admin/default/edit/init/static/css/web2py.css'
tp3485
a(g3239
(S's\n\x00\x00\x00Mod\xc3\xa8le DB'
tRp3486
I00
S'/admin/default/edit/init/models/db.py'
tp3487
a(g3239
(S's\x0c\x00\x00\x00Menu mod\xc3\xa8le'
tRp3488
I00
S'/admin/default/edit/init/models/menu.py'
tp3489
a(g3239
(S's\x10\x00\x00\x00Base de donn\xc3\xa9es'
tRp3490
I00
S'/init/appadmin/index'
tp3491
a(g3239
(S't\x07\x00\x00\x00Erreurs'
tRp3492
I00
S'/admin/default/errors/init'
tp3493
a(g3239
(S's\t\x00\x00\x00\xc3\x80 propos'
tRp3494
I00
S'/admin/default/about/init'
tp3495
aasbasbasbasbasbasbasbag53
(g69
g55
NtRp3496
(dp3497
g58
(dp3498
sg67
g3353
sg60
(lp3499
g53
(g74
g55
NtRp3500
(dp3501
g58
(dp3502
sg67
g3496
sg60
(lp3503
g53
(g54
g55
NtRp3504
(dp3505
g58
(dp3506
g66
I2
ssg67
g3500
sg60
(lp3507
g53
(g62
g55
NtRp3508
(dp3509
g58
(dp3510
g66
I1
ssg67
Nsg60
(lp3511
g53
(g69
g55
NtRp3512
(dp3513
g58
(dp3514
sg67
g3508
sg60
(lp3515
g53
(g74
g55
NtRp3516
(dp3517
g58
(dp3518
sg67
g3512
sg60
(lp3519
g53
(g54
g55
NtRp3520
(dp3521
g58
(dp3522
g66
I1
ssg67
g3516
sg60
(lp3523
S'web2py.com'
p3524
asbasbasbag53
(g69
g55
NtRp3525
(dp3526
g58
(dp3527
sg67
g3508
sg60
(lp3528
g53
(g74
g55
NtRp3529
(dp3530
g58
(dp3531
sg67
g3525
sg60
(lp3532
g53
(g54
g55
NtRp3533
(dp3534
g58
(dp3535
g66
I1
ssg67
g3529
sg60
(lp3536
I00
asbasbasbag53
(g69
g55
NtRp3537
(dp3538
g58
(dp3539
sg67
g3508
sg60
(lp3540
g53
(g74
g55
NtRp3541
(dp3542
g58
(dp3543
sg67
g3537
sg60
(lp3544
g53
(g54
g55
NtRp3545
(dp3546
g58
(dp3547
g66
I1
ssg67
g3541
sg60
(lp3548
S'http://www.web2py.com'
p3549
asbasbasbag53
(g69
g55
NtRp3550
(dp3551
g58
(dp3552
sg67
g3508
sg60
(lp3553
g53
(g74
g55
NtRp3554
(dp3555
g58
(dp3556
sg67
g3550
sg60
(lp3557
g53
(g54
g55
NtRp3558
(dp3559
g58
(dp3560
g66
I1
ssg67
g3554
sg60
(lp3561
(lp3562
(g3239
(S's\x10\x00\x00\x00T\xc3\xa9l\xc3\xa9chargement'
tRp3563
I00
S'http://www.web2py.com/examples/default/download'
p3564
tp3565
a(g3239
(S't\x07\x00\x00\x00Support'
tRp3566
I00
S'http://www.web2py.com/examples/default/support'
p3567
tp3568
a(g3239
(S's\x05\x00\x00\x00D\xc3\xa9mo'
tRp3569
I00
S'http://web2py.com/demo_admin'
p3570
tp3571
a(g3239
(S's\x10\x00\x00\x00Examples Rapides'
tRp3572
I00
S'http://web2py.com/examples/default/examples'
p3573
tp3574
a(g3239
(S't\x03\x00\x00\x00FAQ'
tRp3575
I00
S'http://web2py.com/AlterEgo'
p3576
tp3577
a(g3239
(S's\x07\x00\x00\x00Vid\xc3\xa9os'
tRp3578
I00
S'http://www.web2py.com/examples/default/videos/'
p3579
tp3580
a(g3239
(S's\x16\x00\x00\x00Applications gratuites'
tRp3581
I00
S'http://web2py.com/appliances'
p3582
tp3583
a(g3239
(S't\n\x00\x00\x00Plugiciels'
tRp3584
I00
S'http://web2py.com/plugins'
p3585
tp3586
a(g3239
(S't\x07\x00\x00\x00Layouts'
tRp3587
I00
S'http://web2py.com/layouts'
p3588
tp3589
a(g3239
(S't\x08\x00\x00\x00Recettes'
tRp3590
I00
S'http://web2pyslices.com/'
p3591
tp3592
a(g3239
(S's\x0b\x00\x00\x00S\xc3\xa9mantique'
tRp3593
I00
S'http://web2py.com/semantic'
p3594
tp3595
aasbasbasbasbasbasbasbag53
(g69
g55
NtRp3596
(dp3597
g58
(dp3598
sg67
g3353
sg60
(lp3599
g53
(g74
g55
NtRp3600
(dp3601
g58
(dp3602
sg67
g3596
sg60
(lp3603
g53
(g54
g55
NtRp3604
(dp3605
g58
(dp3606
g66
I2
ssg67
g3600
sg60
(lp3607
g53
(g62
g55
NtRp3608
(dp3609
g58
(dp3610
g66
I1
ssg67
Nsg60
(lp3611
g53
(g69
g55
NtRp3612
(dp3613
g58
(dp3614
sg67
g3608
sg60
(lp3615
g53
(g74
g55
NtRp3616
(dp3617
g58
(dp3618
sg67
g3612
sg60
(lp3619
g53
(g54
g55
NtRp3620
(dp3621
g58
(dp3622
g66
I1
ssg67
g3616
sg60
(lp3623
g3239
(S't\r\x00\x00\x00Documentation'
tRp3624
asbasbasbag53
(g69
g55
NtRp3625
(dp3626
g58
(dp3627
sg67
g3608
sg60
(lp3628
g53
(g74
g55
NtRp3629
(dp3630
g58
(dp3631
sg67
g3625
sg60
(lp3632
g53
(g54
g55
NtRp3633
(dp3634
g58
(dp3635
g66
I1
ssg67
g3629
sg60
(lp3636
I00
asbasbasbag53
(g69
g55
NtRp3637
(dp3638
g58
(dp3639
sg67
g3608
sg60
(lp3640
g53
(g74
g55
NtRp3641
(dp3642
g58
(dp3643
sg67
g3637
sg60
(lp3644
g53
(g54
g55
NtRp3645
(dp3646
g58
(dp3647
g66
I1
ssg67
g3641
sg60
(lp3648
S'http://www.web2py.com/book'
p3649
asbasbasbag53
(g69
g55
NtRp3650
(dp3651
g58
(dp3652
sg67
g3608
sg60
(lp3653
g53
(g74
g55
NtRp3654
(dp3655
g58
(dp3656
sg67
g3650
sg60
(lp3657
g53
(g54
g55
NtRp3658
(dp3659
g58
(dp3660
g66
I1
ssg67
g3654
sg60
(lp3661
(lp3662
(g3239
(S's\x08\x00\x00\x00Pr\xc3\xa9face'
tRp3663
I00
S'http://www.web2py.com/book/default/chapter/00'
p3664
tp3665
a(g3239
(S't\x0c\x00\x00\x00Introduction'
tRp3666
I00
S'http://www.web2py.com/book/default/chapter/01'
p3667
tp3668
a(g3239
(S't\x06\x00\x00\x00Python'
tRp3669
I00
S'http://www.web2py.com/book/default/chapter/02'
p3670
tp3671
a(g3239
(S's\r\x00\x00\x00Pr\xc3\xa9sentation'
tRp3672
I00
S'http://www.web2py.com/book/default/chapter/03'
p3673
tp3674
a(g3239
(S's\x08\x00\x00\x00Le noyau'
tRp3675
I00
S'http://www.web2py.com/book/default/chapter/04'
p3676
tp3677
a(g3239
(S's\x08\x00\x00\x00Les Vues'
tRp3678
I00
S'http://www.web2py.com/book/default/chapter/05'
p3679
tp3680
a(g3239
(S's\x10\x00\x00\x00Base de donn\xc3\xa9es'
tRp3681
I00
S'http://www.web2py.com/book/default/chapter/06'
p3682
tp3683
a(g3239
(S's\x1a\x00\x00\x00Formulaires et Validateurs'
tRp3684
I00
S'http://www.web2py.com/book/default/chapter/07'
p3685
tp3686
a(g3239
(S's\r\x00\x00\x00Email and SMS'
tRp3687
I00
S'http://www.web2py.com/book/default/chapter/08'
p3688
tp3689
a(g3239
(S"s\x12\x00\x00\x00Contr\xc3\xb4le d'acc\xc3\xa8s"
tRp3690
I00
S'http://www.web2py.com/book/default/chapter/09'
p3691
tp3692
a(g3239
(S't\x08\x00\x00\x00Services'
tRp3693
I00
S'http://www.web2py.com/book/default/chapter/10'
p3694
tp3695
a(g3239
(S's\r\x00\x00\x00Recettes Ajax'
tRp3696
I00
S'http://www.web2py.com/book/default/chapter/11'
p3697
tp3698
a(g3239
(S's\x16\x00\x00\x00Components and Plugins'
tRp3699
I00
S'http://www.web2py.com/book/default/chapter/12'
p3700
tp3701
a(g3239
(S's\x18\x00\x00\x00Recettes de d\xc3\xa9ploiement'
tRp3702
I00
S'http://www.web2py.com/book/default/chapter/13'
p3703
tp3704
a(g3239
(S's\x0f\x00\x00\x00Autres recettes'
tRp3705
I00
S'http://www.web2py.com/book/default/chapter/14'
p3706
tp3707
a(g3239
(S's\x10\x00\x00\x00Acheter ce livre'
tRp3708
I00
S'http://stores.lulu.com/web2py'
p3709
tp3710
aasbasbasbasbasbasbasbag53
(g69
g55
NtRp3711
(dp3712
g58
(dp3713
sg67
g3353
sg60
(lp3714
g53
(g74
g55
NtRp3715
(dp3716
g58
(dp3717
sg67
g3711
sg60
(lp3718
g53
(g54
g55
NtRp3719
(dp3720
g58
(dp3721
g66
I2
ssg67
g3715
sg60
(lp3722
g53
(g62
g55
NtRp3723
(dp3724
g58
(dp3725
g66
I1
ssg67
Nsg60
(lp3726
g53
(g69
g55
NtRp3727
(dp3728
g58
(dp3729
sg67
g3723
sg60
(lp3730
g53
(g74
g55
NtRp3731
(dp3732
g58
(dp3733
sg67
g3727
sg60
(lp3734
g53
(g54
g55
NtRp3735
(dp3736
g58
(dp3737
g66
I1
ssg67
g3731
sg60
(lp3738
g3239
(S's\x0b\x00\x00\x00Communaut\xc3\xa9'
tRp3739
asbasbasbag53
(g69
g55
NtRp3740
(dp3741
g58
(dp3742
sg67
g3723
sg60
(lp3743
g53
(g74
g55
NtRp3744
(dp3745
g58
(dp3746
sg67
g3740
sg60
(lp3747
g53
(g54
g55
NtRp3748
(dp3749
g58
(dp3750
g66
I1
ssg67
g3744
sg60
(lp3751
I00
asbasbasbag53
(g69
g55
NtRp3752
(dp3753
g58
(dp3754
sg67
g3723
sg60
(lp3755
g53
(g74
g55
NtRp3756
(dp3757
g58
(dp3758
sg67
g3752
sg60
(lp3759
g53
(g54
g55
NtRp3760
(dp3761
g58
(dp3762
g66
I1
ssg67
g3756
sg60
(lp3763
Nasbasbasbag53
(g69
g55
NtRp3764
(dp3765
g58
(dp3766
sg67
g3723
sg60
(lp3767
g53
(g74
g55
NtRp3768
(dp3769
g58
(dp3770
sg67
g3764
sg60
(lp3771
g53
(g54
g55
NtRp3772
(dp3773
g58
(dp3774
g66
I1
ssg67
g3768
sg60
(lp3775
(lp3776
(g3239
(S't\x06\x00\x00\x00Groups'
tRp3777
I00
S'http://www.web2py.com/examples/default/usergroups'
p3778
tp3779
a(g3239
(S't\x07\x00\x00\x00Twitter'
tRp3780
I00
S'http://twitter.com/web2py'
p3781
tp3782
a(g3239
(S's\t\x00\x00\x00Live Chat'
tRp3783
I00
S'http://webchat.freenode.net/?channels=web2py'
p3784
tp3785
aasbasbasbasbasbasbasbag53
(g69
g55
NtRp3786
(dp3787
g58
(dp3788
sg67
g3353
sg60
(lp3789
g53
(g74
g55
NtRp3790
(dp3791
g58
(dp3792
sg67
g3786
sg60
(lp3793
g53
(g54
g55
NtRp3794
(dp3795
g58
(dp3796
g66
I2
ssg67
g3790
sg60
(lp3797
g53
(g62
g55
NtRp3798
(dp3799
g58
(dp3800
g66
I1
ssg67
Nsg60
(lp3801
g53
(g69
g55
NtRp3802
(dp3803
g58
(dp3804
sg67
g3798
sg60
(lp3805
g53
(g74
g55
NtRp3806
(dp3807
g58
(dp3808
sg67
g3802
sg60
(lp3809
g53
(g54
g55
NtRp3810
(dp3811
g58
(dp3812
g66
I1
ssg67
g3806
sg60
(lp3813
g3239
(S't\n\x00\x00\x00Plugiciels'
tRp3814
asbasbasbag53
(g69
g55
NtRp3815
(dp3816
g58
(dp3817
sg67
g3798
sg60
(lp3818
g53
(g74
g55
NtRp3819
(dp3820
g58
(dp3821
sg67
g3815
sg60
(lp3822
g53
(g54
g55
NtRp3823
(dp3824
g58
(dp3825
g66
I1
ssg67
g3819
sg60
(lp3826
I00
asbasbasbag53
(g69
g55
NtRp3827
(dp3828
g58
(dp3829
sg67
g3798
sg60
(lp3830
g53
(g74
g55
NtRp3831
(dp3832
g58
(dp3833
sg67
g3827
sg60
(lp3834
g53
(g54
g55
NtRp3835
(dp3836
g58
(dp3837
g66
I1
ssg67
g3831
sg60
(lp3838
Nasbasbasbag53
(g69
g55
NtRp3839
(dp3840
g58
(dp3841
sg67
g3798
sg60
(lp3842
g53
(g74
g55
NtRp3843
(dp3844
g58
(dp3845
sg67
g3839
sg60
(lp3846
g53
(g54
g55
NtRp3847
(dp3848
g58
(dp3849
g66
I1
ssg67
g3843
sg60
(lp3850
(lp3851
(S'plugin_wiki'
p3852
I00
S'http://web2py.com/examples/default/download'
p3853
tp3854
a(g3239
(S's\r\x00\x00\x00Other Plugins'
tRp3855
I00
g3585
tp3856
a(g3239
(S's\x0e\x00\x00\x00Layout Plugins'
tRp3857
I00
g3588
tp3858
aasbasbasbasbasbasbasbasbasbasbasbasbasbasbasbasbasbasbasbag53
(g69
g55
NtRp3859
(dp3860
g58
(dp3861
sg67
g2703
sg60
(lp3862
g53
(g74
g55
NtRp3863
(dp3864
g58
(dp3865
g78
g79
ssg67
g3859
sg60
(lp3866
S'meta'
p3867
asbag53
(g74
g55
NtRp3868
(dp3869
g58
(dp3870
g85
g86
ssg67
g3859
sg60
(lp3871
S':'
asbag53
(g74
g55
NtRp3872
(dp3873
g58
(dp3874
sg67
g3859
sg60
(lp3875
g53
(g54
g55
NtRp3876
(dp3877
g58
(dp3878
g66
I5
ssg67
g3872
sg60
(lp3879
g53
(g62
g55
NtRp3880
(dp3881
g58
(dp3882
g66
I4
ssg67
Nsg60
(lp3883
g53
(g69
g55
NtRp3884
(dp3885
g58
(dp3886
sg67
g3880
sg60
(lp3887
g53
(g74
g55
NtRp3888
(dp3889
g58
(dp3890
g78
g79
ssg67
g3884
sg60
(lp3891
S'author'
p3892
asbag53
(g74
g55
NtRp3893
(dp3894
g58
(dp3895
g85
g86
ssg67
g3884
sg60
(lp3896
S':'
asbag53
(g74
g55
NtRp3897
(dp3898
g58
(dp3899
sg67
g3884
sg60
(lp3900
g53
(g54
g55
NtRp3901
(dp3902
g58
(dp3903
g66
I4
ssg67
g3897
sg60
(lp3904
S'Your Name <you@example.com>'
p3905
asbasbasbag53
(g69
g55
NtRp3906
(dp3907
g58
(dp3908
sg67
g3880
sg60
(lp3909
g53
(g74
g55
NtRp3910
(dp3911
g58
(dp3912
g78
g79
ssg67
g3906
sg60
(lp3913
S'copyright'
p3914
asbag53
(g74
g55
NtRp3915
(dp3916
g58
(dp3917
g85
g86
ssg67
g3906
sg60
(lp3918
S':'
asbag53
(g74
g55
NtRp3919
(dp3920
g58
(dp3921
sg67
g3906
sg60
(lp3922
g53
(g54
g55
NtRp3923
(dp3924
g58
(dp3925
g66
I4
ssg67
g3919
sg60
(lp3926
S'Copyright 2011'
p3927
asbasbasbag53
(g69
g55
NtRp3928
(dp3929
g58
(dp3930
sg67
g3880
sg60
(lp3931
g53
(g74
g55
NtRp3932
(dp3933
g58
(dp3934
g78
g79
ssg67
g3928
sg60
(lp3935
S'description'
p3936
asbag53
(g74
g55
NtRp3937
(dp3938
g58
(dp3939
g85
g86
ssg67
g3928
sg60
(lp3940
S':'
asbag53
(g74
g55
NtRp3941
(dp3942
g58
(dp3943
sg67
g3928
sg60
(lp3944
g53
(g54
g55
NtRp3945
(dp3946
g58
(dp3947
g66
I4
ssg67
g3941
sg60
(lp3948
S'a cool new app'
p3949
asbasbasbag53
(g69
g55
NtRp3950
(dp3951
g58
(dp3952
sg67
g3880
sg60
(lp3953
g53
(g74
g55
NtRp3954
(dp3955
g58
(dp3956
g78
g79
ssg67
g3950
sg60
(lp3957
S'generator'
p3958
asbag53
(g74
g55
NtRp3959
(dp3960
g58
(dp3961
g85
g86
ssg67
g3950
sg60
(lp3962
S':'
asbag53
(g74
g55
NtRp3963
(dp3964
g58
(dp3965
sg67
g3950
sg60
(lp3966
g53
(g54
g55
NtRp3967
(dp3968
g58
(dp3969
g66
I4
ssg67
g3963
sg60
(lp3970
S'Web2py Web Framework'
p3971
asbasbasbag53
(g69
g55
NtRp3972
(dp3973
g58
(dp3974
sg67
g3880
sg60
(lp3975
g53
(g74
g55
NtRp3976
(dp3977
g58
(dp3978
g78
g79
ssg67
g3972
sg60
(lp3979
S'keywords'
p3980
asbag53
(g74
g55
NtRp3981
(dp3982
g58
(dp3983
g85
g86
ssg67
g3972
sg60
(lp3984
S':'
asbag53
(g74
g55
NtRp3985
(dp3986
g58
(dp3987
sg67
g3972
sg60
(lp3988
g53
(g54
g55
NtRp3989
(dp3990
g58
(dp3991
g66
I4
ssg67
g3985
sg60
(lp3992
S'web2py, python, framework'
p3993
asbasbasbasbasbasbasbag53
(g69
g55
NtRp3994
(dp3995
g58
(dp3996
sg67
g2703
sg60
(lp3997
g53
(g74
g55
NtRp3998
(dp3999
g58
(dp4000
g78
g79
ssg67
g3994
sg60
(lp4001
S'postprocessing'
p4002
asbag53
(g74
g55
NtRp4003
(dp4004
g58
(dp4005
g85
g86
ssg67
g3994
sg60
(lp4006
S':'
asbag53
(g74
g55
NtRp4007
(dp4008
g58
(dp4009
sg67
g3994
sg60
(lp4010
g53
(g54
g55
NtRp4011
(dp4012
g58
(dp4013
g66
I5
ssg67
g4007
sg60
(lp4014
g53
(g62
g55
NtRp4015
(dp4016
g58
(dp4017
g66
I4
ssg67
Nsg60
(lp4018
sbasbasbasbag53
(g69
g55
NtRp4019
(dp4020
g58
(dp4021
sg67
g2703
sg60
(lp4022
g53
(g74
g55
NtRp4023
(dp4024
g58
(dp4025
g78
g79
ssg67
g4019
sg60
(lp4026
S'session_db'
p4027
asbag53
(g74
g55
NtRp4028
(dp4029
g58
(dp4030
g85
g86
ssg67
g4019
sg60
(lp4031
S':'
asbag53
(g74
g55
NtRp4032
(dp4033
g58
(dp4034
sg67
g4019
sg60
(lp4035
g53
(g54
g55
NtRp4036
(dp4037
g58
(dp4038
g66
I5
ssg67
g4032
sg60
(lp4039
g565
asbasbasbag53
(g69
g55
NtRp4040
(dp4041
g58
(dp4042
sg67
g2703
sg60
(lp4043
g53
(g74
g55
NtRp4044
(dp4045
g58
(dp4046
g78
g79
ssg67
g4040
sg60
(lp4047
S'session_id'
p4048
asbag53
(g74
g55
NtRp4049
(dp4050
g58
(dp4051
g85
g86
ssg67
g4040
sg60
(lp4052
S':'
asbag53
(g74
g55
NtRp4053
(dp4054
g58
(dp4055
sg67
g4040
sg60
(lp4056
g53
(g54
g55
NtRp4057
(dp4058
g58
(dp4059
g66
I5
ssg67
g4053
sg60
(lp4060
S'19:a8687721-5787-4713-9329-1674aeb3f1bb'
p4061
asbasbasbag53
(g69
g55
NtRp4062
(dp4063
g58
(dp4064
sg67
g2703
sg60
(lp4065
g53
(g74
g55
NtRp4066
(dp4067
g58
(dp4068
g78
g79
ssg67
g4062
sg60
(lp4069
S'session_id_name'
p4070
asbag53
(g74
g55
NtRp4071
(dp4072
g58
(dp4073
g85
g86
ssg67
g4062
sg60
(lp4074
S':'
asbag53
(g74
g55
NtRp4075
(dp4076
g58
(dp4077
sg67
g4062
sg60
(lp4078
g53
(g54
g55
NtRp4079
(dp4080
g58
(dp4081
g66
I5
ssg67
g4075
sg60
(lp4082
S'session_id_init'
p4083
asbasbasbag53
(g69
g55
NtRp4084
(dp4085
g58
(dp4086
sg67
g2703
sg60
(lp4087
g53
(g74
g55
NtRp4088
(dp4089
g58
(dp4090
g78
g79
ssg67
g4084
sg60
(lp4091
S'status'
p4092
asbag53
(g74
g55
NtRp4093
(dp4094
g58
(dp4095
g85
g86
ssg67
g4084
sg60
(lp4096
S':'
asbag53
(g74
g55
NtRp4097
(dp4098
g58
(dp4099
sg67
g4084
sg60
(lp4100
g53
(g54
g55
NtRp4101
(dp4102
g58
(dp4103
g66
I5
ssg67
g4097
sg60
(lp4104
S'200'
p4105
asbasbasbag53
(g69
g55
NtRp4106
(dp4107
g58
(dp4108
sg67
g2703
sg60
(lp4109
g53
(g74
g55
NtRp4110
(dp4111
g58
(dp4112
g78
g79
ssg67
g4106
sg60
(lp4113
S'subtitle'
p4114
asbag53
(g74
g55
NtRp4115
(dp4116
g58
(dp4117
g85
g86
ssg67
g4106
sg60
(lp4118
S':'
asbag53
(g74
g55
NtRp4119
(dp4120
g58
(dp4121
sg67
g4106
sg60
(lp4122
g53
(g54
g55
NtRp4123
(dp4124
g58
(dp4125
g66
I5
ssg67
g4119
sg60
(lp4126
g3239
(S's\x12\x00\x00\x00personnalisez-moi!'
tRp4127
asbasbasbag53
(g69
g55
NtRp4128
(dp4129
g58
(dp4130
sg67
g2703
sg60
(lp4131
g53
(g74
g55
NtRp4132
(dp4133
g58
(dp4134
g78
g79
ssg67
g4128
sg60
(lp4135
S'title'
p4136
asbag53
(g74
g55
NtRp4137
(dp4138
g58
(dp4139
g85
g86
ssg67
g4128
sg60
(lp4140
S':'
asbag53
(g74
g55
NtRp4141
(dp4142
g58
(dp4143
sg67
g4128
sg60
(lp4144
g53
(g54
g55
NtRp4145
(dp4146
g58
(dp4147
g66
I5
ssg67
g4141
sg60
(lp4148
S'Init'
p4149
asbasbasbag53
(g69
g55
NtRp4150
(dp4151
g58
(dp4152
sg67
g2703
sg60
(lp4153
g53
(g74
g55
NtRp4154
(dp4155
g58
(dp4156
g78
g79
ssg67
g4150
sg60
(lp4157
g1946
asbag53
(g74
g55
NtRp4158
(dp4159
g58
(dp4160
g85
g86
ssg67
g4150
sg60
(lp4161
S':'
asbag53
(g74
g55
NtRp4162
(dp4163
g58
(dp4164
sg67
g4150
sg60
(lp4165
g53
(g54
g55
NtRp4166
(dp4167
g58
(dp4168
g66
I5
ssg67
g4162
sg60
(lp4169
g1959
asbasbasbag53
(g69
g55
NtRp4170
(dp4171
g58
(dp4172
sg67
g2703
sg60
(lp4173
g53
(g74
g55
NtRp4174
(dp4175
g58
(dp4176
g78
g79
ssg67
g4170
sg60
(lp4177
S'view'
p4178
asbag53
(g74
g55
NtRp4179
(dp4180
g58
(dp4181
g85
g86
ssg67
g4170
sg60
(lp4182
S':'
asbag53
(g74
g55
NtRp4183
(dp4184
g58
(dp4185
sg67
g4170
sg60
(lp4186
g53
(g54
g55
NtRp4187
(dp4188
g58
(dp4189
g66
I5
ssg67
g4183
sg60
(lp4190
S'default/initdb.html'
p4191
asbasbasbasbasbsS'locals'
p4192
(dp4193
S'fields'
p4194
S"[(<gluon.dal.Field object at 0x04095C50>, 'bussiere'), (<gluon.dal.Field object at 0x04095BD0>, 'b718cac2c616a8bda72d25a1273e7b36'), (<gluon.dal.Field object at 0x04095FB0>, 'bussiere@gmail.com'), (<gluon.dal.Field object at 0x03F87130>, False), (<gluon.dal.Field object at 0x03F870B0>, ''), (<gluon.dal.Field object at 0x03F871B0>, ''), (<gluon.dal.Field object at 0x03F87030>, '')]"
p4195
sS'self'
p4196
S'<gluon.dal.SQLiteAdapter object at 0x03F6E6B0>'
p4197
sS'e'
S"IntegrityError('column email is not unique',)"
p4198
sS'table'
p4199
S"<Table {'_db': <DAL {'auth_event': <Table {'orig..., '_id': <gluon.dal.Field object at 0x03F871F0>}>"
p4200
sS'query'
p4201
S'"INSERT INTO auth_user(username,password,email,va...25a1273e7b36\',\'bussiere@gmail.com\',\'F\',\'\',\'\',\'\');"'
p4202
sssS'traceback'
p4203
S'Traceback (most recent call last):\n  File "gluon/restricted.py", line 205, in restricted\n  File "C:\\Users\\Bussiere\\Dropbox\\Projets\\jackpoint\\web2py\\applications\\init\\controllers/default.py", line 445, in <module>\n  File "gluon/globals.py", line 173, in <lambda>\n  File "C:\\Users\\Bussiere\\Dropbox\\Projets\\jackpoint\\web2py\\applications\\init\\controllers/default.py", line 261, in initdb\n  File "gluon/dal.py", line 6829, in insert\n  File "gluon/dal.py", line 928, in insert\nIntegrityError: column email is not unique\n'
p4204
s.