(dp1
S'output'
p2
S"<type 'exceptions.SyntaxError'> Set: no tables selected"
p3
sS'layer'
p4
S'C:\\Users\\Bussiere\\Dropbox\\Projets\\jackpoint\\web2py\\applications\\init\\controllers/default.py'
p5
sS'code'
p6
S'\xef\xbb\xbf# -*- coding: utf-8 -*-\n# this file is released under public domain and you can use without limitations\n\n#########################################################################\n## This is a samples controller\n## - index is the default action of any application\n## - user is required for authentication and authorization\n## - download is for downloading files uploaded in the db (does streaming)\n## - call exposes all registered services (none by default)\n#########################################################################\n# Static analyzer import helpers: (STATIC_IMPORT_MARK)\nif 0: \n    import gluon\n    global cache; cache = gluon.cache.Cache()\n    global LOAD; LOAD  = gluon.compileapp.LoadFactory()\n    import gluon.compileapp.local_import_aux as local_import #@UnusedImport\n    from gluon.contrib.gql import GQLDB #@UnusedImport\n    from gluon.dal import Field #@UnusedImport\n    global request; request = gluon.globals.Request()\n    global response; response = gluon.globals.Response()\n    global session; session = gluon.globals.Session()\n    from gluon.html import A #@UnusedImport\n    from gluon.html import B #@UnusedImport\n    from gluon.html import BEAUTIFY #@UnusedImport\n    from gluon.html import BODY #@UnusedImport\n    from gluon.html import BR #@UnusedImport\n    from gluon.html import CENTER #@UnusedImport\n    from gluon.html import CODE #@UnusedImport\n    from gluon.html import DIV #@UnusedImport\n    from gluon.html import EM #@UnusedImport\n    from gluon.html import EMBED #@UnusedImport\n    from gluon.html import embed64 #@UnusedImport\n    from gluon.html import FIELDSET #@UnusedImport\n    from gluon.html import FORM #@UnusedImport\n    from gluon.html import H1 #@UnusedImport\n    from gluon.html import H2 #@UnusedImport\n    from gluon.html import H3 #@UnusedImport\n    from gluon.html import H4 #@UnusedImport\n    from gluon.html import H5 #@UnusedImport\n    from gluon.html import H6 #@UnusedImport\n    from gluon.html import HEAD #@UnusedImport\n    from gluon.html import HR #@UnusedImport\n    from gluon.html import HTML #@UnusedImport\n    from gluon.html import I #@UnusedImport\n    from gluon.html import IFRAME #@UnusedImport\n    from gluon.html import IMG #@UnusedImport\n    from gluon.html import INPUT #@UnusedImport\n    from gluon.html import LABEL #@UnusedImport\n    from gluon.html import LEGEND #@UnusedImport\n    from gluon.html import LI #@UnusedImport\n    from gluon.html import LINK #@UnusedImport\n    from gluon.html import MARKMIN #@UnusedImport\n    from gluon.html import MENU #@UnusedImport\n    from gluon.html import META #@UnusedImport\n    from gluon.html import OBJECT #@UnusedImport\n    from gluon.html import OL #@UnusedImport\n    from gluon.html import ON #@UnusedImport\n    from gluon.html import OPTGROUP #@UnusedImport\n    from gluon.html import OPTION #@UnusedImport\n    from gluon.html import P #@UnusedImport\n    from gluon.html import PRE #@UnusedImport\n    from gluon.html import STYLE #@UnusedImport\n    from gluon.html import SCRIPT #@UnusedImport\n    from gluon.html import SELECT #@UnusedImport\n    from gluon.html import SPAN #@UnusedImport\n    from gluon.html import TABLE #@UnusedImport\n    from gluon.html import TAG #@UnusedImport\n    from gluon.html import TBODY #@UnusedImport\n    from gluon.html import TD #@UnusedImport\n    from gluon.html import TEXTAREA #@UnusedImport\n    from gluon.html import TFOOT #@UnusedImport\n    from gluon.html import TH  #@UnusedImport\n    from gluon.html import THEAD #@UnusedImport\n    from gluon.html import TITLE #@UnusedImport\n    from gluon.html import TR #@UnusedImport\n    from gluon.html import TT #@UnusedImport\n    from gluon.html import UL #@UnusedImport\n    from gluon.html import URL #@UnusedImport\n    from gluon.html import XHTML #@UnusedImport\n    from gluon.html import XML #@UnusedImport\n    from gluon.html import xmlescape #@UnusedImport\n    from gluon.http import HTTP #@UnusedImport\n    from gluon.http import redirect #@UnusedImport\n    import gluon.languages.translator as T #@UnusedImport\n    from gluon.sql import DAL\n    global db; db = DAL()\n    from gluon.sql import SQLDB #@UnusedImport\n    from gluon.sql import SQLField #@UnusedImport\n    from gluon.sqlhtml import SQLFORM #@UnusedImport\n    from gluon.sqlhtml import SQLTABLE #@UnusedImport\n    from gluon.tools import  Auth\n    global auth; auth = Auth()\n    from gluon.tools import Crud\n    global crud; crud = Crud()\n    from gluon.tools import fetch #@UnusedImport\n    from gluon.tools import geocode #@UnusedImport\n    from gluon.tools import Mail\n    global mail; mail = Mail()\n    from gluon.tools import PluginManager\n    global plugins; plugins = PluginManager()\n    from gluon.tools import prettydate #@UnusedImport\n    from gluon.tools import Recaptcha #@UnusedImport\n    from gluon.tools import Service\n    global service; service = Service()\n    from gluon.validators import CLEANUP  #@UnusedImport\n    from gluon.validators import CRYPT #@UnusedImport\n    from gluon.validators import IS_ALPHANUMERIC #@UnusedImport\n    from gluon.validators import IS_DATE #@UnusedImport\n    from gluon.validators import IS_DATE_IN_RANGE #@UnusedImport\n    from gluon.validators import IS_DATETIME #@UnusedImport\n    from gluon.validators import IS_DATETIME_IN_RANGE #@UnusedImport\n    from gluon.validators import IS_DECIMAL_IN_RANGE #@UnusedImport\n    from gluon.validators import IS_EMAIL #@UnusedImport\n    from gluon.validators import IS_EMPTY_OR #@UnusedImport\n    from gluon.validators import IS_EQUAL_TO #@UnusedImport\n    from gluon.validators import IS_EXPR #@UnusedImport\n    from gluon.validators import IS_FLOAT_IN_RANGE #@UnusedImport\n    from gluon.validators import IS_IMAGE #@UnusedImport\n    from gluon.validators import IS_IN_DB #@UnusedImport\n    from gluon.validators import IS_IN_SET #@UnusedImport\n    from gluon.validators import IS_INT_IN_RANGE #@UnusedImport\n    from gluon.validators import IS_IPV4 #@UnusedImport\n    from gluon.validators import IS_LENGTH #@UnusedImport\n    from gluon.validators import IS_LIST_OF #@UnusedImport\n    from gluon.validators import IS_LOWER #@UnusedImport\n    from gluon.validators import IS_MATCH #@UnusedImport\n    from gluon.validators import IS_NOT_EMPTY #@UnusedImport\n    from gluon.validators import IS_NOT_IN_DB #@UnusedImport\n    from gluon.validators import IS_NULL_OR #@UnusedImport\n    from gluon.validators import IS_SLUG #@UnusedImport\n    from gluon.validators import IS_STRONG  #@UnusedImport\n    from gluon.validators import IS_TIME #@UnusedImport\n    from gluon.validators import IS_UPLOAD_FILENAME #@UnusedImport\n    from gluon.validators import IS_UPPER #@UnusedImpor\n\n\nimport random\nfrom uuid import uuid4\nfrom gluon.storage import Storage\nsettings = Storage()\n\n\ndef logout():\n    return auth.logout()\n\n\ndef index():\n    if auth.is_logged_in() :\n        return "You get the blue pills"\n    else :\n        return dict(form=auth.login(),faq=URL(\'faq\'))\n\n\n\ndef ensurefirstuser(Surnom, email, password):\n  users = db(db.auth_user.email == email).select()\n  if users:\n    user_id = users[0].id\n    created = False\n    print (\'found user_id so created equals %s\') % created\n    if settings.debug_ensure_first_user == True:\n      print (\'found user_id so created equals %s\') % created\n    return (user_id, created)\n\n  else:\n    my_crypt = CRYPT(key=auth.settings.hmac_key)\n    crypt_pass = my_crypt(password)[0]    \n    id_user = db.auth_user.insert(\n                   Surnom=Surnom,\n                   email=email,\n                   username=email,\n                   Items = None,\n                   Skills = None,\n                   password=crypt_pass,\n                                   )\n    db.commit()\n    created = True\n    print (\'creating user_id\')\n    if settings.debug_ensure_first_user == True:\n      print (\'creating user_id\')\n    return (id_user, created)\n\n    \n\n\ndef ensure_users():\n  user_id, created = _ensure_user(\'first\', \'last\', \'email@address.com\', \'UserPassword12345\')\n  if settings.debug_ensure_users == True:\n    print (\'user id %i\') % user_id\n    print (\'created %s\') % created\n\ndef ensure_group_role(role, description):\n  if not auth.id_group(role=role):  \n    auth.add_group(role=role, description=description)  \n    if settings.debug_ensure_group_role == True:\n      print (\'created role %s\') % (role)\n\ndef ensure_membership(group_id, user_id):\n  return_group_id = auth.add_membership(role=role, user_id=user_id)\n  if settings.debug_ensure_membership == True:\n    print (\'made user_id member of %s\') % (role)\n  return return_group_id\n \ndef ensure_permissions(role, description, user_id):\n  ensure_group_role(role, description)\n  return_group_id = ensure_membership(group_id, user_id)\n  if settings.debug_ensure_permissions == True:\n    print return_group_id\n\ndef generate_invitation(number,word=4,num=1,numdigit=5):\n    code = [\n[\'BELCHER\', \'FIX\', \'EEL\', \'PANZERBOY\', \'DESK_JOCKEY\', \'CHILLED\', \'ENFORCER\', \'CHERRY_PICKING\', \'COUNTRY_CLUB\', \'BOMBSHELL\', \'PLUGGED_IN\', \'FINI\', \'LEGIT\', \'JAM\', \'BONED_OUT\', \'BLADE\', \'ROUST\', \'SAMURAI\', \'DISK\', \'INPUT\', \'POST_TIME\', \'SOUNDS\', \'SKIP\', \'FLATBACKER\', \'WILSON\', \'SHOEMAKER\', \'DELTA_SIERRA\', \'HEART\', \'CROAK\', \'HEAD_HUNTER\', \'HOSHO_KAISHA\', "DELTA\'D", "\'FACE_(also,_FACE,_EYE-FACE,_I-FACE)", \'WEEFLE\', \'DIRTGIRL\', \'KEYBOARD\', \'BRAIN_BUCKET\', \'DRYING_OUT\', \'OVERCOOK\', \'PIG\', \'COLD_TEA\', \'RECONFIG\', \'PAD\', \'LIT_UP\', \'WRAITH\', \'HANDLE\', \'L.P.\', \'PINCH\', \'TAKE_A_CAB\', \'SPILL\', \'ACE_KOOL\', \'DO\', \'BIZ\', \'BROWNIE\', \'CANDLE_AND_BLOOD\', \'BLUEBOY\', \'UP_ON_IT\', \'BURN\', \'USER_INTERFACE\', \'HOB\', \'GYRO\', \'STUFFIT\', \'THATCH\', \'ICEBREAKER\', \'ZIP_GUN\', \'PETERMAN\', \'PLAY_DOUGH\', \'TREY-EIGHT\', \'SETTLE\', "CHIPPIN\'_IN", \'MEATBALL\', \'RAFFLES\', \'YUBITSUME\', \'CROAKER\', \'SUCKER_POCKETS\', \'L.A.M.A.\', \'GEEK\', \'BUTTONHEAD\'],\n[\'TAKE\', \'TEKIYA\', \'KURUMAKU\', \'BLOC\', \'GAT\', \'JOHATSU\', \'CRYSTAL\', \'A.I.\', \'ZEROED\', \'OVER_THE_SHOULDER\', \'GRAB_GEE\', \'PANZER\', \'GO_LEO\', \'WASHED\', \'I.C.E.\', \'COPSHOP\', \'COLLATERAL_DAMAGE\', \'BIG_DARK\', \'DOUBLE-DEUCE\', \'ZONEDANCE\', \'MARK\', \'COBBERS\', \'CHIMPIRA\', \'TRIADS\', \'SHANK\', \'FRAG\', \'BREATH_VAC\', "CHARLIE\'S_ANGEL", \'MULE\', \'BURNER\', "PACKIN\'", \'HOTDOGGER\', \'BOSOZOKU\', \'RIPPERDOC\', \'THIRDMAN\', \'MAXIMUM,_MAX\', \'CHOOH2_("CHOO")\', \'CRYO_MAX\', \'HEATER\', \'SHARK\', \'JOYGIRL\', \'GURENTAI\', \'BANDIT\', \'VENICE\', \'MIZU_SHOBAI\', \'PASTA_BOYS\', \'SQUID\', \'CYBERED_UP\', \'DEAD_RECKONING\', \'POPSICLE\', \'FAUST\', \'COLLARBOY\', \'SHOES\', \'TORCH\', \'DELTAJOCK\', \'BUTTERFLY_MAN\', \'WISE_GUYS\', \'BOOST\', \'CAIN\', \'FOUR-FIVE\', \'BREAK-DOWN\', \'POLYMER_ONE-SHOT\', \'FLAG\', \'CALL_GIRL\', \'IN_THE_HUNT\', \'HYDRO\', \'DOCK\', \'FENCE\', \'SHAIKUJIN\', \'GOMI\', \'FILTER\', \'SAINT_NICK\', \'LINEFOOT\', \'CAVALRY\', \'PUKE\', \'CONVERSION\', \'FINGER\', \'CONTRACT\'],\n[\'PLASTIC\', \'CRYSTALJOCKEY,_CRYSTALJOCK\', \'SCREW\', \'TOYSTORE\', \'DREAM_TIME\', \'EXOTIC\', \'WALKABOUT\', \'DIAMOND_SEASON\', \'SARAKIN\', \'CHRISTMAS_BUNDLES\', \'SHADES\', \'BUTTON_MAN\', \'FOXTROT_UNIFORM\', \'KAI\', \'UNDER_THE_PAINT\', \'MINIMUM\', \'TRIPLE_A\', \'PIG_ON_A_WHEEL\', \'BAG_MAN\', \'DIP\', \'PIGEONS\', \'MAN\', \'ADAM_HENRY\', \'HIGH\', \'HEAT\', \'NINJO\', \'KNIFE_FIGHT\', \'MOUTHPIECE\', \'AGRIPLEX\', \'DATA_TERM\', \'LIZ\', \'CHROMER\', \'OUTPUT\', \'N.O.E.\', \'CLOSE_A_CONTRACT\', \'LASSIE\', \'FLATLINE\', \'CHIV\', \'SING\', \'AMMO\', \'RAT\', \'MATCHBOX\', \'PULL_AN_ASH\', \'BORYOKUDAN\', \'SQUEEZE\', \'RONIN\', \'HIT\', \'RAGS\', \'TAKE_OUT\', \'BEAT_THE_RAP\', \'GIRI\', \'RUNNING_THE_LINE\', \'HARNESS\', \'GRAVEROBBER\', \'DROP_A_DIME\', \'BADGE_ON_A_BEAVER\', \'FLETCHER\', \'AMPED-OUT\', \'NEUTRALIZE\', \'PETER\', \'CONFIG\', \'HARDFIRE\', \'B.A.M.A.\', \'CHROMATIC_ROCK\', \'MOLDED\', \'RAD\', \'CREASED\', \'CHATTER_BOX\', \'HAND_CANNON\', \'NIPPERS\', \'SIERRA_HOTEL\', \'HOOK_UP\', \'-JOCKEY,_-JOCK\', \'BUG\', \'BATMAN_AND_ROBIN\', \'BLACK_OPERATIONS\', "D.C.\'S", \'SO_KA\'],\n[\'_A.A.A.\', \'HOME_PLATE\', \'LITEJACK\', \'PINEAPPLE\', \'MAKE\', \'THE_STREET\', \'SITREP\', \'HANGING_PAPER\', \'PAINT_BOYS\', \'WETWORK\', \'NINER\', \'BOOKIE\', \'WHIPLASH\', \'TORPEDO\', \'HEATWAVE\', \'SOLAR_WIND\', \'QUIFF\', \'BIKE\', \'TRAFFIC\', \'WIRE_ROOM\', \'OYABUN\', \'COWBOY\', \'KOBUN\', \'MUDBOY\', \'COP_OUT\', \'SOKAIYA\', "\'DORPH", \'JOYBOY\', \'DIRTY\', \'BOAT\', \'DROP\', \'GRAV_or_GEE\', \'APOGEE\', \'BOOSTER\', \'BOOK\', \'FRY\', \'PULLING_TEETH\', \'ONE_LARGE\', \'COMBAT_DRUGS\', \'THRASH\', \'DO_A_GHOST\', \'DELTA\', \'RIN_TIN_TIN\', \'DROP_OUT\', \'GUMI\', \'ROCKERBOY/GIRL\', \'BULLET\', \'DEB\', \'THREADING_THE_NEEDLE\', \'MOTOR\', \'BLEEDER\', \'ARC\', \'BOPPER\', \'WASTE\', \'_DEMUKAI\', \'BREAK\', \'HOLDING_DOWN\', \'FEDS\', \'GAP\', \'RABBI\', \'BAKUTO\', \'CHOMBATTA_(CHOOMBA)\', \'BIG_HATS\', \'MR._JOHNSON\', \'EXEC\', \'BULL\', \'BULLSEYE\', \'POSERGANG\', \'CHAOL\', \'GEISHA\', \'SLAMMIT_ON\', \'POP_CAPS\', \'HARD_TIME\', \'BENJI\', \'MAKING_BANK\', \'PAPERHANGER\', \'NETRUN\', \'BOGEY\'],\n]     \n    i = 0\n    invits = []\n    print number\n    while (i < number):\n        invit = ""\n        j = 0\n        while (j < word):\n            debut = random.randint(0,len(code)-1)\n            codepick = code[debut][random.randint(0,len(code[debut])-1)]\n            j += 1\n            invit += codepick+"-"\n        j = 0\n        while (j < num):\n            invit += randomdig(numdigit)+"-"\n            j += 1\n        i+= 1\n        invit = invit[:-1]\n        if invit not in invits :\n            invits.append(invit[:-1])\n            print invit\n    return invits\n        \ndef randomdig(number):\n    max = "9"*number\n    max = int(max)\n    rand =  random.randint(0,max)\n    rand = str(rand)\n    rand = "0"*(number-len(rand))+rand\n    return rand\n\n@auth.requires_login()\ndef inscriptioninvit():\n    user = auth.environment.session.auth.user\n    caracs = db().select(db.Carac.ALL)\n    form=TABLE(\n        TR(\n            TD(\n                TABLE(\n        TR(\n\n                TD(\n                    LABEL(\'Username : \')\n                    ),\n                TD( \n                    INPUT(_name=\'Username\')\n                    )\n            ),\n    TR(\n        TD(\n            LABEL(\'Email: \')\n            ), \n        TD(\n            INPUT(_name=\'email\',_value=user.email)\n            )\n        ),\n             \n    TR(\n        TD(\n            LABEL(\'Password : \')\n            ), \n        TD(\n            INPUT(_name=\'password1\',_type=\'password\')\n            )\n        ),\n\n     TR(\n        TD(\n            LABEL(\'Password verification : \')\n            ), \n        TD(\n            INPUT(_name=\'password2\',_type=\'password\')\n            )\n        ),\n    \n    \n    )\n                )\n            )\n        )\n            \n\n\n    \n    form.append(TR(LABEL(\'1 = mauvais, 2 = bof, 3 = Moyen,4 = Bon , 5 = Tres Bon\')))\n    for carac in caracs :\n        form.append(\n            TR(\n\n                TD(LABEL(\'%s : \'%carac.Nom)),\n                TD(INPUT(_type=\'radio\',_name=\'%s\'%carac.Nom,_value=\'1\',value=\'1\'),"1 "),\n                TD(INPUT(_type=\'radio\',_name=\'%s\'%carac.Nom,_value=\'2\'),"2 "),\n                TD(INPUT(_type=\'radio\',_name=\'%s\'%carac.Nom,_value=\'3\'),"3 "),\n                TD(INPUT(_type=\'radio\',_name=\'%s\'%carac.Nom,_value=\'4\'),"4 "),\n                TD(INPUT(_type=\'radio\',_name=\'%s\'%carac.Nom,_value=\'5\'),"5        "),\n\n                TD(LABEL(\'Private: \')),\n                TD(INPUT(_type=\'radio\',_name=\'%s_private\'%carac.Nom,_value=\'1\'),"oui "),\n                TD(INPUT(_type=\'radio\',_name=\'%s_private\'%carac.Nom,_value=\'0\',value=\'0\'),"non ")\n                )\n        )\n \n    # form.insert(-1, TR(LABEL(\'titi : \'),INPUT(_name=\'titi\',_value=\'titi\'))\n    # form.insert(-1, TR(LABEL(\'toto : \'),INPUT(_name=\'toto\',_value=\'toto\'))\n\n    form.append(TR(LABEL(\'0 = Inconnu, 1 = mauvais, 2 = bof, 3 = Moyen,4 = Bon , 5 = Moyen\')))\n    \n    #TODO a revoir algo crade :\n    skills1 = db(db.SkillLevel.Level==0).select()\n    skills2 = db(db.SkillLevel.Level==1).select()\n    skills3 = db(db.SkillLevel.Level==2).select()\n    skills4 = db(db.SkillLevel.Level==3).select()\n    skills5 = db(db.SkillLevel.Level==4).select()\n    Listeskill = UL()\n    for skill1 in skills1 :\n        Nom1 = db.Skill(skill1.Skill.id).Nom\n        retour1 = skillstab(Nom1)\n        for skill2 in skills2 :\n            if (skill2.Parent.id == skill1.Skill.id) :\n                Nom2 = db.Skill(skill2.Skill.id).Nom\n                retour2 = skillstab(Nom2)\n                for skill3 in skills3 :\n                    if (skill3.Parent.id == skill2.Skill.id) :\n                        Nom3 = db.Skill(skill3.Skill.id).Nom\n                        retour3 = skillstab(Nom3)\n                        for skill4 in skills4 :\n                            if (skill4.Parent.id == skill3.Skill.id) :\n                                Nom4 = db.Skill(skill4.Skill.id).Nom\n                                retour4 = skillstab(Nom4)\n                                for skill5 in skills5 :\n                                    if (skill5.Parent.id == skill4.Skill.id) :\n                                        Nom5 = db.Skill(skill5.Skill.id).Nom\n                                        retour5 = skillstab(Nom5)\n                                        retour4.append(UL(retour5))\n                                retour3.append(UL(retour4))\n                        retour2.append(UL(retour3))\n                retour1.append(UL(retour2))\n        Listeskill.append(retour1)\n       \n\n\n\n    form.append(TR(Listeskill))\n\n    Items = db(db.Item.ALL).select()\n    for item in Items :\n        form.append(\n            TR(\n                TD(item.Nom),\n                TD(item.Skill),\n                TD(INPUT(_type=\'checkbox\',_name=\'%s\'%item.Nom)), \n                TD(LABEL(\'Private: \')),\n                TD(INPUT(_type=\'radio\',_name=\'%s_private\'%item.Nom,_value=\'1\'),"oui "),\n                TD(INPUT(_type=\'radio\',_name=\'%s_private\'%item.Nom,_value=\'0\',value=\'0\'),"non ")\n            )\n        )\n\n    form.append(TR(INPUT(_type=\'submit\')))\n    form = FORM(TABLE(form)) \n    return dict(form=form)\n\n\ndef skillstab(Nom) :\n    tab =  LI( Nom," : ",TABLE(\n                    TR(\n                TD(INPUT(_type=\'radio\',_name=\'%s\'%Nom,_value=\'0\',value=\'0\'),"0 "),\n                TD(INPUT(_type=\'radio\',_name=\'%s\'%Nom,_value=\'1\'),"1 "),\n                TD(INPUT(_type=\'radio\',_name=\'%s\'%Nom,_value=\'2\'),"2 "),\n                TD(INPUT(_type=\'radio\',_name=\'%s\'%Nom,_value=\'3\'),"3 "),\n                TD(INPUT(_type=\'radio\',_name=\'%s\'%Nom,_value=\'4\'),"4 "),\n                TD(INPUT(_type=\'radio\',_name=\'%s\'%Nom,_value=\'5\'),"5        "),\n\n                TD(LABEL(\'Private: \')),\n                TD(INPUT(_type=\'radio\',_name=\'%s_private\'%Nom,_value=\'1\'),"oui "),\n                TD(INPUT(_type=\'radio\',_name=\'%s_private\'%Nom,_value=\'0\',value=\'0\'),"non ")\n                )\n\n                )\n    )\n    return tab\n\ndef userstuff():\n    return dict(rows1 = db().select(db.Carac.ALL),rows2 = db().select(db.SkillLevel.ALL),rows3 = db().select(db.Item.ALL) )\n\ndef initdbjack():\n    if db(db.auth_user.username == "bussiere").count() == 0:\n            password= "titi" \n            my_crypt = CRYPT(key=auth.settings.hmac_key)\n            crypt_pass = my_crypt(password)[0]  \n            buss = db.auth_user.insert(\n               email= "bussiere2@gmail.com",\n               username="bussiere",\n               password=crypt_pass,\n            )\n            jack = auth.add_group(\'Jack\', \'Jack master of none\')\n            auth.add_membership(jack, buss)\n            db.commit()  \n    db.commit() \n    carac = ["Force","Logique","Volonte","Charisme","Apparence","Dexterite"]\n    skills = { \n    "Physique":{\n                "Sport":{\n                         "Capoeira" :{ \n                                      "bengale":{}\n                                      },\n                        "Karate":{\n                                  "Nord" : {},\n                                  "Sud" : {},\n                                 },\n                         },\n            },\n\n\n    "Technique":{\n                "Mettalerrie" : {\n                                 "Forge" : {},\n                                  \n                                  },\n                 "Couture" : {\n                                  \n                                  },\n                "Conduite" : {\n                                  \n                                  },\n                 \n    },\n\n    "Savoir":{\n              "Informatique" : {\n                                   "Programmation" :{\n                                                     "Python" :{\n                                                                 "Django" : {} ,\n                                                                  "Web2py" : {}\n                                                                },\n                                                     "Methode" :{\n                                                                 "Uml":{},\n                                                                  "Merise": {}\n                                                                },\n                                                     },\n                                   },\n\n            },\n    }\n\n    for c in carac :\n        if db(db.Carac.Nom == c).count() == 0:\n            db.Carac.insert(Nom=c)\n\n    #TODO a revoir tout pourris on peut rien rajouter de nouveau\n    for level1 in skills.keys() :\n        i = 0\n        if db(db.Skill.Nom == level1).count() == 0:\n            Skill1 = db.SkillLevel.insert(Skill = (db.Skill.insert(Nom=level1)),Level = i)\n\n            for level2 in skills[level1].keys() :\n                i = 1\n                if db(db.Skill.Nom == level2).count() == 0:\n                    #Todo\n                    # c\'est crade a revoir :\n                    for row in db((db.Skill.Nom==level1) & (db.Skill.id)).select() :\n                        parent = row.id\n                    #fin du truc a revoir\n                    Skill2 = db.SkillLevel.insert(Skill = (db.Skill.insert(Nom=level2)),Level = i,Parent = parent )\n                    for level3 in skills[level1][level2].keys() :\n                        i = 2\n                        if db(db.Skill.Nom == level3).count() == 0:\n                            #Todo\n                            # c\'est crade a revoir :\n                            for row in db((db.Skill.Nom==level2) & (db.Skill.id)).select() :\n                                parent = row.id\n                            #fin du truc a revoir\n                            Skill3 = db.SkillLevel.insert(Skill = (db.Skill.insert(Nom=level3)),Level = i,Parent = parent)\n                            for level4 in skills[level1][level2][level3].keys() :\n                                i = 3\n                                if db(db.Skill.Nom == level4).count() == 0:\n                                #Todo\n                                # c\'est crade a revoir :\n                                    for row in db((db.Skill.Nom==level3) & (db.Skill.id)).select() :\n                                        parent = row.id\n                                #fin du truc a revoir\n                                    Skill3 = db.SkillLevel.insert(Skill = (db.Skill.insert(Nom=level4)),Level = i,Parent = parent)\n                                    for level5 in skills[level1][level2][level3][level4].keys() :\n                                        i = 4\n                                        if db(db.Skill.Nom == level5).count() == 0:\n                                        #Todo\n                                        # c\'est crade a revoir :\n                                            for row in db((db.Skill.Nom==level4) & (db.Skill.id)).select() :\n                                                parent = row.id\n                                        #fin du truc a revoir\n                                            Skill4 = db.SkillLevel.insert(Skill = (db.Skill.insert(Nom=level5)),Level = i,Parent = parent)\n\n\n\n    Item = {\n    "Machine a Coudre" : "Couture",\n    "Voiture" : "Conduite",\n    "Decoupeuse a plasma" : "Mettalerrie",\n    }\n\n\n    for row in Item.keys() :\n        if db(db.Item.Nom == Item[row]).count() == 0:\n            db.Item.insert(Nom=row,Skill=db.Skill(Nom=Item[row]))                                       \n    db.commit() \n\n\n\n\n\n\n\ndef liste_invitations():\n    return dict(rows = db().select(db.Invitation.ALL))\n\ndef liste_user():\n    return dict(rows = db().select(db.auth_user.ALL))\n\n#@auth.requires_membership(\'manager\')\ndef generate_invitationpage():\n   form=FORM("Nombre d\'invit a generer:", INPUT(_name=\'nmbreinvit\'), INPUT(_type=\'submit\'))\n   if form.process().accepted and form.vars.nmbreinvit != None :\n       i = form.vars.nmbreinvit\n       invitsgenere = generate_invitation(int(i))\n       for invit in invitsgenere :\n           db.Invitation.insert(Code=invit)\n           db.commit()\n       session.flash = \'invitation inserted\'\n       form=FORM("Nombre d\'invit a generer:", INPUT(_name=\'nmbreinvit\'), INPUT(_type=\'submit\'))\n       #db.Invitation.insert(Code="Toto-5542")\n       db.commit()\n   return dict(form=form)\n\ndef verif_invitation(form):\n    print form.vars.invitation\n    if db.Invitation(db.Invitation.Code==form.vars.invitation) == None :\n        form.errors.invitation = \'code invitation incorrect\'\n        print "mauvais"\n    else :\n        print "bon"\n\ndef invitation():\n    form=FORM("Code Invitation :", INPUT(_name=\'invitation\'),"<Email :",INPUT(_name=\'email\'),  INPUT(_type=\'submit\'))\n    if form.process(onvalidation=verif_invitation).accepted and  form.vars.invitation != None  :\n        email = form.vars.email\n        if db(db.auth_user.email == email).count() == 0:\n            password= form.vars.invitation  \n            my_crypt = CRYPT(key=auth.settings.hmac_key)\n            crypt_pass = my_crypt(password)[0]  \n            db.auth_user.insert(\n               email= email,\n               username="John_Doe",\n               password=crypt_pass,\n            )\n            db.commit()  \n            user = db(db.auth_user.email==email).select().first()\n            auth.user = Storage(auth.settings.table_user._filter_fields(user, id=True))\n            auth.environment.session.auth = Storage(user=user, last_visit=request.now,\n                                                expiration=auth.settings.expiration)\n            redirect(URL(\'inscriptioninvit\'))\n    return dict(form=form)\n\ndef faq():\n\n    return dict()\ndef user():\n    """\n    exposes:\n    http://..../[app]/default/user/login\n    http://..../[app]/default/user/logout\n    http://..../[app]/default/user/register\n    http://..../[app]/default/user/profile\n    http://..../[app]/default/user/retrieve_password\n    http://..../[app]/default/user/change_password\n    use @auth.requires_login()\n        @auth.requires_membership(\'group name\')\n        @auth.requires_permission(\'read\',\'table name\',record_id)\n    to decorate functions that need access control\n    """\n    return dict(form=auth())\n\n\ndef download():\n    """\n    allows downloading of uploaded files\n    http://..../[app]/default/download/[filename]\n    """\n    return response.download(request,db)\n\n\ndef call():\n    """\n    exposes services. for example:\n    http://..../[app]/default/call/jsonrpc\n    decorate with @services.jsonrpc the functions to expose\n    supports xml, json, xmlrpc, jsonrpc, amfrpc, rss, csv\n    """\n    return service()\n\n\n@auth.requires_signature()\ndef data():\n    """\n    http://..../[app]/default/data/tables\n    http://..../[app]/default/data/create/[table]\n    http://..../[app]/default/data/read/[table]/[id]\n    http://..../[app]/default/data/update/[table]/[id]\n    http://..../[app]/default/data/delete/[table]/[id]\n    http://..../[app]/default/data/select/[table]\n    http://..../[app]/default/data/search/[table]\n    but URLs must be signed, i.e. linked with\n      A(\'table\',_href=URL(\'data/tables\',user_signature=True))\n    or with the signed load operator\n      LOAD(\'default\',\'data.load\',args=\'tables\',ajax=True,user_signature=True)\n    """\n    return dict(form=crud())\n\nresponse._vars=response._caller(inscriptioninvit)\n'
p7
sS'snapshot'
p8
(dp9
S'exception'
p10
(dp11
S'__getslice__'
p12
S"<method-wrapper '__getslice__' of exceptions.SyntaxError object at 0x0822DEF0>"
p13
sS'text'
p14
S'None'
p15
sS'__str__'
p16
S"<method-wrapper '__str__' of exceptions.SyntaxError object at 0x0822DEF0>"
p17
sS'__reduce__'
p18
S'<built-in method __reduce__ of exceptions.SyntaxError object at 0x0822DEF0>'
p19
sS'__dict__'
p20
S'{}'
p21
sS'__init__'
p22
S"<method-wrapper '__init__' of exceptions.SyntaxError object at 0x0822DEF0>"
p23
sS'__setattr__'
p24
S"<method-wrapper '__setattr__' of exceptions.SyntaxError object at 0x0822DEF0>"
p25
sS'__reduce_ex__'
p26
S'<built-in method __reduce_ex__ of exceptions.SyntaxError object at 0x0822DEF0>'
p27
sS'__new__'
p28
S'<built-in method __new__ of type object at 0x1E1CDBD0>'
p29
sS'__class__'
p30
S"<type 'exceptions.SyntaxError'>"
p31
sS'filename'
p32
S'None'
p33
sS'lineno'
p34
S'None'
p35
sS'msg'
p36
S"'Set: no tables selected'"
p37
sS'__doc__'
p38
S"'Invalid syntax.'"
p39
sS'__getitem__'
p40
S"<method-wrapper '__getitem__' of exceptions.SyntaxError object at 0x0822DEF0>"
p41
sS'__setstate__'
p42
S'<built-in method __setstate__ of exceptions.SyntaxError object at 0x0822DEF0>'
p43
sS'__getattribute__'
p44
S"<method-wrapper '__getattribute__' of exceptions.SyntaxError object at 0x0822DEF0>"
p45
sS'print_file_and_line'
p46
S'None'
p47
sS'args'
p48
S"('Set: no tables selected',)"
p49
sS'offset'
p50
S'None'
p51
sS'__delattr__'
p52
S"<method-wrapper '__delattr__' of exceptions.SyntaxError object at 0x0822DEF0>"
p53
sS'__repr__'
p54
S"<method-wrapper '__repr__' of exceptions.SyntaxError object at 0x0822DEF0>"
p55
sS'__hash__'
p56
S"<method-wrapper '__hash__' of exceptions.SyntaxError object at 0x0822DEF0>"
p57
ssS'evalue'
p58
S'Set: no tables selected'
p59
sS'request'
p60
ccopy_reg
_reconstructor
p61
(cgluon.html
BEAUTIFY
p62
c__builtin__
object
p63
NtRp64
(dp65
S'attributes'
p66
(dp67
sS'components'
p68
(lp69
g61
(cgluon.html
TABLE
p70
g63
NtRp71
(dp72
g66
(dp73
S'level'
p74
I5
ssS'parent'
p75
Nsg68
(lp76
g61
(cgluon.html
TR
p77
g63
NtRp78
(dp79
g66
(dp80
sg75
g71
sg68
(lp81
g61
(cgluon.html
TD
p82
g63
NtRp83
(dp84
g66
(dp85
S'_style'
p86
S'font-weight:bold;vertical-align:top'
p87
ssg75
g78
sg68
(lp88
S'ajax'
p89
asbag61
(g82
g63
NtRp90
(dp91
g66
(dp92
S'_valign'
p93
S'top'
p94
ssg75
g78
sg68
(lp95
S':'
asbag61
(g82
g63
NtRp96
(dp97
g66
(dp98
sg75
g78
sg68
(lp99
g61
(g62
g63
NtRp100
(dp101
g66
(dp102
g74
I5
ssg75
g96
sg68
(lp103
S'False'
p104
asbasbasbag61
(g77
g63
NtRp105
(dp106
g66
(dp107
sg75
g71
sg68
(lp108
g61
(g82
g63
NtRp109
(dp110
g66
(dp111
g86
g87
ssg75
g105
sg68
(lp112
S'application'
p113
asbag61
(g82
g63
NtRp114
(dp115
g66
(dp116
g93
g94
ssg75
g105
sg68
(lp117
S':'
asbag61
(g82
g63
NtRp118
(dp119
g66
(dp120
sg75
g105
sg68
(lp121
g61
(g62
g63
NtRp122
(dp123
g66
(dp124
g74
I5
ssg75
g118
sg68
(lp125
S'init'
p126
asbasbasbag61
(g77
g63
NtRp127
(dp128
g66
(dp129
sg75
g71
sg68
(lp130
g61
(g82
g63
NtRp131
(dp132
g66
(dp133
g86
g87
ssg75
g127
sg68
(lp134
g48
asbag61
(g82
g63
NtRp135
(dp136
g66
(dp137
g93
g94
ssg75
g127
sg68
(lp138
S':'
asbag61
(g82
g63
NtRp139
(dp140
g66
(dp141
sg75
g127
sg68
(lp142
g61
(g62
g63
NtRp143
(dp144
g66
(dp145
g74
I5
ssg75
g139
sg68
(lp146
g61
(g70
g63
NtRp147
(dp148
g66
(dp149
g74
I4
ssg75
Nsg68
(lp150
sbasbasbasbag61
(g77
g63
NtRp151
(dp152
g66
(dp153
sg75
g71
sg68
(lp154
g61
(g82
g63
NtRp155
(dp156
g66
(dp157
g86
g87
ssg75
g151
sg68
(lp158
S'body'
p159
asbag61
(g82
g63
NtRp160
(dp161
g66
(dp162
g93
g94
ssg75
g151
sg68
(lp163
S':'
asbag61
(g82
g63
NtRp164
(dp165
g66
(dp166
sg75
g151
sg68
(lp167
g61
(g62
g63
NtRp168
(dp169
g66
(dp170
g74
I5
ssg75
g164
sg68
(lp171
S'<cStringIO.StringO object at 0x03E53AE0>'
p172
asbasbasbag61
(g77
g63
NtRp173
(dp174
g66
(dp175
sg75
g71
sg68
(lp176
g61
(g82
g63
NtRp177
(dp178
g66
(dp179
g86
g87
ssg75
g173
sg68
(lp180
S'client'
p181
asbag61
(g82
g63
NtRp182
(dp183
g66
(dp184
g93
g94
ssg75
g173
sg68
(lp185
S':'
asbag61
(g82
g63
NtRp186
(dp187
g66
(dp188
sg75
g173
sg68
(lp189
g61
(g62
g63
NtRp190
(dp191
g66
(dp192
g74
I5
ssg75
g186
sg68
(lp193
S'127.0.0.1'
p194
asbasbasbag61
(g77
g63
NtRp195
(dp196
g66
(dp197
sg75
g71
sg68
(lp198
g61
(g82
g63
NtRp199
(dp200
g66
(dp201
g86
g87
ssg75
g195
sg68
(lp202
S'controller'
p203
asbag61
(g82
g63
NtRp204
(dp205
g66
(dp206
g93
g94
ssg75
g195
sg68
(lp207
S':'
asbag61
(g82
g63
NtRp208
(dp209
g66
(dp210
sg75
g195
sg68
(lp211
g61
(g62
g63
NtRp212
(dp213
g66
(dp214
g74
I5
ssg75
g208
sg68
(lp215
S'default'
p216
asbasbasbag61
(g77
g63
NtRp217
(dp218
g66
(dp219
sg75
g71
sg68
(lp220
g61
(g82
g63
NtRp221
(dp222
g66
(dp223
g86
g87
ssg75
g217
sg68
(lp224
S'cookies'
p225
asbag61
(g82
g63
NtRp226
(dp227
g66
(dp228
g93
g94
ssg75
g217
sg68
(lp229
S':'
asbag61
(g82
g63
NtRp230
(dp231
g66
(dp232
sg75
g217
sg68
(lp233
g61
(g62
g63
NtRp234
(dp235
g66
(dp236
g74
I5
ssg75
g230
sg68
(lp237
g61
(g70
g63
NtRp238
(dp239
g66
(dp240
g74
I4
ssg75
Nsg68
(lp241
g61
(g77
g63
NtRp242
(dp243
g66
(dp244
sg75
g238
sg68
(lp245
g61
(g82
g63
NtRp246
(dp247
g66
(dp248
g86
g87
ssg75
g242
sg68
(lp249
S'session_id_admin'
p250
asbag61
(g82
g63
NtRp251
(dp252
g66
(dp253
g93
g94
ssg75
g242
sg68
(lp254
S':'
asbag61
(g82
g63
NtRp255
(dp256
g66
(dp257
sg75
g242
sg68
(lp258
g61
(g62
g63
NtRp259
(dp260
g66
(dp261
g74
I4
ssg75
g255
sg68
(lp262
g61
(g70
g63
NtRp263
(dp264
g66
(dp265
g74
I3
ssg75
Nsg68
(lp266
g61
(g77
g63
NtRp267
(dp268
g66
(dp269
sg75
g263
sg68
(lp270
g61
(g82
g63
NtRp271
(dp272
g66
(dp273
g86
g87
ssg75
g267
sg68
(lp274
S'comment'
p275
asbag61
(g82
g63
NtRp276
(dp277
g66
(dp278
g93
g94
ssg75
g267
sg68
(lp279
S':'
asbag61
(g82
g63
NtRp280
(dp281
g66
(dp282
sg75
g267
sg68
(lp283
g61
(g62
g63
NtRp284
(dp285
g66
(dp286
g74
I3
ssg75
g280
sg68
(lp287
S''
asbasbasbag61
(g77
g63
NtRp288
(dp289
g66
(dp290
sg75
g263
sg68
(lp291
g61
(g82
g63
NtRp292
(dp293
g66
(dp294
g86
g87
ssg75
g288
sg68
(lp295
S'domain'
p296
asbag61
(g82
g63
NtRp297
(dp298
g66
(dp299
g93
g94
ssg75
g288
sg68
(lp300
S':'
asbag61
(g82
g63
NtRp301
(dp302
g66
(dp303
sg75
g288
sg68
(lp304
g61
(g62
g63
NtRp305
(dp306
g66
(dp307
g74
I3
ssg75
g301
sg68
(lp308
S''
asbasbasbag61
(g77
g63
NtRp309
(dp310
g66
(dp311
sg75
g263
sg68
(lp312
g61
(g82
g63
NtRp313
(dp314
g66
(dp315
g86
g87
ssg75
g309
sg68
(lp316
S'expires'
p317
asbag61
(g82
g63
NtRp318
(dp319
g66
(dp320
g93
g94
ssg75
g309
sg68
(lp321
S':'
asbag61
(g82
g63
NtRp322
(dp323
g66
(dp324
sg75
g309
sg68
(lp325
g61
(g62
g63
NtRp326
(dp327
g66
(dp328
g74
I3
ssg75
g322
sg68
(lp329
S''
asbasbasbag61
(g77
g63
NtRp330
(dp331
g66
(dp332
sg75
g263
sg68
(lp333
g61
(g82
g63
NtRp334
(dp335
g66
(dp336
g86
g87
ssg75
g330
sg68
(lp337
S'max-age'
p338
asbag61
(g82
g63
NtRp339
(dp340
g66
(dp341
g93
g94
ssg75
g330
sg68
(lp342
S':'
asbag61
(g82
g63
NtRp343
(dp344
g66
(dp345
sg75
g330
sg68
(lp346
g61
(g62
g63
NtRp347
(dp348
g66
(dp349
g74
I3
ssg75
g343
sg68
(lp350
S''
asbasbasbag61
(g77
g63
NtRp351
(dp352
g66
(dp353
sg75
g263
sg68
(lp354
g61
(g82
g63
NtRp355
(dp356
g66
(dp357
g86
g87
ssg75
g351
sg68
(lp358
S'path'
p359
asbag61
(g82
g63
NtRp360
(dp361
g66
(dp362
g93
g94
ssg75
g351
sg68
(lp363
S':'
asbag61
(g82
g63
NtRp364
(dp365
g66
(dp366
sg75
g351
sg68
(lp367
g61
(g62
g63
NtRp368
(dp369
g66
(dp370
g74
I3
ssg75
g364
sg68
(lp371
S''
asbasbasbag61
(g77
g63
NtRp372
(dp373
g66
(dp374
sg75
g263
sg68
(lp375
g61
(g82
g63
NtRp376
(dp377
g66
(dp378
g86
g87
ssg75
g372
sg68
(lp379
S'secure'
p380
asbag61
(g82
g63
NtRp381
(dp382
g66
(dp383
g93
g94
ssg75
g372
sg68
(lp384
S':'
asbag61
(g82
g63
NtRp385
(dp386
g66
(dp387
sg75
g372
sg68
(lp388
g61
(g62
g63
NtRp389
(dp390
g66
(dp391
g74
I3
ssg75
g385
sg68
(lp392
S''
asbasbasbag61
(g77
g63
NtRp393
(dp394
g66
(dp395
sg75
g263
sg68
(lp396
g61
(g82
g63
NtRp397
(dp398
g66
(dp399
g86
g87
ssg75
g393
sg68
(lp400
S'version'
p401
asbag61
(g82
g63
NtRp402
(dp403
g66
(dp404
g93
g94
ssg75
g393
sg68
(lp405
S':'
asbag61
(g82
g63
NtRp406
(dp407
g66
(dp408
sg75
g393
sg68
(lp409
g61
(g62
g63
NtRp410
(dp411
g66
(dp412
g74
I3
ssg75
g406
sg68
(lp413
S''
asbasbasbasbasbasbasbag61
(g77
g63
NtRp414
(dp415
g66
(dp416
sg75
g238
sg68
(lp417
g61
(g82
g63
NtRp418
(dp419
g66
(dp420
g86
g87
ssg75
g414
sg68
(lp421
S'session_id_init'
p422
asbag61
(g82
g63
NtRp423
(dp424
g66
(dp425
g93
g94
ssg75
g414
sg68
(lp426
S':'
asbag61
(g82
g63
NtRp427
(dp428
g66
(dp429
sg75
g414
sg68
(lp430
g61
(g62
g63
NtRp431
(dp432
g66
(dp433
g74
I4
ssg75
g427
sg68
(lp434
g61
(g70
g63
NtRp435
(dp436
g66
(dp437
g74
I3
ssg75
Nsg68
(lp438
g61
(g77
g63
NtRp439
(dp440
g66
(dp441
sg75
g435
sg68
(lp442
g61
(g82
g63
NtRp443
(dp444
g66
(dp445
g86
g87
ssg75
g439
sg68
(lp446
g275
asbag61
(g82
g63
NtRp447
(dp448
g66
(dp449
g93
g94
ssg75
g439
sg68
(lp450
S':'
asbag61
(g82
g63
NtRp451
(dp452
g66
(dp453
sg75
g439
sg68
(lp454
g61
(g62
g63
NtRp455
(dp456
g66
(dp457
g74
I3
ssg75
g451
sg68
(lp458
S''
asbasbasbag61
(g77
g63
NtRp459
(dp460
g66
(dp461
sg75
g435
sg68
(lp462
g61
(g82
g63
NtRp463
(dp464
g66
(dp465
g86
g87
ssg75
g459
sg68
(lp466
g296
asbag61
(g82
g63
NtRp467
(dp468
g66
(dp469
g93
g94
ssg75
g459
sg68
(lp470
S':'
asbag61
(g82
g63
NtRp471
(dp472
g66
(dp473
sg75
g459
sg68
(lp474
g61
(g62
g63
NtRp475
(dp476
g66
(dp477
g74
I3
ssg75
g471
sg68
(lp478
S''
asbasbasbag61
(g77
g63
NtRp479
(dp480
g66
(dp481
sg75
g435
sg68
(lp482
g61
(g82
g63
NtRp483
(dp484
g66
(dp485
g86
g87
ssg75
g479
sg68
(lp486
g317
asbag61
(g82
g63
NtRp487
(dp488
g66
(dp489
g93
g94
ssg75
g479
sg68
(lp490
S':'
asbag61
(g82
g63
NtRp491
(dp492
g66
(dp493
sg75
g479
sg68
(lp494
g61
(g62
g63
NtRp495
(dp496
g66
(dp497
g74
I3
ssg75
g491
sg68
(lp498
S''
asbasbasbag61
(g77
g63
NtRp499
(dp500
g66
(dp501
sg75
g435
sg68
(lp502
g61
(g82
g63
NtRp503
(dp504
g66
(dp505
g86
g87
ssg75
g499
sg68
(lp506
g338
asbag61
(g82
g63
NtRp507
(dp508
g66
(dp509
g93
g94
ssg75
g499
sg68
(lp510
S':'
asbag61
(g82
g63
NtRp511
(dp512
g66
(dp513
sg75
g499
sg68
(lp514
g61
(g62
g63
NtRp515
(dp516
g66
(dp517
g74
I3
ssg75
g511
sg68
(lp518
S''
asbasbasbag61
(g77
g63
NtRp519
(dp520
g66
(dp521
sg75
g435
sg68
(lp522
g61
(g82
g63
NtRp523
(dp524
g66
(dp525
g86
g87
ssg75
g519
sg68
(lp526
g359
asbag61
(g82
g63
NtRp527
(dp528
g66
(dp529
g93
g94
ssg75
g519
sg68
(lp530
S':'
asbag61
(g82
g63
NtRp531
(dp532
g66
(dp533
sg75
g519
sg68
(lp534
g61
(g62
g63
NtRp535
(dp536
g66
(dp537
g74
I3
ssg75
g531
sg68
(lp538
S''
asbasbasbag61
(g77
g63
NtRp539
(dp540
g66
(dp541
sg75
g435
sg68
(lp542
g61
(g82
g63
NtRp543
(dp544
g66
(dp545
g86
g87
ssg75
g539
sg68
(lp546
g380
asbag61
(g82
g63
NtRp547
(dp548
g66
(dp549
g93
g94
ssg75
g539
sg68
(lp550
S':'
asbag61
(g82
g63
NtRp551
(dp552
g66
(dp553
sg75
g539
sg68
(lp554
g61
(g62
g63
NtRp555
(dp556
g66
(dp557
g74
I3
ssg75
g551
sg68
(lp558
S''
asbasbasbag61
(g77
g63
NtRp559
(dp560
g66
(dp561
sg75
g435
sg68
(lp562
g61
(g82
g63
NtRp563
(dp564
g66
(dp565
g86
g87
ssg75
g559
sg68
(lp566
g401
asbag61
(g82
g63
NtRp567
(dp568
g66
(dp569
g93
g94
ssg75
g559
sg68
(lp570
S':'
asbag61
(g82
g63
NtRp571
(dp572
g66
(dp573
sg75
g559
sg68
(lp574
g61
(g62
g63
NtRp575
(dp576
g66
(dp577
g74
I3
ssg75
g571
sg68
(lp578
S''
asbasbasbasbasbasbasbasbasbasbasbag61
(g77
g63
NtRp579
(dp580
g66
(dp581
sg75
g71
sg68
(lp582
g61
(g82
g63
NtRp583
(dp584
g66
(dp585
g86
g87
ssg75
g579
sg68
(lp586
S'env'
p587
asbag61
(g82
g63
NtRp588
(dp589
g66
(dp590
g93
g94
ssg75
g579
sg68
(lp591
S':'
asbag61
(g82
g63
NtRp592
(dp593
g66
(dp594
sg75
g579
sg68
(lp595
g61
(g62
g63
NtRp596
(dp597
g66
(dp598
g74
I5
ssg75
g592
sg68
(lp599
g61
(g70
g63
NtRp600
(dp601
g66
(dp602
g74
I4
ssg75
Nsg68
(lp603
g61
(g77
g63
NtRp604
(dp605
g66
(dp606
sg75
g600
sg68
(lp607
g61
(g82
g63
NtRp608
(dp609
g66
(dp610
g86
g87
ssg75
g604
sg68
(lp611
S'app_folders'
p612
asbag61
(g82
g63
NtRp613
(dp614
g66
(dp615
g93
g94
ssg75
g604
sg68
(lp616
S':'
asbag61
(g82
g63
NtRp617
(dp618
g66
(dp619
sg75
g604
sg68
(lp620
g61
(g62
g63
NtRp621
(dp622
g66
(dp623
g74
I4
ssg75
g617
sg68
(lp624
S"set(['C:\\\\Users\\\\Bussiere\\\\Dropbox\\\\Projets\\\\jackpoint\\\\web2py\\\\applications\\\\init\\\\', 'C:\\\\Users\\\\Bussiere\\\\Dropbox\\\\Projets\\\\jackpoint\\\\web2py\\\\applications\\\\admin\\\\'])"
p625
asbasbasbag61
(g77
g63
NtRp626
(dp627
g66
(dp628
sg75
g600
sg68
(lp629
g61
(g82
g63
NtRp630
(dp631
g66
(dp632
g86
g87
ssg75
g626
sg68
(lp633
S'applications_parent'
p634
asbag61
(g82
g63
NtRp635
(dp636
g66
(dp637
g93
g94
ssg75
g626
sg68
(lp638
S':'
asbag61
(g82
g63
NtRp639
(dp640
g66
(dp641
sg75
g626
sg68
(lp642
g61
(g62
g63
NtRp643
(dp644
g66
(dp645
g74
I4
ssg75
g639
sg68
(lp646
S'C:\\Users\\Bussiere\\Dropbox\\Projets\\jackpoint\\web2py'
p647
asbasbasbag61
(g77
g63
NtRp648
(dp649
g66
(dp650
sg75
g600
sg68
(lp651
g61
(g82
g63
NtRp652
(dp653
g66
(dp654
g86
g87
ssg75
g648
sg68
(lp655
S'cmd_args'
p656
asbag61
(g82
g63
NtRp657
(dp658
g66
(dp659
g93
g94
ssg75
g648
sg68
(lp660
S':'
asbag61
(g82
g63
NtRp661
(dp662
g66
(dp663
sg75
g648
sg68
(lp664
g61
(g62
g63
NtRp665
(dp666
g66
(dp667
g74
I4
ssg75
g661
sg68
(lp668
g61
(g70
g63
NtRp669
(dp670
g66
(dp671
g74
I3
ssg75
Nsg68
(lp672
sbasbasbasbag61
(g77
g63
NtRp673
(dp674
g66
(dp675
sg75
g600
sg68
(lp676
g61
(g82
g63
NtRp677
(dp678
g66
(dp679
g86
g87
ssg75
g673
sg68
(lp680
S'cmd_options'
p681
asbag61
(g82
g63
NtRp682
(dp683
g66
(dp684
g93
g94
ssg75
g673
sg68
(lp685
S':'
asbag61
(g82
g63
NtRp686
(dp687
g66
(dp688
sg75
g673
sg68
(lp689
g61
(g62
g63
NtRp690
(dp691
g66
(dp692
g74
I4
ssg75
g686
sg68
(lp693
S"<Values at 0x3ca5fa8: {'verbose': False, 'ip': '127.0.0.1', 'shutdown_timeout': 5, 'taskbar': False, 'nocron': False, 'pid_filename': 'httpserver.pid', 'maxthreads': None, 'softcron': False, 'server_name': 'Batou', 'bpython': False, 'nogui': False, 'port': 8000, 'extcron': False, 'debuglevel': 30, 'test': None, 'folder': 'C:\\\\Users\\\\Bussiere\\\\Dropbox\\\\Projets\\\\jackpoint\\\\web2py', 'config': '', 'import_models': False, 'winservice': '', 'shell': None, 'run': '', 'log_filename': 'httpserver.log', 'args': [''], 'socket_timeout': 5, 'ssl_ca_certificate': None, 'scheduler': None, 'profiler_filename': None, 'ssl_private_key': '', 'password': '<ask>', 'request_queue_size': 5, 'ssl_certificate': '', 'cronjob': False, 'numthreads': None, 'quiet': False, 'interfaces': None, 'minthreads': None, 'timeout': 10, 'plain': False, 'nobanner': False}>"
p694
asbasbasbag61
(g77
g63
NtRp695
(dp696
g66
(dp697
sg75
g600
sg68
(lp698
g61
(g82
g63
NtRp699
(dp700
g66
(dp701
g86
g87
ssg75
g695
sg68
(lp702
S'db_sessions'
p703
asbag61
(g82
g63
NtRp704
(dp705
g66
(dp706
g93
g94
ssg75
g695
sg68
(lp707
S':'
asbag61
(g82
g63
NtRp708
(dp709
g66
(dp710
sg75
g695
sg68
(lp711
g61
(g62
g63
NtRp712
(dp713
g66
(dp714
g74
I4
ssg75
g708
sg68
(lp715
S"set(['init'])"
p716
asbasbasbag61
(g77
g63
NtRp717
(dp718
g66
(dp719
sg75
g600
sg68
(lp720
g61
(g82
g63
NtRp721
(dp722
g66
(dp723
g86
g87
ssg75
g717
sg68
(lp724
S'debugging'
p725
asbag61
(g82
g63
NtRp726
(dp727
g66
(dp728
g93
g94
ssg75
g717
sg68
(lp729
S':'
asbag61
(g82
g63
NtRp730
(dp731
g66
(dp732
sg75
g717
sg68
(lp733
g61
(g62
g63
NtRp734
(dp735
g66
(dp736
g74
I4
ssg75
g730
sg68
(lp737
S'True'
p738
asbasbasbag61
(g77
g63
NtRp739
(dp740
g66
(dp741
sg75
g600
sg68
(lp742
g61
(g82
g63
NtRp743
(dp744
g66
(dp745
g86
g87
ssg75
g739
sg68
(lp746
S'gluon_parent'
p747
asbag61
(g82
g63
NtRp748
(dp749
g66
(dp750
g93
g94
ssg75
g739
sg68
(lp751
S':'
asbag61
(g82
g63
NtRp752
(dp753
g66
(dp754
sg75
g739
sg68
(lp755
g61
(g62
g63
NtRp756
(dp757
g66
(dp758
g74
I4
ssg75
g752
sg68
(lp759
S'C:\\Users\\Bussiere\\Dropbox\\Projets\\jackpoint\\web2py'
p760
asbasbasbag61
(g77
g63
NtRp761
(dp762
g66
(dp763
sg75
g600
sg68
(lp764
g61
(g82
g63
NtRp765
(dp766
g66
(dp767
g86
g87
ssg75
g761
sg68
(lp768
S'http_accept'
p769
asbag61
(g82
g63
NtRp770
(dp771
g66
(dp772
g93
g94
ssg75
g761
sg68
(lp773
S':'
asbag61
(g82
g63
NtRp774
(dp775
g66
(dp776
sg75
g761
sg68
(lp777
g61
(g62
g63
NtRp778
(dp779
g66
(dp780
g74
I4
ssg75
g774
sg68
(lp781
S'text/html,application/xhtml+xml,application/xml;q=0.9,*/*;q=0.8'
p782
asbasbasbag61
(g77
g63
NtRp783
(dp784
g66
(dp785
sg75
g600
sg68
(lp786
g61
(g82
g63
NtRp787
(dp788
g66
(dp789
g86
g87
ssg75
g783
sg68
(lp790
S'http_accept_charset'
p791
asbag61
(g82
g63
NtRp792
(dp793
g66
(dp794
g93
g94
ssg75
g783
sg68
(lp795
S':'
asbag61
(g82
g63
NtRp796
(dp797
g66
(dp798
sg75
g783
sg68
(lp799
g61
(g62
g63
NtRp800
(dp801
g66
(dp802
g74
I4
ssg75
g796
sg68
(lp803
S'ISO-8859-1,utf-8;q=0.7,*;q=0.3'
p804
asbasbasbag61
(g77
g63
NtRp805
(dp806
g66
(dp807
sg75
g600
sg68
(lp808
g61
(g82
g63
NtRp809
(dp810
g66
(dp811
g86
g87
ssg75
g805
sg68
(lp812
S'http_accept_encoding'
p813
asbag61
(g82
g63
NtRp814
(dp815
g66
(dp816
g93
g94
ssg75
g805
sg68
(lp817
S':'
asbag61
(g82
g63
NtRp818
(dp819
g66
(dp820
sg75
g805
sg68
(lp821
g61
(g62
g63
NtRp822
(dp823
g66
(dp824
g74
I4
ssg75
g818
sg68
(lp825
S'gzip,deflate,sdch'
p826
asbasbasbag61
(g77
g63
NtRp827
(dp828
g66
(dp829
sg75
g600
sg68
(lp830
g61
(g82
g63
NtRp831
(dp832
g66
(dp833
g86
g87
ssg75
g827
sg68
(lp834
S'http_accept_language'
p835
asbag61
(g82
g63
NtRp836
(dp837
g66
(dp838
g93
g94
ssg75
g827
sg68
(lp839
S':'
asbag61
(g82
g63
NtRp840
(dp841
g66
(dp842
sg75
g827
sg68
(lp843
g61
(g62
g63
NtRp844
(dp845
g66
(dp846
g74
I4
ssg75
g840
sg68
(lp847
S'en-US,en;q=0.8'
p848
asbasbasbag61
(g77
g63
NtRp849
(dp850
g66
(dp851
sg75
g600
sg68
(lp852
g61
(g82
g63
NtRp853
(dp854
g66
(dp855
g86
g87
ssg75
g849
sg68
(lp856
S'http_cache_control'
p857
asbag61
(g82
g63
NtRp858
(dp859
g66
(dp860
g93
g94
ssg75
g849
sg68
(lp861
S':'
asbag61
(g82
g63
NtRp862
(dp863
g66
(dp864
sg75
g849
sg68
(lp865
g61
(g62
g63
NtRp866
(dp867
g66
(dp868
g74
I4
ssg75
g862
sg68
(lp869
S'max-age=0'
p870
asbasbasbag61
(g77
g63
NtRp871
(dp872
g66
(dp873
sg75
g600
sg68
(lp874
g61
(g82
g63
NtRp875
(dp876
g66
(dp877
g86
g87
ssg75
g871
sg68
(lp878
S'http_connection'
p879
asbag61
(g82
g63
NtRp880
(dp881
g66
(dp882
g93
g94
ssg75
g871
sg68
(lp883
S':'
asbag61
(g82
g63
NtRp884
(dp885
g66
(dp886
sg75
g871
sg68
(lp887
g61
(g62
g63
NtRp888
(dp889
g66
(dp890
g74
I4
ssg75
g884
sg68
(lp891
S'keep-alive'
p892
asbasbasbag61
(g77
g63
NtRp893
(dp894
g66
(dp895
sg75
g600
sg68
(lp896
g61
(g82
g63
NtRp897
(dp898
g66
(dp899
g86
g87
ssg75
g893
sg68
(lp900
S'http_cookie'
p901
asbag61
(g82
g63
NtRp902
(dp903
g66
(dp904
g93
g94
ssg75
g893
sg68
(lp905
S':'
asbag61
(g82
g63
NtRp906
(dp907
g66
(dp908
sg75
g893
sg68
(lp909
g61
(g62
g63
NtRp910
(dp911
g66
(dp912
g74
I4
ssg75
g906
sg68
(lp913
S'session_id_init="22:916ef1c2-7902-46d9-bbc5-80f0afcec41d"; session_id_admin=127.0.0.1-0bfa24bd-fd8c-4100-9bfe-4a468b383bac'
p914
asbasbasbag61
(g77
g63
NtRp915
(dp916
g66
(dp917
sg75
g600
sg68
(lp918
g61
(g82
g63
NtRp919
(dp920
g66
(dp921
g86
g87
ssg75
g915
sg68
(lp922
S'http_host'
p923
asbag61
(g82
g63
NtRp924
(dp925
g66
(dp926
g93
g94
ssg75
g915
sg68
(lp927
S':'
asbag61
(g82
g63
NtRp928
(dp929
g66
(dp930
sg75
g915
sg68
(lp931
g61
(g62
g63
NtRp932
(dp933
g66
(dp934
g74
I4
ssg75
g928
sg68
(lp935
S'localhost:8000'
p936
asbasbasbag61
(g77
g63
NtRp937
(dp938
g66
(dp939
sg75
g600
sg68
(lp940
g61
(g82
g63
NtRp941
(dp942
g66
(dp943
g86
g87
ssg75
g937
sg68
(lp944
S'http_referer'
p945
asbag61
(g82
g63
NtRp946
(dp947
g66
(dp948
g93
g94
ssg75
g937
sg68
(lp949
S':'
asbag61
(g82
g63
NtRp950
(dp951
g66
(dp952
sg75
g937
sg68
(lp953
g61
(g62
g63
NtRp954
(dp955
g66
(dp956
g74
I4
ssg75
g950
sg68
(lp957
S'http://localhost:8000/init/default/invitation'
p958
asbasbasbag61
(g77
g63
NtRp959
(dp960
g66
(dp961
sg75
g600
sg68
(lp962
g61
(g82
g63
NtRp963
(dp964
g66
(dp965
g86
g87
ssg75
g959
sg68
(lp966
S'http_user_agent'
p967
asbag61
(g82
g63
NtRp968
(dp969
g66
(dp970
g93
g94
ssg75
g959
sg68
(lp971
S':'
asbag61
(g82
g63
NtRp972
(dp973
g66
(dp974
sg75
g959
sg68
(lp975
g61
(g62
g63
NtRp976
(dp977
g66
(dp978
g74
I4
ssg75
g972
sg68
(lp979
S'Mozilla/5.0 (Windows NT 6.1; WOW64) AppleWebKit/535.18 (KHTML, like Gecko) Chrome/18.0.1011.0 Safari/535.18'
p980
asbasbasbag61
(g77
g63
NtRp981
(dp982
g66
(dp983
sg75
g600
sg68
(lp984
g61
(g82
g63
NtRp985
(dp986
g66
(dp987
g86
g87
ssg75
g981
sg68
(lp988
S'is_jython'
p989
asbag61
(g82
g63
NtRp990
(dp991
g66
(dp992
g93
g94
ssg75
g981
sg68
(lp993
S':'
asbag61
(g82
g63
NtRp994
(dp995
g66
(dp996
sg75
g981
sg68
(lp997
g61
(g62
g63
NtRp998
(dp999
g66
(dp1000
g74
I4
ssg75
g994
sg68
(lp1001
g104
asbasbasbag61
(g77
g63
NtRp1002
(dp1003
g66
(dp1004
sg75
g600
sg68
(lp1005
g61
(g82
g63
NtRp1006
(dp1007
g66
(dp1008
g86
g87
ssg75
g1002
sg68
(lp1009
S'is_pypy'
p1010
asbag61
(g82
g63
NtRp1011
(dp1012
g66
(dp1013
g93
g94
ssg75
g1002
sg68
(lp1014
S':'
asbag61
(g82
g63
NtRp1015
(dp1016
g66
(dp1017
sg75
g1002
sg68
(lp1018
g61
(g62
g63
NtRp1019
(dp1020
g66
(dp1021
g74
I4
ssg75
g1015
sg68
(lp1022
g104
asbasbasbag61
(g77
g63
NtRp1023
(dp1024
g66
(dp1025
sg75
g600
sg68
(lp1026
g61
(g82
g63
NtRp1027
(dp1028
g66
(dp1029
g86
g87
ssg75
g1023
sg68
(lp1030
S'path_info'
p1031
asbag61
(g82
g63
NtRp1032
(dp1033
g66
(dp1034
g93
g94
ssg75
g1023
sg68
(lp1035
S':'
asbag61
(g82
g63
NtRp1036
(dp1037
g66
(dp1038
sg75
g1023
sg68
(lp1039
g61
(g62
g63
NtRp1040
(dp1041
g66
(dp1042
g74
I4
ssg75
g1036
sg68
(lp1043
S'/init/default/inscriptioninvit'
p1044
asbasbasbag61
(g77
g63
NtRp1045
(dp1046
g66
(dp1047
sg75
g600
sg68
(lp1048
g61
(g82
g63
NtRp1049
(dp1050
g66
(dp1051
g86
g87
ssg75
g1045
sg68
(lp1052
S'query_string'
p1053
asbag61
(g82
g63
NtRp1054
(dp1055
g66
(dp1056
g93
g94
ssg75
g1045
sg68
(lp1057
S':'
asbag61
(g82
g63
NtRp1058
(dp1059
g66
(dp1060
sg75
g1045
sg68
(lp1061
g61
(g62
g63
NtRp1062
(dp1063
g66
(dp1064
g74
I4
ssg75
g1058
sg68
(lp1065
S''
asbasbasbag61
(g77
g63
NtRp1066
(dp1067
g66
(dp1068
sg75
g600
sg68
(lp1069
g61
(g82
g63
NtRp1070
(dp1071
g66
(dp1072
g86
g87
ssg75
g1066
sg68
(lp1073
S'remote_addr'
p1074
asbag61
(g82
g63
NtRp1075
(dp1076
g66
(dp1077
g93
g94
ssg75
g1066
sg68
(lp1078
S':'
asbag61
(g82
g63
NtRp1079
(dp1080
g66
(dp1081
sg75
g1066
sg68
(lp1082
g61
(g62
g63
NtRp1083
(dp1084
g66
(dp1085
g74
I4
ssg75
g1079
sg68
(lp1086
g194
asbasbasbag61
(g77
g63
NtRp1087
(dp1088
g66
(dp1089
sg75
g600
sg68
(lp1090
g61
(g82
g63
NtRp1091
(dp1092
g66
(dp1093
g86
g87
ssg75
g1087
sg68
(lp1094
S'remote_port'
p1095
asbag61
(g82
g63
NtRp1096
(dp1097
g66
(dp1098
g93
g94
ssg75
g1087
sg68
(lp1099
S':'
asbag61
(g82
g63
NtRp1100
(dp1101
g66
(dp1102
sg75
g1087
sg68
(lp1103
g61
(g62
g63
NtRp1104
(dp1105
g66
(dp1106
g74
I4
ssg75
g1100
sg68
(lp1107
S'57087'
p1108
asbasbasbag61
(g77
g63
NtRp1109
(dp1110
g66
(dp1111
sg75
g600
sg68
(lp1112
g61
(g82
g63
NtRp1113
(dp1114
g66
(dp1115
g86
g87
ssg75
g1109
sg68
(lp1116
S'request_method'
p1117
asbag61
(g82
g63
NtRp1118
(dp1119
g66
(dp1120
g93
g94
ssg75
g1109
sg68
(lp1121
S':'
asbag61
(g82
g63
NtRp1122
(dp1123
g66
(dp1124
sg75
g1109
sg68
(lp1125
g61
(g62
g63
NtRp1126
(dp1127
g66
(dp1128
g74
I4
ssg75
g1122
sg68
(lp1129
S'GET'
p1130
asbasbasbag61
(g77
g63
NtRp1131
(dp1132
g66
(dp1133
sg75
g600
sg68
(lp1134
g61
(g82
g63
NtRp1135
(dp1136
g66
(dp1137
g86
g87
ssg75
g1131
sg68
(lp1138
S'script_name'
p1139
asbag61
(g82
g63
NtRp1140
(dp1141
g66
(dp1142
g93
g94
ssg75
g1131
sg68
(lp1143
S':'
asbag61
(g82
g63
NtRp1144
(dp1145
g66
(dp1146
sg75
g1131
sg68
(lp1147
g61
(g62
g63
NtRp1148
(dp1149
g66
(dp1150
g74
I4
ssg75
g1144
sg68
(lp1151
S''
asbasbasbag61
(g77
g63
NtRp1152
(dp1153
g66
(dp1154
sg75
g600
sg68
(lp1155
g61
(g82
g63
NtRp1156
(dp1157
g66
(dp1158
g86
g87
ssg75
g1152
sg68
(lp1159
S'server_name'
p1160
asbag61
(g82
g63
NtRp1161
(dp1162
g66
(dp1163
g93
g94
ssg75
g1152
sg68
(lp1164
S':'
asbag61
(g82
g63
NtRp1165
(dp1166
g66
(dp1167
sg75
g1152
sg68
(lp1168
g61
(g62
g63
NtRp1169
(dp1170
g66
(dp1171
g74
I4
ssg75
g1165
sg68
(lp1172
S'Batou'
p1173
asbasbasbag61
(g77
g63
NtRp1174
(dp1175
g66
(dp1176
sg75
g600
sg68
(lp1177
g61
(g82
g63
NtRp1178
(dp1179
g66
(dp1180
g86
g87
ssg75
g1174
sg68
(lp1181
S'server_port'
p1182
asbag61
(g82
g63
NtRp1183
(dp1184
g66
(dp1185
g93
g94
ssg75
g1174
sg68
(lp1186
S':'
asbag61
(g82
g63
NtRp1187
(dp1188
g66
(dp1189
sg75
g1174
sg68
(lp1190
g61
(g62
g63
NtRp1191
(dp1192
g66
(dp1193
g74
I4
ssg75
g1187
sg68
(lp1194
S'8000'
p1195
asbasbasbag61
(g77
g63
NtRp1196
(dp1197
g66
(dp1198
sg75
g600
sg68
(lp1199
g61
(g82
g63
NtRp1200
(dp1201
g66
(dp1202
g86
g87
ssg75
g1196
sg68
(lp1203
S'server_protocol'
p1204
asbag61
(g82
g63
NtRp1205
(dp1206
g66
(dp1207
g93
g94
ssg75
g1196
sg68
(lp1208
S':'
asbag61
(g82
g63
NtRp1209
(dp1210
g66
(dp1211
sg75
g1196
sg68
(lp1212
g61
(g62
g63
NtRp1213
(dp1214
g66
(dp1215
g74
I4
ssg75
g1209
sg68
(lp1216
S'HTTP/1.1'
p1217
asbasbasbag61
(g77
g63
NtRp1218
(dp1219
g66
(dp1220
sg75
g600
sg68
(lp1221
g61
(g82
g63
NtRp1222
(dp1223
g66
(dp1224
g86
g87
ssg75
g1218
sg68
(lp1225
S'server_software'
p1226
asbag61
(g82
g63
NtRp1227
(dp1228
g66
(dp1229
g93
g94
ssg75
g1218
sg68
(lp1230
S':'
asbag61
(g82
g63
NtRp1231
(dp1232
g66
(dp1233
sg75
g1218
sg68
(lp1234
g61
(g62
g63
NtRp1235
(dp1236
g66
(dp1237
g74
I4
ssg75
g1231
sg68
(lp1238
S'Rocket 1.2.4'
p1239
asbasbasbag61
(g77
g63
NtRp1240
(dp1241
g66
(dp1242
sg75
g600
sg68
(lp1243
g61
(g82
g63
NtRp1244
(dp1245
g66
(dp1246
g86
g87
ssg75
g1240
sg68
(lp1247
S'web2py_crontype'
p1248
asbag61
(g82
g63
NtRp1249
(dp1250
g66
(dp1251
g93
g94
ssg75
g1240
sg68
(lp1252
S':'
asbag61
(g82
g63
NtRp1253
(dp1254
g66
(dp1255
sg75
g1240
sg68
(lp1256
g61
(g62
g63
NtRp1257
(dp1258
g66
(dp1259
g74
I4
ssg75
g1253
sg68
(lp1260
S'hard'
p1261
asbasbasbag61
(g77
g63
NtRp1262
(dp1263
g66
(dp1264
sg75
g600
sg68
(lp1265
g61
(g82
g63
NtRp1266
(dp1267
g66
(dp1268
g86
g87
ssg75
g1262
sg68
(lp1269
S'web2py_path'
p1270
asbag61
(g82
g63
NtRp1271
(dp1272
g66
(dp1273
g93
g94
ssg75
g1262
sg68
(lp1274
S':'
asbag61
(g82
g63
NtRp1275
(dp1276
g66
(dp1277
sg75
g1262
sg68
(lp1278
g61
(g62
g63
NtRp1279
(dp1280
g66
(dp1281
g74
I4
ssg75
g1275
sg68
(lp1282
g647
asbasbasbag61
(g77
g63
NtRp1283
(dp1284
g66
(dp1285
sg75
g600
sg68
(lp1286
g61
(g82
g63
NtRp1287
(dp1288
g66
(dp1289
g86
g87
ssg75
g1283
sg68
(lp1290
S'web2py_version'
p1291
asbag61
(g82
g63
NtRp1292
(dp1293
g66
(dp1294
g93
g94
ssg75
g1283
sg68
(lp1295
S':'
asbag61
(g82
g63
NtRp1296
(dp1297
g66
(dp1298
sg75
g1283
sg68
(lp1299
g61
(g62
g63
NtRp1300
(dp1301
g66
(dp1302
g74
I4
ssg75
g1296
sg68
(lp1303
g61
(g70
g63
NtRp1304
(dp1305
g66
(dp1306
g74
I3
ssg75
Nsg68
(lp1307
g61
(g77
g63
NtRp1308
(dp1309
g66
(dp1310
sg75
g1304
sg68
(lp1311
g61
(g82
g63
NtRp1312
(dp1313
g66
(dp1314
sg75
g1308
sg68
(lp1315
g61
(g62
g63
NtRp1316
(dp1317
g66
(dp1318
g74
I3
ssg75
g1312
sg68
(lp1319
S'1'
asbasbasbag61
(g77
g63
NtRp1320
(dp1321
g66
(dp1322
sg75
g1304
sg68
(lp1323
g61
(g82
g63
NtRp1324
(dp1325
g66
(dp1326
sg75
g1320
sg68
(lp1327
g61
(g62
g63
NtRp1328
(dp1329
g66
(dp1330
g74
I3
ssg75
g1324
sg68
(lp1331
S'99'
p1332
asbasbasbag61
(g77
g63
NtRp1333
(dp1334
g66
(dp1335
sg75
g1304
sg68
(lp1336
g61
(g82
g63
NtRp1337
(dp1338
g66
(dp1339
sg75
g1333
sg68
(lp1340
g61
(g62
g63
NtRp1341
(dp1342
g66
(dp1343
g74
I3
ssg75
g1337
sg68
(lp1344
S'7'
asbasbasbag61
(g77
g63
NtRp1345
(dp1346
g66
(dp1347
sg75
g1304
sg68
(lp1348
g61
(g82
g63
NtRp1349
(dp1350
g66
(dp1351
sg75
g1345
sg68
(lp1352
g61
(g62
g63
NtRp1353
(dp1354
g66
(dp1355
g74
I3
ssg75
g1349
sg68
(lp1356
S'datetime.datetime(2012, 3, 4, 22, 12, 8)'
p1357
asbasbasbag61
(g77
g63
NtRp1358
(dp1359
g66
(dp1360
sg75
g1304
sg68
(lp1361
g61
(g82
g63
NtRp1362
(dp1363
g66
(dp1364
sg75
g1358
sg68
(lp1365
g61
(g62
g63
NtRp1366
(dp1367
g66
(dp1368
g74
I3
ssg75
g1362
sg68
(lp1369
S'stable'
p1370
asbasbasbasbasbasbasbag61
(g77
g63
NtRp1371
(dp1372
g66
(dp1373
sg75
g600
sg68
(lp1374
g61
(g82
g63
NtRp1375
(dp1376
g66
(dp1377
g86
g87
ssg75
g1371
sg68
(lp1378
S'wsgi_errors'
p1379
asbag61
(g82
g63
NtRp1380
(dp1381
g66
(dp1382
g93
g94
ssg75
g1371
sg68
(lp1383
S':'
asbag61
(g82
g63
NtRp1384
(dp1385
g66
(dp1386
sg75
g1371
sg68
(lp1387
g61
(g62
g63
NtRp1388
(dp1389
g66
(dp1390
g74
I4
ssg75
g1384
sg68
(lp1391
S"<open file '<stderr>', mode 'w' at 0x004300B0>"
p1392
asbasbasbag61
(g77
g63
NtRp1393
(dp1394
g66
(dp1395
sg75
g600
sg68
(lp1396
g61
(g82
g63
NtRp1397
(dp1398
g66
(dp1399
g86
g87
ssg75
g1393
sg68
(lp1400
S'wsgi_file_wrapper'
p1401
asbag61
(g82
g63
NtRp1402
(dp1403
g66
(dp1404
g93
g94
ssg75
g1393
sg68
(lp1405
S':'
asbag61
(g82
g63
NtRp1406
(dp1407
g66
(dp1408
sg75
g1393
sg68
(lp1409
g61
(g62
g63
NtRp1410
(dp1411
g66
(dp1412
g74
I4
ssg75
g1406
sg68
(lp1413
S'<class wsgiref.util.FileWrapper at 0x02C44900>'
p1414
asbasbasbag61
(g77
g63
NtRp1415
(dp1416
g66
(dp1417
sg75
g600
sg68
(lp1418
g61
(g82
g63
NtRp1419
(dp1420
g66
(dp1421
g86
g87
ssg75
g1415
sg68
(lp1422
S'wsgi_input'
p1423
asbag61
(g82
g63
NtRp1424
(dp1425
g66
(dp1426
g93
g94
ssg75
g1415
sg68
(lp1427
S':'
asbag61
(g82
g63
NtRp1428
(dp1429
g66
(dp1430
sg75
g1415
sg68
(lp1431
g61
(g62
g63
NtRp1432
(dp1433
g66
(dp1434
g74
I4
ssg75
g1428
sg68
(lp1435
S'<socket._fileobject object at 0x04148530>'
p1436
asbasbasbag61
(g77
g63
NtRp1437
(dp1438
g66
(dp1439
sg75
g600
sg68
(lp1440
g61
(g82
g63
NtRp1441
(dp1442
g66
(dp1443
g86
g87
ssg75
g1437
sg68
(lp1444
S'wsgi_multiprocess'
p1445
asbag61
(g82
g63
NtRp1446
(dp1447
g66
(dp1448
g93
g94
ssg75
g1437
sg68
(lp1449
S':'
asbag61
(g82
g63
NtRp1450
(dp1451
g66
(dp1452
sg75
g1437
sg68
(lp1453
g61
(g62
g63
NtRp1454
(dp1455
g66
(dp1456
g74
I4
ssg75
g1450
sg68
(lp1457
g104
asbasbasbag61
(g77
g63
NtRp1458
(dp1459
g66
(dp1460
sg75
g600
sg68
(lp1461
g61
(g82
g63
NtRp1462
(dp1463
g66
(dp1464
g86
g87
ssg75
g1458
sg68
(lp1465
S'wsgi_multithread'
p1466
asbag61
(g82
g63
NtRp1467
(dp1468
g66
(dp1469
g93
g94
ssg75
g1458
sg68
(lp1470
S':'
asbag61
(g82
g63
NtRp1471
(dp1472
g66
(dp1473
sg75
g1458
sg68
(lp1474
g61
(g62
g63
NtRp1475
(dp1476
g66
(dp1477
g74
I4
ssg75
g1471
sg68
(lp1478
g738
asbasbasbag61
(g77
g63
NtRp1479
(dp1480
g66
(dp1481
sg75
g600
sg68
(lp1482
g61
(g82
g63
NtRp1483
(dp1484
g66
(dp1485
g86
g87
ssg75
g1479
sg68
(lp1486
S'wsgi_run_once'
p1487
asbag61
(g82
g63
NtRp1488
(dp1489
g66
(dp1490
g93
g94
ssg75
g1479
sg68
(lp1491
S':'
asbag61
(g82
g63
NtRp1492
(dp1493
g66
(dp1494
sg75
g1479
sg68
(lp1495
g61
(g62
g63
NtRp1496
(dp1497
g66
(dp1498
g74
I4
ssg75
g1492
sg68
(lp1499
g104
asbasbasbag61
(g77
g63
NtRp1500
(dp1501
g66
(dp1502
sg75
g600
sg68
(lp1503
g61
(g82
g63
NtRp1504
(dp1505
g66
(dp1506
g86
g87
ssg75
g1500
sg68
(lp1507
S'wsgi_url_scheme'
p1508
asbag61
(g82
g63
NtRp1509
(dp1510
g66
(dp1511
g93
g94
ssg75
g1500
sg68
(lp1512
S':'
asbag61
(g82
g63
NtRp1513
(dp1514
g66
(dp1515
sg75
g1500
sg68
(lp1516
g61
(g62
g63
NtRp1517
(dp1518
g66
(dp1519
g74
I4
ssg75
g1513
sg68
(lp1520
S'http'
p1521
asbasbasbag61
(g77
g63
NtRp1522
(dp1523
g66
(dp1524
sg75
g600
sg68
(lp1525
g61
(g82
g63
NtRp1526
(dp1527
g66
(dp1528
g86
g87
ssg75
g1522
sg68
(lp1529
S'wsgi_version'
p1530
asbag61
(g82
g63
NtRp1531
(dp1532
g66
(dp1533
g93
g94
ssg75
g1522
sg68
(lp1534
S':'
asbag61
(g82
g63
NtRp1535
(dp1536
g66
(dp1537
sg75
g1522
sg68
(lp1538
g61
(g62
g63
NtRp1539
(dp1540
g66
(dp1541
g74
I4
ssg75
g1535
sg68
(lp1542
g61
(g70
g63
NtRp1543
(dp1544
g66
(dp1545
g74
I3
ssg75
Nsg68
(lp1546
g61
(g77
g63
NtRp1547
(dp1548
g66
(dp1549
sg75
g1543
sg68
(lp1550
g61
(g82
g63
NtRp1551
(dp1552
g66
(dp1553
sg75
g1547
sg68
(lp1554
g61
(g62
g63
NtRp1555
(dp1556
g66
(dp1557
g74
I3
ssg75
g1551
sg68
(lp1558
S'1'
asbasbasbag61
(g77
g63
NtRp1559
(dp1560
g66
(dp1561
sg75
g1543
sg68
(lp1562
g61
(g82
g63
NtRp1563
(dp1564
g66
(dp1565
sg75
g1559
sg68
(lp1566
g61
(g62
g63
NtRp1567
(dp1568
g66
(dp1569
g74
I3
ssg75
g1563
sg68
(lp1570
S'0'
asbasbasbasbasbasbasbasbasbasbasbag61
(g77
g63
NtRp1571
(dp1572
g66
(dp1573
sg75
g71
sg68
(lp1574
g61
(g82
g63
NtRp1575
(dp1576
g66
(dp1577
g86
g87
ssg75
g1571
sg68
(lp1578
S'extension'
p1579
asbag61
(g82
g63
NtRp1580
(dp1581
g66
(dp1582
g93
g94
ssg75
g1571
sg68
(lp1583
S':'
asbag61
(g82
g63
NtRp1584
(dp1585
g66
(dp1586
sg75
g1571
sg68
(lp1587
g61
(g62
g63
NtRp1588
(dp1589
g66
(dp1590
g74
I5
ssg75
g1584
sg68
(lp1591
S'html'
p1592
asbasbasbag61
(g77
g63
NtRp1593
(dp1594
g66
(dp1595
sg75
g71
sg68
(lp1596
g61
(g82
g63
NtRp1597
(dp1598
g66
(dp1599
g86
g87
ssg75
g1593
sg68
(lp1600
S'folder'
p1601
asbag61
(g82
g63
NtRp1602
(dp1603
g66
(dp1604
g93
g94
ssg75
g1593
sg68
(lp1605
S':'
asbag61
(g82
g63
NtRp1606
(dp1607
g66
(dp1608
sg75
g1593
sg68
(lp1609
g61
(g62
g63
NtRp1610
(dp1611
g66
(dp1612
g74
I5
ssg75
g1606
sg68
(lp1613
S'C:\\Users\\Bussiere\\Dropbox\\Projets\\jackpoint\\web2py\\applications\\init\\'
p1614
asbasbasbag61
(g77
g63
NtRp1615
(dp1616
g66
(dp1617
sg75
g71
sg68
(lp1618
g61
(g82
g63
NtRp1619
(dp1620
g66
(dp1621
g86
g87
ssg75
g1615
sg68
(lp1622
S'function'
p1623
asbag61
(g82
g63
NtRp1624
(dp1625
g66
(dp1626
g93
g94
ssg75
g1615
sg68
(lp1627
S':'
asbag61
(g82
g63
NtRp1628
(dp1629
g66
(dp1630
sg75
g1615
sg68
(lp1631
g61
(g62
g63
NtRp1632
(dp1633
g66
(dp1634
g74
I5
ssg75
g1628
sg68
(lp1635
S'inscriptioninvit'
p1636
asbasbasbag61
(g77
g63
NtRp1637
(dp1638
g66
(dp1639
sg75
g71
sg68
(lp1640
g61
(g82
g63
NtRp1641
(dp1642
g66
(dp1643
g86
g87
ssg75
g1637
sg68
(lp1644
S'get_vars'
p1645
asbag61
(g82
g63
NtRp1646
(dp1647
g66
(dp1648
g93
g94
ssg75
g1637
sg68
(lp1649
S':'
asbag61
(g82
g63
NtRp1650
(dp1651
g66
(dp1652
sg75
g1637
sg68
(lp1653
g61
(g62
g63
NtRp1654
(dp1655
g66
(dp1656
g74
I5
ssg75
g1650
sg68
(lp1657
g61
(g70
g63
NtRp1658
(dp1659
g66
(dp1660
g74
I4
ssg75
Nsg68
(lp1661
sbasbasbasbag61
(g77
g63
NtRp1662
(dp1663
g66
(dp1664
sg75
g71
sg68
(lp1665
g61
(g82
g63
NtRp1666
(dp1667
g66
(dp1668
g86
g87
ssg75
g1662
sg68
(lp1669
S'global_settings'
p1670
asbag61
(g82
g63
NtRp1671
(dp1672
g66
(dp1673
g93
g94
ssg75
g1662
sg68
(lp1674
S':'
asbag61
(g82
g63
NtRp1675
(dp1676
g66
(dp1677
sg75
g1662
sg68
(lp1678
g61
(g62
g63
NtRp1679
(dp1680
g66
(dp1681
g74
I5
ssg75
g1675
sg68
(lp1682
g61
(g70
g63
NtRp1683
(dp1684
g66
(dp1685
g74
I4
ssg75
Nsg68
(lp1686
g61
(g77
g63
NtRp1687
(dp1688
g66
(dp1689
sg75
g1683
sg68
(lp1690
g61
(g82
g63
NtRp1691
(dp1692
g66
(dp1693
g86
g87
ssg75
g1687
sg68
(lp1694
g612
asbag61
(g82
g63
NtRp1695
(dp1696
g66
(dp1697
g93
g94
ssg75
g1687
sg68
(lp1698
S':'
asbag61
(g82
g63
NtRp1699
(dp1700
g66
(dp1701
sg75
g1687
sg68
(lp1702
g61
(g62
g63
NtRp1703
(dp1704
g66
(dp1705
g74
I4
ssg75
g1699
sg68
(lp1706
S"set(['C:\\\\Users\\\\Bussiere\\\\Dropbox\\\\Projets\\\\jackpoint\\\\web2py\\\\applications\\\\init\\\\', 'C:\\\\Users\\\\Bussiere\\\\Dropbox\\\\Projets\\\\jackpoint\\\\web2py\\\\applications\\\\admin\\\\'])"
p1707
asbasbasbag61
(g77
g63
NtRp1708
(dp1709
g66
(dp1710
sg75
g1683
sg68
(lp1711
g61
(g82
g63
NtRp1712
(dp1713
g66
(dp1714
g86
g87
ssg75
g1708
sg68
(lp1715
g634
asbag61
(g82
g63
NtRp1716
(dp1717
g66
(dp1718
g93
g94
ssg75
g1708
sg68
(lp1719
S':'
asbag61
(g82
g63
NtRp1720
(dp1721
g66
(dp1722
sg75
g1708
sg68
(lp1723
g61
(g62
g63
NtRp1724
(dp1725
g66
(dp1726
g74
I4
ssg75
g1720
sg68
(lp1727
g647
asbasbasbag61
(g77
g63
NtRp1728
(dp1729
g66
(dp1730
sg75
g1683
sg68
(lp1731
g61
(g82
g63
NtRp1732
(dp1733
g66
(dp1734
g86
g87
ssg75
g1728
sg68
(lp1735
g656
asbag61
(g82
g63
NtRp1736
(dp1737
g66
(dp1738
g93
g94
ssg75
g1728
sg68
(lp1739
S':'
asbag61
(g82
g63
NtRp1740
(dp1741
g66
(dp1742
sg75
g1728
sg68
(lp1743
g61
(g62
g63
NtRp1744
(dp1745
g66
(dp1746
g74
I4
ssg75
g1740
sg68
(lp1747
g61
(g70
g63
NtRp1748
(dp1749
g66
(dp1750
g74
I3
ssg75
Nsg68
(lp1751
sbasbasbasbag61
(g77
g63
NtRp1752
(dp1753
g66
(dp1754
sg75
g1683
sg68
(lp1755
g61
(g82
g63
NtRp1756
(dp1757
g66
(dp1758
g86
g87
ssg75
g1752
sg68
(lp1759
g681
asbag61
(g82
g63
NtRp1760
(dp1761
g66
(dp1762
g93
g94
ssg75
g1752
sg68
(lp1763
S':'
asbag61
(g82
g63
NtRp1764
(dp1765
g66
(dp1766
sg75
g1752
sg68
(lp1767
g61
(g62
g63
NtRp1768
(dp1769
g66
(dp1770
g74
I4
ssg75
g1764
sg68
(lp1771
S"<Values at 0x3ca5fa8: {'verbose': False, 'ip': '127.0.0.1', 'shutdown_timeout': 5, 'taskbar': False, 'nocron': False, 'pid_filename': 'httpserver.pid', 'maxthreads': None, 'softcron': False, 'server_name': 'Batou', 'bpython': False, 'nogui': False, 'port': 8000, 'extcron': False, 'debuglevel': 30, 'test': None, 'folder': 'C:\\\\Users\\\\Bussiere\\\\Dropbox\\\\Projets\\\\jackpoint\\\\web2py', 'config': '', 'import_models': False, 'winservice': '', 'shell': None, 'run': '', 'log_filename': 'httpserver.log', 'args': [''], 'socket_timeout': 5, 'ssl_ca_certificate': None, 'scheduler': None, 'profiler_filename': None, 'ssl_private_key': '', 'password': '<ask>', 'request_queue_size': 5, 'ssl_certificate': '', 'cronjob': False, 'numthreads': None, 'quiet': False, 'interfaces': None, 'minthreads': None, 'timeout': 10, 'plain': False, 'nobanner': False}>"
p1772
asbasbasbag61
(g77
g63
NtRp1773
(dp1774
g66
(dp1775
sg75
g1683
sg68
(lp1776
g61
(g82
g63
NtRp1777
(dp1778
g66
(dp1779
g86
g87
ssg75
g1773
sg68
(lp1780
g703
asbag61
(g82
g63
NtRp1781
(dp1782
g66
(dp1783
g93
g94
ssg75
g1773
sg68
(lp1784
S':'
asbag61
(g82
g63
NtRp1785
(dp1786
g66
(dp1787
sg75
g1773
sg68
(lp1788
g61
(g62
g63
NtRp1789
(dp1790
g66
(dp1791
g74
I4
ssg75
g1785
sg68
(lp1792
S"set(['init'])"
p1793
asbasbasbag61
(g77
g63
NtRp1794
(dp1795
g66
(dp1796
sg75
g1683
sg68
(lp1797
g61
(g82
g63
NtRp1798
(dp1799
g66
(dp1800
g86
g87
ssg75
g1794
sg68
(lp1801
g725
asbag61
(g82
g63
NtRp1802
(dp1803
g66
(dp1804
g93
g94
ssg75
g1794
sg68
(lp1805
S':'
asbag61
(g82
g63
NtRp1806
(dp1807
g66
(dp1808
sg75
g1794
sg68
(lp1809
g61
(g62
g63
NtRp1810
(dp1811
g66
(dp1812
g74
I4
ssg75
g1806
sg68
(lp1813
g738
asbasbasbag61
(g77
g63
NtRp1814
(dp1815
g66
(dp1816
sg75
g1683
sg68
(lp1817
g61
(g82
g63
NtRp1818
(dp1819
g66
(dp1820
g86
g87
ssg75
g1814
sg68
(lp1821
g747
asbag61
(g82
g63
NtRp1822
(dp1823
g66
(dp1824
g93
g94
ssg75
g1814
sg68
(lp1825
S':'
asbag61
(g82
g63
NtRp1826
(dp1827
g66
(dp1828
sg75
g1814
sg68
(lp1829
g61
(g62
g63
NtRp1830
(dp1831
g66
(dp1832
g74
I4
ssg75
g1826
sg68
(lp1833
g760
asbasbasbag61
(g77
g63
NtRp1834
(dp1835
g66
(dp1836
sg75
g1683
sg68
(lp1837
g61
(g82
g63
NtRp1838
(dp1839
g66
(dp1840
g86
g87
ssg75
g1834
sg68
(lp1841
g989
asbag61
(g82
g63
NtRp1842
(dp1843
g66
(dp1844
g93
g94
ssg75
g1834
sg68
(lp1845
S':'
asbag61
(g82
g63
NtRp1846
(dp1847
g66
(dp1848
sg75
g1834
sg68
(lp1849
g61
(g62
g63
NtRp1850
(dp1851
g66
(dp1852
g74
I4
ssg75
g1846
sg68
(lp1853
g104
asbasbasbag61
(g77
g63
NtRp1854
(dp1855
g66
(dp1856
sg75
g1683
sg68
(lp1857
g61
(g82
g63
NtRp1858
(dp1859
g66
(dp1860
g86
g87
ssg75
g1854
sg68
(lp1861
g1010
asbag61
(g82
g63
NtRp1862
(dp1863
g66
(dp1864
g93
g94
ssg75
g1854
sg68
(lp1865
S':'
asbag61
(g82
g63
NtRp1866
(dp1867
g66
(dp1868
sg75
g1854
sg68
(lp1869
g61
(g62
g63
NtRp1870
(dp1871
g66
(dp1872
g74
I4
ssg75
g1866
sg68
(lp1873
g104
asbasbasbag61
(g77
g63
NtRp1874
(dp1875
g66
(dp1876
sg75
g1683
sg68
(lp1877
g61
(g82
g63
NtRp1878
(dp1879
g66
(dp1880
g86
g87
ssg75
g1874
sg68
(lp1881
g1248
asbag61
(g82
g63
NtRp1882
(dp1883
g66
(dp1884
g93
g94
ssg75
g1874
sg68
(lp1885
S':'
asbag61
(g82
g63
NtRp1886
(dp1887
g66
(dp1888
sg75
g1874
sg68
(lp1889
g61
(g62
g63
NtRp1890
(dp1891
g66
(dp1892
g74
I4
ssg75
g1886
sg68
(lp1893
g1261
asbasbasbag61
(g77
g63
NtRp1894
(dp1895
g66
(dp1896
sg75
g1683
sg68
(lp1897
g61
(g82
g63
NtRp1898
(dp1899
g66
(dp1900
g86
g87
ssg75
g1894
sg68
(lp1901
g1291
asbag61
(g82
g63
NtRp1902
(dp1903
g66
(dp1904
g93
g94
ssg75
g1894
sg68
(lp1905
S':'
asbag61
(g82
g63
NtRp1906
(dp1907
g66
(dp1908
sg75
g1894
sg68
(lp1909
g61
(g62
g63
NtRp1910
(dp1911
g66
(dp1912
g74
I4
ssg75
g1906
sg68
(lp1913
g61
(g70
g63
NtRp1914
(dp1915
g66
(dp1916
g74
I3
ssg75
Nsg68
(lp1917
g61
(g77
g63
NtRp1918
(dp1919
g66
(dp1920
sg75
g1914
sg68
(lp1921
g61
(g82
g63
NtRp1922
(dp1923
g66
(dp1924
sg75
g1918
sg68
(lp1925
g61
(g62
g63
NtRp1926
(dp1927
g66
(dp1928
g74
I3
ssg75
g1922
sg68
(lp1929
S'1'
asbasbasbag61
(g77
g63
NtRp1930
(dp1931
g66
(dp1932
sg75
g1914
sg68
(lp1933
g61
(g82
g63
NtRp1934
(dp1935
g66
(dp1936
sg75
g1930
sg68
(lp1937
g61
(g62
g63
NtRp1938
(dp1939
g66
(dp1940
g74
I3
ssg75
g1934
sg68
(lp1941
S'99'
p1942
asbasbasbag61
(g77
g63
NtRp1943
(dp1944
g66
(dp1945
sg75
g1914
sg68
(lp1946
g61
(g82
g63
NtRp1947
(dp1948
g66
(dp1949
sg75
g1943
sg68
(lp1950
g61
(g62
g63
NtRp1951
(dp1952
g66
(dp1953
g74
I3
ssg75
g1947
sg68
(lp1954
S'7'
asbasbasbag61
(g77
g63
NtRp1955
(dp1956
g66
(dp1957
sg75
g1914
sg68
(lp1958
g61
(g82
g63
NtRp1959
(dp1960
g66
(dp1961
sg75
g1955
sg68
(lp1962
g61
(g62
g63
NtRp1963
(dp1964
g66
(dp1965
g74
I3
ssg75
g1959
sg68
(lp1966
S'datetime.datetime(2012, 3, 4, 22, 12, 8)'
p1967
asbasbasbag61
(g77
g63
NtRp1968
(dp1969
g66
(dp1970
sg75
g1914
sg68
(lp1971
g61
(g82
g63
NtRp1972
(dp1973
g66
(dp1974
sg75
g1968
sg68
(lp1975
g61
(g62
g63
NtRp1976
(dp1977
g66
(dp1978
g74
I3
ssg75
g1972
sg68
(lp1979
g1370
asbasbasbasbasbasbasbasbasbasbasbag61
(g77
g63
NtRp1980
(dp1981
g66
(dp1982
sg75
g71
sg68
(lp1983
g61
(g82
g63
NtRp1984
(dp1985
g66
(dp1986
g86
g87
ssg75
g1980
sg68
(lp1987
S'is_https'
p1988
asbag61
(g82
g63
NtRp1989
(dp1990
g66
(dp1991
g93
g94
ssg75
g1980
sg68
(lp1992
S':'
asbag61
(g82
g63
NtRp1993
(dp1994
g66
(dp1995
sg75
g1980
sg68
(lp1996
g61
(g62
g63
NtRp1997
(dp1998
g66
(dp1999
g74
I5
ssg75
g1993
sg68
(lp2000
g104
asbasbasbag61
(g77
g63
NtRp2001
(dp2002
g66
(dp2003
sg75
g71
sg68
(lp2004
g61
(g82
g63
NtRp2005
(dp2006
g66
(dp2007
g86
g87
ssg75
g2001
sg68
(lp2008
S'is_local'
p2009
asbag61
(g82
g63
NtRp2010
(dp2011
g66
(dp2012
g93
g94
ssg75
g2001
sg68
(lp2013
S':'
asbag61
(g82
g63
NtRp2014
(dp2015
g66
(dp2016
sg75
g2001
sg68
(lp2017
g61
(g62
g63
NtRp2018
(dp2019
g66
(dp2020
g74
I5
ssg75
g2014
sg68
(lp2021
g738
asbasbasbag61
(g77
g63
NtRp2022
(dp2023
g66
(dp2024
sg75
g71
sg68
(lp2025
g61
(g82
g63
NtRp2026
(dp2027
g66
(dp2028
g86
g87
ssg75
g2022
sg68
(lp2029
S'is_restful'
p2030
asbag61
(g82
g63
NtRp2031
(dp2032
g66
(dp2033
g93
g94
ssg75
g2022
sg68
(lp2034
S':'
asbag61
(g82
g63
NtRp2035
(dp2036
g66
(dp2037
sg75
g2022
sg68
(lp2038
g61
(g62
g63
NtRp2039
(dp2040
g66
(dp2041
g74
I5
ssg75
g2035
sg68
(lp2042
g104
asbasbasbag61
(g77
g63
NtRp2043
(dp2044
g66
(dp2045
sg75
g71
sg68
(lp2046
g61
(g82
g63
NtRp2047
(dp2048
g66
(dp2049
g86
g87
ssg75
g2043
sg68
(lp2050
S'now'
p2051
asbag61
(g82
g63
NtRp2052
(dp2053
g66
(dp2054
g93
g94
ssg75
g2043
sg68
(lp2055
S':'
asbag61
(g82
g63
NtRp2056
(dp2057
g66
(dp2058
sg75
g2043
sg68
(lp2059
g61
(g62
g63
NtRp2060
(dp2061
g66
(dp2062
g74
I5
ssg75
g2056
sg68
(lp2063
S'datetime.datetime(2012, 3, 29, 23, 58, 1, 510000)'
p2064
asbasbasbag61
(g77
g63
NtRp2065
(dp2066
g66
(dp2067
sg75
g71
sg68
(lp2068
g61
(g82
g63
NtRp2069
(dp2070
g66
(dp2071
g86
g87
ssg75
g2065
sg68
(lp2072
S'post_vars'
p2073
asbag61
(g82
g63
NtRp2074
(dp2075
g66
(dp2076
g93
g94
ssg75
g2065
sg68
(lp2077
S':'
asbag61
(g82
g63
NtRp2078
(dp2079
g66
(dp2080
sg75
g2065
sg68
(lp2081
g61
(g62
g63
NtRp2082
(dp2083
g66
(dp2084
g74
I5
ssg75
g2078
sg68
(lp2085
g61
(g70
g63
NtRp2086
(dp2087
g66
(dp2088
g74
I4
ssg75
Nsg68
(lp2089
sbasbasbasbag61
(g77
g63
NtRp2090
(dp2091
g66
(dp2092
sg75
g71
sg68
(lp2093
g61
(g82
g63
NtRp2094
(dp2095
g66
(dp2096
g86
g87
ssg75
g2090
sg68
(lp2097
S'url'
p2098
asbag61
(g82
g63
NtRp2099
(dp2100
g66
(dp2101
g93
g94
ssg75
g2090
sg68
(lp2102
S':'
asbag61
(g82
g63
NtRp2103
(dp2104
g66
(dp2105
sg75
g2090
sg68
(lp2106
g61
(g62
g63
NtRp2107
(dp2108
g66
(dp2109
g74
I5
ssg75
g2103
sg68
(lp2110
S'/init/default/inscriptioninvit'
p2111
asbasbasbag61
(g77
g63
NtRp2112
(dp2113
g66
(dp2114
sg75
g71
sg68
(lp2115
g61
(g82
g63
NtRp2116
(dp2117
g66
(dp2118
g86
g87
ssg75
g2112
sg68
(lp2119
S'utcnow'
p2120
asbag61
(g82
g63
NtRp2121
(dp2122
g66
(dp2123
g93
g94
ssg75
g2112
sg68
(lp2124
S':'
asbag61
(g82
g63
NtRp2125
(dp2126
g66
(dp2127
sg75
g2112
sg68
(lp2128
g61
(g62
g63
NtRp2129
(dp2130
g66
(dp2131
g74
I5
ssg75
g2125
sg68
(lp2132
S'datetime.datetime(2012, 3, 29, 21, 58, 1, 510000)'
p2133
asbasbasbag61
(g77
g63
NtRp2134
(dp2135
g66
(dp2136
sg75
g71
sg68
(lp2137
g61
(g82
g63
NtRp2138
(dp2139
g66
(dp2140
g86
g87
ssg75
g2134
sg68
(lp2141
S'uuid'
p2142
asbag61
(g82
g63
NtRp2143
(dp2144
g66
(dp2145
g93
g94
ssg75
g2134
sg68
(lp2146
S':'
asbag61
(g82
g63
NtRp2147
(dp2148
g66
(dp2149
sg75
g2134
sg68
(lp2150
g61
(g62
g63
NtRp2151
(dp2152
g66
(dp2153
g74
I5
ssg75
g2147
sg68
(lp2154
S'init/127.0.0.1.2012-03-29.23-58-01.f28c3e72-90ab-4886-9881-f7574e0edeb6'
p2155
asbasbasbag61
(g77
g63
NtRp2156
(dp2157
g66
(dp2158
sg75
g71
sg68
(lp2159
g61
(g82
g63
NtRp2160
(dp2161
g66
(dp2162
g86
g87
ssg75
g2156
sg68
(lp2163
S'vars'
p2164
asbag61
(g82
g63
NtRp2165
(dp2166
g66
(dp2167
g93
g94
ssg75
g2156
sg68
(lp2168
S':'
asbag61
(g82
g63
NtRp2169
(dp2170
g66
(dp2171
sg75
g2156
sg68
(lp2172
g61
(g62
g63
NtRp2173
(dp2174
g66
(dp2175
g74
I5
ssg75
g2169
sg68
(lp2176
g61
(g70
g63
NtRp2177
(dp2178
g66
(dp2179
g74
I4
ssg75
Nsg68
(lp2180
sbasbasbasbag61
(g77
g63
NtRp2181
(dp2182
g66
(dp2183
sg75
g71
sg68
(lp2184
g61
(g82
g63
NtRp2185
(dp2186
g66
(dp2187
g86
g87
ssg75
g2181
sg68
(lp2188
S'wsgi'
p2189
asbag61
(g82
g63
NtRp2190
(dp2191
g66
(dp2192
g93
g94
ssg75
g2181
sg68
(lp2193
S':'
asbag61
(g82
g63
NtRp2194
(dp2195
g66
(dp2196
sg75
g2181
sg68
(lp2197
g61
(g62
g63
NtRp2198
(dp2199
g66
(dp2200
g74
I5
ssg75
g2194
sg68
(lp2201
g61
(g70
g63
NtRp2202
(dp2203
g66
(dp2204
g74
I4
ssg75
Nsg68
(lp2205
g61
(g77
g63
NtRp2206
(dp2207
g66
(dp2208
sg75
g2202
sg68
(lp2209
g61
(g82
g63
NtRp2210
(dp2211
g66
(dp2212
g86
g87
ssg75
g2206
sg68
(lp2213
S'environ'
p2214
asbag61
(g82
g63
NtRp2215
(dp2216
g66
(dp2217
g93
g94
ssg75
g2206
sg68
(lp2218
S':'
asbag61
(g82
g63
NtRp2219
(dp2220
g66
(dp2221
sg75
g2206
sg68
(lp2222
g61
(g62
g63
NtRp2223
(dp2224
g66
(dp2225
g74
I4
ssg75
g2219
sg68
(lp2226
g61
(g70
g63
NtRp2227
(dp2228
g66
(dp2229
g74
I3
ssg75
Nsg68
(lp2230
g61
(g77
g63
NtRp2231
(dp2232
g66
(dp2233
sg75
g2227
sg68
(lp2234
g61
(g82
g63
NtRp2235
(dp2236
g66
(dp2237
g86
g87
ssg75
g2231
sg68
(lp2238
S'HTTP_ACCEPT'
p2239
asbag61
(g82
g63
NtRp2240
(dp2241
g66
(dp2242
g93
g94
ssg75
g2231
sg68
(lp2243
S':'
asbag61
(g82
g63
NtRp2244
(dp2245
g66
(dp2246
sg75
g2231
sg68
(lp2247
g61
(g62
g63
NtRp2248
(dp2249
g66
(dp2250
g74
I3
ssg75
g2244
sg68
(lp2251
g782
asbasbasbag61
(g77
g63
NtRp2252
(dp2253
g66
(dp2254
sg75
g2227
sg68
(lp2255
g61
(g82
g63
NtRp2256
(dp2257
g66
(dp2258
g86
g87
ssg75
g2252
sg68
(lp2259
S'HTTP_ACCEPT_CHARSET'
p2260
asbag61
(g82
g63
NtRp2261
(dp2262
g66
(dp2263
g93
g94
ssg75
g2252
sg68
(lp2264
S':'
asbag61
(g82
g63
NtRp2265
(dp2266
g66
(dp2267
sg75
g2252
sg68
(lp2268
g61
(g62
g63
NtRp2269
(dp2270
g66
(dp2271
g74
I3
ssg75
g2265
sg68
(lp2272
g804
asbasbasbag61
(g77
g63
NtRp2273
(dp2274
g66
(dp2275
sg75
g2227
sg68
(lp2276
g61
(g82
g63
NtRp2277
(dp2278
g66
(dp2279
g86
g87
ssg75
g2273
sg68
(lp2280
S'HTTP_ACCEPT_ENCODING'
p2281
asbag61
(g82
g63
NtRp2282
(dp2283
g66
(dp2284
g93
g94
ssg75
g2273
sg68
(lp2285
S':'
asbag61
(g82
g63
NtRp2286
(dp2287
g66
(dp2288
sg75
g2273
sg68
(lp2289
g61
(g62
g63
NtRp2290
(dp2291
g66
(dp2292
g74
I3
ssg75
g2286
sg68
(lp2293
g826
asbasbasbag61
(g77
g63
NtRp2294
(dp2295
g66
(dp2296
sg75
g2227
sg68
(lp2297
g61
(g82
g63
NtRp2298
(dp2299
g66
(dp2300
g86
g87
ssg75
g2294
sg68
(lp2301
S'HTTP_ACCEPT_LANGUAGE'
p2302
asbag61
(g82
g63
NtRp2303
(dp2304
g66
(dp2305
g93
g94
ssg75
g2294
sg68
(lp2306
S':'
asbag61
(g82
g63
NtRp2307
(dp2308
g66
(dp2309
sg75
g2294
sg68
(lp2310
g61
(g62
g63
NtRp2311
(dp2312
g66
(dp2313
g74
I3
ssg75
g2307
sg68
(lp2314
g848
asbasbasbag61
(g77
g63
NtRp2315
(dp2316
g66
(dp2317
sg75
g2227
sg68
(lp2318
g61
(g82
g63
NtRp2319
(dp2320
g66
(dp2321
g86
g87
ssg75
g2315
sg68
(lp2322
S'HTTP_CACHE_CONTROL'
p2323
asbag61
(g82
g63
NtRp2324
(dp2325
g66
(dp2326
g93
g94
ssg75
g2315
sg68
(lp2327
S':'
asbag61
(g82
g63
NtRp2328
(dp2329
g66
(dp2330
sg75
g2315
sg68
(lp2331
g61
(g62
g63
NtRp2332
(dp2333
g66
(dp2334
g74
I3
ssg75
g2328
sg68
(lp2335
g870
asbasbasbag61
(g77
g63
NtRp2336
(dp2337
g66
(dp2338
sg75
g2227
sg68
(lp2339
g61
(g82
g63
NtRp2340
(dp2341
g66
(dp2342
g86
g87
ssg75
g2336
sg68
(lp2343
S'HTTP_CONNECTION'
p2344
asbag61
(g82
g63
NtRp2345
(dp2346
g66
(dp2347
g93
g94
ssg75
g2336
sg68
(lp2348
S':'
asbag61
(g82
g63
NtRp2349
(dp2350
g66
(dp2351
sg75
g2336
sg68
(lp2352
g61
(g62
g63
NtRp2353
(dp2354
g66
(dp2355
g74
I3
ssg75
g2349
sg68
(lp2356
g892
asbasbasbag61
(g77
g63
NtRp2357
(dp2358
g66
(dp2359
sg75
g2227
sg68
(lp2360
g61
(g82
g63
NtRp2361
(dp2362
g66
(dp2363
g86
g87
ssg75
g2357
sg68
(lp2364
S'HTTP_COOKIE'
p2365
asbag61
(g82
g63
NtRp2366
(dp2367
g66
(dp2368
g93
g94
ssg75
g2357
sg68
(lp2369
S':'
asbag61
(g82
g63
NtRp2370
(dp2371
g66
(dp2372
sg75
g2357
sg68
(lp2373
g61
(g62
g63
NtRp2374
(dp2375
g66
(dp2376
g74
I3
ssg75
g2370
sg68
(lp2377
g914
asbasbasbag61
(g77
g63
NtRp2378
(dp2379
g66
(dp2380
sg75
g2227
sg68
(lp2381
g61
(g82
g63
NtRp2382
(dp2383
g66
(dp2384
g86
g87
ssg75
g2378
sg68
(lp2385
S'HTTP_HOST'
p2386
asbag61
(g82
g63
NtRp2387
(dp2388
g66
(dp2389
g93
g94
ssg75
g2378
sg68
(lp2390
S':'
asbag61
(g82
g63
NtRp2391
(dp2392
g66
(dp2393
sg75
g2378
sg68
(lp2394
g61
(g62
g63
NtRp2395
(dp2396
g66
(dp2397
g74
I3
ssg75
g2391
sg68
(lp2398
g936
asbasbasbag61
(g77
g63
NtRp2399
(dp2400
g66
(dp2401
sg75
g2227
sg68
(lp2402
g61
(g82
g63
NtRp2403
(dp2404
g66
(dp2405
g86
g87
ssg75
g2399
sg68
(lp2406
S'HTTP_REFERER'
p2407
asbag61
(g82
g63
NtRp2408
(dp2409
g66
(dp2410
g93
g94
ssg75
g2399
sg68
(lp2411
S':'
asbag61
(g82
g63
NtRp2412
(dp2413
g66
(dp2414
sg75
g2399
sg68
(lp2415
g61
(g62
g63
NtRp2416
(dp2417
g66
(dp2418
g74
I3
ssg75
g2412
sg68
(lp2419
g958
asbasbasbag61
(g77
g63
NtRp2420
(dp2421
g66
(dp2422
sg75
g2227
sg68
(lp2423
g61
(g82
g63
NtRp2424
(dp2425
g66
(dp2426
g86
g87
ssg75
g2420
sg68
(lp2427
S'HTTP_USER_AGENT'
p2428
asbag61
(g82
g63
NtRp2429
(dp2430
g66
(dp2431
g93
g94
ssg75
g2420
sg68
(lp2432
S':'
asbag61
(g82
g63
NtRp2433
(dp2434
g66
(dp2435
sg75
g2420
sg68
(lp2436
g61
(g62
g63
NtRp2437
(dp2438
g66
(dp2439
g74
I3
ssg75
g2433
sg68
(lp2440
g980
asbasbasbag61
(g77
g63
NtRp2441
(dp2442
g66
(dp2443
sg75
g2227
sg68
(lp2444
g61
(g82
g63
NtRp2445
(dp2446
g66
(dp2447
g86
g87
ssg75
g2441
sg68
(lp2448
S'PATH_INFO'
p2449
asbag61
(g82
g63
NtRp2450
(dp2451
g66
(dp2452
g93
g94
ssg75
g2441
sg68
(lp2453
S':'
asbag61
(g82
g63
NtRp2454
(dp2455
g66
(dp2456
sg75
g2441
sg68
(lp2457
g61
(g62
g63
NtRp2458
(dp2459
g66
(dp2460
g74
I3
ssg75
g2454
sg68
(lp2461
g1044
asbasbasbag61
(g77
g63
NtRp2462
(dp2463
g66
(dp2464
sg75
g2227
sg68
(lp2465
g61
(g82
g63
NtRp2466
(dp2467
g66
(dp2468
g86
g87
ssg75
g2462
sg68
(lp2469
S'QUERY_STRING'
p2470
asbag61
(g82
g63
NtRp2471
(dp2472
g66
(dp2473
g93
g94
ssg75
g2462
sg68
(lp2474
S':'
asbag61
(g82
g63
NtRp2475
(dp2476
g66
(dp2477
sg75
g2462
sg68
(lp2478
g61
(g62
g63
NtRp2479
(dp2480
g66
(dp2481
g74
I3
ssg75
g2475
sg68
(lp2482
S''
asbasbasbag61
(g77
g63
NtRp2483
(dp2484
g66
(dp2485
sg75
g2227
sg68
(lp2486
g61
(g82
g63
NtRp2487
(dp2488
g66
(dp2489
g86
g87
ssg75
g2483
sg68
(lp2490
S'REMOTE_ADDR'
p2491
asbag61
(g82
g63
NtRp2492
(dp2493
g66
(dp2494
g93
g94
ssg75
g2483
sg68
(lp2495
S':'
asbag61
(g82
g63
NtRp2496
(dp2497
g66
(dp2498
sg75
g2483
sg68
(lp2499
g61
(g62
g63
NtRp2500
(dp2501
g66
(dp2502
g74
I3
ssg75
g2496
sg68
(lp2503
g194
asbasbasbag61
(g77
g63
NtRp2504
(dp2505
g66
(dp2506
sg75
g2227
sg68
(lp2507
g61
(g82
g63
NtRp2508
(dp2509
g66
(dp2510
g86
g87
ssg75
g2504
sg68
(lp2511
S'REMOTE_PORT'
p2512
asbag61
(g82
g63
NtRp2513
(dp2514
g66
(dp2515
g93
g94
ssg75
g2504
sg68
(lp2516
S':'
asbag61
(g82
g63
NtRp2517
(dp2518
g66
(dp2519
sg75
g2504
sg68
(lp2520
g61
(g62
g63
NtRp2521
(dp2522
g66
(dp2523
g74
I3
ssg75
g2517
sg68
(lp2524
g1108
asbasbasbag61
(g77
g63
NtRp2525
(dp2526
g66
(dp2527
sg75
g2227
sg68
(lp2528
g61
(g82
g63
NtRp2529
(dp2530
g66
(dp2531
g86
g87
ssg75
g2525
sg68
(lp2532
S'REQUEST_METHOD'
p2533
asbag61
(g82
g63
NtRp2534
(dp2535
g66
(dp2536
g93
g94
ssg75
g2525
sg68
(lp2537
S':'
asbag61
(g82
g63
NtRp2538
(dp2539
g66
(dp2540
sg75
g2525
sg68
(lp2541
g61
(g62
g63
NtRp2542
(dp2543
g66
(dp2544
g74
I3
ssg75
g2538
sg68
(lp2545
g1130
asbasbasbag61
(g77
g63
NtRp2546
(dp2547
g66
(dp2548
sg75
g2227
sg68
(lp2549
g61
(g82
g63
NtRp2550
(dp2551
g66
(dp2552
g86
g87
ssg75
g2546
sg68
(lp2553
S'SCRIPT_NAME'
p2554
asbag61
(g82
g63
NtRp2555
(dp2556
g66
(dp2557
g93
g94
ssg75
g2546
sg68
(lp2558
S':'
asbag61
(g82
g63
NtRp2559
(dp2560
g66
(dp2561
sg75
g2546
sg68
(lp2562
g61
(g62
g63
NtRp2563
(dp2564
g66
(dp2565
g74
I3
ssg75
g2559
sg68
(lp2566
S''
asbasbasbag61
(g77
g63
NtRp2567
(dp2568
g66
(dp2569
sg75
g2227
sg68
(lp2570
g61
(g82
g63
NtRp2571
(dp2572
g66
(dp2573
g86
g87
ssg75
g2567
sg68
(lp2574
S'SERVER_NAME'
p2575
asbag61
(g82
g63
NtRp2576
(dp2577
g66
(dp2578
g93
g94
ssg75
g2567
sg68
(lp2579
S':'
asbag61
(g82
g63
NtRp2580
(dp2581
g66
(dp2582
sg75
g2567
sg68
(lp2583
g61
(g62
g63
NtRp2584
(dp2585
g66
(dp2586
g74
I3
ssg75
g2580
sg68
(lp2587
g1173
asbasbasbag61
(g77
g63
NtRp2588
(dp2589
g66
(dp2590
sg75
g2227
sg68
(lp2591
g61
(g82
g63
NtRp2592
(dp2593
g66
(dp2594
g86
g87
ssg75
g2588
sg68
(lp2595
S'SERVER_PORT'
p2596
asbag61
(g82
g63
NtRp2597
(dp2598
g66
(dp2599
g93
g94
ssg75
g2588
sg68
(lp2600
S':'
asbag61
(g82
g63
NtRp2601
(dp2602
g66
(dp2603
sg75
g2588
sg68
(lp2604
g61
(g62
g63
NtRp2605
(dp2606
g66
(dp2607
g74
I3
ssg75
g2601
sg68
(lp2608
g1195
asbasbasbag61
(g77
g63
NtRp2609
(dp2610
g66
(dp2611
sg75
g2227
sg68
(lp2612
g61
(g82
g63
NtRp2613
(dp2614
g66
(dp2615
g86
g87
ssg75
g2609
sg68
(lp2616
S'SERVER_PROTOCOL'
p2617
asbag61
(g82
g63
NtRp2618
(dp2619
g66
(dp2620
g93
g94
ssg75
g2609
sg68
(lp2621
S':'
asbag61
(g82
g63
NtRp2622
(dp2623
g66
(dp2624
sg75
g2609
sg68
(lp2625
g61
(g62
g63
NtRp2626
(dp2627
g66
(dp2628
g74
I3
ssg75
g2622
sg68
(lp2629
g1217
asbasbasbag61
(g77
g63
NtRp2630
(dp2631
g66
(dp2632
sg75
g2227
sg68
(lp2633
g61
(g82
g63
NtRp2634
(dp2635
g66
(dp2636
g86
g87
ssg75
g2630
sg68
(lp2637
S'SERVER_SOFTWARE'
p2638
asbag61
(g82
g63
NtRp2639
(dp2640
g66
(dp2641
g93
g94
ssg75
g2630
sg68
(lp2642
S':'
asbag61
(g82
g63
NtRp2643
(dp2644
g66
(dp2645
sg75
g2630
sg68
(lp2646
g61
(g62
g63
NtRp2647
(dp2648
g66
(dp2649
g74
I3
ssg75
g2643
sg68
(lp2650
g1239
asbasbasbag61
(g77
g63
NtRp2651
(dp2652
g66
(dp2653
sg75
g2227
sg68
(lp2654
g61
(g82
g63
NtRp2655
(dp2656
g66
(dp2657
g86
g87
ssg75
g2651
sg68
(lp2658
S'wsgi.errors'
p2659
asbag61
(g82
g63
NtRp2660
(dp2661
g66
(dp2662
g93
g94
ssg75
g2651
sg68
(lp2663
S':'
asbag61
(g82
g63
NtRp2664
(dp2665
g66
(dp2666
sg75
g2651
sg68
(lp2667
g61
(g62
g63
NtRp2668
(dp2669
g66
(dp2670
g74
I3
ssg75
g2664
sg68
(lp2671
S"<open file '<stderr>', mode 'w' at 0x004300B0>"
p2672
asbasbasbag61
(g77
g63
NtRp2673
(dp2674
g66
(dp2675
sg75
g2227
sg68
(lp2676
g61
(g82
g63
NtRp2677
(dp2678
g66
(dp2679
g86
g87
ssg75
g2673
sg68
(lp2680
S'wsgi.file_wrapper'
p2681
asbag61
(g82
g63
NtRp2682
(dp2683
g66
(dp2684
g93
g94
ssg75
g2673
sg68
(lp2685
S':'
asbag61
(g82
g63
NtRp2686
(dp2687
g66
(dp2688
sg75
g2673
sg68
(lp2689
g61
(g62
g63
NtRp2690
(dp2691
g66
(dp2692
g74
I3
ssg75
g2686
sg68
(lp2693
S'<class wsgiref.util.FileWrapper at 0x02C44900>'
p2694
asbasbasbag61
(g77
g63
NtRp2695
(dp2696
g66
(dp2697
sg75
g2227
sg68
(lp2698
g61
(g82
g63
NtRp2699
(dp2700
g66
(dp2701
g86
g87
ssg75
g2695
sg68
(lp2702
S'wsgi.input'
p2703
asbag61
(g82
g63
NtRp2704
(dp2705
g66
(dp2706
g93
g94
ssg75
g2695
sg68
(lp2707
S':'
asbag61
(g82
g63
NtRp2708
(dp2709
g66
(dp2710
sg75
g2695
sg68
(lp2711
g61
(g62
g63
NtRp2712
(dp2713
g66
(dp2714
g74
I3
ssg75
g2708
sg68
(lp2715
S'<cStringIO.StringO object at 0x03E53AE0>'
p2716
asbasbasbag61
(g77
g63
NtRp2717
(dp2718
g66
(dp2719
sg75
g2227
sg68
(lp2720
g61
(g82
g63
NtRp2721
(dp2722
g66
(dp2723
g86
g87
ssg75
g2717
sg68
(lp2724
S'wsgi.multiprocess'
p2725
asbag61
(g82
g63
NtRp2726
(dp2727
g66
(dp2728
g93
g94
ssg75
g2717
sg68
(lp2729
S':'
asbag61
(g82
g63
NtRp2730
(dp2731
g66
(dp2732
sg75
g2717
sg68
(lp2733
g61
(g62
g63
NtRp2734
(dp2735
g66
(dp2736
g74
I3
ssg75
g2730
sg68
(lp2737
g104
asbasbasbag61
(g77
g63
NtRp2738
(dp2739
g66
(dp2740
sg75
g2227
sg68
(lp2741
g61
(g82
g63
NtRp2742
(dp2743
g66
(dp2744
g86
g87
ssg75
g2738
sg68
(lp2745
S'wsgi.multithread'
p2746
asbag61
(g82
g63
NtRp2747
(dp2748
g66
(dp2749
g93
g94
ssg75
g2738
sg68
(lp2750
S':'
asbag61
(g82
g63
NtRp2751
(dp2752
g66
(dp2753
sg75
g2738
sg68
(lp2754
g61
(g62
g63
NtRp2755
(dp2756
g66
(dp2757
g74
I3
ssg75
g2751
sg68
(lp2758
g738
asbasbasbag61
(g77
g63
NtRp2759
(dp2760
g66
(dp2761
sg75
g2227
sg68
(lp2762
g61
(g82
g63
NtRp2763
(dp2764
g66
(dp2765
g86
g87
ssg75
g2759
sg68
(lp2766
S'wsgi.run_once'
p2767
asbag61
(g82
g63
NtRp2768
(dp2769
g66
(dp2770
g93
g94
ssg75
g2759
sg68
(lp2771
S':'
asbag61
(g82
g63
NtRp2772
(dp2773
g66
(dp2774
sg75
g2759
sg68
(lp2775
g61
(g62
g63
NtRp2776
(dp2777
g66
(dp2778
g74
I3
ssg75
g2772
sg68
(lp2779
g104
asbasbasbag61
(g77
g63
NtRp2780
(dp2781
g66
(dp2782
sg75
g2227
sg68
(lp2783
g61
(g82
g63
NtRp2784
(dp2785
g66
(dp2786
g86
g87
ssg75
g2780
sg68
(lp2787
S'wsgi.url_scheme'
p2788
asbag61
(g82
g63
NtRp2789
(dp2790
g66
(dp2791
g93
g94
ssg75
g2780
sg68
(lp2792
S':'
asbag61
(g82
g63
NtRp2793
(dp2794
g66
(dp2795
sg75
g2780
sg68
(lp2796
g61
(g62
g63
NtRp2797
(dp2798
g66
(dp2799
g74
I3
ssg75
g2793
sg68
(lp2800
g1521
asbasbasbag61
(g77
g63
NtRp2801
(dp2802
g66
(dp2803
sg75
g2227
sg68
(lp2804
g61
(g82
g63
NtRp2805
(dp2806
g66
(dp2807
g86
g87
ssg75
g2801
sg68
(lp2808
S'wsgi.version'
p2809
asbag61
(g82
g63
NtRp2810
(dp2811
g66
(dp2812
g93
g94
ssg75
g2801
sg68
(lp2813
S':'
asbag61
(g82
g63
NtRp2814
(dp2815
g66
(dp2816
sg75
g2801
sg68
(lp2817
g61
(g62
g63
NtRp2818
(dp2819
g66
(dp2820
g74
I3
ssg75
g2814
sg68
(lp2821
S'1'
asbasbasbasbasbasbasbasbasbasbasbasbasbsS'frames'
p2822
(lp2823
(dp2824
S'file'
p2825
S'C:\\Users\\Bussiere\\Dropbox\\Projets\\jackpoint\\web2py\\gluon\\restricted.py'
p2826
sS'dump'
p2827
(dp2828
sS'lnum'
p2829
I205
sS'lines'
p2830
(dp2831
I200
S'    try:'
p2832
sI201
S'        if type(code) == types.CodeType:'
p2833
sI202
S'            ccode = code'
p2834
sI203
S'        else:'
p2835
sI204
S'            ccode = compile2(code,layer)'
p2836
sI205
S'        exec ccode in environment'
p2837
sI206
S'    except HTTP:'
p2838
sI207
S'        raise'
p2839
sI208
S'    except RestrictedError:'
p2840
sI209
S'        # do not encapsulate (obfuscate) the original RestrictedError'
p2841
ssS'call'
p2842
S"(code='\\xef\\xbb\\xbf# -*- coding: utf-8 -*-\\n# this file is releas...esponse._vars=response._caller(inscriptioninvit)\\n', environment={'A': <class 'gluon.html.A'>, 'Auth': <class 'gluon.tools.Auth'>, 'AutocompleteWidget': <class 'gluon.sqlhtml.AutocompleteWidget'>, 'B': <class 'gluon.html.B'>, 'BEAUTIFY': <class 'gluon.html.BEAUTIFY'>, 'BODY': <class 'gluon.html.BODY'>, 'BR': <class 'gluon.html.BR'>, 'BUTTON': <class 'gluon.html.BUTTON'>, 'BooleanWidget': <class 'gluon.sqlhtml.BooleanWidget'>, 'CALLABLETYPES': (<type 'function'>, <type 'function'>, <type 'builtin_function_or_method'>, <type 'instancemethod'>, <type 'builtin_function_or_method'>), ...}, layer=r'C:\\Users\\Bussiere\\Dropbox\\Projets\\jackpoint\\web2py\\applications\\init\\controllers/default.py')"
p2843
sS'func'
p2844
S'restricted'
p2845
sa(dp2846
g2825
S'C:\\Users\\Bussiere\\Dropbox\\Projets\\jackpoint\\web2py\\applications\\init\\controllers\\default.py'
p2847
sg2827
(dp2848
sg2829
I632
sg2830
(dp2849
I621
S'    http://..../[app]/default/data/update/[table]/[id]'
p2850
sI622
S'    http://..../[app]/default/data/delete/[table]/[id]'
p2851
sI623
S'    http://..../[app]/default/data/select/[table]'
p2852
sI624
S'    http://..../[app]/default/data/search/[table]'
p2853
sI625
S'    but URLs must be signed, i.e. linked with'
p2854
sI626
S"      A('table',_href=URL('data/tables',user_signature=True))"
p2855
sI627
S'    or with the signed load operator'
p2856
sI628
S"      LOAD('default','data.load',args='tables',ajax=True,user_signature=True)"
p2857
sI629
S'    """'
p2858
sI630
S'    return dict(form=crud())'
p2859
ssg2842
S'()'
p2860
sg2844
S'<module>'
p2861
sa(dp2862
g2825
S'C:\\Users\\Bussiere\\Dropbox\\Projets\\jackpoint\\web2py\\gluon\\globals.py'
p2863
sg2827
(dp2864
sg2829
I173
sg2830
(dp2865
I168
S'        self.menu = []             # used by the default view layout'
p2866
sI169
S'        self.files = []            # used by web2py_ajax.html'
p2867
sI170
S'        self.generic_patterns = [] # patterns to allow generic views'
p2868
sI171
S"        self.delimiters = ('{{','}}')"
p2869
sI172
S'        self._vars = None'
p2870
sI173
S'        self._caller = lambda f: f()'
p2871
sI174
S'        self._view_environment = None'
p2872
sI175
S'        self._custom_commit = None'
p2873
sI176
S'        self._custom_rollback = None'
p2874
sI177
S''
ssg2842
S'(f=<function inscriptioninvit at 0x0882FCF0>)'
p2875
sg2844
S'<lambda>'
p2876
sa(dp2877
g2825
S'C:\\Users\\Bussiere\\Dropbox\\Projets\\jackpoint\\web2py\\gluon\\tools.py'
p2878
sg2827
(dp2879
sg2829
I2575
sg2830
(dp2880
I2570
S'                    flag = condition'
p2881
sI2571
S'                if not flag:'
p2882
sI2572
S'                    current.session.flash = self.messages.access_denied'
p2883
sI2573
S'                    return call_or_redirect('
p2884
sI2574
S'                        self.settings.on_failed_authorization)'
p2885
sI2575
S'                return action(*a, **b)'
p2886
sI2576
S'            f.__doc__ = action.__doc__'
p2887
sI2577
S'            f.__name__ = action.__name__'
p2888
sI2578
S'            f.__dict__.update(action.__dict__)'
p2889
sI2579
S'            return f'
p2890
ssg2842
S'(*a=(), **b={})'
p2891
sg2844
S'f'
sa(dp2892
g2825
S'C:\\Users\\Bussiere\\Dropbox\\Projets\\jackpoint\\web2py\\applications\\init\\controllers\\default.py'
p2893
sg2827
(dp2894
sg2829
I360
sg2830
(dp2895
I355
S''
sI356
S''
sI357
S''
sI358
S'    form.append(TR(Listeskill))'
p2896
sI359
S''
sI360
S'    Items = db(db.Item.ALL).select()'
p2897
sI361
S'    for item in Items :'
p2898
sI362
S'        form.append('
p2899
sI363
S'            TR('
p2900
sI364
S'                TD(item.Nom),'
p2901
ssg2842
S'()'
p2902
sg2844
S'inscriptioninvit'
p2903
sa(dp2904
g2825
S'C:\\Users\\Bussiere\\Dropbox\\Projets\\jackpoint\\web2py\\gluon\\dal.py'
p2905
sg2827
(dp2906
sg2829
I7578
sg2830
(dp2907
I7573
S'        return self.db._adapter.count(self.query,distinct)'
p2908
sI7574
S''
sI7575
S'    def select(self, *fields, **attributes):'
p2909
sI7576
S'        adapter = self.db._adapter'
p2910
sI7577
S'        fields = adapter.expand_all(fields, adapter.tables(self.query))'
p2911
sI7578
S'        return adapter.select(self.query,fields,attributes)'
p2912
sI7579
S''
sI7580
S'    def delete(self):'
p2913
sI7581
S'        tablename=self.db._adapter.get_table(self.query)'
p2914
sI7582
S'        self.delete_uploaded_files()'
p2915
ssg2842
S'(self=<gluon.dal.Set object at 0x03CBA8F0>, *fields=[], **attributes={})'
p2916
sg2844
S'select'
p2917
sa(dp2918
g2825
S'C:\\Users\\Bussiere\\Dropbox\\Projets\\jackpoint\\web2py\\gluon\\dal.py'
p2919
sg2827
(dp2920
sg2829
I1307
sg2830
(dp2921
I1302
S'        Always returns a Rows object, possibly empty.'
p2922
sI1303
S'        """'
p2923
sI1304
S'        def response(sql):'
p2924
sI1305
S'            self.execute(sql)'
p2925
sI1306
S'            return self.cursor.fetchall()'
p2926
sI1307
S'        sql = self._select(query, fields, attributes)'
p2927
sI1308
S"        if attributes.get('cache', None):"
p2928
sI1309
S"            (cache_model, time_expire) = attributes['cache']"
p2929
sI1310
S"            del attributes['cache']"
p2930
sI1311
S"            key = self.uri + '/' + sql"
p2931
ssg2842
S'(self=<gluon.dal.SQLiteAdapter object at 0x043F5DF0>, query=<gluon.dal.SQLALL object at 0x03CAFA70>, fields=[], attributes={})'
p2932
sg2844
g2917
sa(dp2933
g2825
S'C:\\Users\\Bussiere\\Dropbox\\Projets\\jackpoint\\web2py\\gluon\\dal.py'
p2934
sg2827
(dp2935
sg2829
I1756
sg2830
(dp2936
I1760
S''
sI1751
S'        """'
p2937
sI1752
S'        Simulate SELECT ... FOR UPDATE with BEGIN IMMEDIATE TRANSACTION.'
p2938
sI1753
S'        Note that the entire database, rather than one record, is locked'
p2939
sI1754
S'        (it will be locked eventually anyway by the following UPDATE).'
p2940
sI1755
S'        """'
p2941
sI1756
S'        sql = super(SQLiteAdapter, self)._select(query, fields, attributes)'
p2942
sI1757
S"        if attributes.get('for_update', False):"
p2943
sI1758
S"            sql = 'BEGIN IMMEDIATE TRANSACTION; ' + sql"
p2944
sI1759
S'        return sql'
p2945
ssg2842
S'(self=<gluon.dal.SQLiteAdapter object at 0x043F5DF0>, query=<gluon.dal.SQLALL object at 0x03CAFA70>, fields=[], attributes={})'
p2946
sg2844
S'_select'
p2947
sa(dp2948
g2825
S'C:\\Users\\Bussiere\\Dropbox\\Projets\\jackpoint\\web2py\\gluon\\dal.py'
p2949
sg2827
(dp2950
sg2829
I1196
sg2830
(dp2951
I1191
S''
sI1192
S'        if use_common_filters(query):'
p2952
sI1193
S'            query = self.common_filter(query,tablenames)'
p2953
sI1194
S''
sI1195
S'        if len(tablenames) < 1:'
p2954
sI1196
S"            raise SyntaxError, 'Set: no tables selected'"
p2955
sI1197
S"        sql_f = ', '.join(map(self.expand, fields))"
p2956
sI1198
S"        self._colnames = [c.strip() for c in sql_f.split(', ')]"
p2957
sI1199
S'        if query:'
p2958
sI1200
S"            sql_w = ' WHERE ' + self.expand(query)"
p2959
ssg2842
S'(self=<gluon.dal.SQLiteAdapter object at 0x043F5DF0>, query=<gluon.dal.SQLALL object at 0x03CAFA70>, fields=[], attributes={})'
p2960
sg2844
g2947
sasS'pyver'
p2961
S'Python 2.5.4: C:\\Users\\Bussiere\\Dropbox\\Projets\\jackpoint\\web2py\\web2py.exe'
p2962
sS'session'
p2963
g61
(g62
g63
NtRp2964
(dp2965
g66
(dp2966
sg68
(lp2967
g61
(g70
g63
NtRp2968
(dp2969
g66
(dp2970
g74
I5
ssg75
Nsg68
(lp2971
g61
(g77
g63
NtRp2972
(dp2973
g66
(dp2974
sg75
g2968
sg68
(lp2975
g61
(g82
g63
NtRp2976
(dp2977
g66
(dp2978
g86
g87
ssg75
g2972
sg68
(lp2979
S'auth'
p2980
asbag61
(g82
g63
NtRp2981
(dp2982
g66
(dp2983
g93
g94
ssg75
g2972
sg68
(lp2984
S':'
asbag61
(g82
g63
NtRp2985
(dp2986
g66
(dp2987
sg75
g2972
sg68
(lp2988
g61
(g62
g63
NtRp2989
(dp2990
g66
(dp2991
g74
I5
ssg75
g2985
sg68
(lp2992
g61
(g70
g63
NtRp2993
(dp2994
g66
(dp2995
g74
I4
ssg75
Nsg68
(lp2996
g61
(g77
g63
NtRp2997
(dp2998
g66
(dp2999
sg75
g2993
sg68
(lp3000
g61
(g82
g63
NtRp3001
(dp3002
g66
(dp3003
g86
g87
ssg75
g2997
sg68
(lp3004
S'expiration'
p3005
asbag61
(g82
g63
NtRp3006
(dp3007
g66
(dp3008
g93
g94
ssg75
g2997
sg68
(lp3009
S':'
asbag61
(g82
g63
NtRp3010
(dp3011
g66
(dp3012
sg75
g2997
sg68
(lp3013
g61
(g62
g63
NtRp3014
(dp3015
g66
(dp3016
g74
I4
ssg75
g3010
sg68
(lp3017
S'3600'
p3018
asbasbasbag61
(g77
g63
NtRp3019
(dp3020
g66
(dp3021
sg75
g2993
sg68
(lp3022
g61
(g82
g63
NtRp3023
(dp3024
g66
(dp3025
g86
g87
ssg75
g3019
sg68
(lp3026
S'last_visit'
p3027
asbag61
(g82
g63
NtRp3028
(dp3029
g66
(dp3030
g93
g94
ssg75
g3019
sg68
(lp3031
S':'
asbag61
(g82
g63
NtRp3032
(dp3033
g66
(dp3034
sg75
g3019
sg68
(lp3035
g61
(g62
g63
NtRp3036
(dp3037
g66
(dp3038
g74
I4
ssg75
g3032
sg68
(lp3039
S'datetime.datetime(2012, 3, 29, 23, 56, 52, 764000)'
p3040
asbasbasbag61
(g77
g63
NtRp3041
(dp3042
g66
(dp3043
sg75
g2993
sg68
(lp3044
g61
(g82
g63
NtRp3045
(dp3046
g66
(dp3047
g86
g87
ssg75
g3041
sg68
(lp3048
S'user'
p3049
asbag61
(g82
g63
NtRp3050
(dp3051
g66
(dp3052
g93
g94
ssg75
g3041
sg68
(lp3053
S':'
asbag61
(g82
g63
NtRp3054
(dp3055
g66
(dp3056
sg75
g3041
sg68
(lp3057
g61
(g62
g63
NtRp3058
(dp3059
g66
(dp3060
g74
I4
ssg75
g3054
sg68
(lp3061
g61
(g70
g63
NtRp3062
(dp3063
g66
(dp3064
g74
I3
ssg75
Nsg68
(lp3065
g61
(g77
g63
NtRp3066
(dp3067
g66
(dp3068
sg75
g3062
sg68
(lp3069
g61
(g82
g63
NtRp3070
(dp3071
g66
(dp3072
g86
g87
ssg75
g3066
sg68
(lp3073
S'Items'
p3074
asbag61
(g82
g63
NtRp3075
(dp3076
g66
(dp3077
g93
g94
ssg75
g3066
sg68
(lp3078
S':'
asbag61
(g82
g63
NtRp3079
(dp3080
g66
(dp3081
sg75
g3066
sg68
(lp3082
g61
(g62
g63
NtRp3083
(dp3084
g66
(dp3085
g74
I3
ssg75
g3079
sg68
(lp3086
S'None'
p3087
asbasbasbag61
(g77
g63
NtRp3088
(dp3089
g66
(dp3090
sg75
g3062
sg68
(lp3091
g61
(g82
g63
NtRp3092
(dp3093
g66
(dp3094
g86
g87
ssg75
g3088
sg68
(lp3095
S'Skills'
p3096
asbag61
(g82
g63
NtRp3097
(dp3098
g66
(dp3099
g93
g94
ssg75
g3088
sg68
(lp3100
S':'
asbag61
(g82
g63
NtRp3101
(dp3102
g66
(dp3103
sg75
g3088
sg68
(lp3104
g61
(g62
g63
NtRp3105
(dp3106
g66
(dp3107
g74
I3
ssg75
g3101
sg68
(lp3108
S'None'
p3109
asbasbasbag61
(g77
g63
NtRp3110
(dp3111
g66
(dp3112
sg75
g3062
sg68
(lp3113
g61
(g82
g63
NtRp3114
(dp3115
g66
(dp3116
g86
g87
ssg75
g3110
sg68
(lp3117
S'email'
p3118
asbag61
(g82
g63
NtRp3119
(dp3120
g66
(dp3121
g93
g94
ssg75
g3110
sg68
(lp3122
S':'
asbag61
(g82
g63
NtRp3123
(dp3124
g66
(dp3125
sg75
g3110
sg68
(lp3126
g61
(g62
g63
NtRp3127
(dp3128
g66
(dp3129
g74
I3
ssg75
g3123
sg68
(lp3130
S'sdhfsdygsqjfgsd@gmail.com'
p3131
asbasbasbag61
(g77
g63
NtRp3132
(dp3133
g66
(dp3134
sg75
g3062
sg68
(lp3135
g61
(g82
g63
NtRp3136
(dp3137
g66
(dp3138
g86
g87
ssg75
g3132
sg68
(lp3139
S'id'
p3140
asbag61
(g82
g63
NtRp3141
(dp3142
g66
(dp3143
g93
g94
ssg75
g3132
sg68
(lp3144
S':'
asbag61
(g82
g63
NtRp3145
(dp3146
g66
(dp3147
sg75
g3132
sg68
(lp3148
g61
(g62
g63
NtRp3149
(dp3150
g66
(dp3151
g74
I3
ssg75
g3145
sg68
(lp3152
S'18'
p3153
asbasbasbag61
(g77
g63
NtRp3154
(dp3155
g66
(dp3156
sg75
g3062
sg68
(lp3157
g61
(g82
g63
NtRp3158
(dp3159
g66
(dp3160
g86
g87
ssg75
g3154
sg68
(lp3161
S'password'
p3162
asbag61
(g82
g63
NtRp3163
(dp3164
g66
(dp3165
g93
g94
ssg75
g3154
sg68
(lp3166
S':'
asbag61
(g82
g63
NtRp3167
(dp3168
g66
(dp3169
sg75
g3154
sg68
(lp3170
g61
(g62
g63
NtRp3171
(dp3172
g66
(dp3173
g74
I3
ssg75
g3167
sg68
(lp3174
S'ea90cd2ca4e4dc42b02bc1cde5ae1e60'
p3175
asbasbasbag61
(g77
g63
NtRp3176
(dp3177
g66
(dp3178
sg75
g3062
sg68
(lp3179
g61
(g82
g63
NtRp3180
(dp3181
g66
(dp3182
g86
g87
ssg75
g3176
sg68
(lp3183
S'registration_id'
p3184
asbag61
(g82
g63
NtRp3185
(dp3186
g66
(dp3187
g93
g94
ssg75
g3176
sg68
(lp3188
S':'
asbag61
(g82
g63
NtRp3189
(dp3190
g66
(dp3191
sg75
g3176
sg68
(lp3192
g61
(g62
g63
NtRp3193
(dp3194
g66
(dp3195
g74
I3
ssg75
g3189
sg68
(lp3196
S''
asbasbasbag61
(g77
g63
NtRp3197
(dp3198
g66
(dp3199
sg75
g3062
sg68
(lp3200
g61
(g82
g63
NtRp3201
(dp3202
g66
(dp3203
g86
g87
ssg75
g3197
sg68
(lp3204
S'registration_key'
p3205
asbag61
(g82
g63
NtRp3206
(dp3207
g66
(dp3208
g93
g94
ssg75
g3197
sg68
(lp3209
S':'
asbag61
(g82
g63
NtRp3210
(dp3211
g66
(dp3212
sg75
g3197
sg68
(lp3213
g61
(g62
g63
NtRp3214
(dp3215
g66
(dp3216
g74
I3
ssg75
g3210
sg68
(lp3217
S''
asbasbasbag61
(g77
g63
NtRp3218
(dp3219
g66
(dp3220
sg75
g3062
sg68
(lp3221
g61
(g82
g63
NtRp3222
(dp3223
g66
(dp3224
g86
g87
ssg75
g3218
sg68
(lp3225
S'reset_password_key'
p3226
asbag61
(g82
g63
NtRp3227
(dp3228
g66
(dp3229
g93
g94
ssg75
g3218
sg68
(lp3230
S':'
asbag61
(g82
g63
NtRp3231
(dp3232
g66
(dp3233
sg75
g3218
sg68
(lp3234
g61
(g62
g63
NtRp3235
(dp3236
g66
(dp3237
g74
I3
ssg75
g3231
sg68
(lp3238
S''
asbasbasbag61
(g77
g63
NtRp3239
(dp3240
g66
(dp3241
sg75
g3062
sg68
(lp3242
g61
(g82
g63
NtRp3243
(dp3244
g66
(dp3245
g86
g87
ssg75
g3239
sg68
(lp3246
S'username'
p3247
asbag61
(g82
g63
NtRp3248
(dp3249
g66
(dp3250
g93
g94
ssg75
g3239
sg68
(lp3251
S':'
asbag61
(g82
g63
NtRp3252
(dp3253
g66
(dp3254
sg75
g3239
sg68
(lp3255
g61
(g62
g63
NtRp3256
(dp3257
g66
(dp3258
g74
I3
ssg75
g3252
sg68
(lp3259
S'John_Doe'
p3260
asbasbasbag61
(g77
g63
NtRp3261
(dp3262
g66
(dp3263
sg75
g3062
sg68
(lp3264
g61
(g82
g63
NtRp3265
(dp3266
g66
(dp3267
g86
g87
ssg75
g3261
sg68
(lp3268
S'validated'
p3269
asbag61
(g82
g63
NtRp3270
(dp3271
g66
(dp3272
g93
g94
ssg75
g3261
sg68
(lp3273
S':'
asbag61
(g82
g63
NtRp3274
(dp3275
g66
(dp3276
sg75
g3261
sg68
(lp3277
g61
(g62
g63
NtRp3278
(dp3279
g66
(dp3280
g74
I3
ssg75
g3274
sg68
(lp3281
g104
asbasbasbasbasbasbasbasbasbasbasbasbasbsS'etype'
p3282
S"<type 'exceptions.SyntaxError'>"
p3283
sS'date'
p3284
S'Thu Mar 29 23:58:02 2012'
p3285
sS'response'
p3286
g61
(g62
g63
NtRp3287
(dp3288
g66
(dp3289
sg68
(lp3290
g61
(g70
g63
NtRp3291
(dp3292
g66
(dp3293
g74
I5
ssg75
Nsg68
(lp3294
g61
(g77
g63
NtRp3295
(dp3296
g66
(dp3297
sg75
g3291
sg68
(lp3298
g61
(g82
g63
NtRp3299
(dp3300
g66
(dp3301
g86
g87
ssg75
g3295
sg68
(lp3302
g159
asbag61
(g82
g63
NtRp3303
(dp3304
g66
(dp3305
g93
g94
ssg75
g3295
sg68
(lp3306
S':'
asbag61
(g82
g63
NtRp3307
(dp3308
g66
(dp3309
sg75
g3295
sg68
(lp3310
g61
(g62
g63
NtRp3311
(dp3312
g66
(dp3313
g74
I5
ssg75
g3307
sg68
(lp3314
S'<cStringIO.StringO object at 0x08486DC0>'
p3315
asbasbasbag61
(g77
g63
NtRp3316
(dp3317
g66
(dp3318
sg75
g3291
sg68
(lp3319
g61
(g82
g63
NtRp3320
(dp3321
g66
(dp3322
g86
g87
ssg75
g3316
sg68
(lp3323
g225
asbag61
(g82
g63
NtRp3324
(dp3325
g66
(dp3326
g93
g94
ssg75
g3316
sg68
(lp3327
S':'
asbag61
(g82
g63
NtRp3328
(dp3329
g66
(dp3330
sg75
g3316
sg68
(lp3331
g61
(g62
g63
NtRp3332
(dp3333
g66
(dp3334
g74
I5
ssg75
g3328
sg68
(lp3335
g61
(g70
g63
NtRp3336
(dp3337
g66
(dp3338
g74
I4
ssg75
Nsg68
(lp3339
g61
(g77
g63
NtRp3340
(dp3341
g66
(dp3342
sg75
g3336
sg68
(lp3343
g61
(g82
g63
NtRp3344
(dp3345
g66
(dp3346
g86
g87
ssg75
g3340
sg68
(lp3347
S'session_id_init'
p3348
asbag61
(g82
g63
NtRp3349
(dp3350
g66
(dp3351
g93
g94
ssg75
g3340
sg68
(lp3352
S':'
asbag61
(g82
g63
NtRp3353
(dp3354
g66
(dp3355
sg75
g3340
sg68
(lp3356
g61
(g62
g63
NtRp3357
(dp3358
g66
(dp3359
g74
I4
ssg75
g3353
sg68
(lp3360
g61
(g70
g63
NtRp3361
(dp3362
g66
(dp3363
g74
I3
ssg75
Nsg68
(lp3364
g61
(g77
g63
NtRp3365
(dp3366
g66
(dp3367
sg75
g3361
sg68
(lp3368
g61
(g82
g63
NtRp3369
(dp3370
g66
(dp3371
g86
g87
ssg75
g3365
sg68
(lp3372
g275
asbag61
(g82
g63
NtRp3373
(dp3374
g66
(dp3375
g93
g94
ssg75
g3365
sg68
(lp3376
S':'
asbag61
(g82
g63
NtRp3377
(dp3378
g66
(dp3379
sg75
g3365
sg68
(lp3380
g61
(g62
g63
NtRp3381
(dp3382
g66
(dp3383
g74
I3
ssg75
g3377
sg68
(lp3384
S''
asbasbasbag61
(g77
g63
NtRp3385
(dp3386
g66
(dp3387
sg75
g3361
sg68
(lp3388
g61
(g82
g63
NtRp3389
(dp3390
g66
(dp3391
g86
g87
ssg75
g3385
sg68
(lp3392
g296
asbag61
(g82
g63
NtRp3393
(dp3394
g66
(dp3395
g93
g94
ssg75
g3385
sg68
(lp3396
S':'
asbag61
(g82
g63
NtRp3397
(dp3398
g66
(dp3399
sg75
g3385
sg68
(lp3400
g61
(g62
g63
NtRp3401
(dp3402
g66
(dp3403
g74
I3
ssg75
g3397
sg68
(lp3404
S''
asbasbasbag61
(g77
g63
NtRp3405
(dp3406
g66
(dp3407
sg75
g3361
sg68
(lp3408
g61
(g82
g63
NtRp3409
(dp3410
g66
(dp3411
g86
g87
ssg75
g3405
sg68
(lp3412
g317
asbag61
(g82
g63
NtRp3413
(dp3414
g66
(dp3415
g93
g94
ssg75
g3405
sg68
(lp3416
S':'
asbag61
(g82
g63
NtRp3417
(dp3418
g66
(dp3419
sg75
g3405
sg68
(lp3420
g61
(g62
g63
NtRp3421
(dp3422
g66
(dp3423
g74
I3
ssg75
g3417
sg68
(lp3424
S''
asbasbasbag61
(g77
g63
NtRp3425
(dp3426
g66
(dp3427
sg75
g3361
sg68
(lp3428
g61
(g82
g63
NtRp3429
(dp3430
g66
(dp3431
g86
g87
ssg75
g3425
sg68
(lp3432
g338
asbag61
(g82
g63
NtRp3433
(dp3434
g66
(dp3435
g93
g94
ssg75
g3425
sg68
(lp3436
S':'
asbag61
(g82
g63
NtRp3437
(dp3438
g66
(dp3439
sg75
g3425
sg68
(lp3440
g61
(g62
g63
NtRp3441
(dp3442
g66
(dp3443
g74
I3
ssg75
g3437
sg68
(lp3444
S''
asbasbasbag61
(g77
g63
NtRp3445
(dp3446
g66
(dp3447
sg75
g3361
sg68
(lp3448
g61
(g82
g63
NtRp3449
(dp3450
g66
(dp3451
g86
g87
ssg75
g3445
sg68
(lp3452
g359
asbag61
(g82
g63
NtRp3453
(dp3454
g66
(dp3455
g93
g94
ssg75
g3445
sg68
(lp3456
S':'
asbag61
(g82
g63
NtRp3457
(dp3458
g66
(dp3459
sg75
g3445
sg68
(lp3460
g61
(g62
g63
NtRp3461
(dp3462
g66
(dp3463
g74
I3
ssg75
g3457
sg68
(lp3464
S'/'
asbasbasbag61
(g77
g63
NtRp3465
(dp3466
g66
(dp3467
sg75
g3361
sg68
(lp3468
g61
(g82
g63
NtRp3469
(dp3470
g66
(dp3471
g86
g87
ssg75
g3465
sg68
(lp3472
g380
asbag61
(g82
g63
NtRp3473
(dp3474
g66
(dp3475
g93
g94
ssg75
g3465
sg68
(lp3476
S':'
asbag61
(g82
g63
NtRp3477
(dp3478
g66
(dp3479
sg75
g3465
sg68
(lp3480
g61
(g62
g63
NtRp3481
(dp3482
g66
(dp3483
g74
I3
ssg75
g3477
sg68
(lp3484
S''
asbasbasbag61
(g77
g63
NtRp3485
(dp3486
g66
(dp3487
sg75
g3361
sg68
(lp3488
g61
(g82
g63
NtRp3489
(dp3490
g66
(dp3491
g86
g87
ssg75
g3485
sg68
(lp3492
g401
asbag61
(g82
g63
NtRp3493
(dp3494
g66
(dp3495
g93
g94
ssg75
g3485
sg68
(lp3496
S':'
asbag61
(g82
g63
NtRp3497
(dp3498
g66
(dp3499
sg75
g3485
sg68
(lp3500
g61
(g62
g63
NtRp3501
(dp3502
g66
(dp3503
g74
I3
ssg75
g3497
sg68
(lp3504
S''
asbasbasbasbasbasbasbasbasbasbasbag61
(g77
g63
NtRp3505
(dp3506
g66
(dp3507
sg75
g3291
sg68
(lp3508
g61
(g82
g63
NtRp3509
(dp3510
g66
(dp3511
g86
g87
ssg75
g3505
sg68
(lp3512
S'delimiters'
p3513
asbag61
(g82
g63
NtRp3514
(dp3515
g66
(dp3516
g93
g94
ssg75
g3505
sg68
(lp3517
S':'
asbag61
(g82
g63
NtRp3518
(dp3519
g66
(dp3520
sg75
g3505
sg68
(lp3521
g61
(g62
g63
NtRp3522
(dp3523
g66
(dp3524
g74
I5
ssg75
g3518
sg68
(lp3525
g61
(g70
g63
NtRp3526
(dp3527
g66
(dp3528
g74
I4
ssg75
Nsg68
(lp3529
g61
(g77
g63
NtRp3530
(dp3531
g66
(dp3532
sg75
g3526
sg68
(lp3533
g61
(g82
g63
NtRp3534
(dp3535
g66
(dp3536
sg75
g3530
sg68
(lp3537
g61
(g62
g63
NtRp3538
(dp3539
g66
(dp3540
g74
I4
ssg75
g3534
sg68
(lp3541
S'{{'
p3542
asbasbasbag61
(g77
g63
NtRp3543
(dp3544
g66
(dp3545
sg75
g3526
sg68
(lp3546
g61
(g82
g63
NtRp3547
(dp3548
g66
(dp3549
sg75
g3543
sg68
(lp3550
g61
(g62
g63
NtRp3551
(dp3552
g66
(dp3553
g74
I4
ssg75
g3547
sg68
(lp3554
S'}}'
p3555
asbasbasbasbasbasbasbag61
(g77
g63
NtRp3556
(dp3557
g66
(dp3558
sg75
g3291
sg68
(lp3559
g61
(g82
g63
NtRp3560
(dp3561
g66
(dp3562
g86
g87
ssg75
g3556
sg68
(lp3563
S'files'
p3564
asbag61
(g82
g63
NtRp3565
(dp3566
g66
(dp3567
g93
g94
ssg75
g3556
sg68
(lp3568
S':'
asbag61
(g82
g63
NtRp3569
(dp3570
g66
(dp3571
sg75
g3556
sg68
(lp3572
g61
(g62
g63
NtRp3573
(dp3574
g66
(dp3575
g74
I5
ssg75
g3569
sg68
(lp3576
g61
(g70
g63
NtRp3577
(dp3578
g66
(dp3579
g74
I4
ssg75
Nsg68
(lp3580
sbasbasbasbag61
(g77
g63
NtRp3581
(dp3582
g66
(dp3583
sg75
g3291
sg68
(lp3584
g61
(g82
g63
NtRp3585
(dp3586
g66
(dp3587
g86
g87
ssg75
g3581
sg68
(lp3588
S'flash'
p3589
asbag61
(g82
g63
NtRp3590
(dp3591
g66
(dp3592
g93
g94
ssg75
g3581
sg68
(lp3593
S':'
asbag61
(g82
g63
NtRp3594
(dp3595
g66
(dp3596
sg75
g3581
sg68
(lp3597
g61
(g62
g63
NtRp3598
(dp3599
g66
(dp3600
g74
I5
ssg75
g3594
sg68
(lp3601
S''
asbasbasbag61
(g77
g63
NtRp3602
(dp3603
g66
(dp3604
sg75
g3291
sg68
(lp3605
g61
(g82
g63
NtRp3606
(dp3607
g66
(dp3608
g86
g87
ssg75
g3602
sg68
(lp3609
S'generic_patterns'
p3610
asbag61
(g82
g63
NtRp3611
(dp3612
g66
(dp3613
g93
g94
ssg75
g3602
sg68
(lp3614
S':'
asbag61
(g82
g63
NtRp3615
(dp3616
g66
(dp3617
sg75
g3602
sg68
(lp3618
g61
(g62
g63
NtRp3619
(dp3620
g66
(dp3621
g74
I5
ssg75
g3615
sg68
(lp3622
g61
(g70
g63
NtRp3623
(dp3624
g66
(dp3625
g74
I4
ssg75
Nsg68
(lp3626
g61
(g77
g63
NtRp3627
(dp3628
g66
(dp3629
sg75
g3623
sg68
(lp3630
g61
(g82
g63
NtRp3631
(dp3632
g66
(dp3633
sg75
g3627
sg68
(lp3634
g61
(g62
g63
NtRp3635
(dp3636
g66
(dp3637
g74
I4
ssg75
g3631
sg68
(lp3638
S'*'
asbasbasbasbasbasbasbag61
(g77
g63
NtRp3639
(dp3640
g66
(dp3641
sg75
g3291
sg68
(lp3642
g61
(g82
g63
NtRp3643
(dp3644
g66
(dp3645
g86
g87
ssg75
g3639
sg68
(lp3646
S'headers'
p3647
asbag61
(g82
g63
NtRp3648
(dp3649
g66
(dp3650
g93
g94
ssg75
g3639
sg68
(lp3651
S':'
asbag61
(g82
g63
NtRp3652
(dp3653
g66
(dp3654
sg75
g3639
sg68
(lp3655
g61
(g62
g63
NtRp3656
(dp3657
g66
(dp3658
g74
I5
ssg75
g3652
sg68
(lp3659
g61
(g70
g63
NtRp3660
(dp3661
g66
(dp3662
g74
I4
ssg75
Nsg68
(lp3663
g61
(g77
g63
NtRp3664
(dp3665
g66
(dp3666
sg75
g3660
sg68
(lp3667
g61
(g82
g63
NtRp3668
(dp3669
g66
(dp3670
g86
g87
ssg75
g3664
sg68
(lp3671
S'Cache-Control'
p3672
asbag61
(g82
g63
NtRp3673
(dp3674
g66
(dp3675
g93
g94
ssg75
g3664
sg68
(lp3676
S':'
asbag61
(g82
g63
NtRp3677
(dp3678
g66
(dp3679
sg75
g3664
sg68
(lp3680
g61
(g62
g63
NtRp3681
(dp3682
g66
(dp3683
g74
I4
ssg75
g3677
sg68
(lp3684
S'no-store, no-cache, must-revalidate, post-check=0, pre-check=0'
p3685
asbasbasbag61
(g77
g63
NtRp3686
(dp3687
g66
(dp3688
sg75
g3660
sg68
(lp3689
g61
(g82
g63
NtRp3690
(dp3691
g66
(dp3692
g86
g87
ssg75
g3686
sg68
(lp3693
S'Content-Type'
p3694
asbag61
(g82
g63
NtRp3695
(dp3696
g66
(dp3697
g93
g94
ssg75
g3686
sg68
(lp3698
S':'
asbag61
(g82
g63
NtRp3699
(dp3700
g66
(dp3701
sg75
g3686
sg68
(lp3702
g61
(g62
g63
NtRp3703
(dp3704
g66
(dp3705
g74
I4
ssg75
g3699
sg68
(lp3706
S'text/html; charset=utf-8'
p3707
asbasbasbag61
(g77
g63
NtRp3708
(dp3709
g66
(dp3710
sg75
g3660
sg68
(lp3711
g61
(g82
g63
NtRp3712
(dp3713
g66
(dp3714
g86
g87
ssg75
g3708
sg68
(lp3715
S'Expires'
p3716
asbag61
(g82
g63
NtRp3717
(dp3718
g66
(dp3719
g93
g94
ssg75
g3708
sg68
(lp3720
S':'
asbag61
(g82
g63
NtRp3721
(dp3722
g66
(dp3723
sg75
g3708
sg68
(lp3724
g61
(g62
g63
NtRp3725
(dp3726
g66
(dp3727
g74
I4
ssg75
g3721
sg68
(lp3728
S'Thu, 29 Mar 2012 21:58:01 GMT'
p3729
asbasbasbag61
(g77
g63
NtRp3730
(dp3731
g66
(dp3732
sg75
g3660
sg68
(lp3733
g61
(g82
g63
NtRp3734
(dp3735
g66
(dp3736
g86
g87
ssg75
g3730
sg68
(lp3737
S'Pragma'
p3738
asbag61
(g82
g63
NtRp3739
(dp3740
g66
(dp3741
g93
g94
ssg75
g3730
sg68
(lp3742
S':'
asbag61
(g82
g63
NtRp3743
(dp3744
g66
(dp3745
sg75
g3730
sg68
(lp3746
g61
(g62
g63
NtRp3747
(dp3748
g66
(dp3749
g74
I4
ssg75
g3743
sg68
(lp3750
S'no-cache'
p3751
asbasbasbag61
(g77
g63
NtRp3752
(dp3753
g66
(dp3754
sg75
g3660
sg68
(lp3755
g61
(g82
g63
NtRp3756
(dp3757
g66
(dp3758
g86
g87
ssg75
g3752
sg68
(lp3759
S'X-Powered-By'
p3760
asbag61
(g82
g63
NtRp3761
(dp3762
g66
(dp3763
g93
g94
ssg75
g3752
sg68
(lp3764
S':'
asbag61
(g82
g63
NtRp3765
(dp3766
g66
(dp3767
sg75
g3752
sg68
(lp3768
g61
(g62
g63
NtRp3769
(dp3770
g66
(dp3771
g74
I4
ssg75
g3765
sg68
(lp3772
S'web2py'
p3773
asbasbasbasbasbasbasbag61
(g77
g63
NtRp3774
(dp3775
g66
(dp3776
sg75
g3291
sg68
(lp3777
g61
(g82
g63
NtRp3778
(dp3779
g66
(dp3780
g86
g87
ssg75
g3774
sg68
(lp3781
S'menu'
p3782
asbag61
(g82
g63
NtRp3783
(dp3784
g66
(dp3785
g93
g94
ssg75
g3774
sg68
(lp3786
S':'
asbag61
(g82
g63
NtRp3787
(dp3788
g66
(dp3789
sg75
g3774
sg68
(lp3790
g61
(g62
g63
NtRp3791
(dp3792
g66
(dp3793
g74
I5
ssg75
g3787
sg68
(lp3794
g61
(g70
g63
NtRp3795
(dp3796
g66
(dp3797
g74
I4
ssg75
Nsg68
(lp3798
g61
(g77
g63
NtRp3799
(dp3800
g66
(dp3801
sg75
g3795
sg68
(lp3802
g61
(g82
g63
NtRp3803
(dp3804
g66
(dp3805
sg75
g3799
sg68
(lp3806
g61
(g62
g63
NtRp3807
(dp3808
g66
(dp3809
g74
I4
ssg75
g3803
sg68
(lp3810
g61
(g70
g63
NtRp3811
(dp3812
g66
(dp3813
g74
I3
ssg75
Nsg68
(lp3814
g61
(g77
g63
NtRp3815
(dp3816
g66
(dp3817
sg75
g3811
sg68
(lp3818
g61
(g82
g63
NtRp3819
(dp3820
g66
(dp3821
sg75
g3815
sg68
(lp3822
g61
(g62
g63
NtRp3823
(dp3824
g66
(dp3825
g74
I3
ssg75
g3819
sg68
(lp3826
cgluon.languages
lazyT_unpickle
p3827
(S's\x04\x00\x00\x00Home'
tRp3828
asbasbasbag61
(g77
g63
NtRp3829
(dp3830
g66
(dp3831
sg75
g3811
sg68
(lp3832
g61
(g82
g63
NtRp3833
(dp3834
g66
(dp3835
sg75
g3829
sg68
(lp3836
g61
(g62
g63
NtRp3837
(dp3838
g66
(dp3839
g74
I3
ssg75
g3833
sg68
(lp3840
g104
asbasbasbag61
(g77
g63
NtRp3841
(dp3842
g66
(dp3843
sg75
g3811
sg68
(lp3844
g61
(g82
g63
NtRp3845
(dp3846
g66
(dp3847
sg75
g3841
sg68
(lp3848
g61
(g62
g63
NtRp3849
(dp3850
g66
(dp3851
g74
I3
ssg75
g3845
sg68
(lp3852
S'/init/default/index'
p3853
asbasbasbag61
(g77
g63
NtRp3854
(dp3855
g66
(dp3856
sg75
g3811
sg68
(lp3857
g61
(g82
g63
NtRp3858
(dp3859
g66
(dp3860
sg75
g3854
sg68
(lp3861
g61
(g62
g63
NtRp3862
(dp3863
g66
(dp3864
g74
I3
ssg75
g3858
sg68
(lp3865
g61
(g70
g63
NtRp3866
(dp3867
g66
(dp3868
g74
I2
ssg75
Nsg68
(lp3869
sbasbasbasbasbasbasbasbag61
(g77
g63
NtRp3870
(dp3871
g66
(dp3872
sg75
g3795
sg68
(lp3873
g61
(g82
g63
NtRp3874
(dp3875
g66
(dp3876
sg75
g3870
sg68
(lp3877
g61
(g62
g63
NtRp3878
(dp3879
g66
(dp3880
g74
I4
ssg75
g3874
sg68
(lp3881
g61
(g70
g63
NtRp3882
(dp3883
g66
(dp3884
g74
I3
ssg75
Nsg68
(lp3885
g61
(g77
g63
NtRp3886
(dp3887
g66
(dp3888
sg75
g3882
sg68
(lp3889
g61
(g82
g63
NtRp3890
(dp3891
g66
(dp3892
sg75
g3886
sg68
(lp3893
g61
(g62
g63
NtRp3894
(dp3895
g66
(dp3896
g74
I3
ssg75
g3890
sg68
(lp3897
g61
(cgluon.html
SPAN
p3898
g63
NtRp3899
(dp3900
g66
(dp3901
g86
S'color:yellow'
p3902
ssg75
Nsg68
(lp3903
g3773
asbasbasbasbag61
(g77
g63
NtRp3904
(dp3905
g66
(dp3906
sg75
g3882
sg68
(lp3907
g61
(g82
g63
NtRp3908
(dp3909
g66
(dp3910
sg75
g3904
sg68
(lp3911
g61
(g62
g63
NtRp3912
(dp3913
g66
(dp3914
g74
I3
ssg75
g3908
sg68
(lp3915
g104
asbasbasbag61
(g77
g63
NtRp3916
(dp3917
g66
(dp3918
sg75
g3882
sg68
(lp3919
g61
(g82
g63
NtRp3920
(dp3921
g66
(dp3922
sg75
g3916
sg68
(lp3923
g61
(g62
g63
NtRp3924
(dp3925
g66
(dp3926
g74
I3
ssg75
g3920
sg68
(lp3927
S'None'
p3928
asbasbasbag61
(g77
g63
NtRp3929
(dp3930
g66
(dp3931
sg75
g3882
sg68
(lp3932
g61
(g82
g63
NtRp3933
(dp3934
g66
(dp3935
sg75
g3929
sg68
(lp3936
g61
(g62
g63
NtRp3937
(dp3938
g66
(dp3939
g74
I3
ssg75
g3933
sg68
(lp3940
g61
(g70
g63
NtRp3941
(dp3942
g66
(dp3943
g74
I2
ssg75
Nsg68
(lp3944
g61
(g77
g63
NtRp3945
(dp3946
g66
(dp3947
sg75
g3941
sg68
(lp3948
g61
(g82
g63
NtRp3949
(dp3950
g66
(dp3951
sg75
g3945
sg68
(lp3952
g61
(g62
g63
NtRp3953
(dp3954
g66
(dp3955
g74
I2
ssg75
g3949
sg68
(lp3956
g61
(g70
g63
NtRp3957
(dp3958
g66
(dp3959
g74
I1
ssg75
Nsg68
(lp3960
g61
(g77
g63
NtRp3961
(dp3962
g66
(dp3963
sg75
g3957
sg68
(lp3964
g61
(g82
g63
NtRp3965
(dp3966
g66
(dp3967
sg75
g3961
sg68
(lp3968
g61
(g62
g63
NtRp3969
(dp3970
g66
(dp3971
g74
I1
ssg75
g3965
sg68
(lp3972
g3827
(S's\x08\x00\x00\x00My Sites'
tRp3973
asbasbasbag61
(g77
g63
NtRp3974
(dp3975
g66
(dp3976
sg75
g3957
sg68
(lp3977
g61
(g82
g63
NtRp3978
(dp3979
g66
(dp3980
sg75
g3974
sg68
(lp3981
g61
(g62
g63
NtRp3982
(dp3983
g66
(dp3984
g74
I1
ssg75
g3978
sg68
(lp3985
I00
asbasbasbag61
(g77
g63
NtRp3986
(dp3987
g66
(dp3988
sg75
g3957
sg68
(lp3989
g61
(g82
g63
NtRp3990
(dp3991
g66
(dp3992
sg75
g3986
sg68
(lp3993
g61
(g62
g63
NtRp3994
(dp3995
g66
(dp3996
g74
I1
ssg75
g3990
sg68
(lp3997
S'/admin/default/site'
p3998
asbasbasbasbasbasbasbag61
(g77
g63
NtRp3999
(dp4000
g66
(dp4001
sg75
g3941
sg68
(lp4002
g61
(g82
g63
NtRp4003
(dp4004
g66
(dp4005
sg75
g3999
sg68
(lp4006
g61
(g62
g63
NtRp4007
(dp4008
g66
(dp4009
g74
I2
ssg75
g4003
sg68
(lp4010
g61
(g70
g63
NtRp4011
(dp4012
g66
(dp4013
g74
I1
ssg75
Nsg68
(lp4014
g61
(g77
g63
NtRp4015
(dp4016
g66
(dp4017
sg75
g4011
sg68
(lp4018
g61
(g82
g63
NtRp4019
(dp4020
g66
(dp4021
sg75
g4015
sg68
(lp4022
g61
(g62
g63
NtRp4023
(dp4024
g66
(dp4025
g74
I1
ssg75
g4019
sg68
(lp4026
g3827
(S's\x08\x00\x00\x00This App'
tRp4027
asbasbasbag61
(g77
g63
NtRp4028
(dp4029
g66
(dp4030
sg75
g4011
sg68
(lp4031
g61
(g82
g63
NtRp4032
(dp4033
g66
(dp4034
sg75
g4028
sg68
(lp4035
g61
(g62
g63
NtRp4036
(dp4037
g66
(dp4038
g74
I1
ssg75
g4032
sg68
(lp4039
I00
asbasbasbag61
(g77
g63
NtRp4040
(dp4041
g66
(dp4042
sg75
g4011
sg68
(lp4043
g61
(g82
g63
NtRp4044
(dp4045
g66
(dp4046
sg75
g4040
sg68
(lp4047
g61
(g62
g63
NtRp4048
(dp4049
g66
(dp4050
g74
I1
ssg75
g4044
sg68
(lp4051
S'/admin/default/design/init'
p4052
asbasbasbag61
(g77
g63
NtRp4053
(dp4054
g66
(dp4055
sg75
g4011
sg68
(lp4056
g61
(g82
g63
NtRp4057
(dp4058
g66
(dp4059
sg75
g4053
sg68
(lp4060
g61
(g62
g63
NtRp4061
(dp4062
g66
(dp4063
g74
I1
ssg75
g4057
sg68
(lp4064
(lp4065
(g3827
(S's\n\x00\x00\x00Controller'
tRp4066
I00
S'/admin/default/edit/init/controllers/default.py'
tp4067
a(g3827
(S's\x04\x00\x00\x00View'
tRp4068
I00
S'/admin/default/edit/init/views/default/inscriptioninvit.html'
tp4069
a(g3827
(S's\x06\x00\x00\x00Layout'
tRp4070
I00
S'/admin/default/edit/init/views/layout.html'
tp4071
a(g3827
(S's\n\x00\x00\x00Stylesheet'
tRp4072
I00
S'/admin/default/edit/init/static/css/web2py.css'
tp4073
a(g3827
(S's\x08\x00\x00\x00DB Model'
tRp4074
I00
S'/admin/default/edit/init/models/db.py'
tp4075
a(g3827
(S's\n\x00\x00\x00Menu Model'
tRp4076
I00
S'/admin/default/edit/init/models/menu.py'
tp4077
a(g3827
(S's\x08\x00\x00\x00Database'
tRp4078
I00
S'/init/appadmin/index'
tp4079
a(g3827
(S's\x06\x00\x00\x00Errors'
tRp4080
I00
S'/admin/default/errors/init'
tp4081
a(g3827
(S's\x05\x00\x00\x00About'
tRp4082
I00
S'/admin/default/about/init'
tp4083
aasbasbasbasbasbasbasbag61
(g77
g63
NtRp4084
(dp4085
g66
(dp4086
sg75
g3941
sg68
(lp4087
g61
(g82
g63
NtRp4088
(dp4089
g66
(dp4090
sg75
g4084
sg68
(lp4091
g61
(g62
g63
NtRp4092
(dp4093
g66
(dp4094
g74
I2
ssg75
g4088
sg68
(lp4095
g61
(g70
g63
NtRp4096
(dp4097
g66
(dp4098
g74
I1
ssg75
Nsg68
(lp4099
g61
(g77
g63
NtRp4100
(dp4101
g66
(dp4102
sg75
g4096
sg68
(lp4103
g61
(g82
g63
NtRp4104
(dp4105
g66
(dp4106
sg75
g4100
sg68
(lp4107
g61
(g62
g63
NtRp4108
(dp4109
g66
(dp4110
g74
I1
ssg75
g4104
sg68
(lp4111
S'web2py.com'
p4112
asbasbasbag61
(g77
g63
NtRp4113
(dp4114
g66
(dp4115
sg75
g4096
sg68
(lp4116
g61
(g82
g63
NtRp4117
(dp4118
g66
(dp4119
sg75
g4113
sg68
(lp4120
g61
(g62
g63
NtRp4121
(dp4122
g66
(dp4123
g74
I1
ssg75
g4117
sg68
(lp4124
I00
asbasbasbag61
(g77
g63
NtRp4125
(dp4126
g66
(dp4127
sg75
g4096
sg68
(lp4128
g61
(g82
g63
NtRp4129
(dp4130
g66
(dp4131
sg75
g4125
sg68
(lp4132
g61
(g62
g63
NtRp4133
(dp4134
g66
(dp4135
g74
I1
ssg75
g4129
sg68
(lp4136
S'http://www.web2py.com'
p4137
asbasbasbag61
(g77
g63
NtRp4138
(dp4139
g66
(dp4140
sg75
g4096
sg68
(lp4141
g61
(g82
g63
NtRp4142
(dp4143
g66
(dp4144
sg75
g4138
sg68
(lp4145
g61
(g62
g63
NtRp4146
(dp4147
g66
(dp4148
g74
I1
ssg75
g4142
sg68
(lp4149
(lp4150
(g3827
(S's\x08\x00\x00\x00Download'
tRp4151
I00
S'http://www.web2py.com/examples/default/download'
p4152
tp4153
a(g3827
(S's\x07\x00\x00\x00Support'
tRp4154
I00
S'http://www.web2py.com/examples/default/support'
p4155
tp4156
a(g3827
(S's\x04\x00\x00\x00Demo'
tRp4157
I00
S'http://web2py.com/demo_admin'
p4158
tp4159
a(g3827
(S's\x0e\x00\x00\x00Quick Examples'
tRp4160
I00
S'http://web2py.com/examples/default/examples'
p4161
tp4162
a(g3827
(S's\x03\x00\x00\x00FAQ'
tRp4163
I00
S'http://web2py.com/AlterEgo'
p4164
tp4165
a(g3827
(S's\x06\x00\x00\x00Videos'
tRp4166
I00
S'http://www.web2py.com/examples/default/videos/'
p4167
tp4168
a(g3827
(S's\x11\x00\x00\x00Free Applications'
tRp4169
I00
S'http://web2py.com/appliances'
p4170
tp4171
a(g3827
(S's\x07\x00\x00\x00Plugins'
tRp4172
I00
S'http://web2py.com/plugins'
p4173
tp4174
a(g3827
(S's\x07\x00\x00\x00Layouts'
tRp4175
I00
S'http://web2py.com/layouts'
p4176
tp4177
a(g3827
(S's\x07\x00\x00\x00Recipes'
tRp4178
I00
S'http://web2pyslices.com/'
p4179
tp4180
a(g3827
(S's\x08\x00\x00\x00Semantic'
tRp4181
I00
S'http://web2py.com/semantic'
p4182
tp4183
aasbasbasbasbasbasbasbag61
(g77
g63
NtRp4184
(dp4185
g66
(dp4186
sg75
g3941
sg68
(lp4187
g61
(g82
g63
NtRp4188
(dp4189
g66
(dp4190
sg75
g4184
sg68
(lp4191
g61
(g62
g63
NtRp4192
(dp4193
g66
(dp4194
g74
I2
ssg75
g4188
sg68
(lp4195
g61
(g70
g63
NtRp4196
(dp4197
g66
(dp4198
g74
I1
ssg75
Nsg68
(lp4199
g61
(g77
g63
NtRp4200
(dp4201
g66
(dp4202
sg75
g4196
sg68
(lp4203
g61
(g82
g63
NtRp4204
(dp4205
g66
(dp4206
sg75
g4200
sg68
(lp4207
g61
(g62
g63
NtRp4208
(dp4209
g66
(dp4210
g74
I1
ssg75
g4204
sg68
(lp4211
g3827
(S's\r\x00\x00\x00Documentation'
tRp4212
asbasbasbag61
(g77
g63
NtRp4213
(dp4214
g66
(dp4215
sg75
g4196
sg68
(lp4216
g61
(g82
g63
NtRp4217
(dp4218
g66
(dp4219
sg75
g4213
sg68
(lp4220
g61
(g62
g63
NtRp4221
(dp4222
g66
(dp4223
g74
I1
ssg75
g4217
sg68
(lp4224
I00
asbasbasbag61
(g77
g63
NtRp4225
(dp4226
g66
(dp4227
sg75
g4196
sg68
(lp4228
g61
(g82
g63
NtRp4229
(dp4230
g66
(dp4231
sg75
g4225
sg68
(lp4232
g61
(g62
g63
NtRp4233
(dp4234
g66
(dp4235
g74
I1
ssg75
g4229
sg68
(lp4236
S'http://www.web2py.com/book'
p4237
asbasbasbag61
(g77
g63
NtRp4238
(dp4239
g66
(dp4240
sg75
g4196
sg68
(lp4241
g61
(g82
g63
NtRp4242
(dp4243
g66
(dp4244
sg75
g4238
sg68
(lp4245
g61
(g62
g63
NtRp4246
(dp4247
g66
(dp4248
g74
I1
ssg75
g4242
sg68
(lp4249
(lp4250
(g3827
(S's\x07\x00\x00\x00Preface'
tRp4251
I00
S'http://www.web2py.com/book/default/chapter/00'
p4252
tp4253
a(g3827
(S's\x0c\x00\x00\x00Introduction'
tRp4254
I00
S'http://www.web2py.com/book/default/chapter/01'
p4255
tp4256
a(g3827
(S's\x06\x00\x00\x00Python'
tRp4257
I00
S'http://www.web2py.com/book/default/chapter/02'
p4258
tp4259
a(g3827
(S's\x08\x00\x00\x00Overview'
tRp4260
I00
S'http://www.web2py.com/book/default/chapter/03'
p4261
tp4262
a(g3827
(S's\x08\x00\x00\x00The Core'
tRp4263
I00
S'http://www.web2py.com/book/default/chapter/04'
p4264
tp4265
a(g3827
(S's\t\x00\x00\x00The Views'
tRp4266
I00
S'http://www.web2py.com/book/default/chapter/05'
p4267
tp4268
a(g3827
(S's\x08\x00\x00\x00Database'
tRp4269
I00
S'http://www.web2py.com/book/default/chapter/06'
p4270
tp4271
a(g3827
(S's\x14\x00\x00\x00Forms and Validators'
tRp4272
I00
S'http://www.web2py.com/book/default/chapter/07'
p4273
tp4274
a(g3827
(S's\r\x00\x00\x00Email and SMS'
tRp4275
I00
S'http://www.web2py.com/book/default/chapter/08'
p4276
tp4277
a(g3827
(S's\x0e\x00\x00\x00Access Control'
tRp4278
I00
S'http://www.web2py.com/book/default/chapter/09'
p4279
tp4280
a(g3827
(S's\x08\x00\x00\x00Services'
tRp4281
I00
S'http://www.web2py.com/book/default/chapter/10'
p4282
tp4283
a(g3827
(S's\x0c\x00\x00\x00Ajax Recipes'
tRp4284
I00
S'http://www.web2py.com/book/default/chapter/11'
p4285
tp4286
a(g3827
(S's\x16\x00\x00\x00Components and Plugins'
tRp4287
I00
S'http://www.web2py.com/book/default/chapter/12'
p4288
tp4289
a(g3827
(S's\x12\x00\x00\x00Deployment Recipes'
tRp4290
I00
S'http://www.web2py.com/book/default/chapter/13'
p4291
tp4292
a(g3827
(S's\r\x00\x00\x00Other Recipes'
tRp4293
I00
S'http://www.web2py.com/book/default/chapter/14'
p4294
tp4295
a(g3827
(S's\r\x00\x00\x00Buy this book'
tRp4296
I00
S'http://stores.lulu.com/web2py'
p4297
tp4298
aasbasbasbasbasbasbasbag61
(g77
g63
NtRp4299
(dp4300
g66
(dp4301
sg75
g3941
sg68
(lp4302
g61
(g82
g63
NtRp4303
(dp4304
g66
(dp4305
sg75
g4299
sg68
(lp4306
g61
(g62
g63
NtRp4307
(dp4308
g66
(dp4309
g74
I2
ssg75
g4303
sg68
(lp4310
g61
(g70
g63
NtRp4311
(dp4312
g66
(dp4313
g74
I1
ssg75
Nsg68
(lp4314
g61
(g77
g63
NtRp4315
(dp4316
g66
(dp4317
sg75
g4311
sg68
(lp4318
g61
(g82
g63
NtRp4319
(dp4320
g66
(dp4321
sg75
g4315
sg68
(lp4322
g61
(g62
g63
NtRp4323
(dp4324
g66
(dp4325
g74
I1
ssg75
g4319
sg68
(lp4326
g3827
(S's\t\x00\x00\x00Community'
tRp4327
asbasbasbag61
(g77
g63
NtRp4328
(dp4329
g66
(dp4330
sg75
g4311
sg68
(lp4331
g61
(g82
g63
NtRp4332
(dp4333
g66
(dp4334
sg75
g4328
sg68
(lp4335
g61
(g62
g63
NtRp4336
(dp4337
g66
(dp4338
g74
I1
ssg75
g4332
sg68
(lp4339
I00
asbasbasbag61
(g77
g63
NtRp4340
(dp4341
g66
(dp4342
sg75
g4311
sg68
(lp4343
g61
(g82
g63
NtRp4344
(dp4345
g66
(dp4346
sg75
g4340
sg68
(lp4347
g61
(g62
g63
NtRp4348
(dp4349
g66
(dp4350
g74
I1
ssg75
g4344
sg68
(lp4351
Nasbasbasbag61
(g77
g63
NtRp4352
(dp4353
g66
(dp4354
sg75
g4311
sg68
(lp4355
g61
(g82
g63
NtRp4356
(dp4357
g66
(dp4358
sg75
g4352
sg68
(lp4359
g61
(g62
g63
NtRp4360
(dp4361
g66
(dp4362
g74
I1
ssg75
g4356
sg68
(lp4363
(lp4364
(g3827
(S's\x06\x00\x00\x00Groups'
tRp4365
I00
S'http://www.web2py.com/examples/default/usergroups'
p4366
tp4367
a(g3827
(S's\x07\x00\x00\x00Twitter'
tRp4368
I00
S'http://twitter.com/web2py'
p4369
tp4370
a(g3827
(S's\t\x00\x00\x00Live Chat'
tRp4371
I00
S'http://webchat.freenode.net/?channels=web2py'
p4372
tp4373
aasbasbasbasbasbasbasbag61
(g77
g63
NtRp4374
(dp4375
g66
(dp4376
sg75
g3941
sg68
(lp4377
g61
(g82
g63
NtRp4378
(dp4379
g66
(dp4380
sg75
g4374
sg68
(lp4381
g61
(g62
g63
NtRp4382
(dp4383
g66
(dp4384
g74
I2
ssg75
g4378
sg68
(lp4385
g61
(g70
g63
NtRp4386
(dp4387
g66
(dp4388
g74
I1
ssg75
Nsg68
(lp4389
g61
(g77
g63
NtRp4390
(dp4391
g66
(dp4392
sg75
g4386
sg68
(lp4393
g61
(g82
g63
NtRp4394
(dp4395
g66
(dp4396
sg75
g4390
sg68
(lp4397
g61
(g62
g63
NtRp4398
(dp4399
g66
(dp4400
g74
I1
ssg75
g4394
sg68
(lp4401
g3827
(S's\x07\x00\x00\x00Plugins'
tRp4402
asbasbasbag61
(g77
g63
NtRp4403
(dp4404
g66
(dp4405
sg75
g4386
sg68
(lp4406
g61
(g82
g63
NtRp4407
(dp4408
g66
(dp4409
sg75
g4403
sg68
(lp4410
g61
(g62
g63
NtRp4411
(dp4412
g66
(dp4413
g74
I1
ssg75
g4407
sg68
(lp4414
I00
asbasbasbag61
(g77
g63
NtRp4415
(dp4416
g66
(dp4417
sg75
g4386
sg68
(lp4418
g61
(g82
g63
NtRp4419
(dp4420
g66
(dp4421
sg75
g4415
sg68
(lp4422
g61
(g62
g63
NtRp4423
(dp4424
g66
(dp4425
g74
I1
ssg75
g4419
sg68
(lp4426
Nasbasbasbag61
(g77
g63
NtRp4427
(dp4428
g66
(dp4429
sg75
g4386
sg68
(lp4430
g61
(g82
g63
NtRp4431
(dp4432
g66
(dp4433
sg75
g4427
sg68
(lp4434
g61
(g62
g63
NtRp4435
(dp4436
g66
(dp4437
g74
I1
ssg75
g4431
sg68
(lp4438
(lp4439
(S'plugin_wiki'
p4440
I00
S'http://web2py.com/examples/default/download'
p4441
tp4442
a(g3827
(S's\r\x00\x00\x00Other Plugins'
tRp4443
I00
g4173
tp4444
a(g3827
(S's\x0e\x00\x00\x00Layout Plugins'
tRp4445
I00
g4176
tp4446
aasbasbasbasbasbasbasbasbasbasbasbasbasbasbasbasbasbasbasbag61
(g77
g63
NtRp4447
(dp4448
g66
(dp4449
sg75
g3291
sg68
(lp4450
g61
(g82
g63
NtRp4451
(dp4452
g66
(dp4453
g86
g87
ssg75
g4447
sg68
(lp4454
S'meta'
p4455
asbag61
(g82
g63
NtRp4456
(dp4457
g66
(dp4458
g93
g94
ssg75
g4447
sg68
(lp4459
S':'
asbag61
(g82
g63
NtRp4460
(dp4461
g66
(dp4462
sg75
g4447
sg68
(lp4463
g61
(g62
g63
NtRp4464
(dp4465
g66
(dp4466
g74
I5
ssg75
g4460
sg68
(lp4467
g61
(g70
g63
NtRp4468
(dp4469
g66
(dp4470
g74
I4
ssg75
Nsg68
(lp4471
g61
(g77
g63
NtRp4472
(dp4473
g66
(dp4474
sg75
g4468
sg68
(lp4475
g61
(g82
g63
NtRp4476
(dp4477
g66
(dp4478
g86
g87
ssg75
g4472
sg68
(lp4479
S'author'
p4480
asbag61
(g82
g63
NtRp4481
(dp4482
g66
(dp4483
g93
g94
ssg75
g4472
sg68
(lp4484
S':'
asbag61
(g82
g63
NtRp4485
(dp4486
g66
(dp4487
sg75
g4472
sg68
(lp4488
g61
(g62
g63
NtRp4489
(dp4490
g66
(dp4491
g74
I4
ssg75
g4485
sg68
(lp4492
S'Your Name <you@example.com>'
p4493
asbasbasbag61
(g77
g63
NtRp4494
(dp4495
g66
(dp4496
sg75
g4468
sg68
(lp4497
g61
(g82
g63
NtRp4498
(dp4499
g66
(dp4500
g86
g87
ssg75
g4494
sg68
(lp4501
S'copyright'
p4502
asbag61
(g82
g63
NtRp4503
(dp4504
g66
(dp4505
g93
g94
ssg75
g4494
sg68
(lp4506
S':'
asbag61
(g82
g63
NtRp4507
(dp4508
g66
(dp4509
sg75
g4494
sg68
(lp4510
g61
(g62
g63
NtRp4511
(dp4512
g66
(dp4513
g74
I4
ssg75
g4507
sg68
(lp4514
S'Copyright 2011'
p4515
asbasbasbag61
(g77
g63
NtRp4516
(dp4517
g66
(dp4518
sg75
g4468
sg68
(lp4519
g61
(g82
g63
NtRp4520
(dp4521
g66
(dp4522
g86
g87
ssg75
g4516
sg68
(lp4523
S'description'
p4524
asbag61
(g82
g63
NtRp4525
(dp4526
g66
(dp4527
g93
g94
ssg75
g4516
sg68
(lp4528
S':'
asbag61
(g82
g63
NtRp4529
(dp4530
g66
(dp4531
sg75
g4516
sg68
(lp4532
g61
(g62
g63
NtRp4533
(dp4534
g66
(dp4535
g74
I4
ssg75
g4529
sg68
(lp4536
S'a cool new app'
p4537
asbasbasbag61
(g77
g63
NtRp4538
(dp4539
g66
(dp4540
sg75
g4468
sg68
(lp4541
g61
(g82
g63
NtRp4542
(dp4543
g66
(dp4544
g86
g87
ssg75
g4538
sg68
(lp4545
S'generator'
p4546
asbag61
(g82
g63
NtRp4547
(dp4548
g66
(dp4549
g93
g94
ssg75
g4538
sg68
(lp4550
S':'
asbag61
(g82
g63
NtRp4551
(dp4552
g66
(dp4553
sg75
g4538
sg68
(lp4554
g61
(g62
g63
NtRp4555
(dp4556
g66
(dp4557
g74
I4
ssg75
g4551
sg68
(lp4558
S'Web2py Web Framework'
p4559
asbasbasbag61
(g77
g63
NtRp4560
(dp4561
g66
(dp4562
sg75
g4468
sg68
(lp4563
g61
(g82
g63
NtRp4564
(dp4565
g66
(dp4566
g86
g87
ssg75
g4560
sg68
(lp4567
S'keywords'
p4568
asbag61
(g82
g63
NtRp4569
(dp4570
g66
(dp4571
g93
g94
ssg75
g4560
sg68
(lp4572
S':'
asbag61
(g82
g63
NtRp4573
(dp4574
g66
(dp4575
sg75
g4560
sg68
(lp4576
g61
(g62
g63
NtRp4577
(dp4578
g66
(dp4579
g74
I4
ssg75
g4573
sg68
(lp4580
S'web2py, python, framework'
p4581
asbasbasbasbasbasbasbag61
(g77
g63
NtRp4582
(dp4583
g66
(dp4584
sg75
g3291
sg68
(lp4585
g61
(g82
g63
NtRp4586
(dp4587
g66
(dp4588
g86
g87
ssg75
g4582
sg68
(lp4589
S'postprocessing'
p4590
asbag61
(g82
g63
NtRp4591
(dp4592
g66
(dp4593
g93
g94
ssg75
g4582
sg68
(lp4594
S':'
asbag61
(g82
g63
NtRp4595
(dp4596
g66
(dp4597
sg75
g4582
sg68
(lp4598
g61
(g62
g63
NtRp4599
(dp4600
g66
(dp4601
g74
I5
ssg75
g4595
sg68
(lp4602
g61
(g70
g63
NtRp4603
(dp4604
g66
(dp4605
g74
I4
ssg75
Nsg68
(lp4606
sbasbasbasbag61
(g77
g63
NtRp4607
(dp4608
g66
(dp4609
sg75
g3291
sg68
(lp4610
g61
(g82
g63
NtRp4611
(dp4612
g66
(dp4613
g86
g87
ssg75
g4607
sg68
(lp4614
S'session_db'
p4615
asbag61
(g82
g63
NtRp4616
(dp4617
g66
(dp4618
g93
g94
ssg75
g4607
sg68
(lp4619
S':'
asbag61
(g82
g63
NtRp4620
(dp4621
g66
(dp4622
sg75
g4607
sg68
(lp4623
g61
(g62
g63
NtRp4624
(dp4625
g66
(dp4626
g74
I5
ssg75
g4620
sg68
(lp4627
g738
asbasbasbag61
(g77
g63
NtRp4628
(dp4629
g66
(dp4630
sg75
g3291
sg68
(lp4631
g61
(g82
g63
NtRp4632
(dp4633
g66
(dp4634
g86
g87
ssg75
g4628
sg68
(lp4635
S'session_id'
p4636
asbag61
(g82
g63
NtRp4637
(dp4638
g66
(dp4639
g93
g94
ssg75
g4628
sg68
(lp4640
S':'
asbag61
(g82
g63
NtRp4641
(dp4642
g66
(dp4643
sg75
g4628
sg68
(lp4644
g61
(g62
g63
NtRp4645
(dp4646
g66
(dp4647
g74
I5
ssg75
g4641
sg68
(lp4648
S'22:916ef1c2-7902-46d9-bbc5-80f0afcec41d'
p4649
asbasbasbag61
(g77
g63
NtRp4650
(dp4651
g66
(dp4652
sg75
g3291
sg68
(lp4653
g61
(g82
g63
NtRp4654
(dp4655
g66
(dp4656
g86
g87
ssg75
g4650
sg68
(lp4657
S'session_id_name'
p4658
asbag61
(g82
g63
NtRp4659
(dp4660
g66
(dp4661
g93
g94
ssg75
g4650
sg68
(lp4662
S':'
asbag61
(g82
g63
NtRp4663
(dp4664
g66
(dp4665
sg75
g4650
sg68
(lp4666
g61
(g62
g63
NtRp4667
(dp4668
g66
(dp4669
g74
I5
ssg75
g4663
sg68
(lp4670
S'session_id_init'
p4671
asbasbasbag61
(g77
g63
NtRp4672
(dp4673
g66
(dp4674
sg75
g3291
sg68
(lp4675
g61
(g82
g63
NtRp4676
(dp4677
g66
(dp4678
g86
g87
ssg75
g4672
sg68
(lp4679
S'status'
p4680
asbag61
(g82
g63
NtRp4681
(dp4682
g66
(dp4683
g93
g94
ssg75
g4672
sg68
(lp4684
S':'
asbag61
(g82
g63
NtRp4685
(dp4686
g66
(dp4687
sg75
g4672
sg68
(lp4688
g61
(g62
g63
NtRp4689
(dp4690
g66
(dp4691
g74
I5
ssg75
g4685
sg68
(lp4692
S'200'
p4693
asbasbasbag61
(g77
g63
NtRp4694
(dp4695
g66
(dp4696
sg75
g3291
sg68
(lp4697
g61
(g82
g63
NtRp4698
(dp4699
g66
(dp4700
g86
g87
ssg75
g4694
sg68
(lp4701
S'subtitle'
p4702
asbag61
(g82
g63
NtRp4703
(dp4704
g66
(dp4705
g93
g94
ssg75
g4694
sg68
(lp4706
S':'
asbag61
(g82
g63
NtRp4707
(dp4708
g66
(dp4709
sg75
g4694
sg68
(lp4710
g61
(g62
g63
NtRp4711
(dp4712
g66
(dp4713
g74
I5
ssg75
g4707
sg68
(lp4714
g3827
(S's\r\x00\x00\x00customize me!'
tRp4715
asbasbasbag61
(g77
g63
NtRp4716
(dp4717
g66
(dp4718
sg75
g3291
sg68
(lp4719
g61
(g82
g63
NtRp4720
(dp4721
g66
(dp4722
g86
g87
ssg75
g4716
sg68
(lp4723
S'title'
p4724
asbag61
(g82
g63
NtRp4725
(dp4726
g66
(dp4727
g93
g94
ssg75
g4716
sg68
(lp4728
S':'
asbag61
(g82
g63
NtRp4729
(dp4730
g66
(dp4731
sg75
g4716
sg68
(lp4732
g61
(g62
g63
NtRp4733
(dp4734
g66
(dp4735
g74
I5
ssg75
g4729
sg68
(lp4736
S'Init'
p4737
asbasbasbag61
(g77
g63
NtRp4738
(dp4739
g66
(dp4740
sg75
g3291
sg68
(lp4741
g61
(g82
g63
NtRp4742
(dp4743
g66
(dp4744
g86
g87
ssg75
g4738
sg68
(lp4745
g2142
asbag61
(g82
g63
NtRp4746
(dp4747
g66
(dp4748
g93
g94
ssg75
g4738
sg68
(lp4749
S':'
asbag61
(g82
g63
NtRp4750
(dp4751
g66
(dp4752
sg75
g4738
sg68
(lp4753
g61
(g62
g63
NtRp4754
(dp4755
g66
(dp4756
g74
I5
ssg75
g4750
sg68
(lp4757
g2155
asbasbasbag61
(g77
g63
NtRp4758
(dp4759
g66
(dp4760
sg75
g3291
sg68
(lp4761
g61
(g82
g63
NtRp4762
(dp4763
g66
(dp4764
g86
g87
ssg75
g4758
sg68
(lp4765
S'view'
p4766
asbag61
(g82
g63
NtRp4767
(dp4768
g66
(dp4769
g93
g94
ssg75
g4758
sg68
(lp4770
S':'
asbag61
(g82
g63
NtRp4771
(dp4772
g66
(dp4773
sg75
g4758
sg68
(lp4774
g61
(g62
g63
NtRp4775
(dp4776
g66
(dp4777
g74
I5
ssg75
g4771
sg68
(lp4778
S'default/inscriptioninvit.html'
p4779
asbasbasbasbasbsS'locals'
p4780
(dp4781
g66
g21
sS'self'
p4782
S'<gluon.dal.SQLiteAdapter object at 0x043F5DF0>'
p4783
sS'fields'
p4784
S'[]'
p4785
sS'tablenames'
p4786
S'[]'
p4787
sS'query'
p4788
S'<gluon.dal.SQLALL object at 0x03CAFA70>'
p4789
sssS'traceback'
p4790
S'Traceback (most recent call last):\n  File "gluon/restricted.py", line 205, in restricted\n  File "C:\\Users\\Bussiere\\Dropbox\\Projets\\jackpoint\\web2py\\applications\\init\\controllers/default.py", line 632, in <module>\n  File "gluon/globals.py", line 173, in <lambda>\n  File "gluon/tools.py", line 2575, in f\n  File "C:\\Users\\Bussiere\\Dropbox\\Projets\\jackpoint\\web2py\\applications\\init\\controllers/default.py", line 360, in inscriptioninvit\n  File "gluon/dal.py", line 7578, in select\n  File "gluon/dal.py", line 1307, in select\n  File "gluon/dal.py", line 1756, in _select\n  File "gluon/dal.py", line 1196, in _select\nSyntaxError: Set: no tables selected\n'
p4791
s.