(dp1
S'output'
p2
S"<type 'exceptions.SyntaxError'> Field first_name does not belong to the table"
p3
sS'layer'
p4
S'C:\\Users\\Bussiere\\Dropbox\\Projets\\jackpoint\\web2py\\applications\\init\\controllers/default.py'
p5
sS'code'
p6
S'# -*- coding: utf-8 -*-\n# this file is released under public domain and you can use without limitations\n\n#########################################################################\n## This is a samples controller\n## - index is the default action of any application\n## - user is required for authentication and authorization\n## - download is for downloading files uploaded in the db (does streaming)\n## - call exposes all registered services (none by default)\n#########################################################################\n# Static analyzer import helpers: (STATIC_IMPORT_MARK)\nif 0: \n    import gluon\n    global cache; cache = gluon.cache.Cache()\n    global LOAD; LOAD  = gluon.compileapp.LoadFactory()\n    import gluon.compileapp.local_import_aux as local_import #@UnusedImport\n    from gluon.contrib.gql import GQLDB #@UnusedImport\n    from gluon.dal import Field #@UnusedImport\n    global request; request = gluon.globals.Request()\n    global response; response = gluon.globals.Response()\n    global session; session = gluon.globals.Session()\n    from gluon.html import A #@UnusedImport\n    from gluon.html import B #@UnusedImport\n    from gluon.html import BEAUTIFY #@UnusedImport\n    from gluon.html import BODY #@UnusedImport\n    from gluon.html import BR #@UnusedImport\n    from gluon.html import CENTER #@UnusedImport\n    from gluon.html import CODE #@UnusedImport\n    from gluon.html import DIV #@UnusedImport\n    from gluon.html import EM #@UnusedImport\n    from gluon.html import EMBED #@UnusedImport\n    from gluon.html import embed64 #@UnusedImport\n    from gluon.html import FIELDSET #@UnusedImport\n    from gluon.html import FORM #@UnusedImport\n    from gluon.html import H1 #@UnusedImport\n    from gluon.html import H2 #@UnusedImport\n    from gluon.html import H3 #@UnusedImport\n    from gluon.html import H4 #@UnusedImport\n    from gluon.html import H5 #@UnusedImport\n    from gluon.html import H6 #@UnusedImport\n    from gluon.html import HEAD #@UnusedImport\n    from gluon.html import HR #@UnusedImport\n    from gluon.html import HTML #@UnusedImport\n    from gluon.html import I #@UnusedImport\n    from gluon.html import IFRAME #@UnusedImport\n    from gluon.html import IMG #@UnusedImport\n    from gluon.html import INPUT #@UnusedImport\n    from gluon.html import LABEL #@UnusedImport\n    from gluon.html import LEGEND #@UnusedImport\n    from gluon.html import LI #@UnusedImport\n    from gluon.html import LINK #@UnusedImport\n    from gluon.html import MARKMIN #@UnusedImport\n    from gluon.html import MENU #@UnusedImport\n    from gluon.html import META #@UnusedImport\n    from gluon.html import OBJECT #@UnusedImport\n    from gluon.html import OL #@UnusedImport\n    from gluon.html import ON #@UnusedImport\n    from gluon.html import OPTGROUP #@UnusedImport\n    from gluon.html import OPTION #@UnusedImport\n    from gluon.html import P #@UnusedImport\n    from gluon.html import PRE #@UnusedImport\n    from gluon.html import STYLE #@UnusedImport\n    from gluon.html import SCRIPT #@UnusedImport\n    from gluon.html import SELECT #@UnusedImport\n    from gluon.html import SPAN #@UnusedImport\n    from gluon.html import TABLE #@UnusedImport\n    from gluon.html import TAG #@UnusedImport\n    from gluon.html import TBODY #@UnusedImport\n    from gluon.html import TD #@UnusedImport\n    from gluon.html import TEXTAREA #@UnusedImport\n    from gluon.html import TFOOT #@UnusedImport\n    from gluon.html import TH  #@UnusedImport\n    from gluon.html import THEAD #@UnusedImport\n    from gluon.html import TITLE #@UnusedImport\n    from gluon.html import TR #@UnusedImport\n    from gluon.html import TT #@UnusedImport\n    from gluon.html import UL #@UnusedImport\n    from gluon.html import URL #@UnusedImport\n    from gluon.html import XHTML #@UnusedImport\n    from gluon.html import XML #@UnusedImport\n    from gluon.html import xmlescape #@UnusedImport\n    from gluon.http import HTTP #@UnusedImport\n    from gluon.http import redirect #@UnusedImport\n    import gluon.languages.translator as T #@UnusedImport\n    from gluon.sql import DAL\n    global db; db = DAL()\n    from gluon.sql import SQLDB #@UnusedImport\n    from gluon.sql import SQLField #@UnusedImport\n    from gluon.sqlhtml import SQLFORM #@UnusedImport\n    from gluon.sqlhtml import SQLTABLE #@UnusedImport\n    from gluon.tools import  Auth\n    global auth; auth = Auth()\n    from gluon.tools import Crud\n    global crud; crud = Crud()\n    from gluon.tools import fetch #@UnusedImport\n    from gluon.tools import geocode #@UnusedImport\n    from gluon.tools import Mail\n    global mail; mail = Mail()\n    from gluon.tools import PluginManager\n    global plugins; plugins = PluginManager()\n    from gluon.tools import prettydate #@UnusedImport\n    from gluon.tools import Recaptcha #@UnusedImport\n    from gluon.tools import Service\n    global service; service = Service()\n    from gluon.validators import CLEANUP  #@UnusedImport\n    from gluon.validators import CRYPT #@UnusedImport\n    from gluon.validators import IS_ALPHANUMERIC #@UnusedImport\n    from gluon.validators import IS_DATE #@UnusedImport\n    from gluon.validators import IS_DATE_IN_RANGE #@UnusedImport\n    from gluon.validators import IS_DATETIME #@UnusedImport\n    from gluon.validators import IS_DATETIME_IN_RANGE #@UnusedImport\n    from gluon.validators import IS_DECIMAL_IN_RANGE #@UnusedImport\n    from gluon.validators import IS_EMAIL #@UnusedImport\n    from gluon.validators import IS_EMPTY_OR #@UnusedImport\n    from gluon.validators import IS_EQUAL_TO #@UnusedImport\n    from gluon.validators import IS_EXPR #@UnusedImport\n    from gluon.validators import IS_FLOAT_IN_RANGE #@UnusedImport\n    from gluon.validators import IS_IMAGE #@UnusedImport\n    from gluon.validators import IS_IN_DB #@UnusedImport\n    from gluon.validators import IS_IN_SET #@UnusedImport\n    from gluon.validators import IS_INT_IN_RANGE #@UnusedImport\n    from gluon.validators import IS_IPV4 #@UnusedImport\n    from gluon.validators import IS_LENGTH #@UnusedImport\n    from gluon.validators import IS_LIST_OF #@UnusedImport\n    from gluon.validators import IS_LOWER #@UnusedImport\n    from gluon.validators import IS_MATCH #@UnusedImport\n    from gluon.validators import IS_NOT_EMPTY #@UnusedImport\n    from gluon.validators import IS_NOT_IN_DB #@UnusedImport\n    from gluon.validators import IS_NULL_OR #@UnusedImport\n    from gluon.validators import IS_SLUG #@UnusedImport\n    from gluon.validators import IS_STRONG  #@UnusedImport\n    from gluon.validators import IS_TIME #@UnusedImport\n    from gluon.validators import IS_UPLOAD_FILENAME #@UnusedImport\n    from gluon.validators import IS_UPPER #@UnusedImpor\n\n\nimport random\n\nfrom gluon.storage import Storage\nsettings = Storage()\n\n\n\ndef index():\n    if auth.is_logged_in() :\n        return "You get the blue pills"\n    else :\n        return dict(form=auth.login(),faq=URL(\'faq\'))\n\n\n\ndef ensurefirstuser(firstname, lastname, email, password):\n  users = db(db.auth_user.email == email).select()\n  if users:\n    user_id = users[0].id\n    created = False\n    if settings.debug_ensure_first_user == True:\n      print (\'found user_id so created equals %s\') % created\n    return (user_id, created)\n\n  else:\n    my_crypt = CRYPT(key=auth.settings.hmac_key)\n    crypt_pass = my_crypt(password)[0]    \n    id_user = db.auth_user.insert(\n                   first_name=firstname,\n                   last_name=lastname,\n                   email=email,\n                   password=crypt_pass\n                                   )\n    created = True\n    if settings.debug_ensure_first_user == True:\n      print (\'creating user_id\')\n    return (id_user, created)\n\n    \n\n\ndef ensure_users():\n  user_id, created = _ensure_user(\'first\', \'last\', \'email@address.com\', \'UserPassword12345\')\n  if settings.debug_ensure_users == True:\n    print (\'user id %i\') % user_id\n    print (\'created %s\') % created\n\ndef ensure_group_role(role, description):\n  if not auth.id_group(role=role):  \n    auth.add_group(role=role, description=description)  \n    if settings.debug_ensure_group_role == True:\n      print (\'created role %s\') % (role)\n\ndef ensure_membership(group_id, user_id):\n  return_group_id = auth.add_membership(role=role, user_id=user_id)\n  if settings.debug_ensure_membership == True:\n    print (\'made user_id member of %s\') % (role)\n  return return_group_id\n \ndef ensure_permissions(role, description, user_id):\n  ensure_group_role(role, description)\n  return_group_id = ensure_membership(group_id, user_id)\n  if settings.debug_ensure_permissions == True:\n    print return_group_id\n\ndef generate_invitation(number,word=4,num=1,numdigit=5):\n    code = [\n[\'BELCHER\', \'FIX\', \'EEL\', \'PANZERBOY\', \'DESK_JOCKEY\', \'CHILLED\', \'ENFORCER\', \'CHERRY_PICKING\', \'COUNTRY_CLUB\', \'BOMBSHELL\', \'PLUGGED_IN\', \'FINI\', \'LEGIT\', \'JAM\', \'BONED_OUT\', \'BLADE\', \'ROUST\', \'SAMURAI\', \'DISK\', \'INPUT\', \'POST_TIME\', \'SOUNDS\', \'SKIP\', \'FLATBACKER\', \'WILSON\', \'SHOEMAKER\', \'DELTA_SIERRA\', \'HEART\', \'CROAK\', \'HEAD_HUNTER\', \'HOSHO_KAISHA\', "DELTA\'D", "\'FACE_(also,_FACE,_EYE-FACE,_I-FACE)", \'WEEFLE\', \'DIRTGIRL\', \'KEYBOARD\', \'BRAIN_BUCKET\', \'DRYING_OUT\', \'OVERCOOK\', \'PIG\', \'COLD_TEA\', \'RECONFIG\', \'PAD\', \'LIT_UP\', \'WRAITH\', \'HANDLE\', \'L.P.\', \'PINCH\', \'TAKE_A_CAB\', \'SPILL\', \'ACE_KOOL\', \'DO\', \'BIZ\', \'BROWNIE\', \'CANDLE_AND_BLOOD\', \'BLUEBOY\', \'UP_ON_IT\', \'BURN\', \'USER_INTERFACE\', \'HOB\', \'GYRO\', \'STUFFIT\', \'THATCH\', \'ICEBREAKER\', \'ZIP_GUN\', \'PETERMAN\', \'PLAY_DOUGH\', \'TREY-EIGHT\', \'SETTLE\', "CHIPPIN\'_IN", \'MEATBALL\', \'RAFFLES\', \'YUBITSUME\', \'CROAKER\', \'SUCKER_POCKETS\', \'L.A.M.A.\', \'GEEK\', \'BUTTONHEAD\'],\n[\'TAKE\', \'TEKIYA\', \'KURUMAKU\', \'BLOC\', \'GAT\', \'JOHATSU\', \'CRYSTAL\', \'A.I.\', \'ZEROED\', \'OVER_THE_SHOULDER\', \'GRAB_GEE\', \'PANZER\', \'GO_LEO\', \'WASHED\', \'I.C.E.\', \'COPSHOP\', \'COLLATERAL_DAMAGE\', \'BIG_DARK\', \'DOUBLE-DEUCE\', \'ZONEDANCE\', \'MARK\', \'COBBERS\', \'CHIMPIRA\', \'TRIADS\', \'SHANK\', \'FRAG\', \'BREATH_VAC\', "CHARLIE\'S_ANGEL", \'MULE\', \'BURNER\', "PACKIN\'", \'HOTDOGGER\', \'BOSOZOKU\', \'RIPPERDOC\', \'THIRDMAN\', \'MAXIMUM,_MAX\', \'CHOOH2_("CHOO")\', \'CRYO_MAX\', \'HEATER\', \'SHARK\', \'JOYGIRL\', \'GURENTAI\', \'BANDIT\', \'VENICE\', \'MIZU_SHOBAI\', \'PASTA_BOYS\', \'SQUID\', \'CYBERED_UP\', \'DEAD_RECKONING\', \'POPSICLE\', \'FAUST\', \'COLLARBOY\', \'SHOES\', \'TORCH\', \'DELTAJOCK\', \'BUTTERFLY_MAN\', \'WISE_GUYS\', \'BOOST\', \'CAIN\', \'FOUR-FIVE\', \'BREAK-DOWN\', \'POLYMER_ONE-SHOT\', \'FLAG\', \'CALL_GIRL\', \'IN_THE_HUNT\', \'HYDRO\', \'DOCK\', \'FENCE\', \'SHAIKUJIN\', \'GOMI\', \'FILTER\', \'SAINT_NICK\', \'LINEFOOT\', \'CAVALRY\', \'PUKE\', \'CONVERSION\', \'FINGER\', \'CONTRACT\'],\n[\'PLASTIC\', \'CRYSTALJOCKEY,_CRYSTALJOCK\', \'SCREW\', \'TOYSTORE\', \'DREAM_TIME\', \'EXOTIC\', \'WALKABOUT\', \'DIAMOND_SEASON\', \'SARAKIN\', \'CHRISTMAS_BUNDLES\', \'SHADES\', \'BUTTON_MAN\', \'FOXTROT_UNIFORM\', \'KAI\', \'UNDER_THE_PAINT\', \'MINIMUM\', \'TRIPLE_A\', \'PIG_ON_A_WHEEL\', \'BAG_MAN\', \'DIP\', \'PIGEONS\', \'MAN\', \'ADAM_HENRY\', \'HIGH\', \'HEAT\', \'NINJO\', \'KNIFE_FIGHT\', \'MOUTHPIECE\', \'AGRIPLEX\', \'DATA_TERM\', \'LIZ\', \'CHROMER\', \'OUTPUT\', \'N.O.E.\', \'CLOSE_A_CONTRACT\', \'LASSIE\', \'FLATLINE\', \'CHIV\', \'SING\', \'AMMO\', \'RAT\', \'MATCHBOX\', \'PULL_AN_ASH\', \'BORYOKUDAN\', \'SQUEEZE\', \'RONIN\', \'HIT\', \'RAGS\', \'TAKE_OUT\', \'BEAT_THE_RAP\', \'GIRI\', \'RUNNING_THE_LINE\', \'HARNESS\', \'GRAVEROBBER\', \'DROP_A_DIME\', \'BADGE_ON_A_BEAVER\', \'FLETCHER\', \'AMPED-OUT\', \'NEUTRALIZE\', \'PETER\', \'CONFIG\', \'HARDFIRE\', \'B.A.M.A.\', \'CHROMATIC_ROCK\', \'MOLDED\', \'RAD\', \'CREASED\', \'CHATTER_BOX\', \'HAND_CANNON\', \'NIPPERS\', \'SIERRA_HOTEL\', \'HOOK_UP\', \'-JOCKEY,_-JOCK\', \'BUG\', \'BATMAN_AND_ROBIN\', \'BLACK_OPERATIONS\', "D.C.\'S", \'SO_KA\'],\n[\'_A.A.A.\', \'HOME_PLATE\', \'LITEJACK\', \'PINEAPPLE\', \'MAKE\', \'THE_STREET\', \'SITREP\', \'HANGING_PAPER\', \'PAINT_BOYS\', \'WETWORK\', \'NINER\', \'BOOKIE\', \'WHIPLASH\', \'TORPEDO\', \'HEATWAVE\', \'SOLAR_WIND\', \'QUIFF\', \'BIKE\', \'TRAFFIC\', \'WIRE_ROOM\', \'OYABUN\', \'COWBOY\', \'KOBUN\', \'MUDBOY\', \'COP_OUT\', \'SOKAIYA\', "\'DORPH", \'JOYBOY\', \'DIRTY\', \'BOAT\', \'DROP\', \'GRAV_or_GEE\', \'APOGEE\', \'BOOSTER\', \'BOOK\', \'FRY\', \'PULLING_TEETH\', \'ONE_LARGE\', \'COMBAT_DRUGS\', \'THRASH\', \'DO_A_GHOST\', \'DELTA\', \'RIN_TIN_TIN\', \'DROP_OUT\', \'GUMI\', \'ROCKERBOY/GIRL\', \'BULLET\', \'DEB\', \'THREADING_THE_NEEDLE\', \'MOTOR\', \'BLEEDER\', \'ARC\', \'BOPPER\', \'WASTE\', \'_DEMUKAI\', \'BREAK\', \'HOLDING_DOWN\', \'FEDS\', \'GAP\', \'RABBI\', \'BAKUTO\', \'CHOMBATTA_(CHOOMBA)\', \'BIG_HATS\', \'MR._JOHNSON\', \'EXEC\', \'BULL\', \'BULLSEYE\', \'POSERGANG\', \'CHAOL\', \'GEISHA\', \'SLAMMIT_ON\', \'POP_CAPS\', \'HARD_TIME\', \'BENJI\', \'MAKING_BANK\', \'PAPERHANGER\', \'NETRUN\', \'BOGEY\'],\n]     \n    i = 0\n    invits = []\n    print number\n    while (i < number):\n        invit = ""\n        j = 0\n        while (j < word):\n            debut = random.randint(0,len(code)-1)\n            codepick = code[debut][random.randint(0,len(code[debut])-1)]\n            j += 1\n            invit += codepick+"-"\n        j = 0\n        while (j < num):\n            invit += randomdig(numdigit)+"-"\n            j += 1\n        i+= 1\n        invit = invit[:-1]\n        if invit not in invits :\n            invits.append(invit[:-1])\n            print invit\n    return invits\n        \ndef randomdig(number):\n    max = "9"*number\n    max = int(max)\n    rand =  random.randint(0,max)\n    rand = str(rand)\n    rand = "0"*(number-len(rand))+rand\n    return rand\n\n@auth.requires_login()\ndef inscription():\n    form = SQLFORM(db[auth.settings.table_user_name])\n    return dict(form=form)\n\ndef liste_invitations():\n    return dict(rows = db().select(db.Invitation.ALL))\n\n#@auth.requires_membership(\'manager\')\ndef generate_invitationpage():\n   form=FORM("Nombre d\'invit a g\xc3\xa9n\xc3\xa9rer:", INPUT(_name=\'nmbreinvit\'), INPUT(_type=\'submit\'))\n   if form.process().accepted and form.vars.nmbreinvit != None :\n       i = form.vars.nmbreinvit\n       invitsgenere = generate_invitation(int(i))\n       for invit in invitsgenere :\n           db.Invitation.insert(Code=invit)\n           db.commit()\n       session.flash = \'invitation inserted\'\n       form=FORM("Nombre d\'invit a g\xc3\xa9n\xc3\xa9rer:", INPUT(_name=\'nmbreinvit\'), INPUT(_type=\'submit\'))\n       #db.Invitation.insert(Code="Toto-5542")\n       db.commit()\n   return dict(form=form)\n\ndef verif_invitation(form):\n    if db.Invitation(db.Invitation.Code==form.vars.invitation) == None :\n        print "mauvais"\n    else :\n        print "bon"\n\n\ndef invitation():\n    form=FORM("Code Invitation :", INPUT(_name=\'invitation\'),"<Email :",INPUT(_name=\'email\'),  INPUT(_type=\'submit\'))\n    if form.process(onvalidation=verif_invitation).accepted and  form.vars.invitation != None  :\n        print "toto"\n        user = ensurefirstuser("john","doe",form.vars.email,form.vars.invitation)\n        auth.user = Storage(auth.settings.table_user._filter_fields(user, id=True))\n        auth.environment.session.auth = Storage(user=user, last_visit=request.now,\n                                            expiration=auth.settings.expiration)\n        redirect(URL(\'inscription\'))\n    return dict(form=form)\n\ndef faq():\n\n    return dict()\ndef user():\n    """\n    exposes:\n    http://..../[app]/default/user/login\n    http://..../[app]/default/user/logout\n    http://..../[app]/default/user/register\n    http://..../[app]/default/user/profile\n    http://..../[app]/default/user/retrieve_password\n    http://..../[app]/default/user/change_password\n    use @auth.requires_login()\n        @auth.requires_membership(\'group name\')\n        @auth.requires_permission(\'read\',\'table name\',record_id)\n    to decorate functions that need access control\n    """\n    return dict(form=auth())\n\n\ndef download():\n    """\n    allows downloading of uploaded files\n    http://..../[app]/default/download/[filename]\n    """\n    return response.download(request,db)\n\n\ndef call():\n    """\n    exposes services. for example:\n    http://..../[app]/default/call/jsonrpc\n    decorate with @services.jsonrpc the functions to expose\n    supports xml, json, xmlrpc, jsonrpc, amfrpc, rss, csv\n    """\n    return service()\n\n\n@auth.requires_signature()\ndef data():\n    """\n    http://..../[app]/default/data/tables\n    http://..../[app]/default/data/create/[table]\n    http://..../[app]/default/data/read/[table]/[id]\n    http://..../[app]/default/data/update/[table]/[id]\n    http://..../[app]/default/data/delete/[table]/[id]\n    http://..../[app]/default/data/select/[table]\n    http://..../[app]/default/data/search/[table]\n    but URLs must be signed, i.e. linked with\n      A(\'table\',_href=URL(\'data/tables\',user_signature=True))\n    or with the signed load operator\n      LOAD(\'default\',\'data.load\',args=\'tables\',ajax=True,user_signature=True)\n    """\n    return dict(form=crud())\n\nresponse._vars=response._caller(invitation)\n'
p7
sS'snapshot'
p8
(dp9
S'exception'
p10
(dp11
S'__getslice__'
p12
S"<method-wrapper '__getslice__' of exceptions.SyntaxError object at 0x074BEA70>"
p13
sS'text'
p14
S'None'
p15
sS'__str__'
p16
S"<method-wrapper '__str__' of exceptions.SyntaxError object at 0x074BEA70>"
p17
sS'__reduce__'
p18
S'<built-in method __reduce__ of exceptions.SyntaxError object at 0x074BEA70>'
p19
sS'__dict__'
p20
S'{}'
p21
sS'__init__'
p22
S"<method-wrapper '__init__' of exceptions.SyntaxError object at 0x074BEA70>"
p23
sS'__setattr__'
p24
S"<method-wrapper '__setattr__' of exceptions.SyntaxError object at 0x074BEA70>"
p25
sS'__reduce_ex__'
p26
S'<built-in method __reduce_ex__ of exceptions.SyntaxError object at 0x074BEA70>'
p27
sS'__new__'
p28
S'<built-in method __new__ of type object at 0x1E1CDBD0>'
p29
sS'__class__'
p30
S"<type 'exceptions.SyntaxError'>"
p31
sS'filename'
p32
S'None'
p33
sS'lineno'
p34
S'None'
p35
sS'msg'
p36
S"'Field first_name does not belong to the table'"
p37
sS'__doc__'
p38
S"'Invalid syntax.'"
p39
sS'__getitem__'
p40
S"<method-wrapper '__getitem__' of exceptions.SyntaxError object at 0x074BEA70>"
p41
sS'__setstate__'
p42
S'<built-in method __setstate__ of exceptions.SyntaxError object at 0x074BEA70>'
p43
sS'__getattribute__'
p44
S"<method-wrapper '__getattribute__' of exceptions.SyntaxError object at 0x074BEA70>"
p45
sS'print_file_and_line'
p46
S'None'
p47
sS'args'
p48
S"('Field first_name does not belong to the table',)"
p49
sS'offset'
p50
S'None'
p51
sS'__delattr__'
p52
S"<method-wrapper '__delattr__' of exceptions.SyntaxError object at 0x074BEA70>"
p53
sS'__repr__'
p54
S"<method-wrapper '__repr__' of exceptions.SyntaxError object at 0x074BEA70>"
p55
sS'__hash__'
p56
S"<method-wrapper '__hash__' of exceptions.SyntaxError object at 0x074BEA70>"
p57
ssS'evalue'
p58
S'Field first_name does not belong to the table'
p59
sS'request'
p60
ccopy_reg
_reconstructor
p61
(cgluon.html
BEAUTIFY
p62
c__builtin__
object
p63
NtRp64
(dp65
S'attributes'
p66
(dp67
sS'components'
p68
(lp69
g61
(cgluon.html
TABLE
p70
g63
NtRp71
(dp72
g66
(dp73
S'level'
p74
I5
ssS'parent'
p75
Nsg68
(lp76
g61
(cgluon.html
TR
p77
g63
NtRp78
(dp79
g66
(dp80
sg75
g71
sg68
(lp81
g61
(cgluon.html
TD
p82
g63
NtRp83
(dp84
g66
(dp85
S'_style'
p86
S'font-weight:bold;vertical-align:top'
p87
ssg75
g78
sg68
(lp88
S'ajax'
p89
asbag61
(g82
g63
NtRp90
(dp91
g66
(dp92
S'_valign'
p93
S'top'
p94
ssg75
g78
sg68
(lp95
S':'
asbag61
(g82
g63
NtRp96
(dp97
g66
(dp98
sg75
g78
sg68
(lp99
g61
(g62
g63
NtRp100
(dp101
g66
(dp102
g74
I5
ssg75
g96
sg68
(lp103
S'False'
p104
asbasbasbag61
(g77
g63
NtRp105
(dp106
g66
(dp107
sg75
g71
sg68
(lp108
g61
(g82
g63
NtRp109
(dp110
g66
(dp111
g86
g87
ssg75
g105
sg68
(lp112
S'application'
p113
asbag61
(g82
g63
NtRp114
(dp115
g66
(dp116
g93
g94
ssg75
g105
sg68
(lp117
S':'
asbag61
(g82
g63
NtRp118
(dp119
g66
(dp120
sg75
g105
sg68
(lp121
g61
(g62
g63
NtRp122
(dp123
g66
(dp124
g74
I5
ssg75
g118
sg68
(lp125
S'init'
p126
asbasbasbag61
(g77
g63
NtRp127
(dp128
g66
(dp129
sg75
g71
sg68
(lp130
g61
(g82
g63
NtRp131
(dp132
g66
(dp133
g86
g87
ssg75
g127
sg68
(lp134
g48
asbag61
(g82
g63
NtRp135
(dp136
g66
(dp137
g93
g94
ssg75
g127
sg68
(lp138
S':'
asbag61
(g82
g63
NtRp139
(dp140
g66
(dp141
sg75
g127
sg68
(lp142
g61
(g62
g63
NtRp143
(dp144
g66
(dp145
g74
I5
ssg75
g139
sg68
(lp146
g61
(g70
g63
NtRp147
(dp148
g66
(dp149
g74
I4
ssg75
Nsg68
(lp150
sbasbasbasbag61
(g77
g63
NtRp151
(dp152
g66
(dp153
sg75
g71
sg68
(lp154
g61
(g82
g63
NtRp155
(dp156
g66
(dp157
g86
g87
ssg75
g151
sg68
(lp158
S'body'
p159
asbag61
(g82
g63
NtRp160
(dp161
g66
(dp162
g93
g94
ssg75
g151
sg68
(lp163
S':'
asbag61
(g82
g63
NtRp164
(dp165
g66
(dp166
sg75
g151
sg68
(lp167
g61
(g62
g63
NtRp168
(dp169
g66
(dp170
g74
I5
ssg75
g164
sg68
(lp171
S"<open file '<fdopen>', mode 'w+b' at 0x0746C7B8>"
p172
asbasbasbag61
(g77
g63
NtRp173
(dp174
g66
(dp175
sg75
g71
sg68
(lp176
g61
(g82
g63
NtRp177
(dp178
g66
(dp179
g86
g87
ssg75
g173
sg68
(lp180
S'client'
p181
asbag61
(g82
g63
NtRp182
(dp183
g66
(dp184
g93
g94
ssg75
g173
sg68
(lp185
S':'
asbag61
(g82
g63
NtRp186
(dp187
g66
(dp188
sg75
g173
sg68
(lp189
g61
(g62
g63
NtRp190
(dp191
g66
(dp192
g74
I5
ssg75
g186
sg68
(lp193
S'127.0.0.1'
p194
asbasbasbag61
(g77
g63
NtRp195
(dp196
g66
(dp197
sg75
g71
sg68
(lp198
g61
(g82
g63
NtRp199
(dp200
g66
(dp201
g86
g87
ssg75
g195
sg68
(lp202
S'controller'
p203
asbag61
(g82
g63
NtRp204
(dp205
g66
(dp206
g93
g94
ssg75
g195
sg68
(lp207
S':'
asbag61
(g82
g63
NtRp208
(dp209
g66
(dp210
sg75
g195
sg68
(lp211
g61
(g62
g63
NtRp212
(dp213
g66
(dp214
g74
I5
ssg75
g208
sg68
(lp215
S'default'
p216
asbasbasbag61
(g77
g63
NtRp217
(dp218
g66
(dp219
sg75
g71
sg68
(lp220
g61
(g82
g63
NtRp221
(dp222
g66
(dp223
g86
g87
ssg75
g217
sg68
(lp224
S'cookies'
p225
asbag61
(g82
g63
NtRp226
(dp227
g66
(dp228
g93
g94
ssg75
g217
sg68
(lp229
S':'
asbag61
(g82
g63
NtRp230
(dp231
g66
(dp232
sg75
g217
sg68
(lp233
g61
(g62
g63
NtRp234
(dp235
g66
(dp236
g74
I5
ssg75
g230
sg68
(lp237
g61
(g70
g63
NtRp238
(dp239
g66
(dp240
g74
I4
ssg75
Nsg68
(lp241
g61
(g77
g63
NtRp242
(dp243
g66
(dp244
sg75
g238
sg68
(lp245
g61
(g82
g63
NtRp246
(dp247
g66
(dp248
g86
g87
ssg75
g242
sg68
(lp249
S'session_id_admin'
p250
asbag61
(g82
g63
NtRp251
(dp252
g66
(dp253
g93
g94
ssg75
g242
sg68
(lp254
S':'
asbag61
(g82
g63
NtRp255
(dp256
g66
(dp257
sg75
g242
sg68
(lp258
g61
(g62
g63
NtRp259
(dp260
g66
(dp261
g74
I4
ssg75
g255
sg68
(lp262
g61
(g70
g63
NtRp263
(dp264
g66
(dp265
g74
I3
ssg75
Nsg68
(lp266
g61
(g77
g63
NtRp267
(dp268
g66
(dp269
sg75
g263
sg68
(lp270
g61
(g82
g63
NtRp271
(dp272
g66
(dp273
g86
g87
ssg75
g267
sg68
(lp274
S'comment'
p275
asbag61
(g82
g63
NtRp276
(dp277
g66
(dp278
g93
g94
ssg75
g267
sg68
(lp279
S':'
asbag61
(g82
g63
NtRp280
(dp281
g66
(dp282
sg75
g267
sg68
(lp283
g61
(g62
g63
NtRp284
(dp285
g66
(dp286
g74
I3
ssg75
g280
sg68
(lp287
S''
asbasbasbag61
(g77
g63
NtRp288
(dp289
g66
(dp290
sg75
g263
sg68
(lp291
g61
(g82
g63
NtRp292
(dp293
g66
(dp294
g86
g87
ssg75
g288
sg68
(lp295
S'domain'
p296
asbag61
(g82
g63
NtRp297
(dp298
g66
(dp299
g93
g94
ssg75
g288
sg68
(lp300
S':'
asbag61
(g82
g63
NtRp301
(dp302
g66
(dp303
sg75
g288
sg68
(lp304
g61
(g62
g63
NtRp305
(dp306
g66
(dp307
g74
I3
ssg75
g301
sg68
(lp308
S''
asbasbasbag61
(g77
g63
NtRp309
(dp310
g66
(dp311
sg75
g263
sg68
(lp312
g61
(g82
g63
NtRp313
(dp314
g66
(dp315
g86
g87
ssg75
g309
sg68
(lp316
S'expires'
p317
asbag61
(g82
g63
NtRp318
(dp319
g66
(dp320
g93
g94
ssg75
g309
sg68
(lp321
S':'
asbag61
(g82
g63
NtRp322
(dp323
g66
(dp324
sg75
g309
sg68
(lp325
g61
(g62
g63
NtRp326
(dp327
g66
(dp328
g74
I3
ssg75
g322
sg68
(lp329
S''
asbasbasbag61
(g77
g63
NtRp330
(dp331
g66
(dp332
sg75
g263
sg68
(lp333
g61
(g82
g63
NtRp334
(dp335
g66
(dp336
g86
g87
ssg75
g330
sg68
(lp337
S'max-age'
p338
asbag61
(g82
g63
NtRp339
(dp340
g66
(dp341
g93
g94
ssg75
g330
sg68
(lp342
S':'
asbag61
(g82
g63
NtRp343
(dp344
g66
(dp345
sg75
g330
sg68
(lp346
g61
(g62
g63
NtRp347
(dp348
g66
(dp349
g74
I3
ssg75
g343
sg68
(lp350
S''
asbasbasbag61
(g77
g63
NtRp351
(dp352
g66
(dp353
sg75
g263
sg68
(lp354
g61
(g82
g63
NtRp355
(dp356
g66
(dp357
g86
g87
ssg75
g351
sg68
(lp358
S'path'
p359
asbag61
(g82
g63
NtRp360
(dp361
g66
(dp362
g93
g94
ssg75
g351
sg68
(lp363
S':'
asbag61
(g82
g63
NtRp364
(dp365
g66
(dp366
sg75
g351
sg68
(lp367
g61
(g62
g63
NtRp368
(dp369
g66
(dp370
g74
I3
ssg75
g364
sg68
(lp371
S''
asbasbasbag61
(g77
g63
NtRp372
(dp373
g66
(dp374
sg75
g263
sg68
(lp375
g61
(g82
g63
NtRp376
(dp377
g66
(dp378
g86
g87
ssg75
g372
sg68
(lp379
S'secure'
p380
asbag61
(g82
g63
NtRp381
(dp382
g66
(dp383
g93
g94
ssg75
g372
sg68
(lp384
S':'
asbag61
(g82
g63
NtRp385
(dp386
g66
(dp387
sg75
g372
sg68
(lp388
g61
(g62
g63
NtRp389
(dp390
g66
(dp391
g74
I3
ssg75
g385
sg68
(lp392
S''
asbasbasbag61
(g77
g63
NtRp393
(dp394
g66
(dp395
sg75
g263
sg68
(lp396
g61
(g82
g63
NtRp397
(dp398
g66
(dp399
g86
g87
ssg75
g393
sg68
(lp400
S'version'
p401
asbag61
(g82
g63
NtRp402
(dp403
g66
(dp404
g93
g94
ssg75
g393
sg68
(lp405
S':'
asbag61
(g82
g63
NtRp406
(dp407
g66
(dp408
sg75
g393
sg68
(lp409
g61
(g62
g63
NtRp410
(dp411
g66
(dp412
g74
I3
ssg75
g406
sg68
(lp413
S''
asbasbasbasbasbasbasbag61
(g77
g63
NtRp414
(dp415
g66
(dp416
sg75
g238
sg68
(lp417
g61
(g82
g63
NtRp418
(dp419
g66
(dp420
g86
g87
ssg75
g414
sg68
(lp421
S'session_id_init'
p422
asbag61
(g82
g63
NtRp423
(dp424
g66
(dp425
g93
g94
ssg75
g414
sg68
(lp426
S':'
asbag61
(g82
g63
NtRp427
(dp428
g66
(dp429
sg75
g414
sg68
(lp430
g61
(g62
g63
NtRp431
(dp432
g66
(dp433
g74
I4
ssg75
g427
sg68
(lp434
g61
(g70
g63
NtRp435
(dp436
g66
(dp437
g74
I3
ssg75
Nsg68
(lp438
g61
(g77
g63
NtRp439
(dp440
g66
(dp441
sg75
g435
sg68
(lp442
g61
(g82
g63
NtRp443
(dp444
g66
(dp445
g86
g87
ssg75
g439
sg68
(lp446
g275
asbag61
(g82
g63
NtRp447
(dp448
g66
(dp449
g93
g94
ssg75
g439
sg68
(lp450
S':'
asbag61
(g82
g63
NtRp451
(dp452
g66
(dp453
sg75
g439
sg68
(lp454
g61
(g62
g63
NtRp455
(dp456
g66
(dp457
g74
I3
ssg75
g451
sg68
(lp458
S''
asbasbasbag61
(g77
g63
NtRp459
(dp460
g66
(dp461
sg75
g435
sg68
(lp462
g61
(g82
g63
NtRp463
(dp464
g66
(dp465
g86
g87
ssg75
g459
sg68
(lp466
g296
asbag61
(g82
g63
NtRp467
(dp468
g66
(dp469
g93
g94
ssg75
g459
sg68
(lp470
S':'
asbag61
(g82
g63
NtRp471
(dp472
g66
(dp473
sg75
g459
sg68
(lp474
g61
(g62
g63
NtRp475
(dp476
g66
(dp477
g74
I3
ssg75
g471
sg68
(lp478
S''
asbasbasbag61
(g77
g63
NtRp479
(dp480
g66
(dp481
sg75
g435
sg68
(lp482
g61
(g82
g63
NtRp483
(dp484
g66
(dp485
g86
g87
ssg75
g479
sg68
(lp486
g317
asbag61
(g82
g63
NtRp487
(dp488
g66
(dp489
g93
g94
ssg75
g479
sg68
(lp490
S':'
asbag61
(g82
g63
NtRp491
(dp492
g66
(dp493
sg75
g479
sg68
(lp494
g61
(g62
g63
NtRp495
(dp496
g66
(dp497
g74
I3
ssg75
g491
sg68
(lp498
S''
asbasbasbag61
(g77
g63
NtRp499
(dp500
g66
(dp501
sg75
g435
sg68
(lp502
g61
(g82
g63
NtRp503
(dp504
g66
(dp505
g86
g87
ssg75
g499
sg68
(lp506
g338
asbag61
(g82
g63
NtRp507
(dp508
g66
(dp509
g93
g94
ssg75
g499
sg68
(lp510
S':'
asbag61
(g82
g63
NtRp511
(dp512
g66
(dp513
sg75
g499
sg68
(lp514
g61
(g62
g63
NtRp515
(dp516
g66
(dp517
g74
I3
ssg75
g511
sg68
(lp518
S''
asbasbasbag61
(g77
g63
NtRp519
(dp520
g66
(dp521
sg75
g435
sg68
(lp522
g61
(g82
g63
NtRp523
(dp524
g66
(dp525
g86
g87
ssg75
g519
sg68
(lp526
g359
asbag61
(g82
g63
NtRp527
(dp528
g66
(dp529
g93
g94
ssg75
g519
sg68
(lp530
S':'
asbag61
(g82
g63
NtRp531
(dp532
g66
(dp533
sg75
g519
sg68
(lp534
g61
(g62
g63
NtRp535
(dp536
g66
(dp537
g74
I3
ssg75
g531
sg68
(lp538
S''
asbasbasbag61
(g77
g63
NtRp539
(dp540
g66
(dp541
sg75
g435
sg68
(lp542
g61
(g82
g63
NtRp543
(dp544
g66
(dp545
g86
g87
ssg75
g539
sg68
(lp546
g380
asbag61
(g82
g63
NtRp547
(dp548
g66
(dp549
g93
g94
ssg75
g539
sg68
(lp550
S':'
asbag61
(g82
g63
NtRp551
(dp552
g66
(dp553
sg75
g539
sg68
(lp554
g61
(g62
g63
NtRp555
(dp556
g66
(dp557
g74
I3
ssg75
g551
sg68
(lp558
S''
asbasbasbag61
(g77
g63
NtRp559
(dp560
g66
(dp561
sg75
g435
sg68
(lp562
g61
(g82
g63
NtRp563
(dp564
g66
(dp565
g86
g87
ssg75
g559
sg68
(lp566
g401
asbag61
(g82
g63
NtRp567
(dp568
g66
(dp569
g93
g94
ssg75
g559
sg68
(lp570
S':'
asbag61
(g82
g63
NtRp571
(dp572
g66
(dp573
sg75
g559
sg68
(lp574
g61
(g62
g63
NtRp575
(dp576
g66
(dp577
g74
I3
ssg75
g571
sg68
(lp578
S''
asbasbasbasbasbasbasbasbasbasbasbag61
(g77
g63
NtRp579
(dp580
g66
(dp581
sg75
g71
sg68
(lp582
g61
(g82
g63
NtRp583
(dp584
g66
(dp585
g86
g87
ssg75
g579
sg68
(lp586
S'env'
p587
asbag61
(g82
g63
NtRp588
(dp589
g66
(dp590
g93
g94
ssg75
g579
sg68
(lp591
S':'
asbag61
(g82
g63
NtRp592
(dp593
g66
(dp594
sg75
g579
sg68
(lp595
g61
(g62
g63
NtRp596
(dp597
g66
(dp598
g74
I5
ssg75
g592
sg68
(lp599
g61
(g70
g63
NtRp600
(dp601
g66
(dp602
g74
I4
ssg75
Nsg68
(lp603
g61
(g77
g63
NtRp604
(dp605
g66
(dp606
sg75
g600
sg68
(lp607
g61
(g82
g63
NtRp608
(dp609
g66
(dp610
g86
g87
ssg75
g604
sg68
(lp611
S'app_folders'
p612
asbag61
(g82
g63
NtRp613
(dp614
g66
(dp615
g93
g94
ssg75
g604
sg68
(lp616
S':'
asbag61
(g82
g63
NtRp617
(dp618
g66
(dp619
sg75
g604
sg68
(lp620
g61
(g62
g63
NtRp621
(dp622
g66
(dp623
g74
I4
ssg75
g617
sg68
(lp624
S"set(['C:\\\\Users\\\\Bussiere\\\\Dropbox\\\\Projets\\\\jackpoint\\\\web2py\\\\applications\\\\init\\\\', 'C:\\\\Users\\\\Bussiere\\\\Dropbox\\\\Projets\\\\jackpoint\\\\web2py\\\\applications\\\\admin\\\\'])"
p625
asbasbasbag61
(g77
g63
NtRp626
(dp627
g66
(dp628
sg75
g600
sg68
(lp629
g61
(g82
g63
NtRp630
(dp631
g66
(dp632
g86
g87
ssg75
g626
sg68
(lp633
S'applications_parent'
p634
asbag61
(g82
g63
NtRp635
(dp636
g66
(dp637
g93
g94
ssg75
g626
sg68
(lp638
S':'
asbag61
(g82
g63
NtRp639
(dp640
g66
(dp641
sg75
g626
sg68
(lp642
g61
(g62
g63
NtRp643
(dp644
g66
(dp645
g74
I4
ssg75
g639
sg68
(lp646
S'C:\\Users\\Bussiere\\Dropbox\\Projets\\jackpoint\\web2py'
p647
asbasbasbag61
(g77
g63
NtRp648
(dp649
g66
(dp650
sg75
g600
sg68
(lp651
g61
(g82
g63
NtRp652
(dp653
g66
(dp654
g86
g87
ssg75
g648
sg68
(lp655
S'cmd_args'
p656
asbag61
(g82
g63
NtRp657
(dp658
g66
(dp659
g93
g94
ssg75
g648
sg68
(lp660
S':'
asbag61
(g82
g63
NtRp661
(dp662
g66
(dp663
sg75
g648
sg68
(lp664
g61
(g62
g63
NtRp665
(dp666
g66
(dp667
g74
I4
ssg75
g661
sg68
(lp668
g61
(g70
g63
NtRp669
(dp670
g66
(dp671
g74
I3
ssg75
Nsg68
(lp672
sbasbasbasbag61
(g77
g63
NtRp673
(dp674
g66
(dp675
sg75
g600
sg68
(lp676
g61
(g82
g63
NtRp677
(dp678
g66
(dp679
g86
g87
ssg75
g673
sg68
(lp680
S'cmd_options'
p681
asbag61
(g82
g63
NtRp682
(dp683
g66
(dp684
g93
g94
ssg75
g673
sg68
(lp685
S':'
asbag61
(g82
g63
NtRp686
(dp687
g66
(dp688
sg75
g673
sg68
(lp689
g61
(g62
g63
NtRp690
(dp691
g66
(dp692
g74
I4
ssg75
g686
sg68
(lp693
S"<Values at 0x3be5fa8: {'verbose': False, 'ip': '127.0.0.1', 'shutdown_timeout': 5, 'taskbar': False, 'nocron': False, 'pid_filename': 'httpserver.pid', 'maxthreads': None, 'softcron': False, 'server_name': 'Batou', 'bpython': False, 'nogui': False, 'port': 8000, 'extcron': False, 'debuglevel': 30, 'test': None, 'folder': 'C:\\\\Users\\\\Bussiere\\\\Dropbox\\\\Projets\\\\jackpoint\\\\web2py', 'config': '', 'import_models': False, 'winservice': '', 'shell': None, 'run': '', 'log_filename': 'httpserver.log', 'args': [''], 'socket_timeout': 5, 'ssl_ca_certificate': None, 'scheduler': None, 'profiler_filename': None, 'ssl_private_key': '', 'password': '<ask>', 'request_queue_size': 5, 'ssl_certificate': '', 'cronjob': False, 'numthreads': None, 'quiet': False, 'interfaces': None, 'minthreads': None, 'timeout': 10, 'plain': False, 'nobanner': False}>"
p694
asbasbasbag61
(g77
g63
NtRp695
(dp696
g66
(dp697
sg75
g600
sg68
(lp698
g61
(g82
g63
NtRp699
(dp700
g66
(dp701
g86
g87
ssg75
g695
sg68
(lp702
S'content_length'
p703
asbag61
(g82
g63
NtRp704
(dp705
g66
(dp706
g93
g94
ssg75
g695
sg68
(lp707
S':'
asbag61
(g82
g63
NtRp708
(dp709
g66
(dp710
sg75
g695
sg68
(lp711
g61
(g62
g63
NtRp712
(dp713
g66
(dp714
g74
I4
ssg75
g708
sg68
(lp715
S'475'
p716
asbasbasbag61
(g77
g63
NtRp717
(dp718
g66
(dp719
sg75
g600
sg68
(lp720
g61
(g82
g63
NtRp721
(dp722
g66
(dp723
g86
g87
ssg75
g717
sg68
(lp724
S'content_type'
p725
asbag61
(g82
g63
NtRp726
(dp727
g66
(dp728
g93
g94
ssg75
g717
sg68
(lp729
S':'
asbag61
(g82
g63
NtRp730
(dp731
g66
(dp732
sg75
g717
sg68
(lp733
g61
(g62
g63
NtRp734
(dp735
g66
(dp736
g74
I4
ssg75
g730
sg68
(lp737
S'multipart/form-data; boundary=----WebKitFormBoundaryYzChpBaPAlgvrbFq'
p738
asbasbasbag61
(g77
g63
NtRp739
(dp740
g66
(dp741
sg75
g600
sg68
(lp742
g61
(g82
g63
NtRp743
(dp744
g66
(dp745
g86
g87
ssg75
g739
sg68
(lp746
S'db_sessions'
p747
asbag61
(g82
g63
NtRp748
(dp749
g66
(dp750
g93
g94
ssg75
g739
sg68
(lp751
S':'
asbag61
(g82
g63
NtRp752
(dp753
g66
(dp754
sg75
g739
sg68
(lp755
g61
(g62
g63
NtRp756
(dp757
g66
(dp758
g74
I4
ssg75
g752
sg68
(lp759
S"set(['init'])"
p760
asbasbasbag61
(g77
g63
NtRp761
(dp762
g66
(dp763
sg75
g600
sg68
(lp764
g61
(g82
g63
NtRp765
(dp766
g66
(dp767
g86
g87
ssg75
g761
sg68
(lp768
S'debugging'
p769
asbag61
(g82
g63
NtRp770
(dp771
g66
(dp772
g93
g94
ssg75
g761
sg68
(lp773
S':'
asbag61
(g82
g63
NtRp774
(dp775
g66
(dp776
sg75
g761
sg68
(lp777
g61
(g62
g63
NtRp778
(dp779
g66
(dp780
g74
I4
ssg75
g774
sg68
(lp781
S'True'
p782
asbasbasbag61
(g77
g63
NtRp783
(dp784
g66
(dp785
sg75
g600
sg68
(lp786
g61
(g82
g63
NtRp787
(dp788
g66
(dp789
g86
g87
ssg75
g783
sg68
(lp790
S'gluon_parent'
p791
asbag61
(g82
g63
NtRp792
(dp793
g66
(dp794
g93
g94
ssg75
g783
sg68
(lp795
S':'
asbag61
(g82
g63
NtRp796
(dp797
g66
(dp798
sg75
g783
sg68
(lp799
g61
(g62
g63
NtRp800
(dp801
g66
(dp802
g74
I4
ssg75
g796
sg68
(lp803
S'C:\\Users\\Bussiere\\Dropbox\\Projets\\jackpoint\\web2py'
p804
asbasbasbag61
(g77
g63
NtRp805
(dp806
g66
(dp807
sg75
g600
sg68
(lp808
g61
(g82
g63
NtRp809
(dp810
g66
(dp811
g86
g87
ssg75
g805
sg68
(lp812
S'http_accept'
p813
asbag61
(g82
g63
NtRp814
(dp815
g66
(dp816
g93
g94
ssg75
g805
sg68
(lp817
S':'
asbag61
(g82
g63
NtRp818
(dp819
g66
(dp820
sg75
g805
sg68
(lp821
g61
(g62
g63
NtRp822
(dp823
g66
(dp824
g74
I4
ssg75
g818
sg68
(lp825
S'text/html,application/xhtml+xml,application/xml;q=0.9,*/*;q=0.8'
p826
asbasbasbag61
(g77
g63
NtRp827
(dp828
g66
(dp829
sg75
g600
sg68
(lp830
g61
(g82
g63
NtRp831
(dp832
g66
(dp833
g86
g87
ssg75
g827
sg68
(lp834
S'http_accept_charset'
p835
asbag61
(g82
g63
NtRp836
(dp837
g66
(dp838
g93
g94
ssg75
g827
sg68
(lp839
S':'
asbag61
(g82
g63
NtRp840
(dp841
g66
(dp842
sg75
g827
sg68
(lp843
g61
(g62
g63
NtRp844
(dp845
g66
(dp846
g74
I4
ssg75
g840
sg68
(lp847
S'ISO-8859-1,utf-8;q=0.7,*;q=0.3'
p848
asbasbasbag61
(g77
g63
NtRp849
(dp850
g66
(dp851
sg75
g600
sg68
(lp852
g61
(g82
g63
NtRp853
(dp854
g66
(dp855
g86
g87
ssg75
g849
sg68
(lp856
S'http_accept_encoding'
p857
asbag61
(g82
g63
NtRp858
(dp859
g66
(dp860
g93
g94
ssg75
g849
sg68
(lp861
S':'
asbag61
(g82
g63
NtRp862
(dp863
g66
(dp864
sg75
g849
sg68
(lp865
g61
(g62
g63
NtRp866
(dp867
g66
(dp868
g74
I4
ssg75
g862
sg68
(lp869
S'gzip,deflate,sdch'
p870
asbasbasbag61
(g77
g63
NtRp871
(dp872
g66
(dp873
sg75
g600
sg68
(lp874
g61
(g82
g63
NtRp875
(dp876
g66
(dp877
g86
g87
ssg75
g871
sg68
(lp878
S'http_accept_language'
p879
asbag61
(g82
g63
NtRp880
(dp881
g66
(dp882
g93
g94
ssg75
g871
sg68
(lp883
S':'
asbag61
(g82
g63
NtRp884
(dp885
g66
(dp886
sg75
g871
sg68
(lp887
g61
(g62
g63
NtRp888
(dp889
g66
(dp890
g74
I4
ssg75
g884
sg68
(lp891
S'en-US,en;q=0.8'
p892
asbasbasbag61
(g77
g63
NtRp893
(dp894
g66
(dp895
sg75
g600
sg68
(lp896
g61
(g82
g63
NtRp897
(dp898
g66
(dp899
g86
g87
ssg75
g893
sg68
(lp900
S'http_cache_control'
p901
asbag61
(g82
g63
NtRp902
(dp903
g66
(dp904
g93
g94
ssg75
g893
sg68
(lp905
S':'
asbag61
(g82
g63
NtRp906
(dp907
g66
(dp908
sg75
g893
sg68
(lp909
g61
(g62
g63
NtRp910
(dp911
g66
(dp912
g74
I4
ssg75
g906
sg68
(lp913
S'max-age=0'
p914
asbasbasbag61
(g77
g63
NtRp915
(dp916
g66
(dp917
sg75
g600
sg68
(lp918
g61
(g82
g63
NtRp919
(dp920
g66
(dp921
g86
g87
ssg75
g915
sg68
(lp922
S'http_connection'
p923
asbag61
(g82
g63
NtRp924
(dp925
g66
(dp926
g93
g94
ssg75
g915
sg68
(lp927
S':'
asbag61
(g82
g63
NtRp928
(dp929
g66
(dp930
sg75
g915
sg68
(lp931
g61
(g62
g63
NtRp932
(dp933
g66
(dp934
g74
I4
ssg75
g928
sg68
(lp935
S'keep-alive'
p936
asbasbasbag61
(g77
g63
NtRp937
(dp938
g66
(dp939
sg75
g600
sg68
(lp940
g61
(g82
g63
NtRp941
(dp942
g66
(dp943
g86
g87
ssg75
g937
sg68
(lp944
S'http_content_length'
p945
asbag61
(g82
g63
NtRp946
(dp947
g66
(dp948
g93
g94
ssg75
g937
sg68
(lp949
S':'
asbag61
(g82
g63
NtRp950
(dp951
g66
(dp952
sg75
g937
sg68
(lp953
g61
(g62
g63
NtRp954
(dp955
g66
(dp956
g74
I4
ssg75
g950
sg68
(lp957
g716
asbasbasbag61
(g77
g63
NtRp958
(dp959
g66
(dp960
sg75
g600
sg68
(lp961
g61
(g82
g63
NtRp962
(dp963
g66
(dp964
g86
g87
ssg75
g958
sg68
(lp965
S'http_content_type'
p966
asbag61
(g82
g63
NtRp967
(dp968
g66
(dp969
g93
g94
ssg75
g958
sg68
(lp970
S':'
asbag61
(g82
g63
NtRp971
(dp972
g66
(dp973
sg75
g958
sg68
(lp974
g61
(g62
g63
NtRp975
(dp976
g66
(dp977
g74
I4
ssg75
g971
sg68
(lp978
g738
asbasbasbag61
(g77
g63
NtRp979
(dp980
g66
(dp981
sg75
g600
sg68
(lp982
g61
(g82
g63
NtRp983
(dp984
g66
(dp985
g86
g87
ssg75
g979
sg68
(lp986
S'http_cookie'
p987
asbag61
(g82
g63
NtRp988
(dp989
g66
(dp990
g93
g94
ssg75
g979
sg68
(lp991
S':'
asbag61
(g82
g63
NtRp992
(dp993
g66
(dp994
sg75
g979
sg68
(lp995
g61
(g62
g63
NtRp996
(dp997
g66
(dp998
g74
I4
ssg75
g992
sg68
(lp999
S'session_id_init="11:795a76ab-b396-4cc5-8c57-3e2ec1f6de7f"; session_id_admin=127.0.0.1-b63258fa-6077-46d8-8b2a-33ffbf471e85'
p1000
asbasbasbag61
(g77
g63
NtRp1001
(dp1002
g66
(dp1003
sg75
g600
sg68
(lp1004
g61
(g82
g63
NtRp1005
(dp1006
g66
(dp1007
g86
g87
ssg75
g1001
sg68
(lp1008
S'http_host'
p1009
asbag61
(g82
g63
NtRp1010
(dp1011
g66
(dp1012
g93
g94
ssg75
g1001
sg68
(lp1013
S':'
asbag61
(g82
g63
NtRp1014
(dp1015
g66
(dp1016
sg75
g1001
sg68
(lp1017
g61
(g62
g63
NtRp1018
(dp1019
g66
(dp1020
g74
I4
ssg75
g1014
sg68
(lp1021
S'127.0.0.1:8000'
p1022
asbasbasbag61
(g77
g63
NtRp1023
(dp1024
g66
(dp1025
sg75
g600
sg68
(lp1026
g61
(g82
g63
NtRp1027
(dp1028
g66
(dp1029
g86
g87
ssg75
g1023
sg68
(lp1030
S'http_origin'
p1031
asbag61
(g82
g63
NtRp1032
(dp1033
g66
(dp1034
g93
g94
ssg75
g1023
sg68
(lp1035
S':'
asbag61
(g82
g63
NtRp1036
(dp1037
g66
(dp1038
sg75
g1023
sg68
(lp1039
g61
(g62
g63
NtRp1040
(dp1041
g66
(dp1042
g74
I4
ssg75
g1036
sg68
(lp1043
S'http://127.0.0.1:8000'
p1044
asbasbasbag61
(g77
g63
NtRp1045
(dp1046
g66
(dp1047
sg75
g600
sg68
(lp1048
g61
(g82
g63
NtRp1049
(dp1050
g66
(dp1051
g86
g87
ssg75
g1045
sg68
(lp1052
S'http_referer'
p1053
asbag61
(g82
g63
NtRp1054
(dp1055
g66
(dp1056
g93
g94
ssg75
g1045
sg68
(lp1057
S':'
asbag61
(g82
g63
NtRp1058
(dp1059
g66
(dp1060
sg75
g1045
sg68
(lp1061
g61
(g62
g63
NtRp1062
(dp1063
g66
(dp1064
g74
I4
ssg75
g1058
sg68
(lp1065
S'http://127.0.0.1:8000/init/default/invitation'
p1066
asbasbasbag61
(g77
g63
NtRp1067
(dp1068
g66
(dp1069
sg75
g600
sg68
(lp1070
g61
(g82
g63
NtRp1071
(dp1072
g66
(dp1073
g86
g87
ssg75
g1067
sg68
(lp1074
S'http_user_agent'
p1075
asbag61
(g82
g63
NtRp1076
(dp1077
g66
(dp1078
g93
g94
ssg75
g1067
sg68
(lp1079
S':'
asbag61
(g82
g63
NtRp1080
(dp1081
g66
(dp1082
sg75
g1067
sg68
(lp1083
g61
(g62
g63
NtRp1084
(dp1085
g66
(dp1086
g74
I4
ssg75
g1080
sg68
(lp1087
S'Mozilla/5.0 (Windows NT 6.1; WOW64) AppleWebKit/535.18 (KHTML, like Gecko) Chrome/18.0.1011.0 Safari/535.18'
p1088
asbasbasbag61
(g77
g63
NtRp1089
(dp1090
g66
(dp1091
sg75
g600
sg68
(lp1092
g61
(g82
g63
NtRp1093
(dp1094
g66
(dp1095
g86
g87
ssg75
g1089
sg68
(lp1096
S'is_jython'
p1097
asbag61
(g82
g63
NtRp1098
(dp1099
g66
(dp1100
g93
g94
ssg75
g1089
sg68
(lp1101
S':'
asbag61
(g82
g63
NtRp1102
(dp1103
g66
(dp1104
sg75
g1089
sg68
(lp1105
g61
(g62
g63
NtRp1106
(dp1107
g66
(dp1108
g74
I4
ssg75
g1102
sg68
(lp1109
g104
asbasbasbag61
(g77
g63
NtRp1110
(dp1111
g66
(dp1112
sg75
g600
sg68
(lp1113
g61
(g82
g63
NtRp1114
(dp1115
g66
(dp1116
g86
g87
ssg75
g1110
sg68
(lp1117
S'is_pypy'
p1118
asbag61
(g82
g63
NtRp1119
(dp1120
g66
(dp1121
g93
g94
ssg75
g1110
sg68
(lp1122
S':'
asbag61
(g82
g63
NtRp1123
(dp1124
g66
(dp1125
sg75
g1110
sg68
(lp1126
g61
(g62
g63
NtRp1127
(dp1128
g66
(dp1129
g74
I4
ssg75
g1123
sg68
(lp1130
g104
asbasbasbag61
(g77
g63
NtRp1131
(dp1132
g66
(dp1133
sg75
g600
sg68
(lp1134
g61
(g82
g63
NtRp1135
(dp1136
g66
(dp1137
g86
g87
ssg75
g1131
sg68
(lp1138
S'path_info'
p1139
asbag61
(g82
g63
NtRp1140
(dp1141
g66
(dp1142
g93
g94
ssg75
g1131
sg68
(lp1143
S':'
asbag61
(g82
g63
NtRp1144
(dp1145
g66
(dp1146
sg75
g1131
sg68
(lp1147
g61
(g62
g63
NtRp1148
(dp1149
g66
(dp1150
g74
I4
ssg75
g1144
sg68
(lp1151
S'/init/default/invitation'
p1152
asbasbasbag61
(g77
g63
NtRp1153
(dp1154
g66
(dp1155
sg75
g600
sg68
(lp1156
g61
(g82
g63
NtRp1157
(dp1158
g66
(dp1159
g86
g87
ssg75
g1153
sg68
(lp1160
S'query_string'
p1161
asbag61
(g82
g63
NtRp1162
(dp1163
g66
(dp1164
g93
g94
ssg75
g1153
sg68
(lp1165
S':'
asbag61
(g82
g63
NtRp1166
(dp1167
g66
(dp1168
sg75
g1153
sg68
(lp1169
g61
(g62
g63
NtRp1170
(dp1171
g66
(dp1172
g74
I4
ssg75
g1166
sg68
(lp1173
S''
asbasbasbag61
(g77
g63
NtRp1174
(dp1175
g66
(dp1176
sg75
g600
sg68
(lp1177
g61
(g82
g63
NtRp1178
(dp1179
g66
(dp1180
g86
g87
ssg75
g1174
sg68
(lp1181
S'remote_addr'
p1182
asbag61
(g82
g63
NtRp1183
(dp1184
g66
(dp1185
g93
g94
ssg75
g1174
sg68
(lp1186
S':'
asbag61
(g82
g63
NtRp1187
(dp1188
g66
(dp1189
sg75
g1174
sg68
(lp1190
g61
(g62
g63
NtRp1191
(dp1192
g66
(dp1193
g74
I4
ssg75
g1187
sg68
(lp1194
g194
asbasbasbag61
(g77
g63
NtRp1195
(dp1196
g66
(dp1197
sg75
g600
sg68
(lp1198
g61
(g82
g63
NtRp1199
(dp1200
g66
(dp1201
g86
g87
ssg75
g1195
sg68
(lp1202
S'remote_port'
p1203
asbag61
(g82
g63
NtRp1204
(dp1205
g66
(dp1206
g93
g94
ssg75
g1195
sg68
(lp1207
S':'
asbag61
(g82
g63
NtRp1208
(dp1209
g66
(dp1210
sg75
g1195
sg68
(lp1211
g61
(g62
g63
NtRp1212
(dp1213
g66
(dp1214
g74
I4
ssg75
g1208
sg68
(lp1215
S'59303'
p1216
asbasbasbag61
(g77
g63
NtRp1217
(dp1218
g66
(dp1219
sg75
g600
sg68
(lp1220
g61
(g82
g63
NtRp1221
(dp1222
g66
(dp1223
g86
g87
ssg75
g1217
sg68
(lp1224
S'request_method'
p1225
asbag61
(g82
g63
NtRp1226
(dp1227
g66
(dp1228
g93
g94
ssg75
g1217
sg68
(lp1229
S':'
asbag61
(g82
g63
NtRp1230
(dp1231
g66
(dp1232
sg75
g1217
sg68
(lp1233
g61
(g62
g63
NtRp1234
(dp1235
g66
(dp1236
g74
I4
ssg75
g1230
sg68
(lp1237
S'POST'
p1238
asbasbasbag61
(g77
g63
NtRp1239
(dp1240
g66
(dp1241
sg75
g600
sg68
(lp1242
g61
(g82
g63
NtRp1243
(dp1244
g66
(dp1245
g86
g87
ssg75
g1239
sg68
(lp1246
S'script_name'
p1247
asbag61
(g82
g63
NtRp1248
(dp1249
g66
(dp1250
g93
g94
ssg75
g1239
sg68
(lp1251
S':'
asbag61
(g82
g63
NtRp1252
(dp1253
g66
(dp1254
sg75
g1239
sg68
(lp1255
g61
(g62
g63
NtRp1256
(dp1257
g66
(dp1258
g74
I4
ssg75
g1252
sg68
(lp1259
S''
asbasbasbag61
(g77
g63
NtRp1260
(dp1261
g66
(dp1262
sg75
g600
sg68
(lp1263
g61
(g82
g63
NtRp1264
(dp1265
g66
(dp1266
g86
g87
ssg75
g1260
sg68
(lp1267
S'server_name'
p1268
asbag61
(g82
g63
NtRp1269
(dp1270
g66
(dp1271
g93
g94
ssg75
g1260
sg68
(lp1272
S':'
asbag61
(g82
g63
NtRp1273
(dp1274
g66
(dp1275
sg75
g1260
sg68
(lp1276
g61
(g62
g63
NtRp1277
(dp1278
g66
(dp1279
g74
I4
ssg75
g1273
sg68
(lp1280
S'Batou'
p1281
asbasbasbag61
(g77
g63
NtRp1282
(dp1283
g66
(dp1284
sg75
g600
sg68
(lp1285
g61
(g82
g63
NtRp1286
(dp1287
g66
(dp1288
g86
g87
ssg75
g1282
sg68
(lp1289
S'server_port'
p1290
asbag61
(g82
g63
NtRp1291
(dp1292
g66
(dp1293
g93
g94
ssg75
g1282
sg68
(lp1294
S':'
asbag61
(g82
g63
NtRp1295
(dp1296
g66
(dp1297
sg75
g1282
sg68
(lp1298
g61
(g62
g63
NtRp1299
(dp1300
g66
(dp1301
g74
I4
ssg75
g1295
sg68
(lp1302
S'8000'
p1303
asbasbasbag61
(g77
g63
NtRp1304
(dp1305
g66
(dp1306
sg75
g600
sg68
(lp1307
g61
(g82
g63
NtRp1308
(dp1309
g66
(dp1310
g86
g87
ssg75
g1304
sg68
(lp1311
S'server_protocol'
p1312
asbag61
(g82
g63
NtRp1313
(dp1314
g66
(dp1315
g93
g94
ssg75
g1304
sg68
(lp1316
S':'
asbag61
(g82
g63
NtRp1317
(dp1318
g66
(dp1319
sg75
g1304
sg68
(lp1320
g61
(g62
g63
NtRp1321
(dp1322
g66
(dp1323
g74
I4
ssg75
g1317
sg68
(lp1324
S'HTTP/1.1'
p1325
asbasbasbag61
(g77
g63
NtRp1326
(dp1327
g66
(dp1328
sg75
g600
sg68
(lp1329
g61
(g82
g63
NtRp1330
(dp1331
g66
(dp1332
g86
g87
ssg75
g1326
sg68
(lp1333
S'server_software'
p1334
asbag61
(g82
g63
NtRp1335
(dp1336
g66
(dp1337
g93
g94
ssg75
g1326
sg68
(lp1338
S':'
asbag61
(g82
g63
NtRp1339
(dp1340
g66
(dp1341
sg75
g1326
sg68
(lp1342
g61
(g62
g63
NtRp1343
(dp1344
g66
(dp1345
g74
I4
ssg75
g1339
sg68
(lp1346
S'Rocket 1.2.4'
p1347
asbasbasbag61
(g77
g63
NtRp1348
(dp1349
g66
(dp1350
sg75
g600
sg68
(lp1351
g61
(g82
g63
NtRp1352
(dp1353
g66
(dp1354
g86
g87
ssg75
g1348
sg68
(lp1355
S'web2py_crontype'
p1356
asbag61
(g82
g63
NtRp1357
(dp1358
g66
(dp1359
g93
g94
ssg75
g1348
sg68
(lp1360
S':'
asbag61
(g82
g63
NtRp1361
(dp1362
g66
(dp1363
sg75
g1348
sg68
(lp1364
g61
(g62
g63
NtRp1365
(dp1366
g66
(dp1367
g74
I4
ssg75
g1361
sg68
(lp1368
S'hard'
p1369
asbasbasbag61
(g77
g63
NtRp1370
(dp1371
g66
(dp1372
sg75
g600
sg68
(lp1373
g61
(g82
g63
NtRp1374
(dp1375
g66
(dp1376
g86
g87
ssg75
g1370
sg68
(lp1377
S'web2py_path'
p1378
asbag61
(g82
g63
NtRp1379
(dp1380
g66
(dp1381
g93
g94
ssg75
g1370
sg68
(lp1382
S':'
asbag61
(g82
g63
NtRp1383
(dp1384
g66
(dp1385
sg75
g1370
sg68
(lp1386
g61
(g62
g63
NtRp1387
(dp1388
g66
(dp1389
g74
I4
ssg75
g1383
sg68
(lp1390
g647
asbasbasbag61
(g77
g63
NtRp1391
(dp1392
g66
(dp1393
sg75
g600
sg68
(lp1394
g61
(g82
g63
NtRp1395
(dp1396
g66
(dp1397
g86
g87
ssg75
g1391
sg68
(lp1398
S'web2py_version'
p1399
asbag61
(g82
g63
NtRp1400
(dp1401
g66
(dp1402
g93
g94
ssg75
g1391
sg68
(lp1403
S':'
asbag61
(g82
g63
NtRp1404
(dp1405
g66
(dp1406
sg75
g1391
sg68
(lp1407
g61
(g62
g63
NtRp1408
(dp1409
g66
(dp1410
g74
I4
ssg75
g1404
sg68
(lp1411
g61
(g70
g63
NtRp1412
(dp1413
g66
(dp1414
g74
I3
ssg75
Nsg68
(lp1415
g61
(g77
g63
NtRp1416
(dp1417
g66
(dp1418
sg75
g1412
sg68
(lp1419
g61
(g82
g63
NtRp1420
(dp1421
g66
(dp1422
sg75
g1416
sg68
(lp1423
g61
(g62
g63
NtRp1424
(dp1425
g66
(dp1426
g74
I3
ssg75
g1420
sg68
(lp1427
S'1'
asbasbasbag61
(g77
g63
NtRp1428
(dp1429
g66
(dp1430
sg75
g1412
sg68
(lp1431
g61
(g82
g63
NtRp1432
(dp1433
g66
(dp1434
sg75
g1428
sg68
(lp1435
g61
(g62
g63
NtRp1436
(dp1437
g66
(dp1438
g74
I3
ssg75
g1432
sg68
(lp1439
S'99'
p1440
asbasbasbag61
(g77
g63
NtRp1441
(dp1442
g66
(dp1443
sg75
g1412
sg68
(lp1444
g61
(g82
g63
NtRp1445
(dp1446
g66
(dp1447
sg75
g1441
sg68
(lp1448
g61
(g62
g63
NtRp1449
(dp1450
g66
(dp1451
g74
I3
ssg75
g1445
sg68
(lp1452
S'7'
asbasbasbag61
(g77
g63
NtRp1453
(dp1454
g66
(dp1455
sg75
g1412
sg68
(lp1456
g61
(g82
g63
NtRp1457
(dp1458
g66
(dp1459
sg75
g1453
sg68
(lp1460
g61
(g62
g63
NtRp1461
(dp1462
g66
(dp1463
g74
I3
ssg75
g1457
sg68
(lp1464
S'datetime.datetime(2012, 3, 4, 22, 12, 8)'
p1465
asbasbasbag61
(g77
g63
NtRp1466
(dp1467
g66
(dp1468
sg75
g1412
sg68
(lp1469
g61
(g82
g63
NtRp1470
(dp1471
g66
(dp1472
sg75
g1466
sg68
(lp1473
g61
(g62
g63
NtRp1474
(dp1475
g66
(dp1476
g74
I3
ssg75
g1470
sg68
(lp1477
S'stable'
p1478
asbasbasbasbasbasbasbag61
(g77
g63
NtRp1479
(dp1480
g66
(dp1481
sg75
g600
sg68
(lp1482
g61
(g82
g63
NtRp1483
(dp1484
g66
(dp1485
g86
g87
ssg75
g1479
sg68
(lp1486
S'wsgi_errors'
p1487
asbag61
(g82
g63
NtRp1488
(dp1489
g66
(dp1490
g93
g94
ssg75
g1479
sg68
(lp1491
S':'
asbag61
(g82
g63
NtRp1492
(dp1493
g66
(dp1494
sg75
g1479
sg68
(lp1495
g61
(g62
g63
NtRp1496
(dp1497
g66
(dp1498
g74
I4
ssg75
g1492
sg68
(lp1499
S"<open file '<stderr>', mode 'w' at 0x002B00B0>"
p1500
asbasbasbag61
(g77
g63
NtRp1501
(dp1502
g66
(dp1503
sg75
g600
sg68
(lp1504
g61
(g82
g63
NtRp1505
(dp1506
g66
(dp1507
g86
g87
ssg75
g1501
sg68
(lp1508
S'wsgi_file_wrapper'
p1509
asbag61
(g82
g63
NtRp1510
(dp1511
g66
(dp1512
g93
g94
ssg75
g1501
sg68
(lp1513
S':'
asbag61
(g82
g63
NtRp1514
(dp1515
g66
(dp1516
sg75
g1501
sg68
(lp1517
g61
(g62
g63
NtRp1518
(dp1519
g66
(dp1520
g74
I4
ssg75
g1514
sg68
(lp1521
S'<class wsgiref.util.FileWrapper at 0x02BF4900>'
p1522
asbasbasbag61
(g77
g63
NtRp1523
(dp1524
g66
(dp1525
sg75
g600
sg68
(lp1526
g61
(g82
g63
NtRp1527
(dp1528
g66
(dp1529
g86
g87
ssg75
g1523
sg68
(lp1530
S'wsgi_input'
p1531
asbag61
(g82
g63
NtRp1532
(dp1533
g66
(dp1534
g93
g94
ssg75
g1523
sg68
(lp1535
S':'
asbag61
(g82
g63
NtRp1536
(dp1537
g66
(dp1538
sg75
g1523
sg68
(lp1539
g61
(g62
g63
NtRp1540
(dp1541
g66
(dp1542
g74
I4
ssg75
g1536
sg68
(lp1543
S'<socket._fileobject object at 0x045A70B0>'
p1544
asbasbasbag61
(g77
g63
NtRp1545
(dp1546
g66
(dp1547
sg75
g600
sg68
(lp1548
g61
(g82
g63
NtRp1549
(dp1550
g66
(dp1551
g86
g87
ssg75
g1545
sg68
(lp1552
S'wsgi_multiprocess'
p1553
asbag61
(g82
g63
NtRp1554
(dp1555
g66
(dp1556
g93
g94
ssg75
g1545
sg68
(lp1557
S':'
asbag61
(g82
g63
NtRp1558
(dp1559
g66
(dp1560
sg75
g1545
sg68
(lp1561
g61
(g62
g63
NtRp1562
(dp1563
g66
(dp1564
g74
I4
ssg75
g1558
sg68
(lp1565
g104
asbasbasbag61
(g77
g63
NtRp1566
(dp1567
g66
(dp1568
sg75
g600
sg68
(lp1569
g61
(g82
g63
NtRp1570
(dp1571
g66
(dp1572
g86
g87
ssg75
g1566
sg68
(lp1573
S'wsgi_multithread'
p1574
asbag61
(g82
g63
NtRp1575
(dp1576
g66
(dp1577
g93
g94
ssg75
g1566
sg68
(lp1578
S':'
asbag61
(g82
g63
NtRp1579
(dp1580
g66
(dp1581
sg75
g1566
sg68
(lp1582
g61
(g62
g63
NtRp1583
(dp1584
g66
(dp1585
g74
I4
ssg75
g1579
sg68
(lp1586
g782
asbasbasbag61
(g77
g63
NtRp1587
(dp1588
g66
(dp1589
sg75
g600
sg68
(lp1590
g61
(g82
g63
NtRp1591
(dp1592
g66
(dp1593
g86
g87
ssg75
g1587
sg68
(lp1594
S'wsgi_run_once'
p1595
asbag61
(g82
g63
NtRp1596
(dp1597
g66
(dp1598
g93
g94
ssg75
g1587
sg68
(lp1599
S':'
asbag61
(g82
g63
NtRp1600
(dp1601
g66
(dp1602
sg75
g1587
sg68
(lp1603
g61
(g62
g63
NtRp1604
(dp1605
g66
(dp1606
g74
I4
ssg75
g1600
sg68
(lp1607
g104
asbasbasbag61
(g77
g63
NtRp1608
(dp1609
g66
(dp1610
sg75
g600
sg68
(lp1611
g61
(g82
g63
NtRp1612
(dp1613
g66
(dp1614
g86
g87
ssg75
g1608
sg68
(lp1615
S'wsgi_url_scheme'
p1616
asbag61
(g82
g63
NtRp1617
(dp1618
g66
(dp1619
g93
g94
ssg75
g1608
sg68
(lp1620
S':'
asbag61
(g82
g63
NtRp1621
(dp1622
g66
(dp1623
sg75
g1608
sg68
(lp1624
g61
(g62
g63
NtRp1625
(dp1626
g66
(dp1627
g74
I4
ssg75
g1621
sg68
(lp1628
S'http'
p1629
asbasbasbag61
(g77
g63
NtRp1630
(dp1631
g66
(dp1632
sg75
g600
sg68
(lp1633
g61
(g82
g63
NtRp1634
(dp1635
g66
(dp1636
g86
g87
ssg75
g1630
sg68
(lp1637
S'wsgi_version'
p1638
asbag61
(g82
g63
NtRp1639
(dp1640
g66
(dp1641
g93
g94
ssg75
g1630
sg68
(lp1642
S':'
asbag61
(g82
g63
NtRp1643
(dp1644
g66
(dp1645
sg75
g1630
sg68
(lp1646
g61
(g62
g63
NtRp1647
(dp1648
g66
(dp1649
g74
I4
ssg75
g1643
sg68
(lp1650
g61
(g70
g63
NtRp1651
(dp1652
g66
(dp1653
g74
I3
ssg75
Nsg68
(lp1654
g61
(g77
g63
NtRp1655
(dp1656
g66
(dp1657
sg75
g1651
sg68
(lp1658
g61
(g82
g63
NtRp1659
(dp1660
g66
(dp1661
sg75
g1655
sg68
(lp1662
g61
(g62
g63
NtRp1663
(dp1664
g66
(dp1665
g74
I3
ssg75
g1659
sg68
(lp1666
S'1'
asbasbasbag61
(g77
g63
NtRp1667
(dp1668
g66
(dp1669
sg75
g1651
sg68
(lp1670
g61
(g82
g63
NtRp1671
(dp1672
g66
(dp1673
sg75
g1667
sg68
(lp1674
g61
(g62
g63
NtRp1675
(dp1676
g66
(dp1677
g74
I3
ssg75
g1671
sg68
(lp1678
S'0'
asbasbasbasbasbasbasbasbasbasbasbag61
(g77
g63
NtRp1679
(dp1680
g66
(dp1681
sg75
g71
sg68
(lp1682
g61
(g82
g63
NtRp1683
(dp1684
g66
(dp1685
g86
g87
ssg75
g1679
sg68
(lp1686
S'extension'
p1687
asbag61
(g82
g63
NtRp1688
(dp1689
g66
(dp1690
g93
g94
ssg75
g1679
sg68
(lp1691
S':'
asbag61
(g82
g63
NtRp1692
(dp1693
g66
(dp1694
sg75
g1679
sg68
(lp1695
g61
(g62
g63
NtRp1696
(dp1697
g66
(dp1698
g74
I5
ssg75
g1692
sg68
(lp1699
S'html'
p1700
asbasbasbag61
(g77
g63
NtRp1701
(dp1702
g66
(dp1703
sg75
g71
sg68
(lp1704
g61
(g82
g63
NtRp1705
(dp1706
g66
(dp1707
g86
g87
ssg75
g1701
sg68
(lp1708
S'folder'
p1709
asbag61
(g82
g63
NtRp1710
(dp1711
g66
(dp1712
g93
g94
ssg75
g1701
sg68
(lp1713
S':'
asbag61
(g82
g63
NtRp1714
(dp1715
g66
(dp1716
sg75
g1701
sg68
(lp1717
g61
(g62
g63
NtRp1718
(dp1719
g66
(dp1720
g74
I5
ssg75
g1714
sg68
(lp1721
S'C:\\Users\\Bussiere\\Dropbox\\Projets\\jackpoint\\web2py\\applications\\init\\'
p1722
asbasbasbag61
(g77
g63
NtRp1723
(dp1724
g66
(dp1725
sg75
g71
sg68
(lp1726
g61
(g82
g63
NtRp1727
(dp1728
g66
(dp1729
g86
g87
ssg75
g1723
sg68
(lp1730
S'function'
p1731
asbag61
(g82
g63
NtRp1732
(dp1733
g66
(dp1734
g93
g94
ssg75
g1723
sg68
(lp1735
S':'
asbag61
(g82
g63
NtRp1736
(dp1737
g66
(dp1738
sg75
g1723
sg68
(lp1739
g61
(g62
g63
NtRp1740
(dp1741
g66
(dp1742
g74
I5
ssg75
g1736
sg68
(lp1743
S'invitation'
p1744
asbasbasbag61
(g77
g63
NtRp1745
(dp1746
g66
(dp1747
sg75
g71
sg68
(lp1748
g61
(g82
g63
NtRp1749
(dp1750
g66
(dp1751
g86
g87
ssg75
g1745
sg68
(lp1752
S'get_vars'
p1753
asbag61
(g82
g63
NtRp1754
(dp1755
g66
(dp1756
g93
g94
ssg75
g1745
sg68
(lp1757
S':'
asbag61
(g82
g63
NtRp1758
(dp1759
g66
(dp1760
sg75
g1745
sg68
(lp1761
g61
(g62
g63
NtRp1762
(dp1763
g66
(dp1764
g74
I5
ssg75
g1758
sg68
(lp1765
g61
(g70
g63
NtRp1766
(dp1767
g66
(dp1768
g74
I4
ssg75
Nsg68
(lp1769
sbasbasbasbag61
(g77
g63
NtRp1770
(dp1771
g66
(dp1772
sg75
g71
sg68
(lp1773
g61
(g82
g63
NtRp1774
(dp1775
g66
(dp1776
g86
g87
ssg75
g1770
sg68
(lp1777
S'global_settings'
p1778
asbag61
(g82
g63
NtRp1779
(dp1780
g66
(dp1781
g93
g94
ssg75
g1770
sg68
(lp1782
S':'
asbag61
(g82
g63
NtRp1783
(dp1784
g66
(dp1785
sg75
g1770
sg68
(lp1786
g61
(g62
g63
NtRp1787
(dp1788
g66
(dp1789
g74
I5
ssg75
g1783
sg68
(lp1790
g61
(g70
g63
NtRp1791
(dp1792
g66
(dp1793
g74
I4
ssg75
Nsg68
(lp1794
g61
(g77
g63
NtRp1795
(dp1796
g66
(dp1797
sg75
g1791
sg68
(lp1798
g61
(g82
g63
NtRp1799
(dp1800
g66
(dp1801
g86
g87
ssg75
g1795
sg68
(lp1802
g612
asbag61
(g82
g63
NtRp1803
(dp1804
g66
(dp1805
g93
g94
ssg75
g1795
sg68
(lp1806
S':'
asbag61
(g82
g63
NtRp1807
(dp1808
g66
(dp1809
sg75
g1795
sg68
(lp1810
g61
(g62
g63
NtRp1811
(dp1812
g66
(dp1813
g74
I4
ssg75
g1807
sg68
(lp1814
S"set(['C:\\\\Users\\\\Bussiere\\\\Dropbox\\\\Projets\\\\jackpoint\\\\web2py\\\\applications\\\\init\\\\', 'C:\\\\Users\\\\Bussiere\\\\Dropbox\\\\Projets\\\\jackpoint\\\\web2py\\\\applications\\\\admin\\\\'])"
p1815
asbasbasbag61
(g77
g63
NtRp1816
(dp1817
g66
(dp1818
sg75
g1791
sg68
(lp1819
g61
(g82
g63
NtRp1820
(dp1821
g66
(dp1822
g86
g87
ssg75
g1816
sg68
(lp1823
g634
asbag61
(g82
g63
NtRp1824
(dp1825
g66
(dp1826
g93
g94
ssg75
g1816
sg68
(lp1827
S':'
asbag61
(g82
g63
NtRp1828
(dp1829
g66
(dp1830
sg75
g1816
sg68
(lp1831
g61
(g62
g63
NtRp1832
(dp1833
g66
(dp1834
g74
I4
ssg75
g1828
sg68
(lp1835
g647
asbasbasbag61
(g77
g63
NtRp1836
(dp1837
g66
(dp1838
sg75
g1791
sg68
(lp1839
g61
(g82
g63
NtRp1840
(dp1841
g66
(dp1842
g86
g87
ssg75
g1836
sg68
(lp1843
g656
asbag61
(g82
g63
NtRp1844
(dp1845
g66
(dp1846
g93
g94
ssg75
g1836
sg68
(lp1847
S':'
asbag61
(g82
g63
NtRp1848
(dp1849
g66
(dp1850
sg75
g1836
sg68
(lp1851
g61
(g62
g63
NtRp1852
(dp1853
g66
(dp1854
g74
I4
ssg75
g1848
sg68
(lp1855
g61
(g70
g63
NtRp1856
(dp1857
g66
(dp1858
g74
I3
ssg75
Nsg68
(lp1859
sbasbasbasbag61
(g77
g63
NtRp1860
(dp1861
g66
(dp1862
sg75
g1791
sg68
(lp1863
g61
(g82
g63
NtRp1864
(dp1865
g66
(dp1866
g86
g87
ssg75
g1860
sg68
(lp1867
g681
asbag61
(g82
g63
NtRp1868
(dp1869
g66
(dp1870
g93
g94
ssg75
g1860
sg68
(lp1871
S':'
asbag61
(g82
g63
NtRp1872
(dp1873
g66
(dp1874
sg75
g1860
sg68
(lp1875
g61
(g62
g63
NtRp1876
(dp1877
g66
(dp1878
g74
I4
ssg75
g1872
sg68
(lp1879
S"<Values at 0x3be5fa8: {'verbose': False, 'ip': '127.0.0.1', 'shutdown_timeout': 5, 'taskbar': False, 'nocron': False, 'pid_filename': 'httpserver.pid', 'maxthreads': None, 'softcron': False, 'server_name': 'Batou', 'bpython': False, 'nogui': False, 'port': 8000, 'extcron': False, 'debuglevel': 30, 'test': None, 'folder': 'C:\\\\Users\\\\Bussiere\\\\Dropbox\\\\Projets\\\\jackpoint\\\\web2py', 'config': '', 'import_models': False, 'winservice': '', 'shell': None, 'run': '', 'log_filename': 'httpserver.log', 'args': [''], 'socket_timeout': 5, 'ssl_ca_certificate': None, 'scheduler': None, 'profiler_filename': None, 'ssl_private_key': '', 'password': '<ask>', 'request_queue_size': 5, 'ssl_certificate': '', 'cronjob': False, 'numthreads': None, 'quiet': False, 'interfaces': None, 'minthreads': None, 'timeout': 10, 'plain': False, 'nobanner': False}>"
p1880
asbasbasbag61
(g77
g63
NtRp1881
(dp1882
g66
(dp1883
sg75
g1791
sg68
(lp1884
g61
(g82
g63
NtRp1885
(dp1886
g66
(dp1887
g86
g87
ssg75
g1881
sg68
(lp1888
g747
asbag61
(g82
g63
NtRp1889
(dp1890
g66
(dp1891
g93
g94
ssg75
g1881
sg68
(lp1892
S':'
asbag61
(g82
g63
NtRp1893
(dp1894
g66
(dp1895
sg75
g1881
sg68
(lp1896
g61
(g62
g63
NtRp1897
(dp1898
g66
(dp1899
g74
I4
ssg75
g1893
sg68
(lp1900
S"set(['init'])"
p1901
asbasbasbag61
(g77
g63
NtRp1902
(dp1903
g66
(dp1904
sg75
g1791
sg68
(lp1905
g61
(g82
g63
NtRp1906
(dp1907
g66
(dp1908
g86
g87
ssg75
g1902
sg68
(lp1909
g769
asbag61
(g82
g63
NtRp1910
(dp1911
g66
(dp1912
g93
g94
ssg75
g1902
sg68
(lp1913
S':'
asbag61
(g82
g63
NtRp1914
(dp1915
g66
(dp1916
sg75
g1902
sg68
(lp1917
g61
(g62
g63
NtRp1918
(dp1919
g66
(dp1920
g74
I4
ssg75
g1914
sg68
(lp1921
g782
asbasbasbag61
(g77
g63
NtRp1922
(dp1923
g66
(dp1924
sg75
g1791
sg68
(lp1925
g61
(g82
g63
NtRp1926
(dp1927
g66
(dp1928
g86
g87
ssg75
g1922
sg68
(lp1929
g791
asbag61
(g82
g63
NtRp1930
(dp1931
g66
(dp1932
g93
g94
ssg75
g1922
sg68
(lp1933
S':'
asbag61
(g82
g63
NtRp1934
(dp1935
g66
(dp1936
sg75
g1922
sg68
(lp1937
g61
(g62
g63
NtRp1938
(dp1939
g66
(dp1940
g74
I4
ssg75
g1934
sg68
(lp1941
g804
asbasbasbag61
(g77
g63
NtRp1942
(dp1943
g66
(dp1944
sg75
g1791
sg68
(lp1945
g61
(g82
g63
NtRp1946
(dp1947
g66
(dp1948
g86
g87
ssg75
g1942
sg68
(lp1949
g1097
asbag61
(g82
g63
NtRp1950
(dp1951
g66
(dp1952
g93
g94
ssg75
g1942
sg68
(lp1953
S':'
asbag61
(g82
g63
NtRp1954
(dp1955
g66
(dp1956
sg75
g1942
sg68
(lp1957
g61
(g62
g63
NtRp1958
(dp1959
g66
(dp1960
g74
I4
ssg75
g1954
sg68
(lp1961
g104
asbasbasbag61
(g77
g63
NtRp1962
(dp1963
g66
(dp1964
sg75
g1791
sg68
(lp1965
g61
(g82
g63
NtRp1966
(dp1967
g66
(dp1968
g86
g87
ssg75
g1962
sg68
(lp1969
g1118
asbag61
(g82
g63
NtRp1970
(dp1971
g66
(dp1972
g93
g94
ssg75
g1962
sg68
(lp1973
S':'
asbag61
(g82
g63
NtRp1974
(dp1975
g66
(dp1976
sg75
g1962
sg68
(lp1977
g61
(g62
g63
NtRp1978
(dp1979
g66
(dp1980
g74
I4
ssg75
g1974
sg68
(lp1981
g104
asbasbasbag61
(g77
g63
NtRp1982
(dp1983
g66
(dp1984
sg75
g1791
sg68
(lp1985
g61
(g82
g63
NtRp1986
(dp1987
g66
(dp1988
g86
g87
ssg75
g1982
sg68
(lp1989
g1356
asbag61
(g82
g63
NtRp1990
(dp1991
g66
(dp1992
g93
g94
ssg75
g1982
sg68
(lp1993
S':'
asbag61
(g82
g63
NtRp1994
(dp1995
g66
(dp1996
sg75
g1982
sg68
(lp1997
g61
(g62
g63
NtRp1998
(dp1999
g66
(dp2000
g74
I4
ssg75
g1994
sg68
(lp2001
g1369
asbasbasbag61
(g77
g63
NtRp2002
(dp2003
g66
(dp2004
sg75
g1791
sg68
(lp2005
g61
(g82
g63
NtRp2006
(dp2007
g66
(dp2008
g86
g87
ssg75
g2002
sg68
(lp2009
g1399
asbag61
(g82
g63
NtRp2010
(dp2011
g66
(dp2012
g93
g94
ssg75
g2002
sg68
(lp2013
S':'
asbag61
(g82
g63
NtRp2014
(dp2015
g66
(dp2016
sg75
g2002
sg68
(lp2017
g61
(g62
g63
NtRp2018
(dp2019
g66
(dp2020
g74
I4
ssg75
g2014
sg68
(lp2021
g61
(g70
g63
NtRp2022
(dp2023
g66
(dp2024
g74
I3
ssg75
Nsg68
(lp2025
g61
(g77
g63
NtRp2026
(dp2027
g66
(dp2028
sg75
g2022
sg68
(lp2029
g61
(g82
g63
NtRp2030
(dp2031
g66
(dp2032
sg75
g2026
sg68
(lp2033
g61
(g62
g63
NtRp2034
(dp2035
g66
(dp2036
g74
I3
ssg75
g2030
sg68
(lp2037
S'1'
asbasbasbag61
(g77
g63
NtRp2038
(dp2039
g66
(dp2040
sg75
g2022
sg68
(lp2041
g61
(g82
g63
NtRp2042
(dp2043
g66
(dp2044
sg75
g2038
sg68
(lp2045
g61
(g62
g63
NtRp2046
(dp2047
g66
(dp2048
g74
I3
ssg75
g2042
sg68
(lp2049
S'99'
p2050
asbasbasbag61
(g77
g63
NtRp2051
(dp2052
g66
(dp2053
sg75
g2022
sg68
(lp2054
g61
(g82
g63
NtRp2055
(dp2056
g66
(dp2057
sg75
g2051
sg68
(lp2058
g61
(g62
g63
NtRp2059
(dp2060
g66
(dp2061
g74
I3
ssg75
g2055
sg68
(lp2062
S'7'
asbasbasbag61
(g77
g63
NtRp2063
(dp2064
g66
(dp2065
sg75
g2022
sg68
(lp2066
g61
(g82
g63
NtRp2067
(dp2068
g66
(dp2069
sg75
g2063
sg68
(lp2070
g61
(g62
g63
NtRp2071
(dp2072
g66
(dp2073
g74
I3
ssg75
g2067
sg68
(lp2074
S'datetime.datetime(2012, 3, 4, 22, 12, 8)'
p2075
asbasbasbag61
(g77
g63
NtRp2076
(dp2077
g66
(dp2078
sg75
g2022
sg68
(lp2079
g61
(g82
g63
NtRp2080
(dp2081
g66
(dp2082
sg75
g2076
sg68
(lp2083
g61
(g62
g63
NtRp2084
(dp2085
g66
(dp2086
g74
I3
ssg75
g2080
sg68
(lp2087
g1478
asbasbasbasbasbasbasbasbasbasbasbag61
(g77
g63
NtRp2088
(dp2089
g66
(dp2090
sg75
g71
sg68
(lp2091
g61
(g82
g63
NtRp2092
(dp2093
g66
(dp2094
g86
g87
ssg75
g2088
sg68
(lp2095
S'is_https'
p2096
asbag61
(g82
g63
NtRp2097
(dp2098
g66
(dp2099
g93
g94
ssg75
g2088
sg68
(lp2100
S':'
asbag61
(g82
g63
NtRp2101
(dp2102
g66
(dp2103
sg75
g2088
sg68
(lp2104
g61
(g62
g63
NtRp2105
(dp2106
g66
(dp2107
g74
I5
ssg75
g2101
sg68
(lp2108
g104
asbasbasbag61
(g77
g63
NtRp2109
(dp2110
g66
(dp2111
sg75
g71
sg68
(lp2112
g61
(g82
g63
NtRp2113
(dp2114
g66
(dp2115
g86
g87
ssg75
g2109
sg68
(lp2116
S'is_local'
p2117
asbag61
(g82
g63
NtRp2118
(dp2119
g66
(dp2120
g93
g94
ssg75
g2109
sg68
(lp2121
S':'
asbag61
(g82
g63
NtRp2122
(dp2123
g66
(dp2124
sg75
g2109
sg68
(lp2125
g61
(g62
g63
NtRp2126
(dp2127
g66
(dp2128
g74
I5
ssg75
g2122
sg68
(lp2129
g782
asbasbasbag61
(g77
g63
NtRp2130
(dp2131
g66
(dp2132
sg75
g71
sg68
(lp2133
g61
(g82
g63
NtRp2134
(dp2135
g66
(dp2136
g86
g87
ssg75
g2130
sg68
(lp2137
S'is_restful'
p2138
asbag61
(g82
g63
NtRp2139
(dp2140
g66
(dp2141
g93
g94
ssg75
g2130
sg68
(lp2142
S':'
asbag61
(g82
g63
NtRp2143
(dp2144
g66
(dp2145
sg75
g2130
sg68
(lp2146
g61
(g62
g63
NtRp2147
(dp2148
g66
(dp2149
g74
I5
ssg75
g2143
sg68
(lp2150
g104
asbasbasbag61
(g77
g63
NtRp2151
(dp2152
g66
(dp2153
sg75
g71
sg68
(lp2154
g61
(g82
g63
NtRp2155
(dp2156
g66
(dp2157
g86
g87
ssg75
g2151
sg68
(lp2158
S'now'
p2159
asbag61
(g82
g63
NtRp2160
(dp2161
g66
(dp2162
g93
g94
ssg75
g2151
sg68
(lp2163
S':'
asbag61
(g82
g63
NtRp2164
(dp2165
g66
(dp2166
sg75
g2151
sg68
(lp2167
g61
(g62
g63
NtRp2168
(dp2169
g66
(dp2170
g74
I5
ssg75
g2164
sg68
(lp2171
S'datetime.datetime(2012, 3, 24, 14, 31, 4, 40000)'
p2172
asbasbasbag61
(g77
g63
NtRp2173
(dp2174
g66
(dp2175
sg75
g71
sg68
(lp2176
g61
(g82
g63
NtRp2177
(dp2178
g66
(dp2179
g86
g87
ssg75
g2173
sg68
(lp2180
S'post_vars'
p2181
asbag61
(g82
g63
NtRp2182
(dp2183
g66
(dp2184
g93
g94
ssg75
g2173
sg68
(lp2185
S':'
asbag61
(g82
g63
NtRp2186
(dp2187
g66
(dp2188
sg75
g2173
sg68
(lp2189
g61
(g62
g63
NtRp2190
(dp2191
g66
(dp2192
g74
I5
ssg75
g2186
sg68
(lp2193
g61
(g70
g63
NtRp2194
(dp2195
g66
(dp2196
g74
I4
ssg75
Nsg68
(lp2197
g61
(g77
g63
NtRp2198
(dp2199
g66
(dp2200
sg75
g2194
sg68
(lp2201
g61
(g82
g63
NtRp2202
(dp2203
g66
(dp2204
g86
g87
ssg75
g2198
sg68
(lp2205
S'email'
p2206
asbag61
(g82
g63
NtRp2207
(dp2208
g66
(dp2209
g93
g94
ssg75
g2198
sg68
(lp2210
S':'
asbag61
(g82
g63
NtRp2211
(dp2212
g66
(dp2213
sg75
g2198
sg68
(lp2214
g61
(g62
g63
NtRp2215
(dp2216
g66
(dp2217
g74
I4
ssg75
g2211
sg68
(lp2218
S'test'
p2219
asbasbasbag61
(g77
g63
NtRp2220
(dp2221
g66
(dp2222
sg75
g2194
sg68
(lp2223
g61
(g82
g63
NtRp2224
(dp2225
g66
(dp2226
g86
g87
ssg75
g2220
sg68
(lp2227
S'invitation'
p2228
asbag61
(g82
g63
NtRp2229
(dp2230
g66
(dp2231
g93
g94
ssg75
g2220
sg68
(lp2232
S':'
asbag61
(g82
g63
NtRp2233
(dp2234
g66
(dp2235
sg75
g2220
sg68
(lp2236
g61
(g62
g63
NtRp2237
(dp2238
g66
(dp2239
g74
I4
ssg75
g2233
sg68
(lp2240
S'test'
p2241
asbasbasbasbasbasbasbag61
(g77
g63
NtRp2242
(dp2243
g66
(dp2244
sg75
g71
sg68
(lp2245
g61
(g82
g63
NtRp2246
(dp2247
g66
(dp2248
g86
g87
ssg75
g2242
sg68
(lp2249
S'url'
p2250
asbag61
(g82
g63
NtRp2251
(dp2252
g66
(dp2253
g93
g94
ssg75
g2242
sg68
(lp2254
S':'
asbag61
(g82
g63
NtRp2255
(dp2256
g66
(dp2257
sg75
g2242
sg68
(lp2258
g61
(g62
g63
NtRp2259
(dp2260
g66
(dp2261
g74
I5
ssg75
g2255
sg68
(lp2262
S'/init/default/invitation'
p2263
asbasbasbag61
(g77
g63
NtRp2264
(dp2265
g66
(dp2266
sg75
g71
sg68
(lp2267
g61
(g82
g63
NtRp2268
(dp2269
g66
(dp2270
g86
g87
ssg75
g2264
sg68
(lp2271
S'utcnow'
p2272
asbag61
(g82
g63
NtRp2273
(dp2274
g66
(dp2275
g93
g94
ssg75
g2264
sg68
(lp2276
S':'
asbag61
(g82
g63
NtRp2277
(dp2278
g66
(dp2279
sg75
g2264
sg68
(lp2280
g61
(g62
g63
NtRp2281
(dp2282
g66
(dp2283
g74
I5
ssg75
g2277
sg68
(lp2284
S'datetime.datetime(2012, 3, 24, 13, 31, 4, 40000)'
p2285
asbasbasbag61
(g77
g63
NtRp2286
(dp2287
g66
(dp2288
sg75
g71
sg68
(lp2289
g61
(g82
g63
NtRp2290
(dp2291
g66
(dp2292
g86
g87
ssg75
g2286
sg68
(lp2293
S'uuid'
p2294
asbag61
(g82
g63
NtRp2295
(dp2296
g66
(dp2297
g93
g94
ssg75
g2286
sg68
(lp2298
S':'
asbag61
(g82
g63
NtRp2299
(dp2300
g66
(dp2301
sg75
g2286
sg68
(lp2302
g61
(g62
g63
NtRp2303
(dp2304
g66
(dp2305
g74
I5
ssg75
g2299
sg68
(lp2306
S'init/127.0.0.1.2012-03-24.14-31-04.1a1761d3-09e8-447a-a52a-b020b2c35ec6'
p2307
asbasbasbag61
(g77
g63
NtRp2308
(dp2309
g66
(dp2310
sg75
g71
sg68
(lp2311
g61
(g82
g63
NtRp2312
(dp2313
g66
(dp2314
g86
g87
ssg75
g2308
sg68
(lp2315
S'vars'
p2316
asbag61
(g82
g63
NtRp2317
(dp2318
g66
(dp2319
g93
g94
ssg75
g2308
sg68
(lp2320
S':'
asbag61
(g82
g63
NtRp2321
(dp2322
g66
(dp2323
sg75
g2308
sg68
(lp2324
g61
(g62
g63
NtRp2325
(dp2326
g66
(dp2327
g74
I5
ssg75
g2321
sg68
(lp2328
g61
(g70
g63
NtRp2329
(dp2330
g66
(dp2331
g74
I4
ssg75
Nsg68
(lp2332
g61
(g77
g63
NtRp2333
(dp2334
g66
(dp2335
sg75
g2329
sg68
(lp2336
g61
(g82
g63
NtRp2337
(dp2338
g66
(dp2339
g86
g87
ssg75
g2333
sg68
(lp2340
g2206
asbag61
(g82
g63
NtRp2341
(dp2342
g66
(dp2343
g93
g94
ssg75
g2333
sg68
(lp2344
S':'
asbag61
(g82
g63
NtRp2345
(dp2346
g66
(dp2347
sg75
g2333
sg68
(lp2348
g61
(g62
g63
NtRp2349
(dp2350
g66
(dp2351
g74
I4
ssg75
g2345
sg68
(lp2352
g2219
asbasbasbag61
(g77
g63
NtRp2353
(dp2354
g66
(dp2355
sg75
g2329
sg68
(lp2356
g61
(g82
g63
NtRp2357
(dp2358
g66
(dp2359
g86
g87
ssg75
g2353
sg68
(lp2360
g2228
asbag61
(g82
g63
NtRp2361
(dp2362
g66
(dp2363
g93
g94
ssg75
g2353
sg68
(lp2364
S':'
asbag61
(g82
g63
NtRp2365
(dp2366
g66
(dp2367
sg75
g2353
sg68
(lp2368
g61
(g62
g63
NtRp2369
(dp2370
g66
(dp2371
g74
I4
ssg75
g2365
sg68
(lp2372
g2241
asbasbasbasbasbasbasbag61
(g77
g63
NtRp2373
(dp2374
g66
(dp2375
sg75
g71
sg68
(lp2376
g61
(g82
g63
NtRp2377
(dp2378
g66
(dp2379
g86
g87
ssg75
g2373
sg68
(lp2380
S'wsgi'
p2381
asbag61
(g82
g63
NtRp2382
(dp2383
g66
(dp2384
g93
g94
ssg75
g2373
sg68
(lp2385
S':'
asbag61
(g82
g63
NtRp2386
(dp2387
g66
(dp2388
sg75
g2373
sg68
(lp2389
g61
(g62
g63
NtRp2390
(dp2391
g66
(dp2392
g74
I5
ssg75
g2386
sg68
(lp2393
g61
(g70
g63
NtRp2394
(dp2395
g66
(dp2396
g74
I4
ssg75
Nsg68
(lp2397
g61
(g77
g63
NtRp2398
(dp2399
g66
(dp2400
sg75
g2394
sg68
(lp2401
g61
(g82
g63
NtRp2402
(dp2403
g66
(dp2404
g86
g87
ssg75
g2398
sg68
(lp2405
S'environ'
p2406
asbag61
(g82
g63
NtRp2407
(dp2408
g66
(dp2409
g93
g94
ssg75
g2398
sg68
(lp2410
S':'
asbag61
(g82
g63
NtRp2411
(dp2412
g66
(dp2413
sg75
g2398
sg68
(lp2414
g61
(g62
g63
NtRp2415
(dp2416
g66
(dp2417
g74
I4
ssg75
g2411
sg68
(lp2418
g61
(g70
g63
NtRp2419
(dp2420
g66
(dp2421
g74
I3
ssg75
Nsg68
(lp2422
g61
(g77
g63
NtRp2423
(dp2424
g66
(dp2425
sg75
g2419
sg68
(lp2426
g61
(g82
g63
NtRp2427
(dp2428
g66
(dp2429
g86
g87
ssg75
g2423
sg68
(lp2430
S'CONTENT_LENGTH'
p2431
asbag61
(g82
g63
NtRp2432
(dp2433
g66
(dp2434
g93
g94
ssg75
g2423
sg68
(lp2435
S':'
asbag61
(g82
g63
NtRp2436
(dp2437
g66
(dp2438
sg75
g2423
sg68
(lp2439
g61
(g62
g63
NtRp2440
(dp2441
g66
(dp2442
g74
I3
ssg75
g2436
sg68
(lp2443
g716
asbasbasbag61
(g77
g63
NtRp2444
(dp2445
g66
(dp2446
sg75
g2419
sg68
(lp2447
g61
(g82
g63
NtRp2448
(dp2449
g66
(dp2450
g86
g87
ssg75
g2444
sg68
(lp2451
S'CONTENT_TYPE'
p2452
asbag61
(g82
g63
NtRp2453
(dp2454
g66
(dp2455
g93
g94
ssg75
g2444
sg68
(lp2456
S':'
asbag61
(g82
g63
NtRp2457
(dp2458
g66
(dp2459
sg75
g2444
sg68
(lp2460
g61
(g62
g63
NtRp2461
(dp2462
g66
(dp2463
g74
I3
ssg75
g2457
sg68
(lp2464
g738
asbasbasbag61
(g77
g63
NtRp2465
(dp2466
g66
(dp2467
sg75
g2419
sg68
(lp2468
g61
(g82
g63
NtRp2469
(dp2470
g66
(dp2471
g86
g87
ssg75
g2465
sg68
(lp2472
S'HTTP_ACCEPT'
p2473
asbag61
(g82
g63
NtRp2474
(dp2475
g66
(dp2476
g93
g94
ssg75
g2465
sg68
(lp2477
S':'
asbag61
(g82
g63
NtRp2478
(dp2479
g66
(dp2480
sg75
g2465
sg68
(lp2481
g61
(g62
g63
NtRp2482
(dp2483
g66
(dp2484
g74
I3
ssg75
g2478
sg68
(lp2485
g826
asbasbasbag61
(g77
g63
NtRp2486
(dp2487
g66
(dp2488
sg75
g2419
sg68
(lp2489
g61
(g82
g63
NtRp2490
(dp2491
g66
(dp2492
g86
g87
ssg75
g2486
sg68
(lp2493
S'HTTP_ACCEPT_CHARSET'
p2494
asbag61
(g82
g63
NtRp2495
(dp2496
g66
(dp2497
g93
g94
ssg75
g2486
sg68
(lp2498
S':'
asbag61
(g82
g63
NtRp2499
(dp2500
g66
(dp2501
sg75
g2486
sg68
(lp2502
g61
(g62
g63
NtRp2503
(dp2504
g66
(dp2505
g74
I3
ssg75
g2499
sg68
(lp2506
g848
asbasbasbag61
(g77
g63
NtRp2507
(dp2508
g66
(dp2509
sg75
g2419
sg68
(lp2510
g61
(g82
g63
NtRp2511
(dp2512
g66
(dp2513
g86
g87
ssg75
g2507
sg68
(lp2514
S'HTTP_ACCEPT_ENCODING'
p2515
asbag61
(g82
g63
NtRp2516
(dp2517
g66
(dp2518
g93
g94
ssg75
g2507
sg68
(lp2519
S':'
asbag61
(g82
g63
NtRp2520
(dp2521
g66
(dp2522
sg75
g2507
sg68
(lp2523
g61
(g62
g63
NtRp2524
(dp2525
g66
(dp2526
g74
I3
ssg75
g2520
sg68
(lp2527
g870
asbasbasbag61
(g77
g63
NtRp2528
(dp2529
g66
(dp2530
sg75
g2419
sg68
(lp2531
g61
(g82
g63
NtRp2532
(dp2533
g66
(dp2534
g86
g87
ssg75
g2528
sg68
(lp2535
S'HTTP_ACCEPT_LANGUAGE'
p2536
asbag61
(g82
g63
NtRp2537
(dp2538
g66
(dp2539
g93
g94
ssg75
g2528
sg68
(lp2540
S':'
asbag61
(g82
g63
NtRp2541
(dp2542
g66
(dp2543
sg75
g2528
sg68
(lp2544
g61
(g62
g63
NtRp2545
(dp2546
g66
(dp2547
g74
I3
ssg75
g2541
sg68
(lp2548
g892
asbasbasbag61
(g77
g63
NtRp2549
(dp2550
g66
(dp2551
sg75
g2419
sg68
(lp2552
g61
(g82
g63
NtRp2553
(dp2554
g66
(dp2555
g86
g87
ssg75
g2549
sg68
(lp2556
S'HTTP_CACHE_CONTROL'
p2557
asbag61
(g82
g63
NtRp2558
(dp2559
g66
(dp2560
g93
g94
ssg75
g2549
sg68
(lp2561
S':'
asbag61
(g82
g63
NtRp2562
(dp2563
g66
(dp2564
sg75
g2549
sg68
(lp2565
g61
(g62
g63
NtRp2566
(dp2567
g66
(dp2568
g74
I3
ssg75
g2562
sg68
(lp2569
g914
asbasbasbag61
(g77
g63
NtRp2570
(dp2571
g66
(dp2572
sg75
g2419
sg68
(lp2573
g61
(g82
g63
NtRp2574
(dp2575
g66
(dp2576
g86
g87
ssg75
g2570
sg68
(lp2577
S'HTTP_CONNECTION'
p2578
asbag61
(g82
g63
NtRp2579
(dp2580
g66
(dp2581
g93
g94
ssg75
g2570
sg68
(lp2582
S':'
asbag61
(g82
g63
NtRp2583
(dp2584
g66
(dp2585
sg75
g2570
sg68
(lp2586
g61
(g62
g63
NtRp2587
(dp2588
g66
(dp2589
g74
I3
ssg75
g2583
sg68
(lp2590
g936
asbasbasbag61
(g77
g63
NtRp2591
(dp2592
g66
(dp2593
sg75
g2419
sg68
(lp2594
g61
(g82
g63
NtRp2595
(dp2596
g66
(dp2597
g86
g87
ssg75
g2591
sg68
(lp2598
S'HTTP_CONTENT_LENGTH'
p2599
asbag61
(g82
g63
NtRp2600
(dp2601
g66
(dp2602
g93
g94
ssg75
g2591
sg68
(lp2603
S':'
asbag61
(g82
g63
NtRp2604
(dp2605
g66
(dp2606
sg75
g2591
sg68
(lp2607
g61
(g62
g63
NtRp2608
(dp2609
g66
(dp2610
g74
I3
ssg75
g2604
sg68
(lp2611
g716
asbasbasbag61
(g77
g63
NtRp2612
(dp2613
g66
(dp2614
sg75
g2419
sg68
(lp2615
g61
(g82
g63
NtRp2616
(dp2617
g66
(dp2618
g86
g87
ssg75
g2612
sg68
(lp2619
S'HTTP_CONTENT_TYPE'
p2620
asbag61
(g82
g63
NtRp2621
(dp2622
g66
(dp2623
g93
g94
ssg75
g2612
sg68
(lp2624
S':'
asbag61
(g82
g63
NtRp2625
(dp2626
g66
(dp2627
sg75
g2612
sg68
(lp2628
g61
(g62
g63
NtRp2629
(dp2630
g66
(dp2631
g74
I3
ssg75
g2625
sg68
(lp2632
g738
asbasbasbag61
(g77
g63
NtRp2633
(dp2634
g66
(dp2635
sg75
g2419
sg68
(lp2636
g61
(g82
g63
NtRp2637
(dp2638
g66
(dp2639
g86
g87
ssg75
g2633
sg68
(lp2640
S'HTTP_COOKIE'
p2641
asbag61
(g82
g63
NtRp2642
(dp2643
g66
(dp2644
g93
g94
ssg75
g2633
sg68
(lp2645
S':'
asbag61
(g82
g63
NtRp2646
(dp2647
g66
(dp2648
sg75
g2633
sg68
(lp2649
g61
(g62
g63
NtRp2650
(dp2651
g66
(dp2652
g74
I3
ssg75
g2646
sg68
(lp2653
g1000
asbasbasbag61
(g77
g63
NtRp2654
(dp2655
g66
(dp2656
sg75
g2419
sg68
(lp2657
g61
(g82
g63
NtRp2658
(dp2659
g66
(dp2660
g86
g87
ssg75
g2654
sg68
(lp2661
S'HTTP_HOST'
p2662
asbag61
(g82
g63
NtRp2663
(dp2664
g66
(dp2665
g93
g94
ssg75
g2654
sg68
(lp2666
S':'
asbag61
(g82
g63
NtRp2667
(dp2668
g66
(dp2669
sg75
g2654
sg68
(lp2670
g61
(g62
g63
NtRp2671
(dp2672
g66
(dp2673
g74
I3
ssg75
g2667
sg68
(lp2674
g1022
asbasbasbag61
(g77
g63
NtRp2675
(dp2676
g66
(dp2677
sg75
g2419
sg68
(lp2678
g61
(g82
g63
NtRp2679
(dp2680
g66
(dp2681
g86
g87
ssg75
g2675
sg68
(lp2682
S'HTTP_ORIGIN'
p2683
asbag61
(g82
g63
NtRp2684
(dp2685
g66
(dp2686
g93
g94
ssg75
g2675
sg68
(lp2687
S':'
asbag61
(g82
g63
NtRp2688
(dp2689
g66
(dp2690
sg75
g2675
sg68
(lp2691
g61
(g62
g63
NtRp2692
(dp2693
g66
(dp2694
g74
I3
ssg75
g2688
sg68
(lp2695
g1044
asbasbasbag61
(g77
g63
NtRp2696
(dp2697
g66
(dp2698
sg75
g2419
sg68
(lp2699
g61
(g82
g63
NtRp2700
(dp2701
g66
(dp2702
g86
g87
ssg75
g2696
sg68
(lp2703
S'HTTP_REFERER'
p2704
asbag61
(g82
g63
NtRp2705
(dp2706
g66
(dp2707
g93
g94
ssg75
g2696
sg68
(lp2708
S':'
asbag61
(g82
g63
NtRp2709
(dp2710
g66
(dp2711
sg75
g2696
sg68
(lp2712
g61
(g62
g63
NtRp2713
(dp2714
g66
(dp2715
g74
I3
ssg75
g2709
sg68
(lp2716
g1066
asbasbasbag61
(g77
g63
NtRp2717
(dp2718
g66
(dp2719
sg75
g2419
sg68
(lp2720
g61
(g82
g63
NtRp2721
(dp2722
g66
(dp2723
g86
g87
ssg75
g2717
sg68
(lp2724
S'HTTP_USER_AGENT'
p2725
asbag61
(g82
g63
NtRp2726
(dp2727
g66
(dp2728
g93
g94
ssg75
g2717
sg68
(lp2729
S':'
asbag61
(g82
g63
NtRp2730
(dp2731
g66
(dp2732
sg75
g2717
sg68
(lp2733
g61
(g62
g63
NtRp2734
(dp2735
g66
(dp2736
g74
I3
ssg75
g2730
sg68
(lp2737
g1088
asbasbasbag61
(g77
g63
NtRp2738
(dp2739
g66
(dp2740
sg75
g2419
sg68
(lp2741
g61
(g82
g63
NtRp2742
(dp2743
g66
(dp2744
g86
g87
ssg75
g2738
sg68
(lp2745
S'PATH_INFO'
p2746
asbag61
(g82
g63
NtRp2747
(dp2748
g66
(dp2749
g93
g94
ssg75
g2738
sg68
(lp2750
S':'
asbag61
(g82
g63
NtRp2751
(dp2752
g66
(dp2753
sg75
g2738
sg68
(lp2754
g61
(g62
g63
NtRp2755
(dp2756
g66
(dp2757
g74
I3
ssg75
g2751
sg68
(lp2758
g1152
asbasbasbag61
(g77
g63
NtRp2759
(dp2760
g66
(dp2761
sg75
g2419
sg68
(lp2762
g61
(g82
g63
NtRp2763
(dp2764
g66
(dp2765
g86
g87
ssg75
g2759
sg68
(lp2766
S'QUERY_STRING'
p2767
asbag61
(g82
g63
NtRp2768
(dp2769
g66
(dp2770
g93
g94
ssg75
g2759
sg68
(lp2771
S':'
asbag61
(g82
g63
NtRp2772
(dp2773
g66
(dp2774
sg75
g2759
sg68
(lp2775
g61
(g62
g63
NtRp2776
(dp2777
g66
(dp2778
g74
I3
ssg75
g2772
sg68
(lp2779
S''
asbasbasbag61
(g77
g63
NtRp2780
(dp2781
g66
(dp2782
sg75
g2419
sg68
(lp2783
g61
(g82
g63
NtRp2784
(dp2785
g66
(dp2786
g86
g87
ssg75
g2780
sg68
(lp2787
S'REMOTE_ADDR'
p2788
asbag61
(g82
g63
NtRp2789
(dp2790
g66
(dp2791
g93
g94
ssg75
g2780
sg68
(lp2792
S':'
asbag61
(g82
g63
NtRp2793
(dp2794
g66
(dp2795
sg75
g2780
sg68
(lp2796
g61
(g62
g63
NtRp2797
(dp2798
g66
(dp2799
g74
I3
ssg75
g2793
sg68
(lp2800
g194
asbasbasbag61
(g77
g63
NtRp2801
(dp2802
g66
(dp2803
sg75
g2419
sg68
(lp2804
g61
(g82
g63
NtRp2805
(dp2806
g66
(dp2807
g86
g87
ssg75
g2801
sg68
(lp2808
S'REMOTE_PORT'
p2809
asbag61
(g82
g63
NtRp2810
(dp2811
g66
(dp2812
g93
g94
ssg75
g2801
sg68
(lp2813
S':'
asbag61
(g82
g63
NtRp2814
(dp2815
g66
(dp2816
sg75
g2801
sg68
(lp2817
g61
(g62
g63
NtRp2818
(dp2819
g66
(dp2820
g74
I3
ssg75
g2814
sg68
(lp2821
g1216
asbasbasbag61
(g77
g63
NtRp2822
(dp2823
g66
(dp2824
sg75
g2419
sg68
(lp2825
g61
(g82
g63
NtRp2826
(dp2827
g66
(dp2828
g86
g87
ssg75
g2822
sg68
(lp2829
S'REQUEST_METHOD'
p2830
asbag61
(g82
g63
NtRp2831
(dp2832
g66
(dp2833
g93
g94
ssg75
g2822
sg68
(lp2834
S':'
asbag61
(g82
g63
NtRp2835
(dp2836
g66
(dp2837
sg75
g2822
sg68
(lp2838
g61
(g62
g63
NtRp2839
(dp2840
g66
(dp2841
g74
I3
ssg75
g2835
sg68
(lp2842
g1238
asbasbasbag61
(g77
g63
NtRp2843
(dp2844
g66
(dp2845
sg75
g2419
sg68
(lp2846
g61
(g82
g63
NtRp2847
(dp2848
g66
(dp2849
g86
g87
ssg75
g2843
sg68
(lp2850
S'SCRIPT_NAME'
p2851
asbag61
(g82
g63
NtRp2852
(dp2853
g66
(dp2854
g93
g94
ssg75
g2843
sg68
(lp2855
S':'
asbag61
(g82
g63
NtRp2856
(dp2857
g66
(dp2858
sg75
g2843
sg68
(lp2859
g61
(g62
g63
NtRp2860
(dp2861
g66
(dp2862
g74
I3
ssg75
g2856
sg68
(lp2863
S''
asbasbasbag61
(g77
g63
NtRp2864
(dp2865
g66
(dp2866
sg75
g2419
sg68
(lp2867
g61
(g82
g63
NtRp2868
(dp2869
g66
(dp2870
g86
g87
ssg75
g2864
sg68
(lp2871
S'SERVER_NAME'
p2872
asbag61
(g82
g63
NtRp2873
(dp2874
g66
(dp2875
g93
g94
ssg75
g2864
sg68
(lp2876
S':'
asbag61
(g82
g63
NtRp2877
(dp2878
g66
(dp2879
sg75
g2864
sg68
(lp2880
g61
(g62
g63
NtRp2881
(dp2882
g66
(dp2883
g74
I3
ssg75
g2877
sg68
(lp2884
g1281
asbasbasbag61
(g77
g63
NtRp2885
(dp2886
g66
(dp2887
sg75
g2419
sg68
(lp2888
g61
(g82
g63
NtRp2889
(dp2890
g66
(dp2891
g86
g87
ssg75
g2885
sg68
(lp2892
S'SERVER_PORT'
p2893
asbag61
(g82
g63
NtRp2894
(dp2895
g66
(dp2896
g93
g94
ssg75
g2885
sg68
(lp2897
S':'
asbag61
(g82
g63
NtRp2898
(dp2899
g66
(dp2900
sg75
g2885
sg68
(lp2901
g61
(g62
g63
NtRp2902
(dp2903
g66
(dp2904
g74
I3
ssg75
g2898
sg68
(lp2905
g1303
asbasbasbag61
(g77
g63
NtRp2906
(dp2907
g66
(dp2908
sg75
g2419
sg68
(lp2909
g61
(g82
g63
NtRp2910
(dp2911
g66
(dp2912
g86
g87
ssg75
g2906
sg68
(lp2913
S'SERVER_PROTOCOL'
p2914
asbag61
(g82
g63
NtRp2915
(dp2916
g66
(dp2917
g93
g94
ssg75
g2906
sg68
(lp2918
S':'
asbag61
(g82
g63
NtRp2919
(dp2920
g66
(dp2921
sg75
g2906
sg68
(lp2922
g61
(g62
g63
NtRp2923
(dp2924
g66
(dp2925
g74
I3
ssg75
g2919
sg68
(lp2926
g1325
asbasbasbag61
(g77
g63
NtRp2927
(dp2928
g66
(dp2929
sg75
g2419
sg68
(lp2930
g61
(g82
g63
NtRp2931
(dp2932
g66
(dp2933
g86
g87
ssg75
g2927
sg68
(lp2934
S'SERVER_SOFTWARE'
p2935
asbag61
(g82
g63
NtRp2936
(dp2937
g66
(dp2938
g93
g94
ssg75
g2927
sg68
(lp2939
S':'
asbag61
(g82
g63
NtRp2940
(dp2941
g66
(dp2942
sg75
g2927
sg68
(lp2943
g61
(g62
g63
NtRp2944
(dp2945
g66
(dp2946
g74
I3
ssg75
g2940
sg68
(lp2947
g1347
asbasbasbag61
(g77
g63
NtRp2948
(dp2949
g66
(dp2950
sg75
g2419
sg68
(lp2951
g61
(g82
g63
NtRp2952
(dp2953
g66
(dp2954
g86
g87
ssg75
g2948
sg68
(lp2955
S'wsgi.errors'
p2956
asbag61
(g82
g63
NtRp2957
(dp2958
g66
(dp2959
g93
g94
ssg75
g2948
sg68
(lp2960
S':'
asbag61
(g82
g63
NtRp2961
(dp2962
g66
(dp2963
sg75
g2948
sg68
(lp2964
g61
(g62
g63
NtRp2965
(dp2966
g66
(dp2967
g74
I3
ssg75
g2961
sg68
(lp2968
S"<open file '<stderr>', mode 'w' at 0x002B00B0>"
p2969
asbasbasbag61
(g77
g63
NtRp2970
(dp2971
g66
(dp2972
sg75
g2419
sg68
(lp2973
g61
(g82
g63
NtRp2974
(dp2975
g66
(dp2976
g86
g87
ssg75
g2970
sg68
(lp2977
S'wsgi.file_wrapper'
p2978
asbag61
(g82
g63
NtRp2979
(dp2980
g66
(dp2981
g93
g94
ssg75
g2970
sg68
(lp2982
S':'
asbag61
(g82
g63
NtRp2983
(dp2984
g66
(dp2985
sg75
g2970
sg68
(lp2986
g61
(g62
g63
NtRp2987
(dp2988
g66
(dp2989
g74
I3
ssg75
g2983
sg68
(lp2990
S'<class wsgiref.util.FileWrapper at 0x02BF4900>'
p2991
asbasbasbag61
(g77
g63
NtRp2992
(dp2993
g66
(dp2994
sg75
g2419
sg68
(lp2995
g61
(g82
g63
NtRp2996
(dp2997
g66
(dp2998
g86
g87
ssg75
g2992
sg68
(lp2999
S'wsgi.input'
p3000
asbag61
(g82
g63
NtRp3001
(dp3002
g66
(dp3003
g93
g94
ssg75
g2992
sg68
(lp3004
S':'
asbag61
(g82
g63
NtRp3005
(dp3006
g66
(dp3007
sg75
g2992
sg68
(lp3008
g61
(g62
g63
NtRp3009
(dp3010
g66
(dp3011
g74
I3
ssg75
g3005
sg68
(lp3012
S"<open file '<fdopen>', mode 'w+b' at 0x0746C7B8>"
p3013
asbasbasbag61
(g77
g63
NtRp3014
(dp3015
g66
(dp3016
sg75
g2419
sg68
(lp3017
g61
(g82
g63
NtRp3018
(dp3019
g66
(dp3020
g86
g87
ssg75
g3014
sg68
(lp3021
S'wsgi.multiprocess'
p3022
asbag61
(g82
g63
NtRp3023
(dp3024
g66
(dp3025
g93
g94
ssg75
g3014
sg68
(lp3026
S':'
asbag61
(g82
g63
NtRp3027
(dp3028
g66
(dp3029
sg75
g3014
sg68
(lp3030
g61
(g62
g63
NtRp3031
(dp3032
g66
(dp3033
g74
I3
ssg75
g3027
sg68
(lp3034
g104
asbasbasbag61
(g77
g63
NtRp3035
(dp3036
g66
(dp3037
sg75
g2419
sg68
(lp3038
g61
(g82
g63
NtRp3039
(dp3040
g66
(dp3041
g86
g87
ssg75
g3035
sg68
(lp3042
S'wsgi.multithread'
p3043
asbag61
(g82
g63
NtRp3044
(dp3045
g66
(dp3046
g93
g94
ssg75
g3035
sg68
(lp3047
S':'
asbag61
(g82
g63
NtRp3048
(dp3049
g66
(dp3050
sg75
g3035
sg68
(lp3051
g61
(g62
g63
NtRp3052
(dp3053
g66
(dp3054
g74
I3
ssg75
g3048
sg68
(lp3055
g782
asbasbasbag61
(g77
g63
NtRp3056
(dp3057
g66
(dp3058
sg75
g2419
sg68
(lp3059
g61
(g82
g63
NtRp3060
(dp3061
g66
(dp3062
g86
g87
ssg75
g3056
sg68
(lp3063
S'wsgi.run_once'
p3064
asbag61
(g82
g63
NtRp3065
(dp3066
g66
(dp3067
g93
g94
ssg75
g3056
sg68
(lp3068
S':'
asbag61
(g82
g63
NtRp3069
(dp3070
g66
(dp3071
sg75
g3056
sg68
(lp3072
g61
(g62
g63
NtRp3073
(dp3074
g66
(dp3075
g74
I3
ssg75
g3069
sg68
(lp3076
g104
asbasbasbag61
(g77
g63
NtRp3077
(dp3078
g66
(dp3079
sg75
g2419
sg68
(lp3080
g61
(g82
g63
NtRp3081
(dp3082
g66
(dp3083
g86
g87
ssg75
g3077
sg68
(lp3084
S'wsgi.url_scheme'
p3085
asbag61
(g82
g63
NtRp3086
(dp3087
g66
(dp3088
g93
g94
ssg75
g3077
sg68
(lp3089
S':'
asbag61
(g82
g63
NtRp3090
(dp3091
g66
(dp3092
sg75
g3077
sg68
(lp3093
g61
(g62
g63
NtRp3094
(dp3095
g66
(dp3096
g74
I3
ssg75
g3090
sg68
(lp3097
g1629
asbasbasbag61
(g77
g63
NtRp3098
(dp3099
g66
(dp3100
sg75
g2419
sg68
(lp3101
g61
(g82
g63
NtRp3102
(dp3103
g66
(dp3104
g86
g87
ssg75
g3098
sg68
(lp3105
S'wsgi.version'
p3106
asbag61
(g82
g63
NtRp3107
(dp3108
g66
(dp3109
g93
g94
ssg75
g3098
sg68
(lp3110
S':'
asbag61
(g82
g63
NtRp3111
(dp3112
g66
(dp3113
sg75
g3098
sg68
(lp3114
g61
(g62
g63
NtRp3115
(dp3116
g66
(dp3117
g74
I3
ssg75
g3111
sg68
(lp3118
S'1'
asbasbasbasbasbasbasbasbasbasbasbasbasbsS'frames'
p3119
(lp3120
(dp3121
S'file'
p3122
S'C:\\Users\\Bussiere\\Dropbox\\Projets\\jackpoint\\web2py\\gluon\\restricted.py'
p3123
sS'dump'
p3124
(dp3125
sS'lnum'
p3126
I205
sS'lines'
p3127
(dp3128
I200
S'    try:'
p3129
sI201
S'        if type(code) == types.CodeType:'
p3130
sI202
S'            ccode = code'
p3131
sI203
S'        else:'
p3132
sI204
S'            ccode = compile2(code,layer)'
p3133
sI205
S'        exec ccode in environment'
p3134
sI206
S'    except HTTP:'
p3135
sI207
S'        raise'
p3136
sI208
S'    except RestrictedError:'
p3137
sI209
S'        # do not encapsulate (obfuscate) the original RestrictedError'
p3138
ssS'call'
p3139
S"(code='# -*- coding: utf-8 -*-\\n# this file is released ...())\\n\\nresponse._vars=response._caller(invitation)\\n', environment={'A': <class 'gluon.html.A'>, 'Auth': <class 'gluon.tools.Auth'>, 'AutocompleteWidget': <class 'gluon.sqlhtml.AutocompleteWidget'>, 'B': <class 'gluon.html.B'>, 'BEAUTIFY': <class 'gluon.html.BEAUTIFY'>, 'BODY': <class 'gluon.html.BODY'>, 'BR': <class 'gluon.html.BR'>, 'BUTTON': <class 'gluon.html.BUTTON'>, 'BooleanWidget': <class 'gluon.sqlhtml.BooleanWidget'>, 'CALLABLETYPES': (<type 'function'>, <type 'function'>, <type 'builtin_function_or_method'>, <type 'instancemethod'>, <type 'builtin_function_or_method'>), ...}, layer=r'C:\\Users\\Bussiere\\Dropbox\\Projets\\jackpoint\\web2py\\applications\\init\\controllers/default.py')"
p3140
sS'func'
p3141
S'restricted'
p3142
sa(dp3143
g3122
S'C:\\Users\\Bussiere\\Dropbox\\Projets\\jackpoint\\web2py\\applications\\init\\controllers\\default.py'
p3144
sg3124
(dp3145
sg3126
I335
sg3127
(dp3146
I324
S'    http://..../[app]/default/data/update/[table]/[id]'
p3147
sI325
S'    http://..../[app]/default/data/delete/[table]/[id]'
p3148
sI326
S'    http://..../[app]/default/data/select/[table]'
p3149
sI327
S'    http://..../[app]/default/data/search/[table]'
p3150
sI328
S'    but URLs must be signed, i.e. linked with'
p3151
sI329
S"      A('table',_href=URL('data/tables',user_signature=True))"
p3152
sI330
S'    or with the signed load operator'
p3153
sI331
S"      LOAD('default','data.load',args='tables',ajax=True,user_signature=True)"
p3154
sI332
S'    """'
p3155
sI333
S'    return dict(form=crud())'
p3156
ssg3139
S'()'
p3157
sg3141
S'<module>'
p3158
sa(dp3159
g3122
S'C:\\Users\\Bussiere\\Dropbox\\Projets\\jackpoint\\web2py\\gluon\\globals.py'
p3160
sg3124
(dp3161
sg3126
I173
sg3127
(dp3162
I168
S'        self.menu = []             # used by the default view layout'
p3163
sI169
S'        self.files = []            # used by web2py_ajax.html'
p3164
sI170
S'        self.generic_patterns = [] # patterns to allow generic views'
p3165
sI171
S"        self.delimiters = ('{{','}}')"
p3166
sI172
S'        self._vars = None'
p3167
sI173
S'        self._caller = lambda f: f()'
p3168
sI174
S'        self._view_environment = None'
p3169
sI175
S'        self._custom_commit = None'
p3170
sI176
S'        self._custom_rollback = None'
p3171
sI177
S''
ssg3139
S'(f=<function invitation at 0x07327670>)'
p3172
sg3141
S'<lambda>'
p3173
sa(dp3174
g3122
S'C:\\Users\\Bussiere\\Dropbox\\Projets\\jackpoint\\web2py\\applications\\init\\controllers\\default.py'
p3175
sg3124
(dp3176
sg3126
I273
sg3127
(dp3177
I268
S''
sI269
S'def invitation():'
p3178
sI270
S'    form=FORM("Code Invitation :", INPUT(_name=\'invitation\'),"<Email :",INPUT(_name=\'email\'),  INPUT(_type=\'submit\'))'
p3179
sI271
S'    if form.process(onvalidation=verif_invitation).accepted and  form.vars.invitation != None  :'
p3180
sI272
S'        print "toto"'
p3181
sI273
S'        user = ensurefirstuser("john","doe",form.vars.email,form.vars.invitation)'
p3182
sI274
S'        auth.user = Storage(auth.settings.table_user._filter_fields(user, id=True))'
p3183
sI275
S'        auth.environment.session.auth = Storage(user=user, last_visit=request.now,'
p3184
sI276
S'                                            expiration=auth.settings.expiration)'
p3185
sI277
S"        redirect(URL('inscription'))"
p3186
ssg3139
S'()'
p3187
sg3141
S'invitation'
p3188
sa(dp3189
g3122
S'C:\\Users\\Bussiere\\Dropbox\\Projets\\jackpoint\\web2py\\applications\\init\\controllers\\default.py'
p3190
sg3124
(dp3191
sg3126
I168
sg3127
(dp3192
I163
S'    crypt_pass = my_crypt(password)[0]'
p3193
sI164
S'    id_user = db.auth_user.insert('
p3194
sI165
S'                   first_name=firstname,'
p3195
sI166
S'                   last_name=lastname,'
p3196
sI167
S'                   email=email,'
p3197
sI168
S'                   password=crypt_pass'
p3198
sI169
S'                                   )'
p3199
sI170
S'    created = True'
p3200
sI171
S'    if settings.debug_ensure_first_user == True:'
p3201
sI172
S"      print ('creating user_id')"
p3202
ssg3139
S"(firstname='john', lastname='doe', email='test', password='test')"
p3203
sg3141
S'ensurefirstuser'
p3204
sa(dp3205
g3122
S'C:\\Users\\Bussiere\\Dropbox\\Projets\\jackpoint\\web2py\\gluon\\dal.py'
p3206
sg3124
(dp3207
sg3126
I6829
sg3127
(dp3208
I6824
S''
sI6825
S'    def _insert(self, **fields):'
p3209
sI6826
S'        return self._db._adapter._insert(self,self._listify(fields))'
p3210
sI6827
S''
sI6828
S'    def insert(self, **fields):'
p3211
sI6829
S'        return self._db._adapter.insert(self,self._listify(fields))'
p3212
sI6830
S''
sI6831
S'    def validate_and_insert(self,**fields):'
p3213
sI6832
S'        response = Row()'
p3214
sI6833
S'        response.errors = Row()'
p3215
ssg3139
S"(self=<Table {'_db': <DAL {'auth_event': <Table {'orig...on_key': <gluon.dal.Field object at 0x0400EBD0>}>, **fields={'email': 'test', 'first_name': 'john', 'last_name': 'doe', 'password': '12923092f4d9e86e56018b9cdd790947'})"
p3216
sg3141
S'insert'
p3217
sa(dp3218
g3122
S'C:\\Users\\Bussiere\\Dropbox\\Projets\\jackpoint\\web2py\\gluon\\dal.py'
p3219
sg3124
(dp3220
sg3126
I6805
sg3127
(dp3221
I6800
S'        new_fields = []'
p3222
sI6801
S'        new_fields_names = []'
p3223
sI6802
S'        for name in fields:'
p3224
sI6803
S'            if not name in self.fields:'
p3225
sI6804
S"                if name != 'id':"
p3226
sI6805
S"                    raise SyntaxError, 'Field %s does not belong to the table' % name"
p3227
sI6806
S'            else:'
p3228
sI6807
S'                new_fields.append((self[name],fields[name]))'
p3229
sI6808
S'                new_fields_names.append(name)'
p3230
sI6809
S'        for ofield in self:'
p3231
ssg3139
S"(self=<Table {'_db': <DAL {'auth_event': <Table {'orig...on_key': <gluon.dal.Field object at 0x0400EBD0>}>, fields={'email': 'test', 'first_name': 'john', 'last_name': 'doe', 'password': '12923092f4d9e86e56018b9cdd790947'}, update=False)"
p3232
sg3141
S'_listify'
p3233
sasS'pyver'
p3234
S'Python 2.5.4: C:\\Users\\Bussiere\\Dropbox\\Projets\\jackpoint\\web2py\\web2py.exe'
p3235
sS'session'
p3236
g61
(g62
g63
NtRp3237
(dp3238
g66
(dp3239
sg68
(lp3240
g61
(g70
g63
NtRp3241
(dp3242
g66
(dp3243
g74
I5
ssg75
Nsg68
(lp3244
sbasbsS'etype'
p3245
S"<type 'exceptions.SyntaxError'>"
p3246
sS'date'
p3247
S'Sat Mar 24 14:31:04 2012'
p3248
sS'response'
p3249
g61
(g62
g63
NtRp3250
(dp3251
g66
(dp3252
sg68
(lp3253
g61
(g70
g63
NtRp3254
(dp3255
g66
(dp3256
g74
I5
ssg75
Nsg68
(lp3257
g61
(g77
g63
NtRp3258
(dp3259
g66
(dp3260
sg75
g3254
sg68
(lp3261
g61
(g82
g63
NtRp3262
(dp3263
g66
(dp3264
g86
g87
ssg75
g3258
sg68
(lp3265
g159
asbag61
(g82
g63
NtRp3266
(dp3267
g66
(dp3268
g93
g94
ssg75
g3258
sg68
(lp3269
S':'
asbag61
(g82
g63
NtRp3270
(dp3271
g66
(dp3272
sg75
g3258
sg68
(lp3273
g61
(g62
g63
NtRp3274
(dp3275
g66
(dp3276
g74
I5
ssg75
g3270
sg68
(lp3277
S'<cStringIO.StringO object at 0x046BA840>'
p3278
asbasbasbag61
(g77
g63
NtRp3279
(dp3280
g66
(dp3281
sg75
g3254
sg68
(lp3282
g61
(g82
g63
NtRp3283
(dp3284
g66
(dp3285
g86
g87
ssg75
g3279
sg68
(lp3286
g225
asbag61
(g82
g63
NtRp3287
(dp3288
g66
(dp3289
g93
g94
ssg75
g3279
sg68
(lp3290
S':'
asbag61
(g82
g63
NtRp3291
(dp3292
g66
(dp3293
sg75
g3279
sg68
(lp3294
g61
(g62
g63
NtRp3295
(dp3296
g66
(dp3297
g74
I5
ssg75
g3291
sg68
(lp3298
g61
(g70
g63
NtRp3299
(dp3300
g66
(dp3301
g74
I4
ssg75
Nsg68
(lp3302
g61
(g77
g63
NtRp3303
(dp3304
g66
(dp3305
sg75
g3299
sg68
(lp3306
g61
(g82
g63
NtRp3307
(dp3308
g66
(dp3309
g86
g87
ssg75
g3303
sg68
(lp3310
S'session_id_init'
p3311
asbag61
(g82
g63
NtRp3312
(dp3313
g66
(dp3314
g93
g94
ssg75
g3303
sg68
(lp3315
S':'
asbag61
(g82
g63
NtRp3316
(dp3317
g66
(dp3318
sg75
g3303
sg68
(lp3319
g61
(g62
g63
NtRp3320
(dp3321
g66
(dp3322
g74
I4
ssg75
g3316
sg68
(lp3323
g61
(g70
g63
NtRp3324
(dp3325
g66
(dp3326
g74
I3
ssg75
Nsg68
(lp3327
g61
(g77
g63
NtRp3328
(dp3329
g66
(dp3330
sg75
g3324
sg68
(lp3331
g61
(g82
g63
NtRp3332
(dp3333
g66
(dp3334
g86
g87
ssg75
g3328
sg68
(lp3335
g275
asbag61
(g82
g63
NtRp3336
(dp3337
g66
(dp3338
g93
g94
ssg75
g3328
sg68
(lp3339
S':'
asbag61
(g82
g63
NtRp3340
(dp3341
g66
(dp3342
sg75
g3328
sg68
(lp3343
g61
(g62
g63
NtRp3344
(dp3345
g66
(dp3346
g74
I3
ssg75
g3340
sg68
(lp3347
S''
asbasbasbag61
(g77
g63
NtRp3348
(dp3349
g66
(dp3350
sg75
g3324
sg68
(lp3351
g61
(g82
g63
NtRp3352
(dp3353
g66
(dp3354
g86
g87
ssg75
g3348
sg68
(lp3355
g296
asbag61
(g82
g63
NtRp3356
(dp3357
g66
(dp3358
g93
g94
ssg75
g3348
sg68
(lp3359
S':'
asbag61
(g82
g63
NtRp3360
(dp3361
g66
(dp3362
sg75
g3348
sg68
(lp3363
g61
(g62
g63
NtRp3364
(dp3365
g66
(dp3366
g74
I3
ssg75
g3360
sg68
(lp3367
S''
asbasbasbag61
(g77
g63
NtRp3368
(dp3369
g66
(dp3370
sg75
g3324
sg68
(lp3371
g61
(g82
g63
NtRp3372
(dp3373
g66
(dp3374
g86
g87
ssg75
g3368
sg68
(lp3375
g317
asbag61
(g82
g63
NtRp3376
(dp3377
g66
(dp3378
g93
g94
ssg75
g3368
sg68
(lp3379
S':'
asbag61
(g82
g63
NtRp3380
(dp3381
g66
(dp3382
sg75
g3368
sg68
(lp3383
g61
(g62
g63
NtRp3384
(dp3385
g66
(dp3386
g74
I3
ssg75
g3380
sg68
(lp3387
S''
asbasbasbag61
(g77
g63
NtRp3388
(dp3389
g66
(dp3390
sg75
g3324
sg68
(lp3391
g61
(g82
g63
NtRp3392
(dp3393
g66
(dp3394
g86
g87
ssg75
g3388
sg68
(lp3395
g338
asbag61
(g82
g63
NtRp3396
(dp3397
g66
(dp3398
g93
g94
ssg75
g3388
sg68
(lp3399
S':'
asbag61
(g82
g63
NtRp3400
(dp3401
g66
(dp3402
sg75
g3388
sg68
(lp3403
g61
(g62
g63
NtRp3404
(dp3405
g66
(dp3406
g74
I3
ssg75
g3400
sg68
(lp3407
S''
asbasbasbag61
(g77
g63
NtRp3408
(dp3409
g66
(dp3410
sg75
g3324
sg68
(lp3411
g61
(g82
g63
NtRp3412
(dp3413
g66
(dp3414
g86
g87
ssg75
g3408
sg68
(lp3415
g359
asbag61
(g82
g63
NtRp3416
(dp3417
g66
(dp3418
g93
g94
ssg75
g3408
sg68
(lp3419
S':'
asbag61
(g82
g63
NtRp3420
(dp3421
g66
(dp3422
sg75
g3408
sg68
(lp3423
g61
(g62
g63
NtRp3424
(dp3425
g66
(dp3426
g74
I3
ssg75
g3420
sg68
(lp3427
S'/'
asbasbasbag61
(g77
g63
NtRp3428
(dp3429
g66
(dp3430
sg75
g3324
sg68
(lp3431
g61
(g82
g63
NtRp3432
(dp3433
g66
(dp3434
g86
g87
ssg75
g3428
sg68
(lp3435
g380
asbag61
(g82
g63
NtRp3436
(dp3437
g66
(dp3438
g93
g94
ssg75
g3428
sg68
(lp3439
S':'
asbag61
(g82
g63
NtRp3440
(dp3441
g66
(dp3442
sg75
g3428
sg68
(lp3443
g61
(g62
g63
NtRp3444
(dp3445
g66
(dp3446
g74
I3
ssg75
g3440
sg68
(lp3447
S''
asbasbasbag61
(g77
g63
NtRp3448
(dp3449
g66
(dp3450
sg75
g3324
sg68
(lp3451
g61
(g82
g63
NtRp3452
(dp3453
g66
(dp3454
g86
g87
ssg75
g3448
sg68
(lp3455
g401
asbag61
(g82
g63
NtRp3456
(dp3457
g66
(dp3458
g93
g94
ssg75
g3448
sg68
(lp3459
S':'
asbag61
(g82
g63
NtRp3460
(dp3461
g66
(dp3462
sg75
g3448
sg68
(lp3463
g61
(g62
g63
NtRp3464
(dp3465
g66
(dp3466
g74
I3
ssg75
g3460
sg68
(lp3467
S''
asbasbasbasbasbasbasbasbasbasbasbag61
(g77
g63
NtRp3468
(dp3469
g66
(dp3470
sg75
g3254
sg68
(lp3471
g61
(g82
g63
NtRp3472
(dp3473
g66
(dp3474
g86
g87
ssg75
g3468
sg68
(lp3475
S'delimiters'
p3476
asbag61
(g82
g63
NtRp3477
(dp3478
g66
(dp3479
g93
g94
ssg75
g3468
sg68
(lp3480
S':'
asbag61
(g82
g63
NtRp3481
(dp3482
g66
(dp3483
sg75
g3468
sg68
(lp3484
g61
(g62
g63
NtRp3485
(dp3486
g66
(dp3487
g74
I5
ssg75
g3481
sg68
(lp3488
g61
(g70
g63
NtRp3489
(dp3490
g66
(dp3491
g74
I4
ssg75
Nsg68
(lp3492
g61
(g77
g63
NtRp3493
(dp3494
g66
(dp3495
sg75
g3489
sg68
(lp3496
g61
(g82
g63
NtRp3497
(dp3498
g66
(dp3499
sg75
g3493
sg68
(lp3500
g61
(g62
g63
NtRp3501
(dp3502
g66
(dp3503
g74
I4
ssg75
g3497
sg68
(lp3504
S'{{'
p3505
asbasbasbag61
(g77
g63
NtRp3506
(dp3507
g66
(dp3508
sg75
g3489
sg68
(lp3509
g61
(g82
g63
NtRp3510
(dp3511
g66
(dp3512
sg75
g3506
sg68
(lp3513
g61
(g62
g63
NtRp3514
(dp3515
g66
(dp3516
g74
I4
ssg75
g3510
sg68
(lp3517
S'}}'
p3518
asbasbasbasbasbasbasbag61
(g77
g63
NtRp3519
(dp3520
g66
(dp3521
sg75
g3254
sg68
(lp3522
g61
(g82
g63
NtRp3523
(dp3524
g66
(dp3525
g86
g87
ssg75
g3519
sg68
(lp3526
S'files'
p3527
asbag61
(g82
g63
NtRp3528
(dp3529
g66
(dp3530
g93
g94
ssg75
g3519
sg68
(lp3531
S':'
asbag61
(g82
g63
NtRp3532
(dp3533
g66
(dp3534
sg75
g3519
sg68
(lp3535
g61
(g62
g63
NtRp3536
(dp3537
g66
(dp3538
g74
I5
ssg75
g3532
sg68
(lp3539
g61
(g70
g63
NtRp3540
(dp3541
g66
(dp3542
g74
I4
ssg75
Nsg68
(lp3543
sbasbasbasbag61
(g77
g63
NtRp3544
(dp3545
g66
(dp3546
sg75
g3254
sg68
(lp3547
g61
(g82
g63
NtRp3548
(dp3549
g66
(dp3550
g86
g87
ssg75
g3544
sg68
(lp3551
S'flash'
p3552
asbag61
(g82
g63
NtRp3553
(dp3554
g66
(dp3555
g93
g94
ssg75
g3544
sg68
(lp3556
S':'
asbag61
(g82
g63
NtRp3557
(dp3558
g66
(dp3559
sg75
g3544
sg68
(lp3560
g61
(g62
g63
NtRp3561
(dp3562
g66
(dp3563
g74
I5
ssg75
g3557
sg68
(lp3564
cgluon.languages
lazyT_unpickle
p3565
(S's\x08\x00\x00\x00Success!'
tRp3566
asbasbasbag61
(g77
g63
NtRp3567
(dp3568
g66
(dp3569
sg75
g3254
sg68
(lp3570
g61
(g82
g63
NtRp3571
(dp3572
g66
(dp3573
g86
g87
ssg75
g3567
sg68
(lp3574
S'generic_patterns'
p3575
asbag61
(g82
g63
NtRp3576
(dp3577
g66
(dp3578
g93
g94
ssg75
g3567
sg68
(lp3579
S':'
asbag61
(g82
g63
NtRp3580
(dp3581
g66
(dp3582
sg75
g3567
sg68
(lp3583
g61
(g62
g63
NtRp3584
(dp3585
g66
(dp3586
g74
I5
ssg75
g3580
sg68
(lp3587
g61
(g70
g63
NtRp3588
(dp3589
g66
(dp3590
g74
I4
ssg75
Nsg68
(lp3591
g61
(g77
g63
NtRp3592
(dp3593
g66
(dp3594
sg75
g3588
sg68
(lp3595
g61
(g82
g63
NtRp3596
(dp3597
g66
(dp3598
sg75
g3592
sg68
(lp3599
g61
(g62
g63
NtRp3600
(dp3601
g66
(dp3602
g74
I4
ssg75
g3596
sg68
(lp3603
S'*'
asbasbasbasbasbasbasbag61
(g77
g63
NtRp3604
(dp3605
g66
(dp3606
sg75
g3254
sg68
(lp3607
g61
(g82
g63
NtRp3608
(dp3609
g66
(dp3610
g86
g87
ssg75
g3604
sg68
(lp3611
S'headers'
p3612
asbag61
(g82
g63
NtRp3613
(dp3614
g66
(dp3615
g93
g94
ssg75
g3604
sg68
(lp3616
S':'
asbag61
(g82
g63
NtRp3617
(dp3618
g66
(dp3619
sg75
g3604
sg68
(lp3620
g61
(g62
g63
NtRp3621
(dp3622
g66
(dp3623
g74
I5
ssg75
g3617
sg68
(lp3624
g61
(g70
g63
NtRp3625
(dp3626
g66
(dp3627
g74
I4
ssg75
Nsg68
(lp3628
g61
(g77
g63
NtRp3629
(dp3630
g66
(dp3631
sg75
g3625
sg68
(lp3632
g61
(g82
g63
NtRp3633
(dp3634
g66
(dp3635
g86
g87
ssg75
g3629
sg68
(lp3636
S'Cache-Control'
p3637
asbag61
(g82
g63
NtRp3638
(dp3639
g66
(dp3640
g93
g94
ssg75
g3629
sg68
(lp3641
S':'
asbag61
(g82
g63
NtRp3642
(dp3643
g66
(dp3644
sg75
g3629
sg68
(lp3645
g61
(g62
g63
NtRp3646
(dp3647
g66
(dp3648
g74
I4
ssg75
g3642
sg68
(lp3649
S'no-store, no-cache, must-revalidate, post-check=0, pre-check=0'
p3650
asbasbasbag61
(g77
g63
NtRp3651
(dp3652
g66
(dp3653
sg75
g3625
sg68
(lp3654
g61
(g82
g63
NtRp3655
(dp3656
g66
(dp3657
g86
g87
ssg75
g3651
sg68
(lp3658
S'Content-Type'
p3659
asbag61
(g82
g63
NtRp3660
(dp3661
g66
(dp3662
g93
g94
ssg75
g3651
sg68
(lp3663
S':'
asbag61
(g82
g63
NtRp3664
(dp3665
g66
(dp3666
sg75
g3651
sg68
(lp3667
g61
(g62
g63
NtRp3668
(dp3669
g66
(dp3670
g74
I4
ssg75
g3664
sg68
(lp3671
S'text/html; charset=utf-8'
p3672
asbasbasbag61
(g77
g63
NtRp3673
(dp3674
g66
(dp3675
sg75
g3625
sg68
(lp3676
g61
(g82
g63
NtRp3677
(dp3678
g66
(dp3679
g86
g87
ssg75
g3673
sg68
(lp3680
S'Expires'
p3681
asbag61
(g82
g63
NtRp3682
(dp3683
g66
(dp3684
g93
g94
ssg75
g3673
sg68
(lp3685
S':'
asbag61
(g82
g63
NtRp3686
(dp3687
g66
(dp3688
sg75
g3673
sg68
(lp3689
g61
(g62
g63
NtRp3690
(dp3691
g66
(dp3692
g74
I4
ssg75
g3686
sg68
(lp3693
S'Sat, 24 Mar 2012 13:31:04 GMT'
p3694
asbasbasbag61
(g77
g63
NtRp3695
(dp3696
g66
(dp3697
sg75
g3625
sg68
(lp3698
g61
(g82
g63
NtRp3699
(dp3700
g66
(dp3701
g86
g87
ssg75
g3695
sg68
(lp3702
S'Pragma'
p3703
asbag61
(g82
g63
NtRp3704
(dp3705
g66
(dp3706
g93
g94
ssg75
g3695
sg68
(lp3707
S':'
asbag61
(g82
g63
NtRp3708
(dp3709
g66
(dp3710
sg75
g3695
sg68
(lp3711
g61
(g62
g63
NtRp3712
(dp3713
g66
(dp3714
g74
I4
ssg75
g3708
sg68
(lp3715
S'no-cache'
p3716
asbasbasbag61
(g77
g63
NtRp3717
(dp3718
g66
(dp3719
sg75
g3625
sg68
(lp3720
g61
(g82
g63
NtRp3721
(dp3722
g66
(dp3723
g86
g87
ssg75
g3717
sg68
(lp3724
S'X-Powered-By'
p3725
asbag61
(g82
g63
NtRp3726
(dp3727
g66
(dp3728
g93
g94
ssg75
g3717
sg68
(lp3729
S':'
asbag61
(g82
g63
NtRp3730
(dp3731
g66
(dp3732
sg75
g3717
sg68
(lp3733
g61
(g62
g63
NtRp3734
(dp3735
g66
(dp3736
g74
I4
ssg75
g3730
sg68
(lp3737
S'web2py'
p3738
asbasbasbasbasbasbasbag61
(g77
g63
NtRp3739
(dp3740
g66
(dp3741
sg75
g3254
sg68
(lp3742
g61
(g82
g63
NtRp3743
(dp3744
g66
(dp3745
g86
g87
ssg75
g3739
sg68
(lp3746
S'menu'
p3747
asbag61
(g82
g63
NtRp3748
(dp3749
g66
(dp3750
g93
g94
ssg75
g3739
sg68
(lp3751
S':'
asbag61
(g82
g63
NtRp3752
(dp3753
g66
(dp3754
sg75
g3739
sg68
(lp3755
g61
(g62
g63
NtRp3756
(dp3757
g66
(dp3758
g74
I5
ssg75
g3752
sg68
(lp3759
g61
(g70
g63
NtRp3760
(dp3761
g66
(dp3762
g74
I4
ssg75
Nsg68
(lp3763
g61
(g77
g63
NtRp3764
(dp3765
g66
(dp3766
sg75
g3760
sg68
(lp3767
g61
(g82
g63
NtRp3768
(dp3769
g66
(dp3770
sg75
g3764
sg68
(lp3771
g61
(g62
g63
NtRp3772
(dp3773
g66
(dp3774
g74
I4
ssg75
g3768
sg68
(lp3775
g61
(g70
g63
NtRp3776
(dp3777
g66
(dp3778
g74
I3
ssg75
Nsg68
(lp3779
g61
(g77
g63
NtRp3780
(dp3781
g66
(dp3782
sg75
g3776
sg68
(lp3783
g61
(g82
g63
NtRp3784
(dp3785
g66
(dp3786
sg75
g3780
sg68
(lp3787
g61
(g62
g63
NtRp3788
(dp3789
g66
(dp3790
g74
I3
ssg75
g3784
sg68
(lp3791
g3565
(S's\x04\x00\x00\x00Home'
tRp3792
asbasbasbag61
(g77
g63
NtRp3793
(dp3794
g66
(dp3795
sg75
g3776
sg68
(lp3796
g61
(g82
g63
NtRp3797
(dp3798
g66
(dp3799
sg75
g3793
sg68
(lp3800
g61
(g62
g63
NtRp3801
(dp3802
g66
(dp3803
g74
I3
ssg75
g3797
sg68
(lp3804
g104
asbasbasbag61
(g77
g63
NtRp3805
(dp3806
g66
(dp3807
sg75
g3776
sg68
(lp3808
g61
(g82
g63
NtRp3809
(dp3810
g66
(dp3811
sg75
g3805
sg68
(lp3812
g61
(g62
g63
NtRp3813
(dp3814
g66
(dp3815
g74
I3
ssg75
g3809
sg68
(lp3816
S'/init/default/index'
p3817
asbasbasbag61
(g77
g63
NtRp3818
(dp3819
g66
(dp3820
sg75
g3776
sg68
(lp3821
g61
(g82
g63
NtRp3822
(dp3823
g66
(dp3824
sg75
g3818
sg68
(lp3825
g61
(g62
g63
NtRp3826
(dp3827
g66
(dp3828
g74
I3
ssg75
g3822
sg68
(lp3829
g61
(g70
g63
NtRp3830
(dp3831
g66
(dp3832
g74
I2
ssg75
Nsg68
(lp3833
sbasbasbasbasbasbasbasbag61
(g77
g63
NtRp3834
(dp3835
g66
(dp3836
sg75
g3760
sg68
(lp3837
g61
(g82
g63
NtRp3838
(dp3839
g66
(dp3840
sg75
g3834
sg68
(lp3841
g61
(g62
g63
NtRp3842
(dp3843
g66
(dp3844
g74
I4
ssg75
g3838
sg68
(lp3845
g61
(g70
g63
NtRp3846
(dp3847
g66
(dp3848
g74
I3
ssg75
Nsg68
(lp3849
g61
(g77
g63
NtRp3850
(dp3851
g66
(dp3852
sg75
g3846
sg68
(lp3853
g61
(g82
g63
NtRp3854
(dp3855
g66
(dp3856
sg75
g3850
sg68
(lp3857
g61
(g62
g63
NtRp3858
(dp3859
g66
(dp3860
g74
I3
ssg75
g3854
sg68
(lp3861
g61
(cgluon.html
SPAN
p3862
g63
NtRp3863
(dp3864
g66
(dp3865
g86
S'color:yellow'
p3866
ssg75
Nsg68
(lp3867
g3738
asbasbasbasbag61
(g77
g63
NtRp3868
(dp3869
g66
(dp3870
sg75
g3846
sg68
(lp3871
g61
(g82
g63
NtRp3872
(dp3873
g66
(dp3874
sg75
g3868
sg68
(lp3875
g61
(g62
g63
NtRp3876
(dp3877
g66
(dp3878
g74
I3
ssg75
g3872
sg68
(lp3879
g104
asbasbasbag61
(g77
g63
NtRp3880
(dp3881
g66
(dp3882
sg75
g3846
sg68
(lp3883
g61
(g82
g63
NtRp3884
(dp3885
g66
(dp3886
sg75
g3880
sg68
(lp3887
g61
(g62
g63
NtRp3888
(dp3889
g66
(dp3890
g74
I3
ssg75
g3884
sg68
(lp3891
S'None'
p3892
asbasbasbag61
(g77
g63
NtRp3893
(dp3894
g66
(dp3895
sg75
g3846
sg68
(lp3896
g61
(g82
g63
NtRp3897
(dp3898
g66
(dp3899
sg75
g3893
sg68
(lp3900
g61
(g62
g63
NtRp3901
(dp3902
g66
(dp3903
g74
I3
ssg75
g3897
sg68
(lp3904
g61
(g70
g63
NtRp3905
(dp3906
g66
(dp3907
g74
I2
ssg75
Nsg68
(lp3908
g61
(g77
g63
NtRp3909
(dp3910
g66
(dp3911
sg75
g3905
sg68
(lp3912
g61
(g82
g63
NtRp3913
(dp3914
g66
(dp3915
sg75
g3909
sg68
(lp3916
g61
(g62
g63
NtRp3917
(dp3918
g66
(dp3919
g74
I2
ssg75
g3913
sg68
(lp3920
g61
(g70
g63
NtRp3921
(dp3922
g66
(dp3923
g74
I1
ssg75
Nsg68
(lp3924
g61
(g77
g63
NtRp3925
(dp3926
g66
(dp3927
sg75
g3921
sg68
(lp3928
g61
(g82
g63
NtRp3929
(dp3930
g66
(dp3931
sg75
g3925
sg68
(lp3932
g61
(g62
g63
NtRp3933
(dp3934
g66
(dp3935
g74
I1
ssg75
g3929
sg68
(lp3936
g3565
(S's\x08\x00\x00\x00My Sites'
tRp3937
asbasbasbag61
(g77
g63
NtRp3938
(dp3939
g66
(dp3940
sg75
g3921
sg68
(lp3941
g61
(g82
g63
NtRp3942
(dp3943
g66
(dp3944
sg75
g3938
sg68
(lp3945
g61
(g62
g63
NtRp3946
(dp3947
g66
(dp3948
g74
I1
ssg75
g3942
sg68
(lp3949
I00
asbasbasbag61
(g77
g63
NtRp3950
(dp3951
g66
(dp3952
sg75
g3921
sg68
(lp3953
g61
(g82
g63
NtRp3954
(dp3955
g66
(dp3956
sg75
g3950
sg68
(lp3957
g61
(g62
g63
NtRp3958
(dp3959
g66
(dp3960
g74
I1
ssg75
g3954
sg68
(lp3961
S'/admin/default/site'
p3962
asbasbasbasbasbasbasbag61
(g77
g63
NtRp3963
(dp3964
g66
(dp3965
sg75
g3905
sg68
(lp3966
g61
(g82
g63
NtRp3967
(dp3968
g66
(dp3969
sg75
g3963
sg68
(lp3970
g61
(g62
g63
NtRp3971
(dp3972
g66
(dp3973
g74
I2
ssg75
g3967
sg68
(lp3974
g61
(g70
g63
NtRp3975
(dp3976
g66
(dp3977
g74
I1
ssg75
Nsg68
(lp3978
g61
(g77
g63
NtRp3979
(dp3980
g66
(dp3981
sg75
g3975
sg68
(lp3982
g61
(g82
g63
NtRp3983
(dp3984
g66
(dp3985
sg75
g3979
sg68
(lp3986
g61
(g62
g63
NtRp3987
(dp3988
g66
(dp3989
g74
I1
ssg75
g3983
sg68
(lp3990
g3565
(S's\x08\x00\x00\x00This App'
tRp3991
asbasbasbag61
(g77
g63
NtRp3992
(dp3993
g66
(dp3994
sg75
g3975
sg68
(lp3995
g61
(g82
g63
NtRp3996
(dp3997
g66
(dp3998
sg75
g3992
sg68
(lp3999
g61
(g62
g63
NtRp4000
(dp4001
g66
(dp4002
g74
I1
ssg75
g3996
sg68
(lp4003
I00
asbasbasbag61
(g77
g63
NtRp4004
(dp4005
g66
(dp4006
sg75
g3975
sg68
(lp4007
g61
(g82
g63
NtRp4008
(dp4009
g66
(dp4010
sg75
g4004
sg68
(lp4011
g61
(g62
g63
NtRp4012
(dp4013
g66
(dp4014
g74
I1
ssg75
g4008
sg68
(lp4015
S'/admin/default/design/init'
p4016
asbasbasbag61
(g77
g63
NtRp4017
(dp4018
g66
(dp4019
sg75
g3975
sg68
(lp4020
g61
(g82
g63
NtRp4021
(dp4022
g66
(dp4023
sg75
g4017
sg68
(lp4024
g61
(g62
g63
NtRp4025
(dp4026
g66
(dp4027
g74
I1
ssg75
g4021
sg68
(lp4028
(lp4029
(g3565
(S's\n\x00\x00\x00Controller'
tRp4030
I00
S'/admin/default/edit/init/controllers/default.py'
tp4031
a(g3565
(S's\x04\x00\x00\x00View'
tRp4032
I00
S'/admin/default/edit/init/views/default/invitation.html'
tp4033
a(g3565
(S's\x06\x00\x00\x00Layout'
tRp4034
I00
S'/admin/default/edit/init/views/layout.html'
tp4035
a(g3565
(S's\n\x00\x00\x00Stylesheet'
tRp4036
I00
S'/admin/default/edit/init/static/css/web2py.css'
tp4037
a(g3565
(S's\x08\x00\x00\x00DB Model'
tRp4038
I00
S'/admin/default/edit/init/models/db.py'
tp4039
a(g3565
(S's\n\x00\x00\x00Menu Model'
tRp4040
I00
S'/admin/default/edit/init/models/menu.py'
tp4041
a(g3565
(S's\x08\x00\x00\x00Database'
tRp4042
I00
S'/init/appadmin/index'
tp4043
a(g3565
(S's\x06\x00\x00\x00Errors'
tRp4044
I00
S'/admin/default/errors/init'
tp4045
a(g3565
(S's\x05\x00\x00\x00About'
tRp4046
I00
S'/admin/default/about/init'
tp4047
aasbasbasbasbasbasbasbag61
(g77
g63
NtRp4048
(dp4049
g66
(dp4050
sg75
g3905
sg68
(lp4051
g61
(g82
g63
NtRp4052
(dp4053
g66
(dp4054
sg75
g4048
sg68
(lp4055
g61
(g62
g63
NtRp4056
(dp4057
g66
(dp4058
g74
I2
ssg75
g4052
sg68
(lp4059
g61
(g70
g63
NtRp4060
(dp4061
g66
(dp4062
g74
I1
ssg75
Nsg68
(lp4063
g61
(g77
g63
NtRp4064
(dp4065
g66
(dp4066
sg75
g4060
sg68
(lp4067
g61
(g82
g63
NtRp4068
(dp4069
g66
(dp4070
sg75
g4064
sg68
(lp4071
g61
(g62
g63
NtRp4072
(dp4073
g66
(dp4074
g74
I1
ssg75
g4068
sg68
(lp4075
S'web2py.com'
p4076
asbasbasbag61
(g77
g63
NtRp4077
(dp4078
g66
(dp4079
sg75
g4060
sg68
(lp4080
g61
(g82
g63
NtRp4081
(dp4082
g66
(dp4083
sg75
g4077
sg68
(lp4084
g61
(g62
g63
NtRp4085
(dp4086
g66
(dp4087
g74
I1
ssg75
g4081
sg68
(lp4088
I00
asbasbasbag61
(g77
g63
NtRp4089
(dp4090
g66
(dp4091
sg75
g4060
sg68
(lp4092
g61
(g82
g63
NtRp4093
(dp4094
g66
(dp4095
sg75
g4089
sg68
(lp4096
g61
(g62
g63
NtRp4097
(dp4098
g66
(dp4099
g74
I1
ssg75
g4093
sg68
(lp4100
S'http://www.web2py.com'
p4101
asbasbasbag61
(g77
g63
NtRp4102
(dp4103
g66
(dp4104
sg75
g4060
sg68
(lp4105
g61
(g82
g63
NtRp4106
(dp4107
g66
(dp4108
sg75
g4102
sg68
(lp4109
g61
(g62
g63
NtRp4110
(dp4111
g66
(dp4112
g74
I1
ssg75
g4106
sg68
(lp4113
(lp4114
(g3565
(S's\x08\x00\x00\x00Download'
tRp4115
I00
S'http://www.web2py.com/examples/default/download'
p4116
tp4117
a(g3565
(S's\x07\x00\x00\x00Support'
tRp4118
I00
S'http://www.web2py.com/examples/default/support'
p4119
tp4120
a(g3565
(S's\x04\x00\x00\x00Demo'
tRp4121
I00
S'http://web2py.com/demo_admin'
p4122
tp4123
a(g3565
(S's\x0e\x00\x00\x00Quick Examples'
tRp4124
I00
S'http://web2py.com/examples/default/examples'
p4125
tp4126
a(g3565
(S's\x03\x00\x00\x00FAQ'
tRp4127
I00
S'http://web2py.com/AlterEgo'
p4128
tp4129
a(g3565
(S's\x06\x00\x00\x00Videos'
tRp4130
I00
S'http://www.web2py.com/examples/default/videos/'
p4131
tp4132
a(g3565
(S's\x11\x00\x00\x00Free Applications'
tRp4133
I00
S'http://web2py.com/appliances'
p4134
tp4135
a(g3565
(S's\x07\x00\x00\x00Plugins'
tRp4136
I00
S'http://web2py.com/plugins'
p4137
tp4138
a(g3565
(S's\x07\x00\x00\x00Layouts'
tRp4139
I00
S'http://web2py.com/layouts'
p4140
tp4141
a(g3565
(S's\x07\x00\x00\x00Recipes'
tRp4142
I00
S'http://web2pyslices.com/'
p4143
tp4144
a(g3565
(S's\x08\x00\x00\x00Semantic'
tRp4145
I00
S'http://web2py.com/semantic'
p4146
tp4147
aasbasbasbasbasbasbasbag61
(g77
g63
NtRp4148
(dp4149
g66
(dp4150
sg75
g3905
sg68
(lp4151
g61
(g82
g63
NtRp4152
(dp4153
g66
(dp4154
sg75
g4148
sg68
(lp4155
g61
(g62
g63
NtRp4156
(dp4157
g66
(dp4158
g74
I2
ssg75
g4152
sg68
(lp4159
g61
(g70
g63
NtRp4160
(dp4161
g66
(dp4162
g74
I1
ssg75
Nsg68
(lp4163
g61
(g77
g63
NtRp4164
(dp4165
g66
(dp4166
sg75
g4160
sg68
(lp4167
g61
(g82
g63
NtRp4168
(dp4169
g66
(dp4170
sg75
g4164
sg68
(lp4171
g61
(g62
g63
NtRp4172
(dp4173
g66
(dp4174
g74
I1
ssg75
g4168
sg68
(lp4175
g3565
(S's\r\x00\x00\x00Documentation'
tRp4176
asbasbasbag61
(g77
g63
NtRp4177
(dp4178
g66
(dp4179
sg75
g4160
sg68
(lp4180
g61
(g82
g63
NtRp4181
(dp4182
g66
(dp4183
sg75
g4177
sg68
(lp4184
g61
(g62
g63
NtRp4185
(dp4186
g66
(dp4187
g74
I1
ssg75
g4181
sg68
(lp4188
I00
asbasbasbag61
(g77
g63
NtRp4189
(dp4190
g66
(dp4191
sg75
g4160
sg68
(lp4192
g61
(g82
g63
NtRp4193
(dp4194
g66
(dp4195
sg75
g4189
sg68
(lp4196
g61
(g62
g63
NtRp4197
(dp4198
g66
(dp4199
g74
I1
ssg75
g4193
sg68
(lp4200
S'http://www.web2py.com/book'
p4201
asbasbasbag61
(g77
g63
NtRp4202
(dp4203
g66
(dp4204
sg75
g4160
sg68
(lp4205
g61
(g82
g63
NtRp4206
(dp4207
g66
(dp4208
sg75
g4202
sg68
(lp4209
g61
(g62
g63
NtRp4210
(dp4211
g66
(dp4212
g74
I1
ssg75
g4206
sg68
(lp4213
(lp4214
(g3565
(S's\x07\x00\x00\x00Preface'
tRp4215
I00
S'http://www.web2py.com/book/default/chapter/00'
p4216
tp4217
a(g3565
(S's\x0c\x00\x00\x00Introduction'
tRp4218
I00
S'http://www.web2py.com/book/default/chapter/01'
p4219
tp4220
a(g3565
(S's\x06\x00\x00\x00Python'
tRp4221
I00
S'http://www.web2py.com/book/default/chapter/02'
p4222
tp4223
a(g3565
(S's\x08\x00\x00\x00Overview'
tRp4224
I00
S'http://www.web2py.com/book/default/chapter/03'
p4225
tp4226
a(g3565
(S's\x08\x00\x00\x00The Core'
tRp4227
I00
S'http://www.web2py.com/book/default/chapter/04'
p4228
tp4229
a(g3565
(S's\t\x00\x00\x00The Views'
tRp4230
I00
S'http://www.web2py.com/book/default/chapter/05'
p4231
tp4232
a(g3565
(S's\x08\x00\x00\x00Database'
tRp4233
I00
S'http://www.web2py.com/book/default/chapter/06'
p4234
tp4235
a(g3565
(S's\x14\x00\x00\x00Forms and Validators'
tRp4236
I00
S'http://www.web2py.com/book/default/chapter/07'
p4237
tp4238
a(g3565
(S's\r\x00\x00\x00Email and SMS'
tRp4239
I00
S'http://www.web2py.com/book/default/chapter/08'
p4240
tp4241
a(g3565
(S's\x0e\x00\x00\x00Access Control'
tRp4242
I00
S'http://www.web2py.com/book/default/chapter/09'
p4243
tp4244
a(g3565
(S's\x08\x00\x00\x00Services'
tRp4245
I00
S'http://www.web2py.com/book/default/chapter/10'
p4246
tp4247
a(g3565
(S's\x0c\x00\x00\x00Ajax Recipes'
tRp4248
I00
S'http://www.web2py.com/book/default/chapter/11'
p4249
tp4250
a(g3565
(S's\x16\x00\x00\x00Components and Plugins'
tRp4251
I00
S'http://www.web2py.com/book/default/chapter/12'
p4252
tp4253
a(g3565
(S's\x12\x00\x00\x00Deployment Recipes'
tRp4254
I00
S'http://www.web2py.com/book/default/chapter/13'
p4255
tp4256
a(g3565
(S's\r\x00\x00\x00Other Recipes'
tRp4257
I00
S'http://www.web2py.com/book/default/chapter/14'
p4258
tp4259
a(g3565
(S's\r\x00\x00\x00Buy this book'
tRp4260
I00
S'http://stores.lulu.com/web2py'
p4261
tp4262
aasbasbasbasbasbasbasbag61
(g77
g63
NtRp4263
(dp4264
g66
(dp4265
sg75
g3905
sg68
(lp4266
g61
(g82
g63
NtRp4267
(dp4268
g66
(dp4269
sg75
g4263
sg68
(lp4270
g61
(g62
g63
NtRp4271
(dp4272
g66
(dp4273
g74
I2
ssg75
g4267
sg68
(lp4274
g61
(g70
g63
NtRp4275
(dp4276
g66
(dp4277
g74
I1
ssg75
Nsg68
(lp4278
g61
(g77
g63
NtRp4279
(dp4280
g66
(dp4281
sg75
g4275
sg68
(lp4282
g61
(g82
g63
NtRp4283
(dp4284
g66
(dp4285
sg75
g4279
sg68
(lp4286
g61
(g62
g63
NtRp4287
(dp4288
g66
(dp4289
g74
I1
ssg75
g4283
sg68
(lp4290
g3565
(S's\t\x00\x00\x00Community'
tRp4291
asbasbasbag61
(g77
g63
NtRp4292
(dp4293
g66
(dp4294
sg75
g4275
sg68
(lp4295
g61
(g82
g63
NtRp4296
(dp4297
g66
(dp4298
sg75
g4292
sg68
(lp4299
g61
(g62
g63
NtRp4300
(dp4301
g66
(dp4302
g74
I1
ssg75
g4296
sg68
(lp4303
I00
asbasbasbag61
(g77
g63
NtRp4304
(dp4305
g66
(dp4306
sg75
g4275
sg68
(lp4307
g61
(g82
g63
NtRp4308
(dp4309
g66
(dp4310
sg75
g4304
sg68
(lp4311
g61
(g62
g63
NtRp4312
(dp4313
g66
(dp4314
g74
I1
ssg75
g4308
sg68
(lp4315
Nasbasbasbag61
(g77
g63
NtRp4316
(dp4317
g66
(dp4318
sg75
g4275
sg68
(lp4319
g61
(g82
g63
NtRp4320
(dp4321
g66
(dp4322
sg75
g4316
sg68
(lp4323
g61
(g62
g63
NtRp4324
(dp4325
g66
(dp4326
g74
I1
ssg75
g4320
sg68
(lp4327
(lp4328
(g3565
(S's\x06\x00\x00\x00Groups'
tRp4329
I00
S'http://www.web2py.com/examples/default/usergroups'
p4330
tp4331
a(g3565
(S's\x07\x00\x00\x00Twitter'
tRp4332
I00
S'http://twitter.com/web2py'
p4333
tp4334
a(g3565
(S's\t\x00\x00\x00Live Chat'
tRp4335
I00
S'http://webchat.freenode.net/?channels=web2py'
p4336
tp4337
aasbasbasbasbasbasbasbag61
(g77
g63
NtRp4338
(dp4339
g66
(dp4340
sg75
g3905
sg68
(lp4341
g61
(g82
g63
NtRp4342
(dp4343
g66
(dp4344
sg75
g4338
sg68
(lp4345
g61
(g62
g63
NtRp4346
(dp4347
g66
(dp4348
g74
I2
ssg75
g4342
sg68
(lp4349
g61
(g70
g63
NtRp4350
(dp4351
g66
(dp4352
g74
I1
ssg75
Nsg68
(lp4353
g61
(g77
g63
NtRp4354
(dp4355
g66
(dp4356
sg75
g4350
sg68
(lp4357
g61
(g82
g63
NtRp4358
(dp4359
g66
(dp4360
sg75
g4354
sg68
(lp4361
g61
(g62
g63
NtRp4362
(dp4363
g66
(dp4364
g74
I1
ssg75
g4358
sg68
(lp4365
g3565
(S's\x07\x00\x00\x00Plugins'
tRp4366
asbasbasbag61
(g77
g63
NtRp4367
(dp4368
g66
(dp4369
sg75
g4350
sg68
(lp4370
g61
(g82
g63
NtRp4371
(dp4372
g66
(dp4373
sg75
g4367
sg68
(lp4374
g61
(g62
g63
NtRp4375
(dp4376
g66
(dp4377
g74
I1
ssg75
g4371
sg68
(lp4378
I00
asbasbasbag61
(g77
g63
NtRp4379
(dp4380
g66
(dp4381
sg75
g4350
sg68
(lp4382
g61
(g82
g63
NtRp4383
(dp4384
g66
(dp4385
sg75
g4379
sg68
(lp4386
g61
(g62
g63
NtRp4387
(dp4388
g66
(dp4389
g74
I1
ssg75
g4383
sg68
(lp4390
Nasbasbasbag61
(g77
g63
NtRp4391
(dp4392
g66
(dp4393
sg75
g4350
sg68
(lp4394
g61
(g82
g63
NtRp4395
(dp4396
g66
(dp4397
sg75
g4391
sg68
(lp4398
g61
(g62
g63
NtRp4399
(dp4400
g66
(dp4401
g74
I1
ssg75
g4395
sg68
(lp4402
(lp4403
(S'plugin_wiki'
p4404
I00
S'http://web2py.com/examples/default/download'
p4405
tp4406
a(g3565
(S's\r\x00\x00\x00Other Plugins'
tRp4407
I00
g4137
tp4408
a(g3565
(S's\x0e\x00\x00\x00Layout Plugins'
tRp4409
I00
g4140
tp4410
aasbasbasbasbasbasbasbasbasbasbasbasbasbasbasbasbasbasbasbag61
(g77
g63
NtRp4411
(dp4412
g66
(dp4413
sg75
g3254
sg68
(lp4414
g61
(g82
g63
NtRp4415
(dp4416
g66
(dp4417
g86
g87
ssg75
g4411
sg68
(lp4418
S'meta'
p4419
asbag61
(g82
g63
NtRp4420
(dp4421
g66
(dp4422
g93
g94
ssg75
g4411
sg68
(lp4423
S':'
asbag61
(g82
g63
NtRp4424
(dp4425
g66
(dp4426
sg75
g4411
sg68
(lp4427
g61
(g62
g63
NtRp4428
(dp4429
g66
(dp4430
g74
I5
ssg75
g4424
sg68
(lp4431
g61
(g70
g63
NtRp4432
(dp4433
g66
(dp4434
g74
I4
ssg75
Nsg68
(lp4435
g61
(g77
g63
NtRp4436
(dp4437
g66
(dp4438
sg75
g4432
sg68
(lp4439
g61
(g82
g63
NtRp4440
(dp4441
g66
(dp4442
g86
g87
ssg75
g4436
sg68
(lp4443
S'author'
p4444
asbag61
(g82
g63
NtRp4445
(dp4446
g66
(dp4447
g93
g94
ssg75
g4436
sg68
(lp4448
S':'
asbag61
(g82
g63
NtRp4449
(dp4450
g66
(dp4451
sg75
g4436
sg68
(lp4452
g61
(g62
g63
NtRp4453
(dp4454
g66
(dp4455
g74
I4
ssg75
g4449
sg68
(lp4456
S'Your Name <you@example.com>'
p4457
asbasbasbag61
(g77
g63
NtRp4458
(dp4459
g66
(dp4460
sg75
g4432
sg68
(lp4461
g61
(g82
g63
NtRp4462
(dp4463
g66
(dp4464
g86
g87
ssg75
g4458
sg68
(lp4465
S'copyright'
p4466
asbag61
(g82
g63
NtRp4467
(dp4468
g66
(dp4469
g93
g94
ssg75
g4458
sg68
(lp4470
S':'
asbag61
(g82
g63
NtRp4471
(dp4472
g66
(dp4473
sg75
g4458
sg68
(lp4474
g61
(g62
g63
NtRp4475
(dp4476
g66
(dp4477
g74
I4
ssg75
g4471
sg68
(lp4478
S'Copyright 2011'
p4479
asbasbasbag61
(g77
g63
NtRp4480
(dp4481
g66
(dp4482
sg75
g4432
sg68
(lp4483
g61
(g82
g63
NtRp4484
(dp4485
g66
(dp4486
g86
g87
ssg75
g4480
sg68
(lp4487
S'description'
p4488
asbag61
(g82
g63
NtRp4489
(dp4490
g66
(dp4491
g93
g94
ssg75
g4480
sg68
(lp4492
S':'
asbag61
(g82
g63
NtRp4493
(dp4494
g66
(dp4495
sg75
g4480
sg68
(lp4496
g61
(g62
g63
NtRp4497
(dp4498
g66
(dp4499
g74
I4
ssg75
g4493
sg68
(lp4500
S'a cool new app'
p4501
asbasbasbag61
(g77
g63
NtRp4502
(dp4503
g66
(dp4504
sg75
g4432
sg68
(lp4505
g61
(g82
g63
NtRp4506
(dp4507
g66
(dp4508
g86
g87
ssg75
g4502
sg68
(lp4509
S'generator'
p4510
asbag61
(g82
g63
NtRp4511
(dp4512
g66
(dp4513
g93
g94
ssg75
g4502
sg68
(lp4514
S':'
asbag61
(g82
g63
NtRp4515
(dp4516
g66
(dp4517
sg75
g4502
sg68
(lp4518
g61
(g62
g63
NtRp4519
(dp4520
g66
(dp4521
g74
I4
ssg75
g4515
sg68
(lp4522
S'Web2py Web Framework'
p4523
asbasbasbag61
(g77
g63
NtRp4524
(dp4525
g66
(dp4526
sg75
g4432
sg68
(lp4527
g61
(g82
g63
NtRp4528
(dp4529
g66
(dp4530
g86
g87
ssg75
g4524
sg68
(lp4531
S'keywords'
p4532
asbag61
(g82
g63
NtRp4533
(dp4534
g66
(dp4535
g93
g94
ssg75
g4524
sg68
(lp4536
S':'
asbag61
(g82
g63
NtRp4537
(dp4538
g66
(dp4539
sg75
g4524
sg68
(lp4540
g61
(g62
g63
NtRp4541
(dp4542
g66
(dp4543
g74
I4
ssg75
g4537
sg68
(lp4544
S'web2py, python, framework'
p4545
asbasbasbasbasbasbasbag61
(g77
g63
NtRp4546
(dp4547
g66
(dp4548
sg75
g3254
sg68
(lp4549
g61
(g82
g63
NtRp4550
(dp4551
g66
(dp4552
g86
g87
ssg75
g4546
sg68
(lp4553
S'postprocessing'
p4554
asbag61
(g82
g63
NtRp4555
(dp4556
g66
(dp4557
g93
g94
ssg75
g4546
sg68
(lp4558
S':'
asbag61
(g82
g63
NtRp4559
(dp4560
g66
(dp4561
sg75
g4546
sg68
(lp4562
g61
(g62
g63
NtRp4563
(dp4564
g66
(dp4565
g74
I5
ssg75
g4559
sg68
(lp4566
g61
(g70
g63
NtRp4567
(dp4568
g66
(dp4569
g74
I4
ssg75
Nsg68
(lp4570
sbasbasbasbag61
(g77
g63
NtRp4571
(dp4572
g66
(dp4573
sg75
g3254
sg68
(lp4574
g61
(g82
g63
NtRp4575
(dp4576
g66
(dp4577
g86
g87
ssg75
g4571
sg68
(lp4578
S'session_db'
p4579
asbag61
(g82
g63
NtRp4580
(dp4581
g66
(dp4582
g93
g94
ssg75
g4571
sg68
(lp4583
S':'
asbag61
(g82
g63
NtRp4584
(dp4585
g66
(dp4586
sg75
g4571
sg68
(lp4587
g61
(g62
g63
NtRp4588
(dp4589
g66
(dp4590
g74
I5
ssg75
g4584
sg68
(lp4591
g782
asbasbasbag61
(g77
g63
NtRp4592
(dp4593
g66
(dp4594
sg75
g3254
sg68
(lp4595
g61
(g82
g63
NtRp4596
(dp4597
g66
(dp4598
g86
g87
ssg75
g4592
sg68
(lp4599
S'session_id'
p4600
asbag61
(g82
g63
NtRp4601
(dp4602
g66
(dp4603
g93
g94
ssg75
g4592
sg68
(lp4604
S':'
asbag61
(g82
g63
NtRp4605
(dp4606
g66
(dp4607
sg75
g4592
sg68
(lp4608
g61
(g62
g63
NtRp4609
(dp4610
g66
(dp4611
g74
I5
ssg75
g4605
sg68
(lp4612
S'11:795a76ab-b396-4cc5-8c57-3e2ec1f6de7f'
p4613
asbasbasbag61
(g77
g63
NtRp4614
(dp4615
g66
(dp4616
sg75
g3254
sg68
(lp4617
g61
(g82
g63
NtRp4618
(dp4619
g66
(dp4620
g86
g87
ssg75
g4614
sg68
(lp4621
S'session_id_name'
p4622
asbag61
(g82
g63
NtRp4623
(dp4624
g66
(dp4625
g93
g94
ssg75
g4614
sg68
(lp4626
S':'
asbag61
(g82
g63
NtRp4627
(dp4628
g66
(dp4629
sg75
g4614
sg68
(lp4630
g61
(g62
g63
NtRp4631
(dp4632
g66
(dp4633
g74
I5
ssg75
g4627
sg68
(lp4634
S'session_id_init'
p4635
asbasbasbag61
(g77
g63
NtRp4636
(dp4637
g66
(dp4638
sg75
g3254
sg68
(lp4639
g61
(g82
g63
NtRp4640
(dp4641
g66
(dp4642
g86
g87
ssg75
g4636
sg68
(lp4643
S'status'
p4644
asbag61
(g82
g63
NtRp4645
(dp4646
g66
(dp4647
g93
g94
ssg75
g4636
sg68
(lp4648
S':'
asbag61
(g82
g63
NtRp4649
(dp4650
g66
(dp4651
sg75
g4636
sg68
(lp4652
g61
(g62
g63
NtRp4653
(dp4654
g66
(dp4655
g74
I5
ssg75
g4649
sg68
(lp4656
S'200'
p4657
asbasbasbag61
(g77
g63
NtRp4658
(dp4659
g66
(dp4660
sg75
g3254
sg68
(lp4661
g61
(g82
g63
NtRp4662
(dp4663
g66
(dp4664
g86
g87
ssg75
g4658
sg68
(lp4665
S'subtitle'
p4666
asbag61
(g82
g63
NtRp4667
(dp4668
g66
(dp4669
g93
g94
ssg75
g4658
sg68
(lp4670
S':'
asbag61
(g82
g63
NtRp4671
(dp4672
g66
(dp4673
sg75
g4658
sg68
(lp4674
g61
(g62
g63
NtRp4675
(dp4676
g66
(dp4677
g74
I5
ssg75
g4671
sg68
(lp4678
g3565
(S's\r\x00\x00\x00customize me!'
tRp4679
asbasbasbag61
(g77
g63
NtRp4680
(dp4681
g66
(dp4682
sg75
g3254
sg68
(lp4683
g61
(g82
g63
NtRp4684
(dp4685
g66
(dp4686
g86
g87
ssg75
g4680
sg68
(lp4687
S'title'
p4688
asbag61
(g82
g63
NtRp4689
(dp4690
g66
(dp4691
g93
g94
ssg75
g4680
sg68
(lp4692
S':'
asbag61
(g82
g63
NtRp4693
(dp4694
g66
(dp4695
sg75
g4680
sg68
(lp4696
g61
(g62
g63
NtRp4697
(dp4698
g66
(dp4699
g74
I5
ssg75
g4693
sg68
(lp4700
S'Init'
p4701
asbasbasbag61
(g77
g63
NtRp4702
(dp4703
g66
(dp4704
sg75
g3254
sg68
(lp4705
g61
(g82
g63
NtRp4706
(dp4707
g66
(dp4708
g86
g87
ssg75
g4702
sg68
(lp4709
g2294
asbag61
(g82
g63
NtRp4710
(dp4711
g66
(dp4712
g93
g94
ssg75
g4702
sg68
(lp4713
S':'
asbag61
(g82
g63
NtRp4714
(dp4715
g66
(dp4716
sg75
g4702
sg68
(lp4717
g61
(g62
g63
NtRp4718
(dp4719
g66
(dp4720
g74
I5
ssg75
g4714
sg68
(lp4721
g2307
asbasbasbag61
(g77
g63
NtRp4722
(dp4723
g66
(dp4724
sg75
g3254
sg68
(lp4725
g61
(g82
g63
NtRp4726
(dp4727
g66
(dp4728
g86
g87
ssg75
g4722
sg68
(lp4729
S'view'
p4730
asbag61
(g82
g63
NtRp4731
(dp4732
g66
(dp4733
g93
g94
ssg75
g4722
sg68
(lp4734
S':'
asbag61
(g82
g63
NtRp4735
(dp4736
g66
(dp4737
sg75
g4722
sg68
(lp4738
g61
(g62
g63
NtRp4739
(dp4740
g66
(dp4741
g74
I5
ssg75
g4735
sg68
(lp4742
S'default/invitation.html'
p4743
asbasbasbasbasbsS'locals'
p4744
(dp4745
S'name'
p4746
S"'first_name'"
p4747
sS'fields'
p4748
S"{'email': 'test', 'first_name': 'john', 'last_name': 'doe', 'password': '12923092f4d9e86e56018b9cdd790947'}"
p4749
sS'self'
p4750
S"<Table {'_db': <DAL {'auth_event': <Table {'orig...on_key': <gluon.dal.Field object at 0x0400EBD0>}>"
p4751
sS'update'
p4752
g104
sS'new_fields_names'
p4753
S"['password']"
p4754
sS'new_fields'
p4755
S"[(<gluon.dal.Field object at 0x0400EC50>, '12923092f4d9e86e56018b9cdd790947')]"
p4756
sssS'traceback'
p4757
S'Traceback (most recent call last):\n  File "gluon/restricted.py", line 205, in restricted\n  File "C:\\Users\\Bussiere\\Dropbox\\Projets\\jackpoint\\web2py\\applications\\init\\controllers/default.py", line 335, in <module>\n  File "gluon/globals.py", line 173, in <lambda>\n  File "C:\\Users\\Bussiere\\Dropbox\\Projets\\jackpoint\\web2py\\applications\\init\\controllers/default.py", line 273, in invitation\n  File "C:\\Users\\Bussiere\\Dropbox\\Projets\\jackpoint\\web2py\\applications\\init\\controllers/default.py", line 168, in ensurefirstuser\n  File "gluon/dal.py", line 6829, in insert\n  File "gluon/dal.py", line 6805, in _listify\nSyntaxError: Field first_name does not belong to the table\n'
p4758
s.