(dp1
S'output'
p2
S"<type 'exceptions.NameError'> name 'faq' is not defined"
p3
sS'layer'
p4
S'C:\\Users\\Bussiere\\Dropbox\\Projets\\jackpoint\\web2py\\applications\\init\\views\\default/index.html'
p5
sS'code'
p6
S'response.write(\'\\n<!DOCTYPE html PUBLIC "-//W3C//DTD XHTML 1.0 Transitional//EN" "http&nbsp;://www.w3.org/TR/xhtml1/DTD/xhtml1-transitional.dtd">\\n<html xmlns="http&nbsp;://www.w3.org/1999/xhtml" lang="fr" xml:lang="fr">\\n<head>\\n  <meta http-equiv="Content-Type" content="text/html; charset=UTF-8"/>\\n  <title>Projet Jackpoint</title> \\n</head>\\n<style>\\nbody{\\ncolor:#b7d14e;\\nbackground-color:#000f00;\\nmargin:4px;\\nmargin-top:0px;\\nfont-family:monospace;\\n}\\na:link{\\ncolor:#94d118;\\n}\\na:visited{\\ncolor:#94a443;\\n}</style>\\n\', escape=False)\nresponse.write(\'\\n<body>\\n<pre>\\n   __             _                _       _   \\n   \\\\ \\\\  __ _  ___| | ___ __   ___ (_)_ __ | |_ \\n    \\\\ \\\\/ _` |/ __| |/ / \\\'_ \\\\ / _ \\\\| | \\\'_ \\\\| __|\\n /\\\\_/ / (_| | (__|   <| |_) | (_) | | | | | |_ \\n \\\\___/ \\\\__,_|\\\\___|_|\\\\_\\\\ .__/ \\\\___/|_|_| |_|\\\\__|\\n                      |_|   \\n</pre>\\n<div id="web2py_user_form">\\n  \', escape=False)\nresponse.write(form)\nresponse.write(\'\\n  \', escape=False)\nif request.args(0)==\'login\':\n    response.write(\'\\n  \', escape=False)\n    if not \'register\' in auth.settings.actions_disabled:\n        response.write(\'\\n  <br/>\\n  \', escape=False)\n        pass\n    response.write(\'\\n  \', escape=False)\n    pass\nresponse.write(\'\\n\\n\\n\\n</div>\\n<a href="../invitation">Vous avez une invitation ? Follow the rabbit ...</a><br>\\n<a href="\', escape=False)\nfaq\nresponse.write(\'">FAQ</a>\\n<script language="javascript"><!--\\n      jQuery("#web2py_user_form input:visible:enabled:first").focus();\\n      //--></script>\\n\\n</body>\\n\', escape=False)'
p7
sS'snapshot'
p8
(dp9
S'exception'
p10
(dp11
S'__hash__'
p12
S"<method-wrapper '__hash__' of exceptions.NameError object at 0x045C5E18>"
p13
sS'__setattr__'
p14
S"<method-wrapper '__setattr__' of exceptions.NameError object at 0x045C5E18>"
p15
sS'__reduce_ex__'
p16
S'<built-in method __reduce_ex__ of exceptions.NameError object at 0x045C5E18>'
p17
sS'__getslice__'
p18
S"<method-wrapper '__getslice__' of exceptions.NameError object at 0x045C5E18>"
p19
sS'__getitem__'
p20
S"<method-wrapper '__getitem__' of exceptions.NameError object at 0x045C5E18>"
p21
sS'__setstate__'
p22
S'<built-in method __setstate__ of exceptions.NameError object at 0x045C5E18>'
p23
sS'__reduce__'
p24
S'<built-in method __reduce__ of exceptions.NameError object at 0x045C5E18>'
p25
sS'__str__'
p26
S"<method-wrapper '__str__' of exceptions.NameError object at 0x045C5E18>"
p27
sS'args'
p28
S'("name \'faq\' is not defined",)'
p29
sS'__getattribute__'
p30
S"<method-wrapper '__getattribute__' of exceptions.NameError object at 0x045C5E18>"
p31
sS'__class__'
p32
S"<type 'exceptions.NameError'>"
p33
sS'__delattr__'
p34
S"<method-wrapper '__delattr__' of exceptions.NameError object at 0x045C5E18>"
p35
sS'__repr__'
p36
S"<method-wrapper '__repr__' of exceptions.NameError object at 0x045C5E18>"
p37
sS'__dict__'
p38
S'{}'
p39
sS'__doc__'
p40
S"'Name not found globally.'"
p41
sS'__init__'
p42
S"<method-wrapper '__init__' of exceptions.NameError object at 0x045C5E18>"
p43
sS'__new__'
p44
S'<built-in method __new__ of type object at 0x1E1CD8D8>'
p45
ssS'evalue'
p46
S"name 'faq' is not defined"
p47
sS'request'
p48
ccopy_reg
_reconstructor
p49
(cgluon.html
BEAUTIFY
p50
c__builtin__
object
p51
NtRp52
(dp53
S'attributes'
p54
(dp55
sS'components'
p56
(lp57
g49
(cgluon.html
TABLE
p58
g51
NtRp59
(dp60
g54
(dp61
S'level'
p62
I5
ssS'parent'
p63
Nsg56
(lp64
g49
(cgluon.html
TR
p65
g51
NtRp66
(dp67
g54
(dp68
sg63
g59
sg56
(lp69
g49
(cgluon.html
TD
p70
g51
NtRp71
(dp72
g54
(dp73
S'_style'
p74
S'font-weight:bold;vertical-align:top'
p75
ssg63
g66
sg56
(lp76
S'ajax'
p77
asbag49
(g70
g51
NtRp78
(dp79
g54
(dp80
S'_valign'
p81
S'top'
p82
ssg63
g66
sg56
(lp83
S':'
asbag49
(g70
g51
NtRp84
(dp85
g54
(dp86
sg63
g66
sg56
(lp87
g49
(g50
g51
NtRp88
(dp89
g54
(dp90
g62
I5
ssg63
g84
sg56
(lp91
S'False'
p92
asbasbasbag49
(g65
g51
NtRp93
(dp94
g54
(dp95
sg63
g59
sg56
(lp96
g49
(g70
g51
NtRp97
(dp98
g54
(dp99
g74
g75
ssg63
g93
sg56
(lp100
S'application'
p101
asbag49
(g70
g51
NtRp102
(dp103
g54
(dp104
g81
g82
ssg63
g93
sg56
(lp105
S':'
asbag49
(g70
g51
NtRp106
(dp107
g54
(dp108
sg63
g93
sg56
(lp109
g49
(g50
g51
NtRp110
(dp111
g54
(dp112
g62
I5
ssg63
g106
sg56
(lp113
S'init'
p114
asbasbasbag49
(g65
g51
NtRp115
(dp116
g54
(dp117
sg63
g59
sg56
(lp118
g49
(g70
g51
NtRp119
(dp120
g54
(dp121
g74
g75
ssg63
g115
sg56
(lp122
g28
asbag49
(g70
g51
NtRp123
(dp124
g54
(dp125
g81
g82
ssg63
g115
sg56
(lp126
S':'
asbag49
(g70
g51
NtRp127
(dp128
g54
(dp129
sg63
g115
sg56
(lp130
g49
(g50
g51
NtRp131
(dp132
g54
(dp133
g62
I5
ssg63
g127
sg56
(lp134
g49
(g58
g51
NtRp135
(dp136
g54
(dp137
g62
I4
ssg63
Nsg56
(lp138
sbasbasbasbag49
(g65
g51
NtRp139
(dp140
g54
(dp141
sg63
g59
sg56
(lp142
g49
(g70
g51
NtRp143
(dp144
g54
(dp145
g74
g75
ssg63
g139
sg56
(lp146
S'body'
p147
asbag49
(g70
g51
NtRp148
(dp149
g54
(dp150
g81
g82
ssg63
g139
sg56
(lp151
S':'
asbag49
(g70
g51
NtRp152
(dp153
g54
(dp154
sg63
g139
sg56
(lp155
g49
(g50
g51
NtRp156
(dp157
g54
(dp158
g62
I5
ssg63
g152
sg56
(lp159
S'<cStringIO.StringO object at 0x04466B60>'
p160
asbasbasbag49
(g65
g51
NtRp161
(dp162
g54
(dp163
sg63
g59
sg56
(lp164
g49
(g70
g51
NtRp165
(dp166
g54
(dp167
g74
g75
ssg63
g161
sg56
(lp168
S'client'
p169
asbag49
(g70
g51
NtRp170
(dp171
g54
(dp172
g81
g82
ssg63
g161
sg56
(lp173
S':'
asbag49
(g70
g51
NtRp174
(dp175
g54
(dp176
sg63
g161
sg56
(lp177
g49
(g50
g51
NtRp178
(dp179
g54
(dp180
g62
I5
ssg63
g174
sg56
(lp181
S'127.0.0.1'
p182
asbasbasbag49
(g65
g51
NtRp183
(dp184
g54
(dp185
sg63
g59
sg56
(lp186
g49
(g70
g51
NtRp187
(dp188
g54
(dp189
g74
g75
ssg63
g183
sg56
(lp190
S'controller'
p191
asbag49
(g70
g51
NtRp192
(dp193
g54
(dp194
g81
g82
ssg63
g183
sg56
(lp195
S':'
asbag49
(g70
g51
NtRp196
(dp197
g54
(dp198
sg63
g183
sg56
(lp199
g49
(g50
g51
NtRp200
(dp201
g54
(dp202
g62
I5
ssg63
g196
sg56
(lp203
S'default'
p204
asbasbasbag49
(g65
g51
NtRp205
(dp206
g54
(dp207
sg63
g59
sg56
(lp208
g49
(g70
g51
NtRp209
(dp210
g54
(dp211
g74
g75
ssg63
g205
sg56
(lp212
S'cookies'
p213
asbag49
(g70
g51
NtRp214
(dp215
g54
(dp216
g81
g82
ssg63
g205
sg56
(lp217
S':'
asbag49
(g70
g51
NtRp218
(dp219
g54
(dp220
sg63
g205
sg56
(lp221
g49
(g50
g51
NtRp222
(dp223
g54
(dp224
g62
I5
ssg63
g218
sg56
(lp225
g49
(g58
g51
NtRp226
(dp227
g54
(dp228
g62
I4
ssg63
Nsg56
(lp229
g49
(g65
g51
NtRp230
(dp231
g54
(dp232
sg63
g226
sg56
(lp233
g49
(g70
g51
NtRp234
(dp235
g54
(dp236
g74
g75
ssg63
g230
sg56
(lp237
S'session_id_admin'
p238
asbag49
(g70
g51
NtRp239
(dp240
g54
(dp241
g81
g82
ssg63
g230
sg56
(lp242
S':'
asbag49
(g70
g51
NtRp243
(dp244
g54
(dp245
sg63
g230
sg56
(lp246
g49
(g50
g51
NtRp247
(dp248
g54
(dp249
g62
I4
ssg63
g243
sg56
(lp250
g49
(g58
g51
NtRp251
(dp252
g54
(dp253
g62
I3
ssg63
Nsg56
(lp254
g49
(g65
g51
NtRp255
(dp256
g54
(dp257
sg63
g251
sg56
(lp258
g49
(g70
g51
NtRp259
(dp260
g54
(dp261
g74
g75
ssg63
g255
sg56
(lp262
S'comment'
p263
asbag49
(g70
g51
NtRp264
(dp265
g54
(dp266
g81
g82
ssg63
g255
sg56
(lp267
S':'
asbag49
(g70
g51
NtRp268
(dp269
g54
(dp270
sg63
g255
sg56
(lp271
g49
(g50
g51
NtRp272
(dp273
g54
(dp274
g62
I3
ssg63
g268
sg56
(lp275
S''
asbasbasbag49
(g65
g51
NtRp276
(dp277
g54
(dp278
sg63
g251
sg56
(lp279
g49
(g70
g51
NtRp280
(dp281
g54
(dp282
g74
g75
ssg63
g276
sg56
(lp283
S'domain'
p284
asbag49
(g70
g51
NtRp285
(dp286
g54
(dp287
g81
g82
ssg63
g276
sg56
(lp288
S':'
asbag49
(g70
g51
NtRp289
(dp290
g54
(dp291
sg63
g276
sg56
(lp292
g49
(g50
g51
NtRp293
(dp294
g54
(dp295
g62
I3
ssg63
g289
sg56
(lp296
S''
asbasbasbag49
(g65
g51
NtRp297
(dp298
g54
(dp299
sg63
g251
sg56
(lp300
g49
(g70
g51
NtRp301
(dp302
g54
(dp303
g74
g75
ssg63
g297
sg56
(lp304
S'expires'
p305
asbag49
(g70
g51
NtRp306
(dp307
g54
(dp308
g81
g82
ssg63
g297
sg56
(lp309
S':'
asbag49
(g70
g51
NtRp310
(dp311
g54
(dp312
sg63
g297
sg56
(lp313
g49
(g50
g51
NtRp314
(dp315
g54
(dp316
g62
I3
ssg63
g310
sg56
(lp317
S''
asbasbasbag49
(g65
g51
NtRp318
(dp319
g54
(dp320
sg63
g251
sg56
(lp321
g49
(g70
g51
NtRp322
(dp323
g54
(dp324
g74
g75
ssg63
g318
sg56
(lp325
S'max-age'
p326
asbag49
(g70
g51
NtRp327
(dp328
g54
(dp329
g81
g82
ssg63
g318
sg56
(lp330
S':'
asbag49
(g70
g51
NtRp331
(dp332
g54
(dp333
sg63
g318
sg56
(lp334
g49
(g50
g51
NtRp335
(dp336
g54
(dp337
g62
I3
ssg63
g331
sg56
(lp338
S''
asbasbasbag49
(g65
g51
NtRp339
(dp340
g54
(dp341
sg63
g251
sg56
(lp342
g49
(g70
g51
NtRp343
(dp344
g54
(dp345
g74
g75
ssg63
g339
sg56
(lp346
S'path'
p347
asbag49
(g70
g51
NtRp348
(dp349
g54
(dp350
g81
g82
ssg63
g339
sg56
(lp351
S':'
asbag49
(g70
g51
NtRp352
(dp353
g54
(dp354
sg63
g339
sg56
(lp355
g49
(g50
g51
NtRp356
(dp357
g54
(dp358
g62
I3
ssg63
g352
sg56
(lp359
S''
asbasbasbag49
(g65
g51
NtRp360
(dp361
g54
(dp362
sg63
g251
sg56
(lp363
g49
(g70
g51
NtRp364
(dp365
g54
(dp366
g74
g75
ssg63
g360
sg56
(lp367
S'secure'
p368
asbag49
(g70
g51
NtRp369
(dp370
g54
(dp371
g81
g82
ssg63
g360
sg56
(lp372
S':'
asbag49
(g70
g51
NtRp373
(dp374
g54
(dp375
sg63
g360
sg56
(lp376
g49
(g50
g51
NtRp377
(dp378
g54
(dp379
g62
I3
ssg63
g373
sg56
(lp380
S''
asbasbasbag49
(g65
g51
NtRp381
(dp382
g54
(dp383
sg63
g251
sg56
(lp384
g49
(g70
g51
NtRp385
(dp386
g54
(dp387
g74
g75
ssg63
g381
sg56
(lp388
S'version'
p389
asbag49
(g70
g51
NtRp390
(dp391
g54
(dp392
g81
g82
ssg63
g381
sg56
(lp393
S':'
asbag49
(g70
g51
NtRp394
(dp395
g54
(dp396
sg63
g381
sg56
(lp397
g49
(g50
g51
NtRp398
(dp399
g54
(dp400
g62
I3
ssg63
g394
sg56
(lp401
S''
asbasbasbasbasbasbasbag49
(g65
g51
NtRp402
(dp403
g54
(dp404
sg63
g226
sg56
(lp405
g49
(g70
g51
NtRp406
(dp407
g54
(dp408
g74
g75
ssg63
g402
sg56
(lp409
S'session_id_init'
p410
asbag49
(g70
g51
NtRp411
(dp412
g54
(dp413
g81
g82
ssg63
g402
sg56
(lp414
S':'
asbag49
(g70
g51
NtRp415
(dp416
g54
(dp417
sg63
g402
sg56
(lp418
g49
(g50
g51
NtRp419
(dp420
g54
(dp421
g62
I4
ssg63
g415
sg56
(lp422
g49
(g58
g51
NtRp423
(dp424
g54
(dp425
g62
I3
ssg63
Nsg56
(lp426
g49
(g65
g51
NtRp427
(dp428
g54
(dp429
sg63
g423
sg56
(lp430
g49
(g70
g51
NtRp431
(dp432
g54
(dp433
g74
g75
ssg63
g427
sg56
(lp434
g263
asbag49
(g70
g51
NtRp435
(dp436
g54
(dp437
g81
g82
ssg63
g427
sg56
(lp438
S':'
asbag49
(g70
g51
NtRp439
(dp440
g54
(dp441
sg63
g427
sg56
(lp442
g49
(g50
g51
NtRp443
(dp444
g54
(dp445
g62
I3
ssg63
g439
sg56
(lp446
S''
asbasbasbag49
(g65
g51
NtRp447
(dp448
g54
(dp449
sg63
g423
sg56
(lp450
g49
(g70
g51
NtRp451
(dp452
g54
(dp453
g74
g75
ssg63
g447
sg56
(lp454
g284
asbag49
(g70
g51
NtRp455
(dp456
g54
(dp457
g81
g82
ssg63
g447
sg56
(lp458
S':'
asbag49
(g70
g51
NtRp459
(dp460
g54
(dp461
sg63
g447
sg56
(lp462
g49
(g50
g51
NtRp463
(dp464
g54
(dp465
g62
I3
ssg63
g459
sg56
(lp466
S''
asbasbasbag49
(g65
g51
NtRp467
(dp468
g54
(dp469
sg63
g423
sg56
(lp470
g49
(g70
g51
NtRp471
(dp472
g54
(dp473
g74
g75
ssg63
g467
sg56
(lp474
g305
asbag49
(g70
g51
NtRp475
(dp476
g54
(dp477
g81
g82
ssg63
g467
sg56
(lp478
S':'
asbag49
(g70
g51
NtRp479
(dp480
g54
(dp481
sg63
g467
sg56
(lp482
g49
(g50
g51
NtRp483
(dp484
g54
(dp485
g62
I3
ssg63
g479
sg56
(lp486
S''
asbasbasbag49
(g65
g51
NtRp487
(dp488
g54
(dp489
sg63
g423
sg56
(lp490
g49
(g70
g51
NtRp491
(dp492
g54
(dp493
g74
g75
ssg63
g487
sg56
(lp494
g326
asbag49
(g70
g51
NtRp495
(dp496
g54
(dp497
g81
g82
ssg63
g487
sg56
(lp498
S':'
asbag49
(g70
g51
NtRp499
(dp500
g54
(dp501
sg63
g487
sg56
(lp502
g49
(g50
g51
NtRp503
(dp504
g54
(dp505
g62
I3
ssg63
g499
sg56
(lp506
S''
asbasbasbag49
(g65
g51
NtRp507
(dp508
g54
(dp509
sg63
g423
sg56
(lp510
g49
(g70
g51
NtRp511
(dp512
g54
(dp513
g74
g75
ssg63
g507
sg56
(lp514
g347
asbag49
(g70
g51
NtRp515
(dp516
g54
(dp517
g81
g82
ssg63
g507
sg56
(lp518
S':'
asbag49
(g70
g51
NtRp519
(dp520
g54
(dp521
sg63
g507
sg56
(lp522
g49
(g50
g51
NtRp523
(dp524
g54
(dp525
g62
I3
ssg63
g519
sg56
(lp526
S''
asbasbasbag49
(g65
g51
NtRp527
(dp528
g54
(dp529
sg63
g423
sg56
(lp530
g49
(g70
g51
NtRp531
(dp532
g54
(dp533
g74
g75
ssg63
g527
sg56
(lp534
g368
asbag49
(g70
g51
NtRp535
(dp536
g54
(dp537
g81
g82
ssg63
g527
sg56
(lp538
S':'
asbag49
(g70
g51
NtRp539
(dp540
g54
(dp541
sg63
g527
sg56
(lp542
g49
(g50
g51
NtRp543
(dp544
g54
(dp545
g62
I3
ssg63
g539
sg56
(lp546
S''
asbasbasbag49
(g65
g51
NtRp547
(dp548
g54
(dp549
sg63
g423
sg56
(lp550
g49
(g70
g51
NtRp551
(dp552
g54
(dp553
g74
g75
ssg63
g547
sg56
(lp554
g389
asbag49
(g70
g51
NtRp555
(dp556
g54
(dp557
g81
g82
ssg63
g547
sg56
(lp558
S':'
asbag49
(g70
g51
NtRp559
(dp560
g54
(dp561
sg63
g547
sg56
(lp562
g49
(g50
g51
NtRp563
(dp564
g54
(dp565
g62
I3
ssg63
g559
sg56
(lp566
S''
asbasbasbasbasbasbasbasbasbasbasbag49
(g65
g51
NtRp567
(dp568
g54
(dp569
sg63
g59
sg56
(lp570
g49
(g70
g51
NtRp571
(dp572
g54
(dp573
g74
g75
ssg63
g567
sg56
(lp574
S'env'
p575
asbag49
(g70
g51
NtRp576
(dp577
g54
(dp578
g81
g82
ssg63
g567
sg56
(lp579
S':'
asbag49
(g70
g51
NtRp580
(dp581
g54
(dp582
sg63
g567
sg56
(lp583
g49
(g50
g51
NtRp584
(dp585
g54
(dp586
g62
I5
ssg63
g580
sg56
(lp587
g49
(g58
g51
NtRp588
(dp589
g54
(dp590
g62
I4
ssg63
Nsg56
(lp591
g49
(g65
g51
NtRp592
(dp593
g54
(dp594
sg63
g588
sg56
(lp595
g49
(g70
g51
NtRp596
(dp597
g54
(dp598
g74
g75
ssg63
g592
sg56
(lp599
S'app_folders'
p600
asbag49
(g70
g51
NtRp601
(dp602
g54
(dp603
g81
g82
ssg63
g592
sg56
(lp604
S':'
asbag49
(g70
g51
NtRp605
(dp606
g54
(dp607
sg63
g592
sg56
(lp608
g49
(g50
g51
NtRp609
(dp610
g54
(dp611
g62
I4
ssg63
g605
sg56
(lp612
S"set(['C:\\\\Users\\\\Bussiere\\\\Dropbox\\\\Projets\\\\jackpoint\\\\web2py\\\\applications\\\\init\\\\', 'C:\\\\Users\\\\Bussiere\\\\Dropbox\\\\Projets\\\\jackpoint\\\\web2py\\\\applications\\\\admin\\\\'])"
p613
asbasbasbag49
(g65
g51
NtRp614
(dp615
g54
(dp616
sg63
g588
sg56
(lp617
g49
(g70
g51
NtRp618
(dp619
g54
(dp620
g74
g75
ssg63
g614
sg56
(lp621
S'applications_parent'
p622
asbag49
(g70
g51
NtRp623
(dp624
g54
(dp625
g81
g82
ssg63
g614
sg56
(lp626
S':'
asbag49
(g70
g51
NtRp627
(dp628
g54
(dp629
sg63
g614
sg56
(lp630
g49
(g50
g51
NtRp631
(dp632
g54
(dp633
g62
I4
ssg63
g627
sg56
(lp634
S'C:\\Users\\Bussiere\\Dropbox\\Projets\\jackpoint\\web2py'
p635
asbasbasbag49
(g65
g51
NtRp636
(dp637
g54
(dp638
sg63
g588
sg56
(lp639
g49
(g70
g51
NtRp640
(dp641
g54
(dp642
g74
g75
ssg63
g636
sg56
(lp643
S'cmd_args'
p644
asbag49
(g70
g51
NtRp645
(dp646
g54
(dp647
g81
g82
ssg63
g636
sg56
(lp648
S':'
asbag49
(g70
g51
NtRp649
(dp650
g54
(dp651
sg63
g636
sg56
(lp652
g49
(g50
g51
NtRp653
(dp654
g54
(dp655
g62
I4
ssg63
g649
sg56
(lp656
g49
(g58
g51
NtRp657
(dp658
g54
(dp659
g62
I3
ssg63
Nsg56
(lp660
sbasbasbasbag49
(g65
g51
NtRp661
(dp662
g54
(dp663
sg63
g588
sg56
(lp664
g49
(g70
g51
NtRp665
(dp666
g54
(dp667
g74
g75
ssg63
g661
sg56
(lp668
S'cmd_options'
p669
asbag49
(g70
g51
NtRp670
(dp671
g54
(dp672
g81
g82
ssg63
g661
sg56
(lp673
S':'
asbag49
(g70
g51
NtRp674
(dp675
g54
(dp676
sg63
g661
sg56
(lp677
g49
(g50
g51
NtRp678
(dp679
g54
(dp680
g62
I4
ssg63
g674
sg56
(lp681
S"<Values at 0x3c90f58: {'verbose': False, 'ip': '127.0.0.1', 'shutdown_timeout': 5, 'taskbar': False, 'nocron': False, 'pid_filename': 'httpserver.pid', 'maxthreads': None, 'softcron': False, 'server_name': 'Batou', 'bpython': False, 'nogui': False, 'port': 8000, 'extcron': False, 'debuglevel': 30, 'test': None, 'folder': 'C:\\\\Users\\\\Bussiere\\\\Dropbox\\\\Projets\\\\jackpoint\\\\web2py', 'config': '', 'import_models': False, 'winservice': '', 'shell': None, 'run': '', 'log_filename': 'httpserver.log', 'args': [''], 'socket_timeout': 5, 'ssl_ca_certificate': None, 'scheduler': None, 'profiler_filename': None, 'ssl_private_key': '', 'password': '<ask>', 'request_queue_size': 5, 'ssl_certificate': '', 'cronjob': False, 'numthreads': None, 'quiet': False, 'interfaces': None, 'minthreads': None, 'timeout': 10, 'plain': False, 'nobanner': False}>"
p682
asbasbasbag49
(g65
g51
NtRp683
(dp684
g54
(dp685
sg63
g588
sg56
(lp686
g49
(g70
g51
NtRp687
(dp688
g54
(dp689
g74
g75
ssg63
g683
sg56
(lp690
S'db_sessions'
p691
asbag49
(g70
g51
NtRp692
(dp693
g54
(dp694
g81
g82
ssg63
g683
sg56
(lp695
S':'
asbag49
(g70
g51
NtRp696
(dp697
g54
(dp698
sg63
g683
sg56
(lp699
g49
(g50
g51
NtRp700
(dp701
g54
(dp702
g62
I4
ssg63
g696
sg56
(lp703
S"set(['init'])"
p704
asbasbasbag49
(g65
g51
NtRp705
(dp706
g54
(dp707
sg63
g588
sg56
(lp708
g49
(g70
g51
NtRp709
(dp710
g54
(dp711
g74
g75
ssg63
g705
sg56
(lp712
S'debugging'
p713
asbag49
(g70
g51
NtRp714
(dp715
g54
(dp716
g81
g82
ssg63
g705
sg56
(lp717
S':'
asbag49
(g70
g51
NtRp718
(dp719
g54
(dp720
sg63
g705
sg56
(lp721
g49
(g50
g51
NtRp722
(dp723
g54
(dp724
g62
I4
ssg63
g718
sg56
(lp725
S'True'
p726
asbasbasbag49
(g65
g51
NtRp727
(dp728
g54
(dp729
sg63
g588
sg56
(lp730
g49
(g70
g51
NtRp731
(dp732
g54
(dp733
g74
g75
ssg63
g727
sg56
(lp734
S'gluon_parent'
p735
asbag49
(g70
g51
NtRp736
(dp737
g54
(dp738
g81
g82
ssg63
g727
sg56
(lp739
S':'
asbag49
(g70
g51
NtRp740
(dp741
g54
(dp742
sg63
g727
sg56
(lp743
g49
(g50
g51
NtRp744
(dp745
g54
(dp746
g62
I4
ssg63
g740
sg56
(lp747
S'C:\\Users\\Bussiere\\Dropbox\\Projets\\jackpoint\\web2py'
p748
asbasbasbag49
(g65
g51
NtRp749
(dp750
g54
(dp751
sg63
g588
sg56
(lp752
g49
(g70
g51
NtRp753
(dp754
g54
(dp755
g74
g75
ssg63
g749
sg56
(lp756
S'http_accept'
p757
asbag49
(g70
g51
NtRp758
(dp759
g54
(dp760
g81
g82
ssg63
g749
sg56
(lp761
S':'
asbag49
(g70
g51
NtRp762
(dp763
g54
(dp764
sg63
g749
sg56
(lp765
g49
(g50
g51
NtRp766
(dp767
g54
(dp768
g62
I4
ssg63
g762
sg56
(lp769
S'text/html,application/xhtml+xml,application/xml;q=0.9,*/*;q=0.8'
p770
asbasbasbag49
(g65
g51
NtRp771
(dp772
g54
(dp773
sg63
g588
sg56
(lp774
g49
(g70
g51
NtRp775
(dp776
g54
(dp777
g74
g75
ssg63
g771
sg56
(lp778
S'http_accept_charset'
p779
asbag49
(g70
g51
NtRp780
(dp781
g54
(dp782
g81
g82
ssg63
g771
sg56
(lp783
S':'
asbag49
(g70
g51
NtRp784
(dp785
g54
(dp786
sg63
g771
sg56
(lp787
g49
(g50
g51
NtRp788
(dp789
g54
(dp790
g62
I4
ssg63
g784
sg56
(lp791
S'ISO-8859-1,utf-8;q=0.7,*;q=0.3'
p792
asbasbasbag49
(g65
g51
NtRp793
(dp794
g54
(dp795
sg63
g588
sg56
(lp796
g49
(g70
g51
NtRp797
(dp798
g54
(dp799
g74
g75
ssg63
g793
sg56
(lp800
S'http_accept_encoding'
p801
asbag49
(g70
g51
NtRp802
(dp803
g54
(dp804
g81
g82
ssg63
g793
sg56
(lp805
S':'
asbag49
(g70
g51
NtRp806
(dp807
g54
(dp808
sg63
g793
sg56
(lp809
g49
(g50
g51
NtRp810
(dp811
g54
(dp812
g62
I4
ssg63
g806
sg56
(lp813
S'gzip,deflate,sdch'
p814
asbasbasbag49
(g65
g51
NtRp815
(dp816
g54
(dp817
sg63
g588
sg56
(lp818
g49
(g70
g51
NtRp819
(dp820
g54
(dp821
g74
g75
ssg63
g815
sg56
(lp822
S'http_accept_language'
p823
asbag49
(g70
g51
NtRp824
(dp825
g54
(dp826
g81
g82
ssg63
g815
sg56
(lp827
S':'
asbag49
(g70
g51
NtRp828
(dp829
g54
(dp830
sg63
g815
sg56
(lp831
g49
(g50
g51
NtRp832
(dp833
g54
(dp834
g62
I4
ssg63
g828
sg56
(lp835
S'en-US,en;q=0.8'
p836
asbasbasbag49
(g65
g51
NtRp837
(dp838
g54
(dp839
sg63
g588
sg56
(lp840
g49
(g70
g51
NtRp841
(dp842
g54
(dp843
g74
g75
ssg63
g837
sg56
(lp844
S'http_cache_control'
p845
asbag49
(g70
g51
NtRp846
(dp847
g54
(dp848
g81
g82
ssg63
g837
sg56
(lp849
S':'
asbag49
(g70
g51
NtRp850
(dp851
g54
(dp852
sg63
g837
sg56
(lp853
g49
(g50
g51
NtRp854
(dp855
g54
(dp856
g62
I4
ssg63
g850
sg56
(lp857
S'max-age=0'
p858
asbasbasbag49
(g65
g51
NtRp859
(dp860
g54
(dp861
sg63
g588
sg56
(lp862
g49
(g70
g51
NtRp863
(dp864
g54
(dp865
g74
g75
ssg63
g859
sg56
(lp866
S'http_connection'
p867
asbag49
(g70
g51
NtRp868
(dp869
g54
(dp870
g81
g82
ssg63
g859
sg56
(lp871
S':'
asbag49
(g70
g51
NtRp872
(dp873
g54
(dp874
sg63
g859
sg56
(lp875
g49
(g50
g51
NtRp876
(dp877
g54
(dp878
g62
I4
ssg63
g872
sg56
(lp879
S'keep-alive'
p880
asbasbasbag49
(g65
g51
NtRp881
(dp882
g54
(dp883
sg63
g588
sg56
(lp884
g49
(g70
g51
NtRp885
(dp886
g54
(dp887
g74
g75
ssg63
g881
sg56
(lp888
S'http_cookie'
p889
asbag49
(g70
g51
NtRp890
(dp891
g54
(dp892
g81
g82
ssg63
g881
sg56
(lp893
S':'
asbag49
(g70
g51
NtRp894
(dp895
g54
(dp896
sg63
g881
sg56
(lp897
g49
(g50
g51
NtRp898
(dp899
g54
(dp900
g62
I4
ssg63
g894
sg56
(lp901
S'session_id_admin=127.0.0.1-bc287d71-f02e-4e2d-b01e-4955a088311d; session_id_init="3:2b73f260-02c9-42de-8e78-fd786b36b8d3"'
p902
asbasbasbag49
(g65
g51
NtRp903
(dp904
g54
(dp905
sg63
g588
sg56
(lp906
g49
(g70
g51
NtRp907
(dp908
g54
(dp909
g74
g75
ssg63
g903
sg56
(lp910
S'http_host'
p911
asbag49
(g70
g51
NtRp912
(dp913
g54
(dp914
g81
g82
ssg63
g903
sg56
(lp915
S':'
asbag49
(g70
g51
NtRp916
(dp917
g54
(dp918
sg63
g903
sg56
(lp919
g49
(g50
g51
NtRp920
(dp921
g54
(dp922
g62
I4
ssg63
g916
sg56
(lp923
S'127.0.0.1:8000'
p924
asbasbasbag49
(g65
g51
NtRp925
(dp926
g54
(dp927
sg63
g588
sg56
(lp928
g49
(g70
g51
NtRp929
(dp930
g54
(dp931
g74
g75
ssg63
g925
sg56
(lp932
S'http_referer'
p933
asbag49
(g70
g51
NtRp934
(dp935
g54
(dp936
g81
g82
ssg63
g925
sg56
(lp937
S':'
asbag49
(g70
g51
NtRp938
(dp939
g54
(dp940
sg63
g925
sg56
(lp941
g49
(g50
g51
NtRp942
(dp943
g54
(dp944
g62
I4
ssg63
g938
sg56
(lp945
S'http://127.0.0.1:8000/'
p946
asbasbasbag49
(g65
g51
NtRp947
(dp948
g54
(dp949
sg63
g588
sg56
(lp950
g49
(g70
g51
NtRp951
(dp952
g54
(dp953
g74
g75
ssg63
g947
sg56
(lp954
S'http_user_agent'
p955
asbag49
(g70
g51
NtRp956
(dp957
g54
(dp958
g81
g82
ssg63
g947
sg56
(lp959
S':'
asbag49
(g70
g51
NtRp960
(dp961
g54
(dp962
sg63
g947
sg56
(lp963
g49
(g50
g51
NtRp964
(dp965
g54
(dp966
g62
I4
ssg63
g960
sg56
(lp967
S'Mozilla/5.0 (Windows NT 6.1; WOW64) AppleWebKit/535.18 (KHTML, like Gecko) Chrome/18.0.1011.0 Safari/535.18'
p968
asbasbasbag49
(g65
g51
NtRp969
(dp970
g54
(dp971
sg63
g588
sg56
(lp972
g49
(g70
g51
NtRp973
(dp974
g54
(dp975
g74
g75
ssg63
g969
sg56
(lp976
S'is_jython'
p977
asbag49
(g70
g51
NtRp978
(dp979
g54
(dp980
g81
g82
ssg63
g969
sg56
(lp981
S':'
asbag49
(g70
g51
NtRp982
(dp983
g54
(dp984
sg63
g969
sg56
(lp985
g49
(g50
g51
NtRp986
(dp987
g54
(dp988
g62
I4
ssg63
g982
sg56
(lp989
g92
asbasbasbag49
(g65
g51
NtRp990
(dp991
g54
(dp992
sg63
g588
sg56
(lp993
g49
(g70
g51
NtRp994
(dp995
g54
(dp996
g74
g75
ssg63
g990
sg56
(lp997
S'is_pypy'
p998
asbag49
(g70
g51
NtRp999
(dp1000
g54
(dp1001
g81
g82
ssg63
g990
sg56
(lp1002
S':'
asbag49
(g70
g51
NtRp1003
(dp1004
g54
(dp1005
sg63
g990
sg56
(lp1006
g49
(g50
g51
NtRp1007
(dp1008
g54
(dp1009
g62
I4
ssg63
g1003
sg56
(lp1010
g92
asbasbasbag49
(g65
g51
NtRp1011
(dp1012
g54
(dp1013
sg63
g588
sg56
(lp1014
g49
(g70
g51
NtRp1015
(dp1016
g54
(dp1017
g74
g75
ssg63
g1011
sg56
(lp1018
S'path_info'
p1019
asbag49
(g70
g51
NtRp1020
(dp1021
g54
(dp1022
g81
g82
ssg63
g1011
sg56
(lp1023
S':'
asbag49
(g70
g51
NtRp1024
(dp1025
g54
(dp1026
sg63
g1011
sg56
(lp1027
g49
(g50
g51
NtRp1028
(dp1029
g54
(dp1030
g62
I4
ssg63
g1024
sg56
(lp1031
S'/'
asbasbasbag49
(g65
g51
NtRp1032
(dp1033
g54
(dp1034
sg63
g588
sg56
(lp1035
g49
(g70
g51
NtRp1036
(dp1037
g54
(dp1038
g74
g75
ssg63
g1032
sg56
(lp1039
S'query_string'
p1040
asbag49
(g70
g51
NtRp1041
(dp1042
g54
(dp1043
g81
g82
ssg63
g1032
sg56
(lp1044
S':'
asbag49
(g70
g51
NtRp1045
(dp1046
g54
(dp1047
sg63
g1032
sg56
(lp1048
g49
(g50
g51
NtRp1049
(dp1050
g54
(dp1051
g62
I4
ssg63
g1045
sg56
(lp1052
S''
asbasbasbag49
(g65
g51
NtRp1053
(dp1054
g54
(dp1055
sg63
g588
sg56
(lp1056
g49
(g70
g51
NtRp1057
(dp1058
g54
(dp1059
g74
g75
ssg63
g1053
sg56
(lp1060
S'remote_addr'
p1061
asbag49
(g70
g51
NtRp1062
(dp1063
g54
(dp1064
g81
g82
ssg63
g1053
sg56
(lp1065
S':'
asbag49
(g70
g51
NtRp1066
(dp1067
g54
(dp1068
sg63
g1053
sg56
(lp1069
g49
(g50
g51
NtRp1070
(dp1071
g54
(dp1072
g62
I4
ssg63
g1066
sg56
(lp1073
g182
asbasbasbag49
(g65
g51
NtRp1074
(dp1075
g54
(dp1076
sg63
g588
sg56
(lp1077
g49
(g70
g51
NtRp1078
(dp1079
g54
(dp1080
g74
g75
ssg63
g1074
sg56
(lp1081
S'remote_port'
p1082
asbag49
(g70
g51
NtRp1083
(dp1084
g54
(dp1085
g81
g82
ssg63
g1074
sg56
(lp1086
S':'
asbag49
(g70
g51
NtRp1087
(dp1088
g54
(dp1089
sg63
g1074
sg56
(lp1090
g49
(g50
g51
NtRp1091
(dp1092
g54
(dp1093
g62
I4
ssg63
g1087
sg56
(lp1094
S'55556'
p1095
asbasbasbag49
(g65
g51
NtRp1096
(dp1097
g54
(dp1098
sg63
g588
sg56
(lp1099
g49
(g70
g51
NtRp1100
(dp1101
g54
(dp1102
g74
g75
ssg63
g1096
sg56
(lp1103
S'request_method'
p1104
asbag49
(g70
g51
NtRp1105
(dp1106
g54
(dp1107
g81
g82
ssg63
g1096
sg56
(lp1108
S':'
asbag49
(g70
g51
NtRp1109
(dp1110
g54
(dp1111
sg63
g1096
sg56
(lp1112
g49
(g50
g51
NtRp1113
(dp1114
g54
(dp1115
g62
I4
ssg63
g1109
sg56
(lp1116
S'GET'
p1117
asbasbasbag49
(g65
g51
NtRp1118
(dp1119
g54
(dp1120
sg63
g588
sg56
(lp1121
g49
(g70
g51
NtRp1122
(dp1123
g54
(dp1124
g74
g75
ssg63
g1118
sg56
(lp1125
S'script_name'
p1126
asbag49
(g70
g51
NtRp1127
(dp1128
g54
(dp1129
g81
g82
ssg63
g1118
sg56
(lp1130
S':'
asbag49
(g70
g51
NtRp1131
(dp1132
g54
(dp1133
sg63
g1118
sg56
(lp1134
g49
(g50
g51
NtRp1135
(dp1136
g54
(dp1137
g62
I4
ssg63
g1131
sg56
(lp1138
S''
asbasbasbag49
(g65
g51
NtRp1139
(dp1140
g54
(dp1141
sg63
g588
sg56
(lp1142
g49
(g70
g51
NtRp1143
(dp1144
g54
(dp1145
g74
g75
ssg63
g1139
sg56
(lp1146
S'server_name'
p1147
asbag49
(g70
g51
NtRp1148
(dp1149
g54
(dp1150
g81
g82
ssg63
g1139
sg56
(lp1151
S':'
asbag49
(g70
g51
NtRp1152
(dp1153
g54
(dp1154
sg63
g1139
sg56
(lp1155
g49
(g50
g51
NtRp1156
(dp1157
g54
(dp1158
g62
I4
ssg63
g1152
sg56
(lp1159
S'Batou'
p1160
asbasbasbag49
(g65
g51
NtRp1161
(dp1162
g54
(dp1163
sg63
g588
sg56
(lp1164
g49
(g70
g51
NtRp1165
(dp1166
g54
(dp1167
g74
g75
ssg63
g1161
sg56
(lp1168
S'server_port'
p1169
asbag49
(g70
g51
NtRp1170
(dp1171
g54
(dp1172
g81
g82
ssg63
g1161
sg56
(lp1173
S':'
asbag49
(g70
g51
NtRp1174
(dp1175
g54
(dp1176
sg63
g1161
sg56
(lp1177
g49
(g50
g51
NtRp1178
(dp1179
g54
(dp1180
g62
I4
ssg63
g1174
sg56
(lp1181
S'8000'
p1182
asbasbasbag49
(g65
g51
NtRp1183
(dp1184
g54
(dp1185
sg63
g588
sg56
(lp1186
g49
(g70
g51
NtRp1187
(dp1188
g54
(dp1189
g74
g75
ssg63
g1183
sg56
(lp1190
S'server_protocol'
p1191
asbag49
(g70
g51
NtRp1192
(dp1193
g54
(dp1194
g81
g82
ssg63
g1183
sg56
(lp1195
S':'
asbag49
(g70
g51
NtRp1196
(dp1197
g54
(dp1198
sg63
g1183
sg56
(lp1199
g49
(g50
g51
NtRp1200
(dp1201
g54
(dp1202
g62
I4
ssg63
g1196
sg56
(lp1203
S'HTTP/1.1'
p1204
asbasbasbag49
(g65
g51
NtRp1205
(dp1206
g54
(dp1207
sg63
g588
sg56
(lp1208
g49
(g70
g51
NtRp1209
(dp1210
g54
(dp1211
g74
g75
ssg63
g1205
sg56
(lp1212
S'server_software'
p1213
asbag49
(g70
g51
NtRp1214
(dp1215
g54
(dp1216
g81
g82
ssg63
g1205
sg56
(lp1217
S':'
asbag49
(g70
g51
NtRp1218
(dp1219
g54
(dp1220
sg63
g1205
sg56
(lp1221
g49
(g50
g51
NtRp1222
(dp1223
g54
(dp1224
g62
I4
ssg63
g1218
sg56
(lp1225
S'Rocket 1.2.4'
p1226
asbasbasbag49
(g65
g51
NtRp1227
(dp1228
g54
(dp1229
sg63
g588
sg56
(lp1230
g49
(g70
g51
NtRp1231
(dp1232
g54
(dp1233
g74
g75
ssg63
g1227
sg56
(lp1234
S'web2py_crontype'
p1235
asbag49
(g70
g51
NtRp1236
(dp1237
g54
(dp1238
g81
g82
ssg63
g1227
sg56
(lp1239
S':'
asbag49
(g70
g51
NtRp1240
(dp1241
g54
(dp1242
sg63
g1227
sg56
(lp1243
g49
(g50
g51
NtRp1244
(dp1245
g54
(dp1246
g62
I4
ssg63
g1240
sg56
(lp1247
S'hard'
p1248
asbasbasbag49
(g65
g51
NtRp1249
(dp1250
g54
(dp1251
sg63
g588
sg56
(lp1252
g49
(g70
g51
NtRp1253
(dp1254
g54
(dp1255
g74
g75
ssg63
g1249
sg56
(lp1256
S'web2py_path'
p1257
asbag49
(g70
g51
NtRp1258
(dp1259
g54
(dp1260
g81
g82
ssg63
g1249
sg56
(lp1261
S':'
asbag49
(g70
g51
NtRp1262
(dp1263
g54
(dp1264
sg63
g1249
sg56
(lp1265
g49
(g50
g51
NtRp1266
(dp1267
g54
(dp1268
g62
I4
ssg63
g1262
sg56
(lp1269
g635
asbasbasbag49
(g65
g51
NtRp1270
(dp1271
g54
(dp1272
sg63
g588
sg56
(lp1273
g49
(g70
g51
NtRp1274
(dp1275
g54
(dp1276
g74
g75
ssg63
g1270
sg56
(lp1277
S'web2py_version'
p1278
asbag49
(g70
g51
NtRp1279
(dp1280
g54
(dp1281
g81
g82
ssg63
g1270
sg56
(lp1282
S':'
asbag49
(g70
g51
NtRp1283
(dp1284
g54
(dp1285
sg63
g1270
sg56
(lp1286
g49
(g50
g51
NtRp1287
(dp1288
g54
(dp1289
g62
I4
ssg63
g1283
sg56
(lp1290
g49
(g58
g51
NtRp1291
(dp1292
g54
(dp1293
g62
I3
ssg63
Nsg56
(lp1294
g49
(g65
g51
NtRp1295
(dp1296
g54
(dp1297
sg63
g1291
sg56
(lp1298
g49
(g70
g51
NtRp1299
(dp1300
g54
(dp1301
sg63
g1295
sg56
(lp1302
g49
(g50
g51
NtRp1303
(dp1304
g54
(dp1305
g62
I3
ssg63
g1299
sg56
(lp1306
S'1'
asbasbasbag49
(g65
g51
NtRp1307
(dp1308
g54
(dp1309
sg63
g1291
sg56
(lp1310
g49
(g70
g51
NtRp1311
(dp1312
g54
(dp1313
sg63
g1307
sg56
(lp1314
g49
(g50
g51
NtRp1315
(dp1316
g54
(dp1317
g62
I3
ssg63
g1311
sg56
(lp1318
S'99'
p1319
asbasbasbag49
(g65
g51
NtRp1320
(dp1321
g54
(dp1322
sg63
g1291
sg56
(lp1323
g49
(g70
g51
NtRp1324
(dp1325
g54
(dp1326
sg63
g1320
sg56
(lp1327
g49
(g50
g51
NtRp1328
(dp1329
g54
(dp1330
g62
I3
ssg63
g1324
sg56
(lp1331
S'7'
asbasbasbag49
(g65
g51
NtRp1332
(dp1333
g54
(dp1334
sg63
g1291
sg56
(lp1335
g49
(g70
g51
NtRp1336
(dp1337
g54
(dp1338
sg63
g1332
sg56
(lp1339
g49
(g50
g51
NtRp1340
(dp1341
g54
(dp1342
g62
I3
ssg63
g1336
sg56
(lp1343
S'datetime.datetime(2012, 3, 4, 22, 12, 8)'
p1344
asbasbasbag49
(g65
g51
NtRp1345
(dp1346
g54
(dp1347
sg63
g1291
sg56
(lp1348
g49
(g70
g51
NtRp1349
(dp1350
g54
(dp1351
sg63
g1345
sg56
(lp1352
g49
(g50
g51
NtRp1353
(dp1354
g54
(dp1355
g62
I3
ssg63
g1349
sg56
(lp1356
S'stable'
p1357
asbasbasbasbasbasbasbag49
(g65
g51
NtRp1358
(dp1359
g54
(dp1360
sg63
g588
sg56
(lp1361
g49
(g70
g51
NtRp1362
(dp1363
g54
(dp1364
g74
g75
ssg63
g1358
sg56
(lp1365
S'wsgi_errors'
p1366
asbag49
(g70
g51
NtRp1367
(dp1368
g54
(dp1369
g81
g82
ssg63
g1358
sg56
(lp1370
S':'
asbag49
(g70
g51
NtRp1371
(dp1372
g54
(dp1373
sg63
g1358
sg56
(lp1374
g49
(g50
g51
NtRp1375
(dp1376
g54
(dp1377
g62
I4
ssg63
g1371
sg56
(lp1378
S"<open file '<stderr>', mode 'w' at 0x004200B0>"
p1379
asbasbasbag49
(g65
g51
NtRp1380
(dp1381
g54
(dp1382
sg63
g588
sg56
(lp1383
g49
(g70
g51
NtRp1384
(dp1385
g54
(dp1386
g74
g75
ssg63
g1380
sg56
(lp1387
S'wsgi_file_wrapper'
p1388
asbag49
(g70
g51
NtRp1389
(dp1390
g54
(dp1391
g81
g82
ssg63
g1380
sg56
(lp1392
S':'
asbag49
(g70
g51
NtRp1393
(dp1394
g54
(dp1395
sg63
g1380
sg56
(lp1396
g49
(g50
g51
NtRp1397
(dp1398
g54
(dp1399
g62
I4
ssg63
g1393
sg56
(lp1400
S'<class wsgiref.util.FileWrapper at 0x02CAD8D0>'
p1401
asbasbasbag49
(g65
g51
NtRp1402
(dp1403
g54
(dp1404
sg63
g588
sg56
(lp1405
g49
(g70
g51
NtRp1406
(dp1407
g54
(dp1408
g74
g75
ssg63
g1402
sg56
(lp1409
S'wsgi_input'
p1410
asbag49
(g70
g51
NtRp1411
(dp1412
g54
(dp1413
g81
g82
ssg63
g1402
sg56
(lp1414
S':'
asbag49
(g70
g51
NtRp1415
(dp1416
g54
(dp1417
sg63
g1402
sg56
(lp1418
g49
(g50
g51
NtRp1419
(dp1420
g54
(dp1421
g62
I4
ssg63
g1415
sg56
(lp1422
S'<socket._fileobject object at 0x0457FB70>'
p1423
asbasbasbag49
(g65
g51
NtRp1424
(dp1425
g54
(dp1426
sg63
g588
sg56
(lp1427
g49
(g70
g51
NtRp1428
(dp1429
g54
(dp1430
g74
g75
ssg63
g1424
sg56
(lp1431
S'wsgi_multiprocess'
p1432
asbag49
(g70
g51
NtRp1433
(dp1434
g54
(dp1435
g81
g82
ssg63
g1424
sg56
(lp1436
S':'
asbag49
(g70
g51
NtRp1437
(dp1438
g54
(dp1439
sg63
g1424
sg56
(lp1440
g49
(g50
g51
NtRp1441
(dp1442
g54
(dp1443
g62
I4
ssg63
g1437
sg56
(lp1444
g92
asbasbasbag49
(g65
g51
NtRp1445
(dp1446
g54
(dp1447
sg63
g588
sg56
(lp1448
g49
(g70
g51
NtRp1449
(dp1450
g54
(dp1451
g74
g75
ssg63
g1445
sg56
(lp1452
S'wsgi_multithread'
p1453
asbag49
(g70
g51
NtRp1454
(dp1455
g54
(dp1456
g81
g82
ssg63
g1445
sg56
(lp1457
S':'
asbag49
(g70
g51
NtRp1458
(dp1459
g54
(dp1460
sg63
g1445
sg56
(lp1461
g49
(g50
g51
NtRp1462
(dp1463
g54
(dp1464
g62
I4
ssg63
g1458
sg56
(lp1465
g726
asbasbasbag49
(g65
g51
NtRp1466
(dp1467
g54
(dp1468
sg63
g588
sg56
(lp1469
g49
(g70
g51
NtRp1470
(dp1471
g54
(dp1472
g74
g75
ssg63
g1466
sg56
(lp1473
S'wsgi_run_once'
p1474
asbag49
(g70
g51
NtRp1475
(dp1476
g54
(dp1477
g81
g82
ssg63
g1466
sg56
(lp1478
S':'
asbag49
(g70
g51
NtRp1479
(dp1480
g54
(dp1481
sg63
g1466
sg56
(lp1482
g49
(g50
g51
NtRp1483
(dp1484
g54
(dp1485
g62
I4
ssg63
g1479
sg56
(lp1486
g92
asbasbasbag49
(g65
g51
NtRp1487
(dp1488
g54
(dp1489
sg63
g588
sg56
(lp1490
g49
(g70
g51
NtRp1491
(dp1492
g54
(dp1493
g74
g75
ssg63
g1487
sg56
(lp1494
S'wsgi_url_scheme'
p1495
asbag49
(g70
g51
NtRp1496
(dp1497
g54
(dp1498
g81
g82
ssg63
g1487
sg56
(lp1499
S':'
asbag49
(g70
g51
NtRp1500
(dp1501
g54
(dp1502
sg63
g1487
sg56
(lp1503
g49
(g50
g51
NtRp1504
(dp1505
g54
(dp1506
g62
I4
ssg63
g1500
sg56
(lp1507
S'http'
p1508
asbasbasbag49
(g65
g51
NtRp1509
(dp1510
g54
(dp1511
sg63
g588
sg56
(lp1512
g49
(g70
g51
NtRp1513
(dp1514
g54
(dp1515
g74
g75
ssg63
g1509
sg56
(lp1516
S'wsgi_version'
p1517
asbag49
(g70
g51
NtRp1518
(dp1519
g54
(dp1520
g81
g82
ssg63
g1509
sg56
(lp1521
S':'
asbag49
(g70
g51
NtRp1522
(dp1523
g54
(dp1524
sg63
g1509
sg56
(lp1525
g49
(g50
g51
NtRp1526
(dp1527
g54
(dp1528
g62
I4
ssg63
g1522
sg56
(lp1529
g49
(g58
g51
NtRp1530
(dp1531
g54
(dp1532
g62
I3
ssg63
Nsg56
(lp1533
g49
(g65
g51
NtRp1534
(dp1535
g54
(dp1536
sg63
g1530
sg56
(lp1537
g49
(g70
g51
NtRp1538
(dp1539
g54
(dp1540
sg63
g1534
sg56
(lp1541
g49
(g50
g51
NtRp1542
(dp1543
g54
(dp1544
g62
I3
ssg63
g1538
sg56
(lp1545
S'1'
asbasbasbag49
(g65
g51
NtRp1546
(dp1547
g54
(dp1548
sg63
g1530
sg56
(lp1549
g49
(g70
g51
NtRp1550
(dp1551
g54
(dp1552
sg63
g1546
sg56
(lp1553
g49
(g50
g51
NtRp1554
(dp1555
g54
(dp1556
g62
I3
ssg63
g1550
sg56
(lp1557
S'0'
asbasbasbasbasbasbasbasbasbasbasbag49
(g65
g51
NtRp1558
(dp1559
g54
(dp1560
sg63
g59
sg56
(lp1561
g49
(g70
g51
NtRp1562
(dp1563
g54
(dp1564
g74
g75
ssg63
g1558
sg56
(lp1565
S'extension'
p1566
asbag49
(g70
g51
NtRp1567
(dp1568
g54
(dp1569
g81
g82
ssg63
g1558
sg56
(lp1570
S':'
asbag49
(g70
g51
NtRp1571
(dp1572
g54
(dp1573
sg63
g1558
sg56
(lp1574
g49
(g50
g51
NtRp1575
(dp1576
g54
(dp1577
g62
I5
ssg63
g1571
sg56
(lp1578
S'html'
p1579
asbasbasbag49
(g65
g51
NtRp1580
(dp1581
g54
(dp1582
sg63
g59
sg56
(lp1583
g49
(g70
g51
NtRp1584
(dp1585
g54
(dp1586
g74
g75
ssg63
g1580
sg56
(lp1587
S'folder'
p1588
asbag49
(g70
g51
NtRp1589
(dp1590
g54
(dp1591
g81
g82
ssg63
g1580
sg56
(lp1592
S':'
asbag49
(g70
g51
NtRp1593
(dp1594
g54
(dp1595
sg63
g1580
sg56
(lp1596
g49
(g50
g51
NtRp1597
(dp1598
g54
(dp1599
g62
I5
ssg63
g1593
sg56
(lp1600
S'C:\\Users\\Bussiere\\Dropbox\\Projets\\jackpoint\\web2py\\applications\\init\\'
p1601
asbasbasbag49
(g65
g51
NtRp1602
(dp1603
g54
(dp1604
sg63
g59
sg56
(lp1605
g49
(g70
g51
NtRp1606
(dp1607
g54
(dp1608
g74
g75
ssg63
g1602
sg56
(lp1609
S'function'
p1610
asbag49
(g70
g51
NtRp1611
(dp1612
g54
(dp1613
g81
g82
ssg63
g1602
sg56
(lp1614
S':'
asbag49
(g70
g51
NtRp1615
(dp1616
g54
(dp1617
sg63
g1602
sg56
(lp1618
g49
(g50
g51
NtRp1619
(dp1620
g54
(dp1621
g62
I5
ssg63
g1615
sg56
(lp1622
S'index'
p1623
asbasbasbag49
(g65
g51
NtRp1624
(dp1625
g54
(dp1626
sg63
g59
sg56
(lp1627
g49
(g70
g51
NtRp1628
(dp1629
g54
(dp1630
g74
g75
ssg63
g1624
sg56
(lp1631
S'get_vars'
p1632
asbag49
(g70
g51
NtRp1633
(dp1634
g54
(dp1635
g81
g82
ssg63
g1624
sg56
(lp1636
S':'
asbag49
(g70
g51
NtRp1637
(dp1638
g54
(dp1639
sg63
g1624
sg56
(lp1640
g49
(g50
g51
NtRp1641
(dp1642
g54
(dp1643
g62
I5
ssg63
g1637
sg56
(lp1644
g49
(g58
g51
NtRp1645
(dp1646
g54
(dp1647
g62
I4
ssg63
Nsg56
(lp1648
sbasbasbasbag49
(g65
g51
NtRp1649
(dp1650
g54
(dp1651
sg63
g59
sg56
(lp1652
g49
(g70
g51
NtRp1653
(dp1654
g54
(dp1655
g74
g75
ssg63
g1649
sg56
(lp1656
S'global_settings'
p1657
asbag49
(g70
g51
NtRp1658
(dp1659
g54
(dp1660
g81
g82
ssg63
g1649
sg56
(lp1661
S':'
asbag49
(g70
g51
NtRp1662
(dp1663
g54
(dp1664
sg63
g1649
sg56
(lp1665
g49
(g50
g51
NtRp1666
(dp1667
g54
(dp1668
g62
I5
ssg63
g1662
sg56
(lp1669
g49
(g58
g51
NtRp1670
(dp1671
g54
(dp1672
g62
I4
ssg63
Nsg56
(lp1673
g49
(g65
g51
NtRp1674
(dp1675
g54
(dp1676
sg63
g1670
sg56
(lp1677
g49
(g70
g51
NtRp1678
(dp1679
g54
(dp1680
g74
g75
ssg63
g1674
sg56
(lp1681
g600
asbag49
(g70
g51
NtRp1682
(dp1683
g54
(dp1684
g81
g82
ssg63
g1674
sg56
(lp1685
S':'
asbag49
(g70
g51
NtRp1686
(dp1687
g54
(dp1688
sg63
g1674
sg56
(lp1689
g49
(g50
g51
NtRp1690
(dp1691
g54
(dp1692
g62
I4
ssg63
g1686
sg56
(lp1693
S"set(['C:\\\\Users\\\\Bussiere\\\\Dropbox\\\\Projets\\\\jackpoint\\\\web2py\\\\applications\\\\init\\\\', 'C:\\\\Users\\\\Bussiere\\\\Dropbox\\\\Projets\\\\jackpoint\\\\web2py\\\\applications\\\\admin\\\\'])"
p1694
asbasbasbag49
(g65
g51
NtRp1695
(dp1696
g54
(dp1697
sg63
g1670
sg56
(lp1698
g49
(g70
g51
NtRp1699
(dp1700
g54
(dp1701
g74
g75
ssg63
g1695
sg56
(lp1702
g622
asbag49
(g70
g51
NtRp1703
(dp1704
g54
(dp1705
g81
g82
ssg63
g1695
sg56
(lp1706
S':'
asbag49
(g70
g51
NtRp1707
(dp1708
g54
(dp1709
sg63
g1695
sg56
(lp1710
g49
(g50
g51
NtRp1711
(dp1712
g54
(dp1713
g62
I4
ssg63
g1707
sg56
(lp1714
g635
asbasbasbag49
(g65
g51
NtRp1715
(dp1716
g54
(dp1717
sg63
g1670
sg56
(lp1718
g49
(g70
g51
NtRp1719
(dp1720
g54
(dp1721
g74
g75
ssg63
g1715
sg56
(lp1722
g644
asbag49
(g70
g51
NtRp1723
(dp1724
g54
(dp1725
g81
g82
ssg63
g1715
sg56
(lp1726
S':'
asbag49
(g70
g51
NtRp1727
(dp1728
g54
(dp1729
sg63
g1715
sg56
(lp1730
g49
(g50
g51
NtRp1731
(dp1732
g54
(dp1733
g62
I4
ssg63
g1727
sg56
(lp1734
g49
(g58
g51
NtRp1735
(dp1736
g54
(dp1737
g62
I3
ssg63
Nsg56
(lp1738
sbasbasbasbag49
(g65
g51
NtRp1739
(dp1740
g54
(dp1741
sg63
g1670
sg56
(lp1742
g49
(g70
g51
NtRp1743
(dp1744
g54
(dp1745
g74
g75
ssg63
g1739
sg56
(lp1746
g669
asbag49
(g70
g51
NtRp1747
(dp1748
g54
(dp1749
g81
g82
ssg63
g1739
sg56
(lp1750
S':'
asbag49
(g70
g51
NtRp1751
(dp1752
g54
(dp1753
sg63
g1739
sg56
(lp1754
g49
(g50
g51
NtRp1755
(dp1756
g54
(dp1757
g62
I4
ssg63
g1751
sg56
(lp1758
S"<Values at 0x3c90f58: {'verbose': False, 'ip': '127.0.0.1', 'shutdown_timeout': 5, 'taskbar': False, 'nocron': False, 'pid_filename': 'httpserver.pid', 'maxthreads': None, 'softcron': False, 'server_name': 'Batou', 'bpython': False, 'nogui': False, 'port': 8000, 'extcron': False, 'debuglevel': 30, 'test': None, 'folder': 'C:\\\\Users\\\\Bussiere\\\\Dropbox\\\\Projets\\\\jackpoint\\\\web2py', 'config': '', 'import_models': False, 'winservice': '', 'shell': None, 'run': '', 'log_filename': 'httpserver.log', 'args': [''], 'socket_timeout': 5, 'ssl_ca_certificate': None, 'scheduler': None, 'profiler_filename': None, 'ssl_private_key': '', 'password': '<ask>', 'request_queue_size': 5, 'ssl_certificate': '', 'cronjob': False, 'numthreads': None, 'quiet': False, 'interfaces': None, 'minthreads': None, 'timeout': 10, 'plain': False, 'nobanner': False}>"
p1759
asbasbasbag49
(g65
g51
NtRp1760
(dp1761
g54
(dp1762
sg63
g1670
sg56
(lp1763
g49
(g70
g51
NtRp1764
(dp1765
g54
(dp1766
g74
g75
ssg63
g1760
sg56
(lp1767
g691
asbag49
(g70
g51
NtRp1768
(dp1769
g54
(dp1770
g81
g82
ssg63
g1760
sg56
(lp1771
S':'
asbag49
(g70
g51
NtRp1772
(dp1773
g54
(dp1774
sg63
g1760
sg56
(lp1775
g49
(g50
g51
NtRp1776
(dp1777
g54
(dp1778
g62
I4
ssg63
g1772
sg56
(lp1779
S"set(['init'])"
p1780
asbasbasbag49
(g65
g51
NtRp1781
(dp1782
g54
(dp1783
sg63
g1670
sg56
(lp1784
g49
(g70
g51
NtRp1785
(dp1786
g54
(dp1787
g74
g75
ssg63
g1781
sg56
(lp1788
g713
asbag49
(g70
g51
NtRp1789
(dp1790
g54
(dp1791
g81
g82
ssg63
g1781
sg56
(lp1792
S':'
asbag49
(g70
g51
NtRp1793
(dp1794
g54
(dp1795
sg63
g1781
sg56
(lp1796
g49
(g50
g51
NtRp1797
(dp1798
g54
(dp1799
g62
I4
ssg63
g1793
sg56
(lp1800
g726
asbasbasbag49
(g65
g51
NtRp1801
(dp1802
g54
(dp1803
sg63
g1670
sg56
(lp1804
g49
(g70
g51
NtRp1805
(dp1806
g54
(dp1807
g74
g75
ssg63
g1801
sg56
(lp1808
g735
asbag49
(g70
g51
NtRp1809
(dp1810
g54
(dp1811
g81
g82
ssg63
g1801
sg56
(lp1812
S':'
asbag49
(g70
g51
NtRp1813
(dp1814
g54
(dp1815
sg63
g1801
sg56
(lp1816
g49
(g50
g51
NtRp1817
(dp1818
g54
(dp1819
g62
I4
ssg63
g1813
sg56
(lp1820
g748
asbasbasbag49
(g65
g51
NtRp1821
(dp1822
g54
(dp1823
sg63
g1670
sg56
(lp1824
g49
(g70
g51
NtRp1825
(dp1826
g54
(dp1827
g74
g75
ssg63
g1821
sg56
(lp1828
g977
asbag49
(g70
g51
NtRp1829
(dp1830
g54
(dp1831
g81
g82
ssg63
g1821
sg56
(lp1832
S':'
asbag49
(g70
g51
NtRp1833
(dp1834
g54
(dp1835
sg63
g1821
sg56
(lp1836
g49
(g50
g51
NtRp1837
(dp1838
g54
(dp1839
g62
I4
ssg63
g1833
sg56
(lp1840
g92
asbasbasbag49
(g65
g51
NtRp1841
(dp1842
g54
(dp1843
sg63
g1670
sg56
(lp1844
g49
(g70
g51
NtRp1845
(dp1846
g54
(dp1847
g74
g75
ssg63
g1841
sg56
(lp1848
g998
asbag49
(g70
g51
NtRp1849
(dp1850
g54
(dp1851
g81
g82
ssg63
g1841
sg56
(lp1852
S':'
asbag49
(g70
g51
NtRp1853
(dp1854
g54
(dp1855
sg63
g1841
sg56
(lp1856
g49
(g50
g51
NtRp1857
(dp1858
g54
(dp1859
g62
I4
ssg63
g1853
sg56
(lp1860
g92
asbasbasbag49
(g65
g51
NtRp1861
(dp1862
g54
(dp1863
sg63
g1670
sg56
(lp1864
g49
(g70
g51
NtRp1865
(dp1866
g54
(dp1867
g74
g75
ssg63
g1861
sg56
(lp1868
g1235
asbag49
(g70
g51
NtRp1869
(dp1870
g54
(dp1871
g81
g82
ssg63
g1861
sg56
(lp1872
S':'
asbag49
(g70
g51
NtRp1873
(dp1874
g54
(dp1875
sg63
g1861
sg56
(lp1876
g49
(g50
g51
NtRp1877
(dp1878
g54
(dp1879
g62
I4
ssg63
g1873
sg56
(lp1880
g1248
asbasbasbag49
(g65
g51
NtRp1881
(dp1882
g54
(dp1883
sg63
g1670
sg56
(lp1884
g49
(g70
g51
NtRp1885
(dp1886
g54
(dp1887
g74
g75
ssg63
g1881
sg56
(lp1888
g1278
asbag49
(g70
g51
NtRp1889
(dp1890
g54
(dp1891
g81
g82
ssg63
g1881
sg56
(lp1892
S':'
asbag49
(g70
g51
NtRp1893
(dp1894
g54
(dp1895
sg63
g1881
sg56
(lp1896
g49
(g50
g51
NtRp1897
(dp1898
g54
(dp1899
g62
I4
ssg63
g1893
sg56
(lp1900
g49
(g58
g51
NtRp1901
(dp1902
g54
(dp1903
g62
I3
ssg63
Nsg56
(lp1904
g49
(g65
g51
NtRp1905
(dp1906
g54
(dp1907
sg63
g1901
sg56
(lp1908
g49
(g70
g51
NtRp1909
(dp1910
g54
(dp1911
sg63
g1905
sg56
(lp1912
g49
(g50
g51
NtRp1913
(dp1914
g54
(dp1915
g62
I3
ssg63
g1909
sg56
(lp1916
S'1'
asbasbasbag49
(g65
g51
NtRp1917
(dp1918
g54
(dp1919
sg63
g1901
sg56
(lp1920
g49
(g70
g51
NtRp1921
(dp1922
g54
(dp1923
sg63
g1917
sg56
(lp1924
g49
(g50
g51
NtRp1925
(dp1926
g54
(dp1927
g62
I3
ssg63
g1921
sg56
(lp1928
S'99'
p1929
asbasbasbag49
(g65
g51
NtRp1930
(dp1931
g54
(dp1932
sg63
g1901
sg56
(lp1933
g49
(g70
g51
NtRp1934
(dp1935
g54
(dp1936
sg63
g1930
sg56
(lp1937
g49
(g50
g51
NtRp1938
(dp1939
g54
(dp1940
g62
I3
ssg63
g1934
sg56
(lp1941
S'7'
asbasbasbag49
(g65
g51
NtRp1942
(dp1943
g54
(dp1944
sg63
g1901
sg56
(lp1945
g49
(g70
g51
NtRp1946
(dp1947
g54
(dp1948
sg63
g1942
sg56
(lp1949
g49
(g50
g51
NtRp1950
(dp1951
g54
(dp1952
g62
I3
ssg63
g1946
sg56
(lp1953
S'datetime.datetime(2012, 3, 4, 22, 12, 8)'
p1954
asbasbasbag49
(g65
g51
NtRp1955
(dp1956
g54
(dp1957
sg63
g1901
sg56
(lp1958
g49
(g70
g51
NtRp1959
(dp1960
g54
(dp1961
sg63
g1955
sg56
(lp1962
g49
(g50
g51
NtRp1963
(dp1964
g54
(dp1965
g62
I3
ssg63
g1959
sg56
(lp1966
g1357
asbasbasbasbasbasbasbasbasbasbasbag49
(g65
g51
NtRp1967
(dp1968
g54
(dp1969
sg63
g59
sg56
(lp1970
g49
(g70
g51
NtRp1971
(dp1972
g54
(dp1973
g74
g75
ssg63
g1967
sg56
(lp1974
S'is_https'
p1975
asbag49
(g70
g51
NtRp1976
(dp1977
g54
(dp1978
g81
g82
ssg63
g1967
sg56
(lp1979
S':'
asbag49
(g70
g51
NtRp1980
(dp1981
g54
(dp1982
sg63
g1967
sg56
(lp1983
g49
(g50
g51
NtRp1984
(dp1985
g54
(dp1986
g62
I5
ssg63
g1980
sg56
(lp1987
g92
asbasbasbag49
(g65
g51
NtRp1988
(dp1989
g54
(dp1990
sg63
g59
sg56
(lp1991
g49
(g70
g51
NtRp1992
(dp1993
g54
(dp1994
g74
g75
ssg63
g1988
sg56
(lp1995
S'is_local'
p1996
asbag49
(g70
g51
NtRp1997
(dp1998
g54
(dp1999
g81
g82
ssg63
g1988
sg56
(lp2000
S':'
asbag49
(g70
g51
NtRp2001
(dp2002
g54
(dp2003
sg63
g1988
sg56
(lp2004
g49
(g50
g51
NtRp2005
(dp2006
g54
(dp2007
g62
I5
ssg63
g2001
sg56
(lp2008
g726
asbasbasbag49
(g65
g51
NtRp2009
(dp2010
g54
(dp2011
sg63
g59
sg56
(lp2012
g49
(g70
g51
NtRp2013
(dp2014
g54
(dp2015
g74
g75
ssg63
g2009
sg56
(lp2016
S'is_restful'
p2017
asbag49
(g70
g51
NtRp2018
(dp2019
g54
(dp2020
g81
g82
ssg63
g2009
sg56
(lp2021
S':'
asbag49
(g70
g51
NtRp2022
(dp2023
g54
(dp2024
sg63
g2009
sg56
(lp2025
g49
(g50
g51
NtRp2026
(dp2027
g54
(dp2028
g62
I5
ssg63
g2022
sg56
(lp2029
g92
asbasbasbag49
(g65
g51
NtRp2030
(dp2031
g54
(dp2032
sg63
g59
sg56
(lp2033
g49
(g70
g51
NtRp2034
(dp2035
g54
(dp2036
g74
g75
ssg63
g2030
sg56
(lp2037
S'now'
p2038
asbag49
(g70
g51
NtRp2039
(dp2040
g54
(dp2041
g81
g82
ssg63
g2030
sg56
(lp2042
S':'
asbag49
(g70
g51
NtRp2043
(dp2044
g54
(dp2045
sg63
g2030
sg56
(lp2046
g49
(g50
g51
NtRp2047
(dp2048
g54
(dp2049
g62
I5
ssg63
g2043
sg56
(lp2050
S'datetime.datetime(2012, 3, 15, 0, 16, 48, 72000)'
p2051
asbasbasbag49
(g65
g51
NtRp2052
(dp2053
g54
(dp2054
sg63
g59
sg56
(lp2055
g49
(g70
g51
NtRp2056
(dp2057
g54
(dp2058
g74
g75
ssg63
g2052
sg56
(lp2059
S'post_vars'
p2060
asbag49
(g70
g51
NtRp2061
(dp2062
g54
(dp2063
g81
g82
ssg63
g2052
sg56
(lp2064
S':'
asbag49
(g70
g51
NtRp2065
(dp2066
g54
(dp2067
sg63
g2052
sg56
(lp2068
g49
(g50
g51
NtRp2069
(dp2070
g54
(dp2071
g62
I5
ssg63
g2065
sg56
(lp2072
g49
(g58
g51
NtRp2073
(dp2074
g54
(dp2075
g62
I4
ssg63
Nsg56
(lp2076
sbasbasbasbag49
(g65
g51
NtRp2077
(dp2078
g54
(dp2079
sg63
g59
sg56
(lp2080
g49
(g70
g51
NtRp2081
(dp2082
g54
(dp2083
g74
g75
ssg63
g2077
sg56
(lp2084
S'url'
p2085
asbag49
(g70
g51
NtRp2086
(dp2087
g54
(dp2088
g81
g82
ssg63
g2077
sg56
(lp2089
S':'
asbag49
(g70
g51
NtRp2090
(dp2091
g54
(dp2092
sg63
g2077
sg56
(lp2093
g49
(g50
g51
NtRp2094
(dp2095
g54
(dp2096
g62
I5
ssg63
g2090
sg56
(lp2097
S'/init/default/index'
p2098
asbasbasbag49
(g65
g51
NtRp2099
(dp2100
g54
(dp2101
sg63
g59
sg56
(lp2102
g49
(g70
g51
NtRp2103
(dp2104
g54
(dp2105
g74
g75
ssg63
g2099
sg56
(lp2106
S'utcnow'
p2107
asbag49
(g70
g51
NtRp2108
(dp2109
g54
(dp2110
g81
g82
ssg63
g2099
sg56
(lp2111
S':'
asbag49
(g70
g51
NtRp2112
(dp2113
g54
(dp2114
sg63
g2099
sg56
(lp2115
g49
(g50
g51
NtRp2116
(dp2117
g54
(dp2118
g62
I5
ssg63
g2112
sg56
(lp2119
S'datetime.datetime(2012, 3, 14, 23, 16, 48, 73000)'
p2120
asbasbasbag49
(g65
g51
NtRp2121
(dp2122
g54
(dp2123
sg63
g59
sg56
(lp2124
g49
(g70
g51
NtRp2125
(dp2126
g54
(dp2127
g74
g75
ssg63
g2121
sg56
(lp2128
S'uuid'
p2129
asbag49
(g70
g51
NtRp2130
(dp2131
g54
(dp2132
g81
g82
ssg63
g2121
sg56
(lp2133
S':'
asbag49
(g70
g51
NtRp2134
(dp2135
g54
(dp2136
sg63
g2121
sg56
(lp2137
g49
(g50
g51
NtRp2138
(dp2139
g54
(dp2140
g62
I5
ssg63
g2134
sg56
(lp2141
S'init/127.0.0.1.2012-03-15.00-16-48.38a92c72-3c68-43bf-ab21-1bea3ad653ee'
p2142
asbasbasbag49
(g65
g51
NtRp2143
(dp2144
g54
(dp2145
sg63
g59
sg56
(lp2146
g49
(g70
g51
NtRp2147
(dp2148
g54
(dp2149
g74
g75
ssg63
g2143
sg56
(lp2150
S'vars'
p2151
asbag49
(g70
g51
NtRp2152
(dp2153
g54
(dp2154
g81
g82
ssg63
g2143
sg56
(lp2155
S':'
asbag49
(g70
g51
NtRp2156
(dp2157
g54
(dp2158
sg63
g2143
sg56
(lp2159
g49
(g50
g51
NtRp2160
(dp2161
g54
(dp2162
g62
I5
ssg63
g2156
sg56
(lp2163
g49
(g58
g51
NtRp2164
(dp2165
g54
(dp2166
g62
I4
ssg63
Nsg56
(lp2167
sbasbasbasbag49
(g65
g51
NtRp2168
(dp2169
g54
(dp2170
sg63
g59
sg56
(lp2171
g49
(g70
g51
NtRp2172
(dp2173
g54
(dp2174
g74
g75
ssg63
g2168
sg56
(lp2175
S'wsgi'
p2176
asbag49
(g70
g51
NtRp2177
(dp2178
g54
(dp2179
g81
g82
ssg63
g2168
sg56
(lp2180
S':'
asbag49
(g70
g51
NtRp2181
(dp2182
g54
(dp2183
sg63
g2168
sg56
(lp2184
g49
(g50
g51
NtRp2185
(dp2186
g54
(dp2187
g62
I5
ssg63
g2181
sg56
(lp2188
g49
(g58
g51
NtRp2189
(dp2190
g54
(dp2191
g62
I4
ssg63
Nsg56
(lp2192
g49
(g65
g51
NtRp2193
(dp2194
g54
(dp2195
sg63
g2189
sg56
(lp2196
g49
(g70
g51
NtRp2197
(dp2198
g54
(dp2199
g74
g75
ssg63
g2193
sg56
(lp2200
S'environ'
p2201
asbag49
(g70
g51
NtRp2202
(dp2203
g54
(dp2204
g81
g82
ssg63
g2193
sg56
(lp2205
S':'
asbag49
(g70
g51
NtRp2206
(dp2207
g54
(dp2208
sg63
g2193
sg56
(lp2209
g49
(g50
g51
NtRp2210
(dp2211
g54
(dp2212
g62
I4
ssg63
g2206
sg56
(lp2213
g49
(g58
g51
NtRp2214
(dp2215
g54
(dp2216
g62
I3
ssg63
Nsg56
(lp2217
g49
(g65
g51
NtRp2218
(dp2219
g54
(dp2220
sg63
g2214
sg56
(lp2221
g49
(g70
g51
NtRp2222
(dp2223
g54
(dp2224
g74
g75
ssg63
g2218
sg56
(lp2225
S'HTTP_ACCEPT'
p2226
asbag49
(g70
g51
NtRp2227
(dp2228
g54
(dp2229
g81
g82
ssg63
g2218
sg56
(lp2230
S':'
asbag49
(g70
g51
NtRp2231
(dp2232
g54
(dp2233
sg63
g2218
sg56
(lp2234
g49
(g50
g51
NtRp2235
(dp2236
g54
(dp2237
g62
I3
ssg63
g2231
sg56
(lp2238
g770
asbasbasbag49
(g65
g51
NtRp2239
(dp2240
g54
(dp2241
sg63
g2214
sg56
(lp2242
g49
(g70
g51
NtRp2243
(dp2244
g54
(dp2245
g74
g75
ssg63
g2239
sg56
(lp2246
S'HTTP_ACCEPT_CHARSET'
p2247
asbag49
(g70
g51
NtRp2248
(dp2249
g54
(dp2250
g81
g82
ssg63
g2239
sg56
(lp2251
S':'
asbag49
(g70
g51
NtRp2252
(dp2253
g54
(dp2254
sg63
g2239
sg56
(lp2255
g49
(g50
g51
NtRp2256
(dp2257
g54
(dp2258
g62
I3
ssg63
g2252
sg56
(lp2259
g792
asbasbasbag49
(g65
g51
NtRp2260
(dp2261
g54
(dp2262
sg63
g2214
sg56
(lp2263
g49
(g70
g51
NtRp2264
(dp2265
g54
(dp2266
g74
g75
ssg63
g2260
sg56
(lp2267
S'HTTP_ACCEPT_ENCODING'
p2268
asbag49
(g70
g51
NtRp2269
(dp2270
g54
(dp2271
g81
g82
ssg63
g2260
sg56
(lp2272
S':'
asbag49
(g70
g51
NtRp2273
(dp2274
g54
(dp2275
sg63
g2260
sg56
(lp2276
g49
(g50
g51
NtRp2277
(dp2278
g54
(dp2279
g62
I3
ssg63
g2273
sg56
(lp2280
g814
asbasbasbag49
(g65
g51
NtRp2281
(dp2282
g54
(dp2283
sg63
g2214
sg56
(lp2284
g49
(g70
g51
NtRp2285
(dp2286
g54
(dp2287
g74
g75
ssg63
g2281
sg56
(lp2288
S'HTTP_ACCEPT_LANGUAGE'
p2289
asbag49
(g70
g51
NtRp2290
(dp2291
g54
(dp2292
g81
g82
ssg63
g2281
sg56
(lp2293
S':'
asbag49
(g70
g51
NtRp2294
(dp2295
g54
(dp2296
sg63
g2281
sg56
(lp2297
g49
(g50
g51
NtRp2298
(dp2299
g54
(dp2300
g62
I3
ssg63
g2294
sg56
(lp2301
g836
asbasbasbag49
(g65
g51
NtRp2302
(dp2303
g54
(dp2304
sg63
g2214
sg56
(lp2305
g49
(g70
g51
NtRp2306
(dp2307
g54
(dp2308
g74
g75
ssg63
g2302
sg56
(lp2309
S'HTTP_CACHE_CONTROL'
p2310
asbag49
(g70
g51
NtRp2311
(dp2312
g54
(dp2313
g81
g82
ssg63
g2302
sg56
(lp2314
S':'
asbag49
(g70
g51
NtRp2315
(dp2316
g54
(dp2317
sg63
g2302
sg56
(lp2318
g49
(g50
g51
NtRp2319
(dp2320
g54
(dp2321
g62
I3
ssg63
g2315
sg56
(lp2322
g858
asbasbasbag49
(g65
g51
NtRp2323
(dp2324
g54
(dp2325
sg63
g2214
sg56
(lp2326
g49
(g70
g51
NtRp2327
(dp2328
g54
(dp2329
g74
g75
ssg63
g2323
sg56
(lp2330
S'HTTP_CONNECTION'
p2331
asbag49
(g70
g51
NtRp2332
(dp2333
g54
(dp2334
g81
g82
ssg63
g2323
sg56
(lp2335
S':'
asbag49
(g70
g51
NtRp2336
(dp2337
g54
(dp2338
sg63
g2323
sg56
(lp2339
g49
(g50
g51
NtRp2340
(dp2341
g54
(dp2342
g62
I3
ssg63
g2336
sg56
(lp2343
g880
asbasbasbag49
(g65
g51
NtRp2344
(dp2345
g54
(dp2346
sg63
g2214
sg56
(lp2347
g49
(g70
g51
NtRp2348
(dp2349
g54
(dp2350
g74
g75
ssg63
g2344
sg56
(lp2351
S'HTTP_COOKIE'
p2352
asbag49
(g70
g51
NtRp2353
(dp2354
g54
(dp2355
g81
g82
ssg63
g2344
sg56
(lp2356
S':'
asbag49
(g70
g51
NtRp2357
(dp2358
g54
(dp2359
sg63
g2344
sg56
(lp2360
g49
(g50
g51
NtRp2361
(dp2362
g54
(dp2363
g62
I3
ssg63
g2357
sg56
(lp2364
g902
asbasbasbag49
(g65
g51
NtRp2365
(dp2366
g54
(dp2367
sg63
g2214
sg56
(lp2368
g49
(g70
g51
NtRp2369
(dp2370
g54
(dp2371
g74
g75
ssg63
g2365
sg56
(lp2372
S'HTTP_HOST'
p2373
asbag49
(g70
g51
NtRp2374
(dp2375
g54
(dp2376
g81
g82
ssg63
g2365
sg56
(lp2377
S':'
asbag49
(g70
g51
NtRp2378
(dp2379
g54
(dp2380
sg63
g2365
sg56
(lp2381
g49
(g50
g51
NtRp2382
(dp2383
g54
(dp2384
g62
I3
ssg63
g2378
sg56
(lp2385
g924
asbasbasbag49
(g65
g51
NtRp2386
(dp2387
g54
(dp2388
sg63
g2214
sg56
(lp2389
g49
(g70
g51
NtRp2390
(dp2391
g54
(dp2392
g74
g75
ssg63
g2386
sg56
(lp2393
S'HTTP_REFERER'
p2394
asbag49
(g70
g51
NtRp2395
(dp2396
g54
(dp2397
g81
g82
ssg63
g2386
sg56
(lp2398
S':'
asbag49
(g70
g51
NtRp2399
(dp2400
g54
(dp2401
sg63
g2386
sg56
(lp2402
g49
(g50
g51
NtRp2403
(dp2404
g54
(dp2405
g62
I3
ssg63
g2399
sg56
(lp2406
g946
asbasbasbag49
(g65
g51
NtRp2407
(dp2408
g54
(dp2409
sg63
g2214
sg56
(lp2410
g49
(g70
g51
NtRp2411
(dp2412
g54
(dp2413
g74
g75
ssg63
g2407
sg56
(lp2414
S'HTTP_USER_AGENT'
p2415
asbag49
(g70
g51
NtRp2416
(dp2417
g54
(dp2418
g81
g82
ssg63
g2407
sg56
(lp2419
S':'
asbag49
(g70
g51
NtRp2420
(dp2421
g54
(dp2422
sg63
g2407
sg56
(lp2423
g49
(g50
g51
NtRp2424
(dp2425
g54
(dp2426
g62
I3
ssg63
g2420
sg56
(lp2427
g968
asbasbasbag49
(g65
g51
NtRp2428
(dp2429
g54
(dp2430
sg63
g2214
sg56
(lp2431
g49
(g70
g51
NtRp2432
(dp2433
g54
(dp2434
g74
g75
ssg63
g2428
sg56
(lp2435
S'PATH_INFO'
p2436
asbag49
(g70
g51
NtRp2437
(dp2438
g54
(dp2439
g81
g82
ssg63
g2428
sg56
(lp2440
S':'
asbag49
(g70
g51
NtRp2441
(dp2442
g54
(dp2443
sg63
g2428
sg56
(lp2444
g49
(g50
g51
NtRp2445
(dp2446
g54
(dp2447
g62
I3
ssg63
g2441
sg56
(lp2448
S'/'
asbasbasbag49
(g65
g51
NtRp2449
(dp2450
g54
(dp2451
sg63
g2214
sg56
(lp2452
g49
(g70
g51
NtRp2453
(dp2454
g54
(dp2455
g74
g75
ssg63
g2449
sg56
(lp2456
S'QUERY_STRING'
p2457
asbag49
(g70
g51
NtRp2458
(dp2459
g54
(dp2460
g81
g82
ssg63
g2449
sg56
(lp2461
S':'
asbag49
(g70
g51
NtRp2462
(dp2463
g54
(dp2464
sg63
g2449
sg56
(lp2465
g49
(g50
g51
NtRp2466
(dp2467
g54
(dp2468
g62
I3
ssg63
g2462
sg56
(lp2469
S''
asbasbasbag49
(g65
g51
NtRp2470
(dp2471
g54
(dp2472
sg63
g2214
sg56
(lp2473
g49
(g70
g51
NtRp2474
(dp2475
g54
(dp2476
g74
g75
ssg63
g2470
sg56
(lp2477
S'REMOTE_ADDR'
p2478
asbag49
(g70
g51
NtRp2479
(dp2480
g54
(dp2481
g81
g82
ssg63
g2470
sg56
(lp2482
S':'
asbag49
(g70
g51
NtRp2483
(dp2484
g54
(dp2485
sg63
g2470
sg56
(lp2486
g49
(g50
g51
NtRp2487
(dp2488
g54
(dp2489
g62
I3
ssg63
g2483
sg56
(lp2490
g182
asbasbasbag49
(g65
g51
NtRp2491
(dp2492
g54
(dp2493
sg63
g2214
sg56
(lp2494
g49
(g70
g51
NtRp2495
(dp2496
g54
(dp2497
g74
g75
ssg63
g2491
sg56
(lp2498
S'REMOTE_PORT'
p2499
asbag49
(g70
g51
NtRp2500
(dp2501
g54
(dp2502
g81
g82
ssg63
g2491
sg56
(lp2503
S':'
asbag49
(g70
g51
NtRp2504
(dp2505
g54
(dp2506
sg63
g2491
sg56
(lp2507
g49
(g50
g51
NtRp2508
(dp2509
g54
(dp2510
g62
I3
ssg63
g2504
sg56
(lp2511
g1095
asbasbasbag49
(g65
g51
NtRp2512
(dp2513
g54
(dp2514
sg63
g2214
sg56
(lp2515
g49
(g70
g51
NtRp2516
(dp2517
g54
(dp2518
g74
g75
ssg63
g2512
sg56
(lp2519
S'REQUEST_METHOD'
p2520
asbag49
(g70
g51
NtRp2521
(dp2522
g54
(dp2523
g81
g82
ssg63
g2512
sg56
(lp2524
S':'
asbag49
(g70
g51
NtRp2525
(dp2526
g54
(dp2527
sg63
g2512
sg56
(lp2528
g49
(g50
g51
NtRp2529
(dp2530
g54
(dp2531
g62
I3
ssg63
g2525
sg56
(lp2532
g1117
asbasbasbag49
(g65
g51
NtRp2533
(dp2534
g54
(dp2535
sg63
g2214
sg56
(lp2536
g49
(g70
g51
NtRp2537
(dp2538
g54
(dp2539
g74
g75
ssg63
g2533
sg56
(lp2540
S'SCRIPT_NAME'
p2541
asbag49
(g70
g51
NtRp2542
(dp2543
g54
(dp2544
g81
g82
ssg63
g2533
sg56
(lp2545
S':'
asbag49
(g70
g51
NtRp2546
(dp2547
g54
(dp2548
sg63
g2533
sg56
(lp2549
g49
(g50
g51
NtRp2550
(dp2551
g54
(dp2552
g62
I3
ssg63
g2546
sg56
(lp2553
S''
asbasbasbag49
(g65
g51
NtRp2554
(dp2555
g54
(dp2556
sg63
g2214
sg56
(lp2557
g49
(g70
g51
NtRp2558
(dp2559
g54
(dp2560
g74
g75
ssg63
g2554
sg56
(lp2561
S'SERVER_NAME'
p2562
asbag49
(g70
g51
NtRp2563
(dp2564
g54
(dp2565
g81
g82
ssg63
g2554
sg56
(lp2566
S':'
asbag49
(g70
g51
NtRp2567
(dp2568
g54
(dp2569
sg63
g2554
sg56
(lp2570
g49
(g50
g51
NtRp2571
(dp2572
g54
(dp2573
g62
I3
ssg63
g2567
sg56
(lp2574
g1160
asbasbasbag49
(g65
g51
NtRp2575
(dp2576
g54
(dp2577
sg63
g2214
sg56
(lp2578
g49
(g70
g51
NtRp2579
(dp2580
g54
(dp2581
g74
g75
ssg63
g2575
sg56
(lp2582
S'SERVER_PORT'
p2583
asbag49
(g70
g51
NtRp2584
(dp2585
g54
(dp2586
g81
g82
ssg63
g2575
sg56
(lp2587
S':'
asbag49
(g70
g51
NtRp2588
(dp2589
g54
(dp2590
sg63
g2575
sg56
(lp2591
g49
(g50
g51
NtRp2592
(dp2593
g54
(dp2594
g62
I3
ssg63
g2588
sg56
(lp2595
g1182
asbasbasbag49
(g65
g51
NtRp2596
(dp2597
g54
(dp2598
sg63
g2214
sg56
(lp2599
g49
(g70
g51
NtRp2600
(dp2601
g54
(dp2602
g74
g75
ssg63
g2596
sg56
(lp2603
S'SERVER_PROTOCOL'
p2604
asbag49
(g70
g51
NtRp2605
(dp2606
g54
(dp2607
g81
g82
ssg63
g2596
sg56
(lp2608
S':'
asbag49
(g70
g51
NtRp2609
(dp2610
g54
(dp2611
sg63
g2596
sg56
(lp2612
g49
(g50
g51
NtRp2613
(dp2614
g54
(dp2615
g62
I3
ssg63
g2609
sg56
(lp2616
g1204
asbasbasbag49
(g65
g51
NtRp2617
(dp2618
g54
(dp2619
sg63
g2214
sg56
(lp2620
g49
(g70
g51
NtRp2621
(dp2622
g54
(dp2623
g74
g75
ssg63
g2617
sg56
(lp2624
S'SERVER_SOFTWARE'
p2625
asbag49
(g70
g51
NtRp2626
(dp2627
g54
(dp2628
g81
g82
ssg63
g2617
sg56
(lp2629
S':'
asbag49
(g70
g51
NtRp2630
(dp2631
g54
(dp2632
sg63
g2617
sg56
(lp2633
g49
(g50
g51
NtRp2634
(dp2635
g54
(dp2636
g62
I3
ssg63
g2630
sg56
(lp2637
g1226
asbasbasbag49
(g65
g51
NtRp2638
(dp2639
g54
(dp2640
sg63
g2214
sg56
(lp2641
g49
(g70
g51
NtRp2642
(dp2643
g54
(dp2644
g74
g75
ssg63
g2638
sg56
(lp2645
S'wsgi.errors'
p2646
asbag49
(g70
g51
NtRp2647
(dp2648
g54
(dp2649
g81
g82
ssg63
g2638
sg56
(lp2650
S':'
asbag49
(g70
g51
NtRp2651
(dp2652
g54
(dp2653
sg63
g2638
sg56
(lp2654
g49
(g50
g51
NtRp2655
(dp2656
g54
(dp2657
g62
I3
ssg63
g2651
sg56
(lp2658
S"<open file '<stderr>', mode 'w' at 0x004200B0>"
p2659
asbasbasbag49
(g65
g51
NtRp2660
(dp2661
g54
(dp2662
sg63
g2214
sg56
(lp2663
g49
(g70
g51
NtRp2664
(dp2665
g54
(dp2666
g74
g75
ssg63
g2660
sg56
(lp2667
S'wsgi.file_wrapper'
p2668
asbag49
(g70
g51
NtRp2669
(dp2670
g54
(dp2671
g81
g82
ssg63
g2660
sg56
(lp2672
S':'
asbag49
(g70
g51
NtRp2673
(dp2674
g54
(dp2675
sg63
g2660
sg56
(lp2676
g49
(g50
g51
NtRp2677
(dp2678
g54
(dp2679
g62
I3
ssg63
g2673
sg56
(lp2680
S'<class wsgiref.util.FileWrapper at 0x02CAD8D0>'
p2681
asbasbasbag49
(g65
g51
NtRp2682
(dp2683
g54
(dp2684
sg63
g2214
sg56
(lp2685
g49
(g70
g51
NtRp2686
(dp2687
g54
(dp2688
g74
g75
ssg63
g2682
sg56
(lp2689
S'wsgi.input'
p2690
asbag49
(g70
g51
NtRp2691
(dp2692
g54
(dp2693
g81
g82
ssg63
g2682
sg56
(lp2694
S':'
asbag49
(g70
g51
NtRp2695
(dp2696
g54
(dp2697
sg63
g2682
sg56
(lp2698
g49
(g50
g51
NtRp2699
(dp2700
g54
(dp2701
g62
I3
ssg63
g2695
sg56
(lp2702
S'<cStringIO.StringO object at 0x04466B60>'
p2703
asbasbasbag49
(g65
g51
NtRp2704
(dp2705
g54
(dp2706
sg63
g2214
sg56
(lp2707
g49
(g70
g51
NtRp2708
(dp2709
g54
(dp2710
g74
g75
ssg63
g2704
sg56
(lp2711
S'wsgi.multiprocess'
p2712
asbag49
(g70
g51
NtRp2713
(dp2714
g54
(dp2715
g81
g82
ssg63
g2704
sg56
(lp2716
S':'
asbag49
(g70
g51
NtRp2717
(dp2718
g54
(dp2719
sg63
g2704
sg56
(lp2720
g49
(g50
g51
NtRp2721
(dp2722
g54
(dp2723
g62
I3
ssg63
g2717
sg56
(lp2724
g92
asbasbasbag49
(g65
g51
NtRp2725
(dp2726
g54
(dp2727
sg63
g2214
sg56
(lp2728
g49
(g70
g51
NtRp2729
(dp2730
g54
(dp2731
g74
g75
ssg63
g2725
sg56
(lp2732
S'wsgi.multithread'
p2733
asbag49
(g70
g51
NtRp2734
(dp2735
g54
(dp2736
g81
g82
ssg63
g2725
sg56
(lp2737
S':'
asbag49
(g70
g51
NtRp2738
(dp2739
g54
(dp2740
sg63
g2725
sg56
(lp2741
g49
(g50
g51
NtRp2742
(dp2743
g54
(dp2744
g62
I3
ssg63
g2738
sg56
(lp2745
g726
asbasbasbag49
(g65
g51
NtRp2746
(dp2747
g54
(dp2748
sg63
g2214
sg56
(lp2749
g49
(g70
g51
NtRp2750
(dp2751
g54
(dp2752
g74
g75
ssg63
g2746
sg56
(lp2753
S'wsgi.run_once'
p2754
asbag49
(g70
g51
NtRp2755
(dp2756
g54
(dp2757
g81
g82
ssg63
g2746
sg56
(lp2758
S':'
asbag49
(g70
g51
NtRp2759
(dp2760
g54
(dp2761
sg63
g2746
sg56
(lp2762
g49
(g50
g51
NtRp2763
(dp2764
g54
(dp2765
g62
I3
ssg63
g2759
sg56
(lp2766
g92
asbasbasbag49
(g65
g51
NtRp2767
(dp2768
g54
(dp2769
sg63
g2214
sg56
(lp2770
g49
(g70
g51
NtRp2771
(dp2772
g54
(dp2773
g74
g75
ssg63
g2767
sg56
(lp2774
S'wsgi.url_scheme'
p2775
asbag49
(g70
g51
NtRp2776
(dp2777
g54
(dp2778
g81
g82
ssg63
g2767
sg56
(lp2779
S':'
asbag49
(g70
g51
NtRp2780
(dp2781
g54
(dp2782
sg63
g2767
sg56
(lp2783
g49
(g50
g51
NtRp2784
(dp2785
g54
(dp2786
g62
I3
ssg63
g2780
sg56
(lp2787
g1508
asbasbasbag49
(g65
g51
NtRp2788
(dp2789
g54
(dp2790
sg63
g2214
sg56
(lp2791
g49
(g70
g51
NtRp2792
(dp2793
g54
(dp2794
g74
g75
ssg63
g2788
sg56
(lp2795
S'wsgi.version'
p2796
asbag49
(g70
g51
NtRp2797
(dp2798
g54
(dp2799
g81
g82
ssg63
g2788
sg56
(lp2800
S':'
asbag49
(g70
g51
NtRp2801
(dp2802
g54
(dp2803
sg63
g2788
sg56
(lp2804
g49
(g50
g51
NtRp2805
(dp2806
g54
(dp2807
g62
I3
ssg63
g2801
sg56
(lp2808
S'1'
asbasbasbasbasbasbasbasbasbasbasbasbasbsS'frames'
p2809
(lp2810
(dp2811
S'file'
p2812
S'C:\\Users\\Bussiere\\Dropbox\\Projets\\jackpoint\\web2py\\gluon\\restricted.py'
p2813
sS'dump'
p2814
(dp2815
sS'lnum'
p2816
I205
sS'lines'
p2817
(dp2818
I200
S'    try:'
p2819
sI201
S'        if type(code) == types.CodeType:'
p2820
sI202
S'            ccode = code'
p2821
sI203
S'        else:'
p2822
sI204
S'            ccode = compile2(code,layer)'
p2823
sI205
S'        exec ccode in environment'
p2824
sI206
S'    except HTTP:'
p2825
sI207
S'        raise'
p2826
sI208
S'    except RestrictedError:'
p2827
sI209
S'        # do not encapsulate (obfuscate) the original RestrictedError'
p2828
ssS'call'
p2829
S'(code=\'response.write(\\\'\\\\n<!DOCTYPE html PUBLIC "-//W3C/...      //--></script>\\\\n\\\\n</body>\\\\n\\\', escape=False)\', environment={\'A\': <class \'gluon.html.A\'>, \'Auth\': <class \'gluon.tools.Auth\'>, \'B\': <class \'gluon.html.B\'>, \'BEAUTIFY\': <class \'gluon.html.BEAUTIFY\'>, \'BODY\': <class \'gluon.html.BODY\'>, \'BR\': <class \'gluon.html.BR\'>, \'BUTTON\': <class \'gluon.html.BUTTON\'>, \'CAT\': <class \'gluon.html.CAT\'>, \'CENTER\': <class \'gluon.html.CENTER\'>, \'CLEANUP\': <class \'gluon.validators.CLEANUP\'>, ...}, layer=r\'C:\\Users\\Bussiere\\Dropbox\\Projets\\jackpoint\\web2py\\applications\\init\\views\\default/index.html\')'
p2830
sS'func'
p2831
S'restricted'
p2832
sa(dp2833
g2812
S'C:\\Users\\Bussiere\\Dropbox\\Projets\\jackpoint\\web2py\\applications\\init\\views\\default\\index.html'
p2834
sg2814
(dp2835
sg2816
I13
sg2817
(dp2836
I4
S"response.write('\\n  ', escape=False)"
p2837
sI5
S"if request.args(0)=='login':"
p2838
sI6
S"    response.write('\\n  ', escape=False)"
p2839
sI7
S"    if not 'register' in auth.settings.actions_disabled:"
p2840
sI8
S"        response.write('\\n  <br/>\\n  ', escape=False)"
p2841
sI9
S'        pass'
p2842
sI10
S"    response.write('\\n  ', escape=False)"
p2843
sI11
S'    pass'
p2844
sI12
S'response.write(\'\\n\\n\\n\\n</div>\\n<a href="../invitation">Vous avez une invitation ? Follow the rabbit ...</a><br>\\n<a href="\', escape=False)'
p2845
sI13
S'faq'
p2846
sI14
S'response.write(\'">FAQ</a>\\n<script language="javascript"><!--\\n      jQuery("#web2py_user_form input:visible:enabled:first").focus();\\n      //--></script>\\n\\n</body>\\n\', escape=False)'
p2847
ssg2829
S'()'
p2848
sg2831
S'<module>'
p2849
sasS'pyver'
p2850
S'Python 2.5.4: C:\\Users\\Bussiere\\Dropbox\\Projets\\jackpoint\\web2py\\web2py.exe'
p2851
sS'session'
p2852
g49
(g50
g51
NtRp2853
(dp2854
g54
(dp2855
sg56
(lp2856
g49
(g58
g51
NtRp2857
(dp2858
g54
(dp2859
g62
I5
ssg63
Nsg56
(lp2860
sbasbsS'etype'
p2861
S"<type 'exceptions.NameError'>"
p2862
sS'date'
p2863
S'Thu Mar 15 00:16:48 2012'
p2864
sS'response'
p2865
g49
(g50
g51
NtRp2866
(dp2867
g54
(dp2868
sg56
(lp2869
g49
(g58
g51
NtRp2870
(dp2871
g54
(dp2872
g62
I5
ssg63
Nsg56
(lp2873
g49
(g65
g51
NtRp2874
(dp2875
g54
(dp2876
sg63
g2870
sg56
(lp2877
g49
(g70
g51
NtRp2878
(dp2879
g54
(dp2880
g74
g75
ssg63
g2874
sg56
(lp2881
g147
asbag49
(g70
g51
NtRp2882
(dp2883
g54
(dp2884
g81
g82
ssg63
g2874
sg56
(lp2885
S':'
asbag49
(g70
g51
NtRp2886
(dp2887
g54
(dp2888
sg63
g2874
sg56
(lp2889
g49
(g50
g51
NtRp2890
(dp2891
g54
(dp2892
g62
I5
ssg63
g2886
sg56
(lp2893
S'<cStringIO.StringO object at 0x04466660>'
p2894
asbasbasbag49
(g65
g51
NtRp2895
(dp2896
g54
(dp2897
sg63
g2870
sg56
(lp2898
g49
(g70
g51
NtRp2899
(dp2900
g54
(dp2901
g74
g75
ssg63
g2895
sg56
(lp2902
g213
asbag49
(g70
g51
NtRp2903
(dp2904
g54
(dp2905
g81
g82
ssg63
g2895
sg56
(lp2906
S':'
asbag49
(g70
g51
NtRp2907
(dp2908
g54
(dp2909
sg63
g2895
sg56
(lp2910
g49
(g50
g51
NtRp2911
(dp2912
g54
(dp2913
g62
I5
ssg63
g2907
sg56
(lp2914
g49
(g58
g51
NtRp2915
(dp2916
g54
(dp2917
g62
I4
ssg63
Nsg56
(lp2918
g49
(g65
g51
NtRp2919
(dp2920
g54
(dp2921
sg63
g2915
sg56
(lp2922
g49
(g70
g51
NtRp2923
(dp2924
g54
(dp2925
g74
g75
ssg63
g2919
sg56
(lp2926
S'session_id_init'
p2927
asbag49
(g70
g51
NtRp2928
(dp2929
g54
(dp2930
g81
g82
ssg63
g2919
sg56
(lp2931
S':'
asbag49
(g70
g51
NtRp2932
(dp2933
g54
(dp2934
sg63
g2919
sg56
(lp2935
g49
(g50
g51
NtRp2936
(dp2937
g54
(dp2938
g62
I4
ssg63
g2932
sg56
(lp2939
g49
(g58
g51
NtRp2940
(dp2941
g54
(dp2942
g62
I3
ssg63
Nsg56
(lp2943
g49
(g65
g51
NtRp2944
(dp2945
g54
(dp2946
sg63
g2940
sg56
(lp2947
g49
(g70
g51
NtRp2948
(dp2949
g54
(dp2950
g74
g75
ssg63
g2944
sg56
(lp2951
g263
asbag49
(g70
g51
NtRp2952
(dp2953
g54
(dp2954
g81
g82
ssg63
g2944
sg56
(lp2955
S':'
asbag49
(g70
g51
NtRp2956
(dp2957
g54
(dp2958
sg63
g2944
sg56
(lp2959
g49
(g50
g51
NtRp2960
(dp2961
g54
(dp2962
g62
I3
ssg63
g2956
sg56
(lp2963
S''
asbasbasbag49
(g65
g51
NtRp2964
(dp2965
g54
(dp2966
sg63
g2940
sg56
(lp2967
g49
(g70
g51
NtRp2968
(dp2969
g54
(dp2970
g74
g75
ssg63
g2964
sg56
(lp2971
g284
asbag49
(g70
g51
NtRp2972
(dp2973
g54
(dp2974
g81
g82
ssg63
g2964
sg56
(lp2975
S':'
asbag49
(g70
g51
NtRp2976
(dp2977
g54
(dp2978
sg63
g2964
sg56
(lp2979
g49
(g50
g51
NtRp2980
(dp2981
g54
(dp2982
g62
I3
ssg63
g2976
sg56
(lp2983
S''
asbasbasbag49
(g65
g51
NtRp2984
(dp2985
g54
(dp2986
sg63
g2940
sg56
(lp2987
g49
(g70
g51
NtRp2988
(dp2989
g54
(dp2990
g74
g75
ssg63
g2984
sg56
(lp2991
g305
asbag49
(g70
g51
NtRp2992
(dp2993
g54
(dp2994
g81
g82
ssg63
g2984
sg56
(lp2995
S':'
asbag49
(g70
g51
NtRp2996
(dp2997
g54
(dp2998
sg63
g2984
sg56
(lp2999
g49
(g50
g51
NtRp3000
(dp3001
g54
(dp3002
g62
I3
ssg63
g2996
sg56
(lp3003
S''
asbasbasbag49
(g65
g51
NtRp3004
(dp3005
g54
(dp3006
sg63
g2940
sg56
(lp3007
g49
(g70
g51
NtRp3008
(dp3009
g54
(dp3010
g74
g75
ssg63
g3004
sg56
(lp3011
g326
asbag49
(g70
g51
NtRp3012
(dp3013
g54
(dp3014
g81
g82
ssg63
g3004
sg56
(lp3015
S':'
asbag49
(g70
g51
NtRp3016
(dp3017
g54
(dp3018
sg63
g3004
sg56
(lp3019
g49
(g50
g51
NtRp3020
(dp3021
g54
(dp3022
g62
I3
ssg63
g3016
sg56
(lp3023
S''
asbasbasbag49
(g65
g51
NtRp3024
(dp3025
g54
(dp3026
sg63
g2940
sg56
(lp3027
g49
(g70
g51
NtRp3028
(dp3029
g54
(dp3030
g74
g75
ssg63
g3024
sg56
(lp3031
g347
asbag49
(g70
g51
NtRp3032
(dp3033
g54
(dp3034
g81
g82
ssg63
g3024
sg56
(lp3035
S':'
asbag49
(g70
g51
NtRp3036
(dp3037
g54
(dp3038
sg63
g3024
sg56
(lp3039
g49
(g50
g51
NtRp3040
(dp3041
g54
(dp3042
g62
I3
ssg63
g3036
sg56
(lp3043
S'/'
asbasbasbag49
(g65
g51
NtRp3044
(dp3045
g54
(dp3046
sg63
g2940
sg56
(lp3047
g49
(g70
g51
NtRp3048
(dp3049
g54
(dp3050
g74
g75
ssg63
g3044
sg56
(lp3051
g368
asbag49
(g70
g51
NtRp3052
(dp3053
g54
(dp3054
g81
g82
ssg63
g3044
sg56
(lp3055
S':'
asbag49
(g70
g51
NtRp3056
(dp3057
g54
(dp3058
sg63
g3044
sg56
(lp3059
g49
(g50
g51
NtRp3060
(dp3061
g54
(dp3062
g62
I3
ssg63
g3056
sg56
(lp3063
S''
asbasbasbag49
(g65
g51
NtRp3064
(dp3065
g54
(dp3066
sg63
g2940
sg56
(lp3067
g49
(g70
g51
NtRp3068
(dp3069
g54
(dp3070
g74
g75
ssg63
g3064
sg56
(lp3071
g389
asbag49
(g70
g51
NtRp3072
(dp3073
g54
(dp3074
g81
g82
ssg63
g3064
sg56
(lp3075
S':'
asbag49
(g70
g51
NtRp3076
(dp3077
g54
(dp3078
sg63
g3064
sg56
(lp3079
g49
(g50
g51
NtRp3080
(dp3081
g54
(dp3082
g62
I3
ssg63
g3076
sg56
(lp3083
S''
asbasbasbasbasbasbasbasbasbasbasbag49
(g65
g51
NtRp3084
(dp3085
g54
(dp3086
sg63
g2870
sg56
(lp3087
g49
(g70
g51
NtRp3088
(dp3089
g54
(dp3090
g74
g75
ssg63
g3084
sg56
(lp3091
S'delimiters'
p3092
asbag49
(g70
g51
NtRp3093
(dp3094
g54
(dp3095
g81
g82
ssg63
g3084
sg56
(lp3096
S':'
asbag49
(g70
g51
NtRp3097
(dp3098
g54
(dp3099
sg63
g3084
sg56
(lp3100
g49
(g50
g51
NtRp3101
(dp3102
g54
(dp3103
g62
I5
ssg63
g3097
sg56
(lp3104
g49
(g58
g51
NtRp3105
(dp3106
g54
(dp3107
g62
I4
ssg63
Nsg56
(lp3108
g49
(g65
g51
NtRp3109
(dp3110
g54
(dp3111
sg63
g3105
sg56
(lp3112
g49
(g70
g51
NtRp3113
(dp3114
g54
(dp3115
sg63
g3109
sg56
(lp3116
g49
(g50
g51
NtRp3117
(dp3118
g54
(dp3119
g62
I4
ssg63
g3113
sg56
(lp3120
S'{{'
p3121
asbasbasbag49
(g65
g51
NtRp3122
(dp3123
g54
(dp3124
sg63
g3105
sg56
(lp3125
g49
(g70
g51
NtRp3126
(dp3127
g54
(dp3128
sg63
g3122
sg56
(lp3129
g49
(g50
g51
NtRp3130
(dp3131
g54
(dp3132
g62
I4
ssg63
g3126
sg56
(lp3133
S'}}'
p3134
asbasbasbasbasbasbasbag49
(g65
g51
NtRp3135
(dp3136
g54
(dp3137
sg63
g2870
sg56
(lp3138
g49
(g70
g51
NtRp3139
(dp3140
g54
(dp3141
g74
g75
ssg63
g3135
sg56
(lp3142
S'files'
p3143
asbag49
(g70
g51
NtRp3144
(dp3145
g54
(dp3146
g81
g82
ssg63
g3135
sg56
(lp3147
S':'
asbag49
(g70
g51
NtRp3148
(dp3149
g54
(dp3150
sg63
g3135
sg56
(lp3151
g49
(g50
g51
NtRp3152
(dp3153
g54
(dp3154
g62
I5
ssg63
g3148
sg56
(lp3155
g49
(g58
g51
NtRp3156
(dp3157
g54
(dp3158
g62
I4
ssg63
Nsg56
(lp3159
sbasbasbasbag49
(g65
g51
NtRp3160
(dp3161
g54
(dp3162
sg63
g2870
sg56
(lp3163
g49
(g70
g51
NtRp3164
(dp3165
g54
(dp3166
g74
g75
ssg63
g3160
sg56
(lp3167
S'flash'
p3168
asbag49
(g70
g51
NtRp3169
(dp3170
g54
(dp3171
g81
g82
ssg63
g3160
sg56
(lp3172
S':'
asbag49
(g70
g51
NtRp3173
(dp3174
g54
(dp3175
sg63
g3160
sg56
(lp3176
g49
(g50
g51
NtRp3177
(dp3178
g54
(dp3179
g62
I5
ssg63
g3173
sg56
(lp3180
S''
asbasbasbag49
(g65
g51
NtRp3181
(dp3182
g54
(dp3183
sg63
g2870
sg56
(lp3184
g49
(g70
g51
NtRp3185
(dp3186
g54
(dp3187
g74
g75
ssg63
g3181
sg56
(lp3188
S'generic_patterns'
p3189
asbag49
(g70
g51
NtRp3190
(dp3191
g54
(dp3192
g81
g82
ssg63
g3181
sg56
(lp3193
S':'
asbag49
(g70
g51
NtRp3194
(dp3195
g54
(dp3196
sg63
g3181
sg56
(lp3197
g49
(g50
g51
NtRp3198
(dp3199
g54
(dp3200
g62
I5
ssg63
g3194
sg56
(lp3201
g49
(g58
g51
NtRp3202
(dp3203
g54
(dp3204
g62
I4
ssg63
Nsg56
(lp3205
g49
(g65
g51
NtRp3206
(dp3207
g54
(dp3208
sg63
g3202
sg56
(lp3209
g49
(g70
g51
NtRp3210
(dp3211
g54
(dp3212
sg63
g3206
sg56
(lp3213
g49
(g50
g51
NtRp3214
(dp3215
g54
(dp3216
g62
I4
ssg63
g3210
sg56
(lp3217
S'*'
asbasbasbasbasbasbasbag49
(g65
g51
NtRp3218
(dp3219
g54
(dp3220
sg63
g2870
sg56
(lp3221
g49
(g70
g51
NtRp3222
(dp3223
g54
(dp3224
g74
g75
ssg63
g3218
sg56
(lp3225
S'headers'
p3226
asbag49
(g70
g51
NtRp3227
(dp3228
g54
(dp3229
g81
g82
ssg63
g3218
sg56
(lp3230
S':'
asbag49
(g70
g51
NtRp3231
(dp3232
g54
(dp3233
sg63
g3218
sg56
(lp3234
g49
(g50
g51
NtRp3235
(dp3236
g54
(dp3237
g62
I5
ssg63
g3231
sg56
(lp3238
g49
(g58
g51
NtRp3239
(dp3240
g54
(dp3241
g62
I4
ssg63
Nsg56
(lp3242
g49
(g65
g51
NtRp3243
(dp3244
g54
(dp3245
sg63
g3239
sg56
(lp3246
g49
(g70
g51
NtRp3247
(dp3248
g54
(dp3249
g74
g75
ssg63
g3243
sg56
(lp3250
S'Cache-Control'
p3251
asbag49
(g70
g51
NtRp3252
(dp3253
g54
(dp3254
g81
g82
ssg63
g3243
sg56
(lp3255
S':'
asbag49
(g70
g51
NtRp3256
(dp3257
g54
(dp3258
sg63
g3243
sg56
(lp3259
g49
(g50
g51
NtRp3260
(dp3261
g54
(dp3262
g62
I4
ssg63
g3256
sg56
(lp3263
S'no-store, no-cache, must-revalidate, post-check=0, pre-check=0'
p3264
asbasbasbag49
(g65
g51
NtRp3265
(dp3266
g54
(dp3267
sg63
g3239
sg56
(lp3268
g49
(g70
g51
NtRp3269
(dp3270
g54
(dp3271
g74
g75
ssg63
g3265
sg56
(lp3272
S'Content-Type'
p3273
asbag49
(g70
g51
NtRp3274
(dp3275
g54
(dp3276
g81
g82
ssg63
g3265
sg56
(lp3277
S':'
asbag49
(g70
g51
NtRp3278
(dp3279
g54
(dp3280
sg63
g3265
sg56
(lp3281
g49
(g50
g51
NtRp3282
(dp3283
g54
(dp3284
g62
I4
ssg63
g3278
sg56
(lp3285
S'text/html; charset=utf-8'
p3286
asbasbasbag49
(g65
g51
NtRp3287
(dp3288
g54
(dp3289
sg63
g3239
sg56
(lp3290
g49
(g70
g51
NtRp3291
(dp3292
g54
(dp3293
g74
g75
ssg63
g3287
sg56
(lp3294
S'Expires'
p3295
asbag49
(g70
g51
NtRp3296
(dp3297
g54
(dp3298
g81
g82
ssg63
g3287
sg56
(lp3299
S':'
asbag49
(g70
g51
NtRp3300
(dp3301
g54
(dp3302
sg63
g3287
sg56
(lp3303
g49
(g50
g51
NtRp3304
(dp3305
g54
(dp3306
g62
I4
ssg63
g3300
sg56
(lp3307
S'Wed, 14 Mar 2012 23:16:48 GMT'
p3308
asbasbasbag49
(g65
g51
NtRp3309
(dp3310
g54
(dp3311
sg63
g3239
sg56
(lp3312
g49
(g70
g51
NtRp3313
(dp3314
g54
(dp3315
g74
g75
ssg63
g3309
sg56
(lp3316
S'Pragma'
p3317
asbag49
(g70
g51
NtRp3318
(dp3319
g54
(dp3320
g81
g82
ssg63
g3309
sg56
(lp3321
S':'
asbag49
(g70
g51
NtRp3322
(dp3323
g54
(dp3324
sg63
g3309
sg56
(lp3325
g49
(g50
g51
NtRp3326
(dp3327
g54
(dp3328
g62
I4
ssg63
g3322
sg56
(lp3329
S'no-cache'
p3330
asbasbasbag49
(g65
g51
NtRp3331
(dp3332
g54
(dp3333
sg63
g3239
sg56
(lp3334
g49
(g70
g51
NtRp3335
(dp3336
g54
(dp3337
g74
g75
ssg63
g3331
sg56
(lp3338
S'X-Powered-By'
p3339
asbag49
(g70
g51
NtRp3340
(dp3341
g54
(dp3342
g81
g82
ssg63
g3331
sg56
(lp3343
S':'
asbag49
(g70
g51
NtRp3344
(dp3345
g54
(dp3346
sg63
g3331
sg56
(lp3347
g49
(g50
g51
NtRp3348
(dp3349
g54
(dp3350
g62
I4
ssg63
g3344
sg56
(lp3351
S'web2py'
p3352
asbasbasbasbasbasbasbag49
(g65
g51
NtRp3353
(dp3354
g54
(dp3355
sg63
g2870
sg56
(lp3356
g49
(g70
g51
NtRp3357
(dp3358
g54
(dp3359
g74
g75
ssg63
g3353
sg56
(lp3360
S'menu'
p3361
asbag49
(g70
g51
NtRp3362
(dp3363
g54
(dp3364
g81
g82
ssg63
g3353
sg56
(lp3365
S':'
asbag49
(g70
g51
NtRp3366
(dp3367
g54
(dp3368
sg63
g3353
sg56
(lp3369
g49
(g50
g51
NtRp3370
(dp3371
g54
(dp3372
g62
I5
ssg63
g3366
sg56
(lp3373
g49
(g58
g51
NtRp3374
(dp3375
g54
(dp3376
g62
I4
ssg63
Nsg56
(lp3377
g49
(g65
g51
NtRp3378
(dp3379
g54
(dp3380
sg63
g3374
sg56
(lp3381
g49
(g70
g51
NtRp3382
(dp3383
g54
(dp3384
sg63
g3378
sg56
(lp3385
g49
(g50
g51
NtRp3386
(dp3387
g54
(dp3388
g62
I4
ssg63
g3382
sg56
(lp3389
g49
(g58
g51
NtRp3390
(dp3391
g54
(dp3392
g62
I3
ssg63
Nsg56
(lp3393
g49
(g65
g51
NtRp3394
(dp3395
g54
(dp3396
sg63
g3390
sg56
(lp3397
g49
(g70
g51
NtRp3398
(dp3399
g54
(dp3400
sg63
g3394
sg56
(lp3401
g49
(g50
g51
NtRp3402
(dp3403
g54
(dp3404
g62
I3
ssg63
g3398
sg56
(lp3405
cgluon.languages
lazyT_unpickle
p3406
(S's\x04\x00\x00\x00Home'
tRp3407
asbasbasbag49
(g65
g51
NtRp3408
(dp3409
g54
(dp3410
sg63
g3390
sg56
(lp3411
g49
(g70
g51
NtRp3412
(dp3413
g54
(dp3414
sg63
g3408
sg56
(lp3415
g49
(g50
g51
NtRp3416
(dp3417
g54
(dp3418
g62
I3
ssg63
g3412
sg56
(lp3419
g92
asbasbasbag49
(g65
g51
NtRp3420
(dp3421
g54
(dp3422
sg63
g3390
sg56
(lp3423
g49
(g70
g51
NtRp3424
(dp3425
g54
(dp3426
sg63
g3420
sg56
(lp3427
g49
(g50
g51
NtRp3428
(dp3429
g54
(dp3430
g62
I3
ssg63
g3424
sg56
(lp3431
S'/init/default/index'
p3432
asbasbasbag49
(g65
g51
NtRp3433
(dp3434
g54
(dp3435
sg63
g3390
sg56
(lp3436
g49
(g70
g51
NtRp3437
(dp3438
g54
(dp3439
sg63
g3433
sg56
(lp3440
g49
(g50
g51
NtRp3441
(dp3442
g54
(dp3443
g62
I3
ssg63
g3437
sg56
(lp3444
g49
(g58
g51
NtRp3445
(dp3446
g54
(dp3447
g62
I2
ssg63
Nsg56
(lp3448
sbasbasbasbasbasbasbasbag49
(g65
g51
NtRp3449
(dp3450
g54
(dp3451
sg63
g3374
sg56
(lp3452
g49
(g70
g51
NtRp3453
(dp3454
g54
(dp3455
sg63
g3449
sg56
(lp3456
g49
(g50
g51
NtRp3457
(dp3458
g54
(dp3459
g62
I4
ssg63
g3453
sg56
(lp3460
g49
(g58
g51
NtRp3461
(dp3462
g54
(dp3463
g62
I3
ssg63
Nsg56
(lp3464
g49
(g65
g51
NtRp3465
(dp3466
g54
(dp3467
sg63
g3461
sg56
(lp3468
g49
(g70
g51
NtRp3469
(dp3470
g54
(dp3471
sg63
g3465
sg56
(lp3472
g49
(g50
g51
NtRp3473
(dp3474
g54
(dp3475
g62
I3
ssg63
g3469
sg56
(lp3476
g49
(cgluon.html
SPAN
p3477
g51
NtRp3478
(dp3479
g54
(dp3480
g74
S'color:yellow'
p3481
ssg63
Nsg56
(lp3482
g3352
asbasbasbasbag49
(g65
g51
NtRp3483
(dp3484
g54
(dp3485
sg63
g3461
sg56
(lp3486
g49
(g70
g51
NtRp3487
(dp3488
g54
(dp3489
sg63
g3483
sg56
(lp3490
g49
(g50
g51
NtRp3491
(dp3492
g54
(dp3493
g62
I3
ssg63
g3487
sg56
(lp3494
g92
asbasbasbag49
(g65
g51
NtRp3495
(dp3496
g54
(dp3497
sg63
g3461
sg56
(lp3498
g49
(g70
g51
NtRp3499
(dp3500
g54
(dp3501
sg63
g3495
sg56
(lp3502
g49
(g50
g51
NtRp3503
(dp3504
g54
(dp3505
g62
I3
ssg63
g3499
sg56
(lp3506
S'None'
p3507
asbasbasbag49
(g65
g51
NtRp3508
(dp3509
g54
(dp3510
sg63
g3461
sg56
(lp3511
g49
(g70
g51
NtRp3512
(dp3513
g54
(dp3514
sg63
g3508
sg56
(lp3515
g49
(g50
g51
NtRp3516
(dp3517
g54
(dp3518
g62
I3
ssg63
g3512
sg56
(lp3519
g49
(g58
g51
NtRp3520
(dp3521
g54
(dp3522
g62
I2
ssg63
Nsg56
(lp3523
g49
(g65
g51
NtRp3524
(dp3525
g54
(dp3526
sg63
g3520
sg56
(lp3527
g49
(g70
g51
NtRp3528
(dp3529
g54
(dp3530
sg63
g3524
sg56
(lp3531
g49
(g50
g51
NtRp3532
(dp3533
g54
(dp3534
g62
I2
ssg63
g3528
sg56
(lp3535
g49
(g58
g51
NtRp3536
(dp3537
g54
(dp3538
g62
I1
ssg63
Nsg56
(lp3539
g49
(g65
g51
NtRp3540
(dp3541
g54
(dp3542
sg63
g3536
sg56
(lp3543
g49
(g70
g51
NtRp3544
(dp3545
g54
(dp3546
sg63
g3540
sg56
(lp3547
g49
(g50
g51
NtRp3548
(dp3549
g54
(dp3550
g62
I1
ssg63
g3544
sg56
(lp3551
g3406
(S's\x08\x00\x00\x00My Sites'
tRp3552
asbasbasbag49
(g65
g51
NtRp3553
(dp3554
g54
(dp3555
sg63
g3536
sg56
(lp3556
g49
(g70
g51
NtRp3557
(dp3558
g54
(dp3559
sg63
g3553
sg56
(lp3560
g49
(g50
g51
NtRp3561
(dp3562
g54
(dp3563
g62
I1
ssg63
g3557
sg56
(lp3564
I00
asbasbasbag49
(g65
g51
NtRp3565
(dp3566
g54
(dp3567
sg63
g3536
sg56
(lp3568
g49
(g70
g51
NtRp3569
(dp3570
g54
(dp3571
sg63
g3565
sg56
(lp3572
g49
(g50
g51
NtRp3573
(dp3574
g54
(dp3575
g62
I1
ssg63
g3569
sg56
(lp3576
S'/admin/default/site'
p3577
asbasbasbasbasbasbasbag49
(g65
g51
NtRp3578
(dp3579
g54
(dp3580
sg63
g3520
sg56
(lp3581
g49
(g70
g51
NtRp3582
(dp3583
g54
(dp3584
sg63
g3578
sg56
(lp3585
g49
(g50
g51
NtRp3586
(dp3587
g54
(dp3588
g62
I2
ssg63
g3582
sg56
(lp3589
g49
(g58
g51
NtRp3590
(dp3591
g54
(dp3592
g62
I1
ssg63
Nsg56
(lp3593
g49
(g65
g51
NtRp3594
(dp3595
g54
(dp3596
sg63
g3590
sg56
(lp3597
g49
(g70
g51
NtRp3598
(dp3599
g54
(dp3600
sg63
g3594
sg56
(lp3601
g49
(g50
g51
NtRp3602
(dp3603
g54
(dp3604
g62
I1
ssg63
g3598
sg56
(lp3605
g3406
(S's\x08\x00\x00\x00This App'
tRp3606
asbasbasbag49
(g65
g51
NtRp3607
(dp3608
g54
(dp3609
sg63
g3590
sg56
(lp3610
g49
(g70
g51
NtRp3611
(dp3612
g54
(dp3613
sg63
g3607
sg56
(lp3614
g49
(g50
g51
NtRp3615
(dp3616
g54
(dp3617
g62
I1
ssg63
g3611
sg56
(lp3618
I00
asbasbasbag49
(g65
g51
NtRp3619
(dp3620
g54
(dp3621
sg63
g3590
sg56
(lp3622
g49
(g70
g51
NtRp3623
(dp3624
g54
(dp3625
sg63
g3619
sg56
(lp3626
g49
(g50
g51
NtRp3627
(dp3628
g54
(dp3629
g62
I1
ssg63
g3623
sg56
(lp3630
S'/admin/default/design/init'
p3631
asbasbasbag49
(g65
g51
NtRp3632
(dp3633
g54
(dp3634
sg63
g3590
sg56
(lp3635
g49
(g70
g51
NtRp3636
(dp3637
g54
(dp3638
sg63
g3632
sg56
(lp3639
g49
(g50
g51
NtRp3640
(dp3641
g54
(dp3642
g62
I1
ssg63
g3636
sg56
(lp3643
(lp3644
(g3406
(S's\n\x00\x00\x00Controller'
tRp3645
I00
S'/admin/default/edit/init/controllers/default.py'
tp3646
a(g3406
(S's\x04\x00\x00\x00View'
tRp3647
I00
S'/admin/default/edit/init/views/default/index.html'
tp3648
a(g3406
(S's\x06\x00\x00\x00Layout'
tRp3649
I00
S'/admin/default/edit/init/views/layout.html'
tp3650
a(g3406
(S's\n\x00\x00\x00Stylesheet'
tRp3651
I00
S'/admin/default/edit/init/static/css/web2py.css'
tp3652
a(g3406
(S's\x08\x00\x00\x00DB Model'
tRp3653
I00
S'/admin/default/edit/init/models/db.py'
tp3654
a(g3406
(S's\n\x00\x00\x00Menu Model'
tRp3655
I00
S'/admin/default/edit/init/models/menu.py'
tp3656
a(g3406
(S's\x08\x00\x00\x00Database'
tRp3657
I00
S'/init/appadmin/index'
tp3658
a(g3406
(S's\x06\x00\x00\x00Errors'
tRp3659
I00
S'/admin/default/errors/init'
tp3660
a(g3406
(S's\x05\x00\x00\x00About'
tRp3661
I00
S'/admin/default/about/init'
tp3662
aasbasbasbasbasbasbasbag49
(g65
g51
NtRp3663
(dp3664
g54
(dp3665
sg63
g3520
sg56
(lp3666
g49
(g70
g51
NtRp3667
(dp3668
g54
(dp3669
sg63
g3663
sg56
(lp3670
g49
(g50
g51
NtRp3671
(dp3672
g54
(dp3673
g62
I2
ssg63
g3667
sg56
(lp3674
g49
(g58
g51
NtRp3675
(dp3676
g54
(dp3677
g62
I1
ssg63
Nsg56
(lp3678
g49
(g65
g51
NtRp3679
(dp3680
g54
(dp3681
sg63
g3675
sg56
(lp3682
g49
(g70
g51
NtRp3683
(dp3684
g54
(dp3685
sg63
g3679
sg56
(lp3686
g49
(g50
g51
NtRp3687
(dp3688
g54
(dp3689
g62
I1
ssg63
g3683
sg56
(lp3690
S'web2py.com'
p3691
asbasbasbag49
(g65
g51
NtRp3692
(dp3693
g54
(dp3694
sg63
g3675
sg56
(lp3695
g49
(g70
g51
NtRp3696
(dp3697
g54
(dp3698
sg63
g3692
sg56
(lp3699
g49
(g50
g51
NtRp3700
(dp3701
g54
(dp3702
g62
I1
ssg63
g3696
sg56
(lp3703
I00
asbasbasbag49
(g65
g51
NtRp3704
(dp3705
g54
(dp3706
sg63
g3675
sg56
(lp3707
g49
(g70
g51
NtRp3708
(dp3709
g54
(dp3710
sg63
g3704
sg56
(lp3711
g49
(g50
g51
NtRp3712
(dp3713
g54
(dp3714
g62
I1
ssg63
g3708
sg56
(lp3715
S'http://www.web2py.com'
p3716
asbasbasbag49
(g65
g51
NtRp3717
(dp3718
g54
(dp3719
sg63
g3675
sg56
(lp3720
g49
(g70
g51
NtRp3721
(dp3722
g54
(dp3723
sg63
g3717
sg56
(lp3724
g49
(g50
g51
NtRp3725
(dp3726
g54
(dp3727
g62
I1
ssg63
g3721
sg56
(lp3728
(lp3729
(g3406
(S's\x08\x00\x00\x00Download'
tRp3730
I00
S'http://www.web2py.com/examples/default/download'
p3731
tp3732
a(g3406
(S's\x07\x00\x00\x00Support'
tRp3733
I00
S'http://www.web2py.com/examples/default/support'
p3734
tp3735
a(g3406
(S's\x04\x00\x00\x00Demo'
tRp3736
I00
S'http://web2py.com/demo_admin'
p3737
tp3738
a(g3406
(S's\x0e\x00\x00\x00Quick Examples'
tRp3739
I00
S'http://web2py.com/examples/default/examples'
p3740
tp3741
a(g3406
(S's\x03\x00\x00\x00FAQ'
tRp3742
I00
S'http://web2py.com/AlterEgo'
p3743
tp3744
a(g3406
(S's\x06\x00\x00\x00Videos'
tRp3745
I00
S'http://www.web2py.com/examples/default/videos/'
p3746
tp3747
a(g3406
(S's\x11\x00\x00\x00Free Applications'
tRp3748
I00
S'http://web2py.com/appliances'
p3749
tp3750
a(g3406
(S's\x07\x00\x00\x00Plugins'
tRp3751
I00
S'http://web2py.com/plugins'
p3752
tp3753
a(g3406
(S's\x07\x00\x00\x00Layouts'
tRp3754
I00
S'http://web2py.com/layouts'
p3755
tp3756
a(g3406
(S's\x07\x00\x00\x00Recipes'
tRp3757
I00
S'http://web2pyslices.com/'
p3758
tp3759
a(g3406
(S's\x08\x00\x00\x00Semantic'
tRp3760
I00
S'http://web2py.com/semantic'
p3761
tp3762
aasbasbasbasbasbasbasbag49
(g65
g51
NtRp3763
(dp3764
g54
(dp3765
sg63
g3520
sg56
(lp3766
g49
(g70
g51
NtRp3767
(dp3768
g54
(dp3769
sg63
g3763
sg56
(lp3770
g49
(g50
g51
NtRp3771
(dp3772
g54
(dp3773
g62
I2
ssg63
g3767
sg56
(lp3774
g49
(g58
g51
NtRp3775
(dp3776
g54
(dp3777
g62
I1
ssg63
Nsg56
(lp3778
g49
(g65
g51
NtRp3779
(dp3780
g54
(dp3781
sg63
g3775
sg56
(lp3782
g49
(g70
g51
NtRp3783
(dp3784
g54
(dp3785
sg63
g3779
sg56
(lp3786
g49
(g50
g51
NtRp3787
(dp3788
g54
(dp3789
g62
I1
ssg63
g3783
sg56
(lp3790
g3406
(S's\r\x00\x00\x00Documentation'
tRp3791
asbasbasbag49
(g65
g51
NtRp3792
(dp3793
g54
(dp3794
sg63
g3775
sg56
(lp3795
g49
(g70
g51
NtRp3796
(dp3797
g54
(dp3798
sg63
g3792
sg56
(lp3799
g49
(g50
g51
NtRp3800
(dp3801
g54
(dp3802
g62
I1
ssg63
g3796
sg56
(lp3803
I00
asbasbasbag49
(g65
g51
NtRp3804
(dp3805
g54
(dp3806
sg63
g3775
sg56
(lp3807
g49
(g70
g51
NtRp3808
(dp3809
g54
(dp3810
sg63
g3804
sg56
(lp3811
g49
(g50
g51
NtRp3812
(dp3813
g54
(dp3814
g62
I1
ssg63
g3808
sg56
(lp3815
S'http://www.web2py.com/book'
p3816
asbasbasbag49
(g65
g51
NtRp3817
(dp3818
g54
(dp3819
sg63
g3775
sg56
(lp3820
g49
(g70
g51
NtRp3821
(dp3822
g54
(dp3823
sg63
g3817
sg56
(lp3824
g49
(g50
g51
NtRp3825
(dp3826
g54
(dp3827
g62
I1
ssg63
g3821
sg56
(lp3828
(lp3829
(g3406
(S's\x07\x00\x00\x00Preface'
tRp3830
I00
S'http://www.web2py.com/book/default/chapter/00'
p3831
tp3832
a(g3406
(S's\x0c\x00\x00\x00Introduction'
tRp3833
I00
S'http://www.web2py.com/book/default/chapter/01'
p3834
tp3835
a(g3406
(S's\x06\x00\x00\x00Python'
tRp3836
I00
S'http://www.web2py.com/book/default/chapter/02'
p3837
tp3838
a(g3406
(S's\x08\x00\x00\x00Overview'
tRp3839
I00
S'http://www.web2py.com/book/default/chapter/03'
p3840
tp3841
a(g3406
(S's\x08\x00\x00\x00The Core'
tRp3842
I00
S'http://www.web2py.com/book/default/chapter/04'
p3843
tp3844
a(g3406
(S's\t\x00\x00\x00The Views'
tRp3845
I00
S'http://www.web2py.com/book/default/chapter/05'
p3846
tp3847
a(g3406
(S's\x08\x00\x00\x00Database'
tRp3848
I00
S'http://www.web2py.com/book/default/chapter/06'
p3849
tp3850
a(g3406
(S's\x14\x00\x00\x00Forms and Validators'
tRp3851
I00
S'http://www.web2py.com/book/default/chapter/07'
p3852
tp3853
a(g3406
(S's\r\x00\x00\x00Email and SMS'
tRp3854
I00
S'http://www.web2py.com/book/default/chapter/08'
p3855
tp3856
a(g3406
(S's\x0e\x00\x00\x00Access Control'
tRp3857
I00
S'http://www.web2py.com/book/default/chapter/09'
p3858
tp3859
a(g3406
(S's\x08\x00\x00\x00Services'
tRp3860
I00
S'http://www.web2py.com/book/default/chapter/10'
p3861
tp3862
a(g3406
(S's\x0c\x00\x00\x00Ajax Recipes'
tRp3863
I00
S'http://www.web2py.com/book/default/chapter/11'
p3864
tp3865
a(g3406
(S's\x16\x00\x00\x00Components and Plugins'
tRp3866
I00
S'http://www.web2py.com/book/default/chapter/12'
p3867
tp3868
a(g3406
(S's\x12\x00\x00\x00Deployment Recipes'
tRp3869
I00
S'http://www.web2py.com/book/default/chapter/13'
p3870
tp3871
a(g3406
(S's\r\x00\x00\x00Other Recipes'
tRp3872
I00
S'http://www.web2py.com/book/default/chapter/14'
p3873
tp3874
a(g3406
(S's\r\x00\x00\x00Buy this book'
tRp3875
I00
S'http://stores.lulu.com/web2py'
p3876
tp3877
aasbasbasbasbasbasbasbag49
(g65
g51
NtRp3878
(dp3879
g54
(dp3880
sg63
g3520
sg56
(lp3881
g49
(g70
g51
NtRp3882
(dp3883
g54
(dp3884
sg63
g3878
sg56
(lp3885
g49
(g50
g51
NtRp3886
(dp3887
g54
(dp3888
g62
I2
ssg63
g3882
sg56
(lp3889
g49
(g58
g51
NtRp3890
(dp3891
g54
(dp3892
g62
I1
ssg63
Nsg56
(lp3893
g49
(g65
g51
NtRp3894
(dp3895
g54
(dp3896
sg63
g3890
sg56
(lp3897
g49
(g70
g51
NtRp3898
(dp3899
g54
(dp3900
sg63
g3894
sg56
(lp3901
g49
(g50
g51
NtRp3902
(dp3903
g54
(dp3904
g62
I1
ssg63
g3898
sg56
(lp3905
g3406
(S's\t\x00\x00\x00Community'
tRp3906
asbasbasbag49
(g65
g51
NtRp3907
(dp3908
g54
(dp3909
sg63
g3890
sg56
(lp3910
g49
(g70
g51
NtRp3911
(dp3912
g54
(dp3913
sg63
g3907
sg56
(lp3914
g49
(g50
g51
NtRp3915
(dp3916
g54
(dp3917
g62
I1
ssg63
g3911
sg56
(lp3918
I00
asbasbasbag49
(g65
g51
NtRp3919
(dp3920
g54
(dp3921
sg63
g3890
sg56
(lp3922
g49
(g70
g51
NtRp3923
(dp3924
g54
(dp3925
sg63
g3919
sg56
(lp3926
g49
(g50
g51
NtRp3927
(dp3928
g54
(dp3929
g62
I1
ssg63
g3923
sg56
(lp3930
Nasbasbasbag49
(g65
g51
NtRp3931
(dp3932
g54
(dp3933
sg63
g3890
sg56
(lp3934
g49
(g70
g51
NtRp3935
(dp3936
g54
(dp3937
sg63
g3931
sg56
(lp3938
g49
(g50
g51
NtRp3939
(dp3940
g54
(dp3941
g62
I1
ssg63
g3935
sg56
(lp3942
(lp3943
(g3406
(S's\x06\x00\x00\x00Groups'
tRp3944
I00
S'http://www.web2py.com/examples/default/usergroups'
p3945
tp3946
a(g3406
(S's\x07\x00\x00\x00Twitter'
tRp3947
I00
S'http://twitter.com/web2py'
p3948
tp3949
a(g3406
(S's\t\x00\x00\x00Live Chat'
tRp3950
I00
S'http://webchat.freenode.net/?channels=web2py'
p3951
tp3952
aasbasbasbasbasbasbasbag49
(g65
g51
NtRp3953
(dp3954
g54
(dp3955
sg63
g3520
sg56
(lp3956
g49
(g70
g51
NtRp3957
(dp3958
g54
(dp3959
sg63
g3953
sg56
(lp3960
g49
(g50
g51
NtRp3961
(dp3962
g54
(dp3963
g62
I2
ssg63
g3957
sg56
(lp3964
g49
(g58
g51
NtRp3965
(dp3966
g54
(dp3967
g62
I1
ssg63
Nsg56
(lp3968
g49
(g65
g51
NtRp3969
(dp3970
g54
(dp3971
sg63
g3965
sg56
(lp3972
g49
(g70
g51
NtRp3973
(dp3974
g54
(dp3975
sg63
g3969
sg56
(lp3976
g49
(g50
g51
NtRp3977
(dp3978
g54
(dp3979
g62
I1
ssg63
g3973
sg56
(lp3980
g3406
(S's\x07\x00\x00\x00Plugins'
tRp3981
asbasbasbag49
(g65
g51
NtRp3982
(dp3983
g54
(dp3984
sg63
g3965
sg56
(lp3985
g49
(g70
g51
NtRp3986
(dp3987
g54
(dp3988
sg63
g3982
sg56
(lp3989
g49
(g50
g51
NtRp3990
(dp3991
g54
(dp3992
g62
I1
ssg63
g3986
sg56
(lp3993
I00
asbasbasbag49
(g65
g51
NtRp3994
(dp3995
g54
(dp3996
sg63
g3965
sg56
(lp3997
g49
(g70
g51
NtRp3998
(dp3999
g54
(dp4000
sg63
g3994
sg56
(lp4001
g49
(g50
g51
NtRp4002
(dp4003
g54
(dp4004
g62
I1
ssg63
g3998
sg56
(lp4005
Nasbasbasbag49
(g65
g51
NtRp4006
(dp4007
g54
(dp4008
sg63
g3965
sg56
(lp4009
g49
(g70
g51
NtRp4010
(dp4011
g54
(dp4012
sg63
g4006
sg56
(lp4013
g49
(g50
g51
NtRp4014
(dp4015
g54
(dp4016
g62
I1
ssg63
g4010
sg56
(lp4017
(lp4018
(S'plugin_wiki'
p4019
I00
S'http://web2py.com/examples/default/download'
p4020
tp4021
a(g3406
(S's\r\x00\x00\x00Other Plugins'
tRp4022
I00
g3752
tp4023
a(g3406
(S's\x0e\x00\x00\x00Layout Plugins'
tRp4024
I00
g3755
tp4025
aasbasbasbasbasbasbasbasbasbasbasbasbasbasbasbasbasbasbasbag49
(g65
g51
NtRp4026
(dp4027
g54
(dp4028
sg63
g2870
sg56
(lp4029
g49
(g70
g51
NtRp4030
(dp4031
g54
(dp4032
g74
g75
ssg63
g4026
sg56
(lp4033
S'meta'
p4034
asbag49
(g70
g51
NtRp4035
(dp4036
g54
(dp4037
g81
g82
ssg63
g4026
sg56
(lp4038
S':'
asbag49
(g70
g51
NtRp4039
(dp4040
g54
(dp4041
sg63
g4026
sg56
(lp4042
g49
(g50
g51
NtRp4043
(dp4044
g54
(dp4045
g62
I5
ssg63
g4039
sg56
(lp4046
g49
(g58
g51
NtRp4047
(dp4048
g54
(dp4049
g62
I4
ssg63
Nsg56
(lp4050
g49
(g65
g51
NtRp4051
(dp4052
g54
(dp4053
sg63
g4047
sg56
(lp4054
g49
(g70
g51
NtRp4055
(dp4056
g54
(dp4057
g74
g75
ssg63
g4051
sg56
(lp4058
S'author'
p4059
asbag49
(g70
g51
NtRp4060
(dp4061
g54
(dp4062
g81
g82
ssg63
g4051
sg56
(lp4063
S':'
asbag49
(g70
g51
NtRp4064
(dp4065
g54
(dp4066
sg63
g4051
sg56
(lp4067
g49
(g50
g51
NtRp4068
(dp4069
g54
(dp4070
g62
I4
ssg63
g4064
sg56
(lp4071
S'Your Name <you@example.com>'
p4072
asbasbasbag49
(g65
g51
NtRp4073
(dp4074
g54
(dp4075
sg63
g4047
sg56
(lp4076
g49
(g70
g51
NtRp4077
(dp4078
g54
(dp4079
g74
g75
ssg63
g4073
sg56
(lp4080
S'copyright'
p4081
asbag49
(g70
g51
NtRp4082
(dp4083
g54
(dp4084
g81
g82
ssg63
g4073
sg56
(lp4085
S':'
asbag49
(g70
g51
NtRp4086
(dp4087
g54
(dp4088
sg63
g4073
sg56
(lp4089
g49
(g50
g51
NtRp4090
(dp4091
g54
(dp4092
g62
I4
ssg63
g4086
sg56
(lp4093
S'Copyright 2011'
p4094
asbasbasbag49
(g65
g51
NtRp4095
(dp4096
g54
(dp4097
sg63
g4047
sg56
(lp4098
g49
(g70
g51
NtRp4099
(dp4100
g54
(dp4101
g74
g75
ssg63
g4095
sg56
(lp4102
S'description'
p4103
asbag49
(g70
g51
NtRp4104
(dp4105
g54
(dp4106
g81
g82
ssg63
g4095
sg56
(lp4107
S':'
asbag49
(g70
g51
NtRp4108
(dp4109
g54
(dp4110
sg63
g4095
sg56
(lp4111
g49
(g50
g51
NtRp4112
(dp4113
g54
(dp4114
g62
I4
ssg63
g4108
sg56
(lp4115
S'a cool new app'
p4116
asbasbasbag49
(g65
g51
NtRp4117
(dp4118
g54
(dp4119
sg63
g4047
sg56
(lp4120
g49
(g70
g51
NtRp4121
(dp4122
g54
(dp4123
g74
g75
ssg63
g4117
sg56
(lp4124
S'generator'
p4125
asbag49
(g70
g51
NtRp4126
(dp4127
g54
(dp4128
g81
g82
ssg63
g4117
sg56
(lp4129
S':'
asbag49
(g70
g51
NtRp4130
(dp4131
g54
(dp4132
sg63
g4117
sg56
(lp4133
g49
(g50
g51
NtRp4134
(dp4135
g54
(dp4136
g62
I4
ssg63
g4130
sg56
(lp4137
S'Web2py Web Framework'
p4138
asbasbasbag49
(g65
g51
NtRp4139
(dp4140
g54
(dp4141
sg63
g4047
sg56
(lp4142
g49
(g70
g51
NtRp4143
(dp4144
g54
(dp4145
g74
g75
ssg63
g4139
sg56
(lp4146
S'keywords'
p4147
asbag49
(g70
g51
NtRp4148
(dp4149
g54
(dp4150
g81
g82
ssg63
g4139
sg56
(lp4151
S':'
asbag49
(g70
g51
NtRp4152
(dp4153
g54
(dp4154
sg63
g4139
sg56
(lp4155
g49
(g50
g51
NtRp4156
(dp4157
g54
(dp4158
g62
I4
ssg63
g4152
sg56
(lp4159
S'web2py, python, framework'
p4160
asbasbasbasbasbasbasbag49
(g65
g51
NtRp4161
(dp4162
g54
(dp4163
sg63
g2870
sg56
(lp4164
g49
(g70
g51
NtRp4165
(dp4166
g54
(dp4167
g74
g75
ssg63
g4161
sg56
(lp4168
S'postprocessing'
p4169
asbag49
(g70
g51
NtRp4170
(dp4171
g54
(dp4172
g81
g82
ssg63
g4161
sg56
(lp4173
S':'
asbag49
(g70
g51
NtRp4174
(dp4175
g54
(dp4176
sg63
g4161
sg56
(lp4177
g49
(g50
g51
NtRp4178
(dp4179
g54
(dp4180
g62
I5
ssg63
g4174
sg56
(lp4181
g49
(g58
g51
NtRp4182
(dp4183
g54
(dp4184
g62
I4
ssg63
Nsg56
(lp4185
sbasbasbasbag49
(g65
g51
NtRp4186
(dp4187
g54
(dp4188
sg63
g2870
sg56
(lp4189
g49
(g70
g51
NtRp4190
(dp4191
g54
(dp4192
g74
g75
ssg63
g4186
sg56
(lp4193
S'session_db'
p4194
asbag49
(g70
g51
NtRp4195
(dp4196
g54
(dp4197
g81
g82
ssg63
g4186
sg56
(lp4198
S':'
asbag49
(g70
g51
NtRp4199
(dp4200
g54
(dp4201
sg63
g4186
sg56
(lp4202
g49
(g50
g51
NtRp4203
(dp4204
g54
(dp4205
g62
I5
ssg63
g4199
sg56
(lp4206
g726
asbasbasbag49
(g65
g51
NtRp4207
(dp4208
g54
(dp4209
sg63
g2870
sg56
(lp4210
g49
(g70
g51
NtRp4211
(dp4212
g54
(dp4213
g74
g75
ssg63
g4207
sg56
(lp4214
S'session_id'
p4215
asbag49
(g70
g51
NtRp4216
(dp4217
g54
(dp4218
g81
g82
ssg63
g4207
sg56
(lp4219
S':'
asbag49
(g70
g51
NtRp4220
(dp4221
g54
(dp4222
sg63
g4207
sg56
(lp4223
g49
(g50
g51
NtRp4224
(dp4225
g54
(dp4226
g62
I5
ssg63
g4220
sg56
(lp4227
S'3:2b73f260-02c9-42de-8e78-fd786b36b8d3'
p4228
asbasbasbag49
(g65
g51
NtRp4229
(dp4230
g54
(dp4231
sg63
g2870
sg56
(lp4232
g49
(g70
g51
NtRp4233
(dp4234
g54
(dp4235
g74
g75
ssg63
g4229
sg56
(lp4236
S'session_id_name'
p4237
asbag49
(g70
g51
NtRp4238
(dp4239
g54
(dp4240
g81
g82
ssg63
g4229
sg56
(lp4241
S':'
asbag49
(g70
g51
NtRp4242
(dp4243
g54
(dp4244
sg63
g4229
sg56
(lp4245
g49
(g50
g51
NtRp4246
(dp4247
g54
(dp4248
g62
I5
ssg63
g4242
sg56
(lp4249
g2927
asbasbasbag49
(g65
g51
NtRp4250
(dp4251
g54
(dp4252
sg63
g2870
sg56
(lp4253
g49
(g70
g51
NtRp4254
(dp4255
g54
(dp4256
g74
g75
ssg63
g4250
sg56
(lp4257
S'status'
p4258
asbag49
(g70
g51
NtRp4259
(dp4260
g54
(dp4261
g81
g82
ssg63
g4250
sg56
(lp4262
S':'
asbag49
(g70
g51
NtRp4263
(dp4264
g54
(dp4265
sg63
g4250
sg56
(lp4266
g49
(g50
g51
NtRp4267
(dp4268
g54
(dp4269
g62
I5
ssg63
g4263
sg56
(lp4270
S'200'
p4271
asbasbasbag49
(g65
g51
NtRp4272
(dp4273
g54
(dp4274
sg63
g2870
sg56
(lp4275
g49
(g70
g51
NtRp4276
(dp4277
g54
(dp4278
g74
g75
ssg63
g4272
sg56
(lp4279
S'subtitle'
p4280
asbag49
(g70
g51
NtRp4281
(dp4282
g54
(dp4283
g81
g82
ssg63
g4272
sg56
(lp4284
S':'
asbag49
(g70
g51
NtRp4285
(dp4286
g54
(dp4287
sg63
g4272
sg56
(lp4288
g49
(g50
g51
NtRp4289
(dp4290
g54
(dp4291
g62
I5
ssg63
g4285
sg56
(lp4292
g3406
(S's\r\x00\x00\x00customize me!'
tRp4293
asbasbasbag49
(g65
g51
NtRp4294
(dp4295
g54
(dp4296
sg63
g2870
sg56
(lp4297
g49
(g70
g51
NtRp4298
(dp4299
g54
(dp4300
g74
g75
ssg63
g4294
sg56
(lp4301
S'title'
p4302
asbag49
(g70
g51
NtRp4303
(dp4304
g54
(dp4305
g81
g82
ssg63
g4294
sg56
(lp4306
S':'
asbag49
(g70
g51
NtRp4307
(dp4308
g54
(dp4309
sg63
g4294
sg56
(lp4310
g49
(g50
g51
NtRp4311
(dp4312
g54
(dp4313
g62
I5
ssg63
g4307
sg56
(lp4314
S'Init'
p4315
asbasbasbag49
(g65
g51
NtRp4316
(dp4317
g54
(dp4318
sg63
g2870
sg56
(lp4319
g49
(g70
g51
NtRp4320
(dp4321
g54
(dp4322
g74
g75
ssg63
g4316
sg56
(lp4323
g2129
asbag49
(g70
g51
NtRp4324
(dp4325
g54
(dp4326
g81
g82
ssg63
g4316
sg56
(lp4327
S':'
asbag49
(g70
g51
NtRp4328
(dp4329
g54
(dp4330
sg63
g4316
sg56
(lp4331
g49
(g50
g51
NtRp4332
(dp4333
g54
(dp4334
g62
I5
ssg63
g4328
sg56
(lp4335
g2142
asbasbasbag49
(g65
g51
NtRp4336
(dp4337
g54
(dp4338
sg63
g2870
sg56
(lp4339
g49
(g70
g51
NtRp4340
(dp4341
g54
(dp4342
g74
g75
ssg63
g4336
sg56
(lp4343
S'view'
p4344
asbag49
(g70
g51
NtRp4345
(dp4346
g54
(dp4347
g81
g82
ssg63
g4336
sg56
(lp4348
S':'
asbag49
(g70
g51
NtRp4349
(dp4350
g54
(dp4351
sg63
g4336
sg56
(lp4352
g49
(g50
g51
NtRp4353
(dp4354
g54
(dp4355
g62
I5
ssg63
g4349
sg56
(lp4356
S'default/index.html'
p4357
asbasbasbasbasbsS'locals'
p4358
(dp4359
S'Service'
p4360
S"<class 'gluon.tools.Service'>"
p4361
sS'OBJECT'
p4362
S"<class 'gluon.html.OBJECT'>"
p4363
sS'SQLDB'
p4364
S"<class 'gluon.dal.DAL'>"
p4365
sg2852
S'<Storage {\'_Session__hash\': "\\xdc\\x11\\\\D\\x85\\x1b...login]\': \'4d81c95e-99cf-4a70-a9ad-9cd0a5839424\'}>'
p4366
sS'LINK'
p4367
S"<class 'gluon.html.LINK'>"
p4368
sS'BR'
p4369
S"<class 'gluon.html.BR'>"
p4370
sS'local_import'
p4371
S'<function <lambda> at 0x045C02B0>'
p4372
sS'OPTGROUP'
p4373
S"<class 'gluon.html.OPTGROUP'>"
p4374
sS'PRE'
p4375
S"<class 'gluon.html.PRE'>"
p4376
sS'IS_INT_IN_RANGE'
p4377
S"<class 'gluon.validators.IS_INT_IN_RANGE'>"
p4378
sS'IS_LOWER'
p4379
S"<class 'gluon.validators.IS_LOWER'>"
p4380
sS'IS_STRONG'
p4381
S"<class 'gluon.validators.IS_STRONG'>"
p4382
sS'cache'
p4383
S'<gluon.cache.Cache object at 0x04449050>'
p4384
sS'IS_IN_DB'
p4385
S"<class 'gluon.validators.IS_IN_DB'>"
p4386
sS'TAG'
p4387
S'<gluon.html.__TAG__ object at 0x02498E70>'
p4388
sS'SQLField'
p4389
S"<class 'gluon.dal.Field'>"
p4390
sS'mail'
p4391
S'<gluon.tools.Mail object at 0x04466AD0>'
p4392
sS'BODY'
p4393
S"<class 'gluon.html.BODY'>"
p4394
sS'IS_DATE_IN_RANGE'
p4395
S"<class 'gluon.validators.IS_DATE_IN_RANGE'>"
p4396
sS'TH'
p4397
S"<class 'gluon.html.TH'>"
p4398
sS'URL'
p4399
S'<function URL at 0x024DDDF0>'
p4400
sS'__file__'
p4401
S"r'C:\\Users\\Bussiere\\Dropbox\\Projets\\jackpoint\\web2py\\applications\\init\\views\\default/index.html'"
p4402
sS'db'
p4403
S"<DAL {'auth_event': <Table {'origin': <gluon.dal...t at 0x0445E8D0>, '_singular': 'Skilldemande'}>}>"
p4404
sS'auth'
p4405
S'<gluon.tools.Auth object at 0x04466FB0>'
p4406
sS'P'
S"<class 'gluon.html.P'>"
p4407
sS'TFOOT'
p4408
S"<class 'gluon.html.TFOOT'>"
p4409
sS'XHTML'
p4410
S"<class 'gluon.html.XHTML'>"
p4411
sS'ON'
p4412
g726
sS'OL'
p4413
S"<class 'gluon.html.OL'>"
p4414
sS'TEXTAREA'
p4415
S"<class 'gluon.html.TEXTAREA'>"
p4416
sS'MENU'
p4417
S"<class 'gluon.html.MENU'>"
p4418
sS'LOAD'
p4419
S'<function LOAD at 0x028626F0>'
p4420
sS'CODE'
p4421
S"<class 'gluon.html.CODE'>"
p4422
sS'HTTP'
p4423
S"<class 'gluon.http.HTTP'>"
p4424
sS'HR'
p4425
S"<class 'gluon.html.HR'>"
p4426
sS'IS_DATETIME'
p4427
S"<class 'gluon.validators.IS_DATETIME'>"
p4428
sS'HEAD'
p4429
S"<class 'gluon.html.HEAD'>"
p4430
sS'LABEL'
p4431
S"<class 'gluon.html.LABEL'>"
p4432
sS'CLEANUP'
p4433
S"<class 'gluon.validators.CLEANUP'>"
p4434
sS'plugins'
p4435
S'<gluon.tools.PluginManager object at 0x0433F830>'
p4436
sS'SELECT'
p4437
S"<class 'gluon.html.SELECT'>"
p4438
sS'use_janrain'
p4439
S'<function use_janrain at 0x03BD1BF0>'
p4440
sS'CENTER'
p4441
S"<class 'gluon.html.CENTER'>"
p4442
sS'prettydate'
p4443
S'<function prettydate at 0x02E28F70>'
p4444
sS'custom_auth_table'
p4445
S"<Table {'last_name': <gluon.dal.Field object at ...on_key': <gluon.dal.Field object at 0x0447B870>}>"
p4446
sS'Crud'
p4447
S"<class 'gluon.tools.Crud'>"
p4448
sS'Auth'
p4449
S"<class 'gluon.tools.Auth'>"
p4450
sS'__builtins__'
p4451
S"{'ArithmeticError': <type 'exceptions.ArithmeticError'>, 'AssertionError': <type 'exceptions.AssertionError'>, 'AttributeError': <type 'exceptions.AttributeError'>, 'BaseException': <type 'exceptions.BaseException'>, 'DeprecationWarning': <type 'exceptions.DeprecationWarning'>, 'EOFError': <type 'exceptions.EOFError'>, 'Ellipsis': Ellipsis, 'EnvironmentError': <type 'exceptions.EnvironmentError'>, 'Exception': <type 'exceptions.Exception'>, 'False': False, ...}"
p4452
sS'HTML'
p4453
S"<class 'gluon.html.HTML'>"
p4454
sS'SQLFORM'
p4455
S"<class 'gluon.sqlhtml.SQLFORM'>"
p4456
sS'EM'
p4457
S"<class 'gluon.html.EM'>"
p4458
sS'redirect'
p4459
S'<function redirect at 0x02294AB0>'
p4460
sS'FIELDSET'
p4461
S"<class 'gluon.html.FIELDSET'>"
p4462
sS'IS_EQUAL_TO'
p4463
S"<class 'gluon.validators.IS_EQUAL_TO'>"
p4464
sS'embed64'
p4465
S'<function embed64 at 0x024E8930>'
p4466
sS'IS_LIST_OF'
p4467
S"<class 'gluon.validators.IS_LIST_OF'>"
p4468
sS'__name__'
p4469
S"'__restricted__'"
p4470
sS'EMBED'
p4471
S"<class 'gluon.html.EMBED'>"
p4472
sS'_'
S'<function _ at 0x03E02830>'
p4473
sS'FORM'
p4474
S"<class 'gluon.html.FORM'>"
p4475
sS'H2'
p4476
S"<class 'gluon.html.H2'>"
p4477
sS'H3'
p4478
S"<class 'gluon.html.H3'>"
p4479
sS'BUTTON'
p4480
S"<class 'gluon.html.BUTTON'>"
p4481
sS'H1'
p4482
S"<class 'gluon.html.H1'>"
p4483
sS'H6'
p4484
S"<class 'gluon.html.H6'>"
p4485
sS'H4'
p4486
S"<class 'gluon.html.H4'>"
p4487
sS'H5'
p4488
S"<class 'gluon.html.H5'>"
p4489
sS'UL'
p4490
S"<class 'gluon.html.UL'>"
p4491
sS'IS_UPPER'
p4492
S"<class 'gluon.validators.IS_UPPER'>"
p4493
sS'xmlescape'
p4494
S'<function xmlescape at 0x024DDD70>'
p4495
sS'IS_TIME'
p4496
S"<class 'gluon.validators.IS_TIME'>"
p4497
sS'OPTION'
p4498
S"<class 'gluon.html.OPTION'>"
p4499
sS'TITLE'
p4500
S"<class 'gluon.html.TITLE'>"
p4501
sS'CRYPT'
p4502
S"<class 'gluon.validators.CRYPT'>"
p4503
sS'IS_EMPTY_OR'
p4504
S"<class 'gluon.validators.IS_EMPTY_OR'>"
p4505
sS'MARKMIN'
p4506
S"<class 'gluon.html.MARKMIN'>"
p4507
sS'INPUT'
p4508
S"<class 'gluon.html.INPUT'>"
p4509
sS'COL'
p4510
S"<class 'gluon.html.COL'>"
p4511
sS'service'
p4512
S'<gluon.tools.Service object at 0x0447B9D0>'
p4513
sS'SCRIPT'
p4514
S"<class 'gluon.html.SCRIPT'>"
p4515
sS'TABLE'
p4516
S"<class 'gluon.html.TABLE'>"
p4517
sS'IS_IPV4'
p4518
S"<class 'gluon.validators.IS_IPV4'>"
p4519
sS'IS_LENGTH'
p4520
S"<class 'gluon.validators.IS_LENGTH'>"
p4521
sS'XML'
p4522
S"<class 'gluon.html.XML'>"
p4523
sS'B'
S"<class 'gluon.html.B'>"
p4524
sS'form'
p4525
S'<gluon.sqlhtml.SQLFORM object at 0x0433F410>'
p4526
sS'SQLTABLE'
p4527
S"<class 'gluon.sqlhtml.SQLTABLE'>"
p4528
sS'IS_MATCH'
p4529
S"<class 'gluon.validators.IS_MATCH'>"
p4530
sS'IS_ALPHANUMERIC'
p4531
S"<class 'gluon.validators.IS_ALPHANUMERIC'>"
p4532
sS'SPAN'
p4533
S"<class 'gluon.html.SPAN'>"
p4534
sS'IS_SLUG'
p4535
S"<class 'gluon.validators.IS_SLUG'>"
p4536
sS'BEAUTIFY'
p4537
S"<class 'gluon.html.BEAUTIFY'>"
p4538
sS'META'
p4539
S"<class 'gluon.html.META'>"
p4540
sS'IS_DATE'
p4541
S"<class 'gluon.validators.IS_DATE'>"
p4542
sS'IS_EMAIL'
p4543
S"<class 'gluon.validators.IS_EMAIL'>"
p4544
sS'IS_NOT_EMPTY'
p4545
S"<class 'gluon.validators.IS_NOT_EMPTY'>"
p4546
sS'IS_FLOAT_IN_RANGE'
p4547
S"<class 'gluon.validators.IS_FLOAT_IN_RANGE'>"
p4548
sS'TBODY'
p4549
S"<class 'gluon.html.TBODY'>"
p4550
sS'CAT'
p4551
S"<class 'gluon.html.CAT'>"
p4552
sS'Field'
p4553
S"<class 'gluon.dal.Field'>"
p4554
sS'DIV'
p4555
S"<class 'gluon.html.DIV'>"
p4556
sS'LEGEND'
p4557
S"<class 'gluon.html.LEGEND'>"
p4558
sS'IMG'
p4559
S"<class 'gluon.html.IMG'>"
p4560
sS'COLGROUP'
p4561
S"<class 'gluon.html.COLGROUP'>"
p4562
sS'DAL'
p4563
S"<class 'gluon.dal.DAL'>"
p4564
sS'TT'
p4565
S"<class 'gluon.html.TT'>"
p4566
sS'TR'
p4567
S"<class 'gluon.html.TR'>"
p4568
sS'LI'
p4569
S"<class 'gluon.html.LI'>"
p4570
sS'IFRAME'
p4571
S"<class 'gluon.html.IFRAME'>"
p4572
sS'TD'
p4573
S"<class 'gluon.html.TD'>"
p4574
sS'PluginManager'
p4575
S"<class 'gluon.tools.PluginManager'>"
p4576
sS'IS_URL'
p4577
S"<class 'gluon.validators.IS_URL'>"
p4578
sS'A'
S"<class 'gluon.html.A'>"
p4579
sS'STYLE'
p4580
S"<class 'gluon.html.STYLE'>"
p4581
sS'IS_DATETIME_IN_RANGE'
p4582
S"<class 'gluon.validators.IS_DATETIME_IN_RANGE'>"
p4583
sS'IS_IMAGE'
p4584
S"<class 'gluon.validators.IS_IMAGE'>"
p4585
sS'I'
S"<class 'gluon.html.I'>"
p4586
sS'crud'
p4587
S'<gluon.tools.Crud object at 0x0447B190>'
p4588
sS'IS_NOT_IN_DB'
p4589
S"<class 'gluon.validators.IS_NOT_IN_DB'>"
p4590
sg2865
S"<Storage {'body': <cStringIO.StringO object at 0...a> at 0x0457FAB0>, 'view': 'default/index.html'}>"
p4591
sS'THEAD'
p4592
S"<class 'gluon.html.THEAD'>"
p4593
sS'IS_NULL_OR'
p4594
S"<class 'gluon.validators.IS_EMPTY_OR'>"
p4595
sg48
S"<Storage {'body': <cStringIO.StringO object at 0..._vars': <Storage {}>, 'post_vars': <Storage {}>}>"
p4596
sS'IS_EXPR'
p4597
S"<class 'gluon.validators.IS_EXPR'>"
p4598
sS'T'
S'<gluon.languages.translator object at 0x04449CD0>'
p4599
sS'IS_IN_SET'
p4600
S"<class 'gluon.validators.IS_IN_SET'>"
p4601
sS'IS_UPLOAD_FILENAME'
p4602
S"<class 'gluon.validators.IS_UPLOAD_FILENAME'>"
p4603
sS'IS_DECIMAL_IN_RANGE'
p4604
S"<class 'gluon.validators.IS_DECIMAL_IN_RANGE'>"
p4605
sssS'traceback'
p4606
S'Traceback (most recent call last):\n  File "gluon/restricted.py", line 205, in restricted\n  File "C:\\Users\\Bussiere\\Dropbox\\Projets\\jackpoint\\web2py\\applications\\init\\views\\default/index.html", line 13, in <module>\nNameError: name \'faq\' is not defined\n'
p4607
s.