(dp1
S'output'
p2
S"<type 'exceptions.UnboundLocalError'> local variable 'level4' referenced before assignment"
p3
sS'layer'
p4
S'C:\\Users\\Bussiere\\Dropbox\\Projets\\jackpoint\\web2py\\applications\\init\\controllers/default.py'
p5
sS'code'
p6
S'\xef\xbb\xbf# -*- coding: utf-8 -*-\n# this file is released under public domain and you can use without limitations\n\n#########################################################################\n## This is a samples controller\n## - index is the default action of any application\n## - user is required for authentication and authorization\n## - download is for downloading files uploaded in the db (does streaming)\n## - call exposes all registered services (none by default)\n#########################################################################\n# Static analyzer import helpers: (STATIC_IMPORT_MARK)\nif 0: \n    import gluon\n    global cache; cache = gluon.cache.Cache()\n    global LOAD; LOAD  = gluon.compileapp.LoadFactory()\n    import gluon.compileapp.local_import_aux as local_import #@UnusedImport\n    from gluon.contrib.gql import GQLDB #@UnusedImport\n    from gluon.dal import Field #@UnusedImport\n    global request; request = gluon.globals.Request()\n    global response; response = gluon.globals.Response()\n    global session; session = gluon.globals.Session()\n    from gluon.html import A #@UnusedImport\n    from gluon.html import B #@UnusedImport\n    from gluon.html import BEAUTIFY #@UnusedImport\n    from gluon.html import BODY #@UnusedImport\n    from gluon.html import BR #@UnusedImport\n    from gluon.html import CENTER #@UnusedImport\n    from gluon.html import CODE #@UnusedImport\n    from gluon.html import DIV #@UnusedImport\n    from gluon.html import EM #@UnusedImport\n    from gluon.html import EMBED #@UnusedImport\n    from gluon.html import embed64 #@UnusedImport\n    from gluon.html import FIELDSET #@UnusedImport\n    from gluon.html import FORM #@UnusedImport\n    from gluon.html import H1 #@UnusedImport\n    from gluon.html import H2 #@UnusedImport\n    from gluon.html import H3 #@UnusedImport\n    from gluon.html import H4 #@UnusedImport\n    from gluon.html import H5 #@UnusedImport\n    from gluon.html import H6 #@UnusedImport\n    from gluon.html import HEAD #@UnusedImport\n    from gluon.html import HR #@UnusedImport\n    from gluon.html import HTML #@UnusedImport\n    from gluon.html import I #@UnusedImport\n    from gluon.html import IFRAME #@UnusedImport\n    from gluon.html import IMG #@UnusedImport\n    from gluon.html import INPUT #@UnusedImport\n    from gluon.html import LABEL #@UnusedImport\n    from gluon.html import LEGEND #@UnusedImport\n    from gluon.html import LI #@UnusedImport\n    from gluon.html import LINK #@UnusedImport\n    from gluon.html import MARKMIN #@UnusedImport\n    from gluon.html import MENU #@UnusedImport\n    from gluon.html import META #@UnusedImport\n    from gluon.html import OBJECT #@UnusedImport\n    from gluon.html import OL #@UnusedImport\n    from gluon.html import ON #@UnusedImport\n    from gluon.html import OPTGROUP #@UnusedImport\n    from gluon.html import OPTION #@UnusedImport\n    from gluon.html import P #@UnusedImport\n    from gluon.html import PRE #@UnusedImport\n    from gluon.html import STYLE #@UnusedImport\n    from gluon.html import SCRIPT #@UnusedImport\n    from gluon.html import SELECT #@UnusedImport\n    from gluon.html import SPAN #@UnusedImport\n    from gluon.html import TABLE #@UnusedImport\n    from gluon.html import TAG #@UnusedImport\n    from gluon.html import TBODY #@UnusedImport\n    from gluon.html import TD #@UnusedImport\n    from gluon.html import TEXTAREA #@UnusedImport\n    from gluon.html import TFOOT #@UnusedImport\n    from gluon.html import TH  #@UnusedImport\n    from gluon.html import THEAD #@UnusedImport\n    from gluon.html import TITLE #@UnusedImport\n    from gluon.html import TR #@UnusedImport\n    from gluon.html import TT #@UnusedImport\n    from gluon.html import UL #@UnusedImport\n    from gluon.html import URL #@UnusedImport\n    from gluon.html import XHTML #@UnusedImport\n    from gluon.html import XML #@UnusedImport\n    from gluon.html import xmlescape #@UnusedImport\n    from gluon.http import HTTP #@UnusedImport\n    from gluon.http import redirect #@UnusedImport\n    import gluon.languages.translator as T #@UnusedImport\n    from gluon.sql import DAL\n    global db; db = DAL()\n    from gluon.sql import SQLDB #@UnusedImport\n    from gluon.sql import SQLField #@UnusedImport\n    from gluon.sqlhtml import SQLFORM #@UnusedImport\n    from gluon.sqlhtml import SQLTABLE #@UnusedImport\n    from gluon.tools import  Auth\n    global auth; auth = Auth()\n    from gluon.tools import Crud\n    global crud; crud = Crud()\n    from gluon.tools import fetch #@UnusedImport\n    from gluon.tools import geocode #@UnusedImport\n    from gluon.tools import Mail\n    global mail; mail = Mail()\n    from gluon.tools import PluginManager\n    global plugins; plugins = PluginManager()\n    from gluon.tools import prettydate #@UnusedImport\n    from gluon.tools import Recaptcha #@UnusedImport\n    from gluon.tools import Service\n    global service; service = Service()\n    from gluon.validators import CLEANUP  #@UnusedImport\n    from gluon.validators import CRYPT #@UnusedImport\n    from gluon.validators import IS_ALPHANUMERIC #@UnusedImport\n    from gluon.validators import IS_DATE #@UnusedImport\n    from gluon.validators import IS_DATE_IN_RANGE #@UnusedImport\n    from gluon.validators import IS_DATETIME #@UnusedImport\n    from gluon.validators import IS_DATETIME_IN_RANGE #@UnusedImport\n    from gluon.validators import IS_DECIMAL_IN_RANGE #@UnusedImport\n    from gluon.validators import IS_EMAIL #@UnusedImport\n    from gluon.validators import IS_EMPTY_OR #@UnusedImport\n    from gluon.validators import IS_EQUAL_TO #@UnusedImport\n    from gluon.validators import IS_EXPR #@UnusedImport\n    from gluon.validators import IS_FLOAT_IN_RANGE #@UnusedImport\n    from gluon.validators import IS_IMAGE #@UnusedImport\n    from gluon.validators import IS_IN_DB #@UnusedImport\n    from gluon.validators import IS_IN_SET #@UnusedImport\n    from gluon.validators import IS_INT_IN_RANGE #@UnusedImport\n    from gluon.validators import IS_IPV4 #@UnusedImport\n    from gluon.validators import IS_LENGTH #@UnusedImport\n    from gluon.validators import IS_LIST_OF #@UnusedImport\n    from gluon.validators import IS_LOWER #@UnusedImport\n    from gluon.validators import IS_MATCH #@UnusedImport\n    from gluon.validators import IS_NOT_EMPTY #@UnusedImport\n    from gluon.validators import IS_NOT_IN_DB #@UnusedImport\n    from gluon.validators import IS_NULL_OR #@UnusedImport\n    from gluon.validators import IS_SLUG #@UnusedImport\n    from gluon.validators import IS_STRONG  #@UnusedImport\n    from gluon.validators import IS_TIME #@UnusedImport\n    from gluon.validators import IS_UPLOAD_FILENAME #@UnusedImport\n    from gluon.validators import IS_UPPER #@UnusedImpor\n\n\nimport random\nfrom uuid import uuid4\nfrom gluon.storage import Storage\nsettings = Storage()\n\n\ndef logout():\n    return auth.logout()\n\n\ndef index():\n    if auth.is_logged_in() :\n        return "You get the blue pills"\n    else :\n        return dict(form=auth.login(),faq=URL(\'faq\'))\n\n\n\ndef ensurefirstuser(Surnom, email, password):\n  users = db(db.auth_user.email == email).select()\n  if users:\n    user_id = users[0].id\n    created = False\n    print (\'found user_id so created equals %s\') % created\n    if settings.debug_ensure_first_user == True:\n      print (\'found user_id so created equals %s\') % created\n    return (user_id, created)\n\n  else:\n    my_crypt = CRYPT(key=auth.settings.hmac_key)\n    crypt_pass = my_crypt(password)[0]    \n    id_user = db.auth_user.insert(\n                   Surnom=Surnom,\n                   email=email,\n                   username=email,\n                   Items = None,\n                   Skills = None,\n                   password=crypt_pass,\n                                   )\n    db.commit()\n    created = True\n    print (\'creating user_id\')\n    if settings.debug_ensure_first_user == True:\n      print (\'creating user_id\')\n    return (id_user, created)\n\n    \n\n\ndef ensure_users():\n  user_id, created = _ensure_user(\'first\', \'last\', \'email@address.com\', \'UserPassword12345\')\n  if settings.debug_ensure_users == True:\n    print (\'user id %i\') % user_id\n    print (\'created %s\') % created\n\ndef ensure_group_role(role, description):\n  if not auth.id_group(role=role):  \n    auth.add_group(role=role, description=description)  \n    if settings.debug_ensure_group_role == True:\n      print (\'created role %s\') % (role)\n\ndef ensure_membership(group_id, user_id):\n  return_group_id = auth.add_membership(role=role, user_id=user_id)\n  if settings.debug_ensure_membership == True:\n    print (\'made user_id member of %s\') % (role)\n  return return_group_id\n \ndef ensure_permissions(role, description, user_id):\n  ensure_group_role(role, description)\n  return_group_id = ensure_membership(group_id, user_id)\n  if settings.debug_ensure_permissions == True:\n    print return_group_id\n\ndef generate_invitation(number,word=4,num=1,numdigit=5):\n    code = [\n[\'BELCHER\', \'FIX\', \'EEL\', \'PANZERBOY\', \'DESK_JOCKEY\', \'CHILLED\', \'ENFORCER\', \'CHERRY_PICKING\', \'COUNTRY_CLUB\', \'BOMBSHELL\', \'PLUGGED_IN\', \'FINI\', \'LEGIT\', \'JAM\', \'BONED_OUT\', \'BLADE\', \'ROUST\', \'SAMURAI\', \'DISK\', \'INPUT\', \'POST_TIME\', \'SOUNDS\', \'SKIP\', \'FLATBACKER\', \'WILSON\', \'SHOEMAKER\', \'DELTA_SIERRA\', \'HEART\', \'CROAK\', \'HEAD_HUNTER\', \'HOSHO_KAISHA\', "DELTA\'D", "\'FACE_(also,_FACE,_EYE-FACE,_I-FACE)", \'WEEFLE\', \'DIRTGIRL\', \'KEYBOARD\', \'BRAIN_BUCKET\', \'DRYING_OUT\', \'OVERCOOK\', \'PIG\', \'COLD_TEA\', \'RECONFIG\', \'PAD\', \'LIT_UP\', \'WRAITH\', \'HANDLE\', \'L.P.\', \'PINCH\', \'TAKE_A_CAB\', \'SPILL\', \'ACE_KOOL\', \'DO\', \'BIZ\', \'BROWNIE\', \'CANDLE_AND_BLOOD\', \'BLUEBOY\', \'UP_ON_IT\', \'BURN\', \'USER_INTERFACE\', \'HOB\', \'GYRO\', \'STUFFIT\', \'THATCH\', \'ICEBREAKER\', \'ZIP_GUN\', \'PETERMAN\', \'PLAY_DOUGH\', \'TREY-EIGHT\', \'SETTLE\', "CHIPPIN\'_IN", \'MEATBALL\', \'RAFFLES\', \'YUBITSUME\', \'CROAKER\', \'SUCKER_POCKETS\', \'L.A.M.A.\', \'GEEK\', \'BUTTONHEAD\'],\n[\'TAKE\', \'TEKIYA\', \'KURUMAKU\', \'BLOC\', \'GAT\', \'JOHATSU\', \'CRYSTAL\', \'A.I.\', \'ZEROED\', \'OVER_THE_SHOULDER\', \'GRAB_GEE\', \'PANZER\', \'GO_LEO\', \'WASHED\', \'I.C.E.\', \'COPSHOP\', \'COLLATERAL_DAMAGE\', \'BIG_DARK\', \'DOUBLE-DEUCE\', \'ZONEDANCE\', \'MARK\', \'COBBERS\', \'CHIMPIRA\', \'TRIADS\', \'SHANK\', \'FRAG\', \'BREATH_VAC\', "CHARLIE\'S_ANGEL", \'MULE\', \'BURNER\', "PACKIN\'", \'HOTDOGGER\', \'BOSOZOKU\', \'RIPPERDOC\', \'THIRDMAN\', \'MAXIMUM,_MAX\', \'CHOOH2_("CHOO")\', \'CRYO_MAX\', \'HEATER\', \'SHARK\', \'JOYGIRL\', \'GURENTAI\', \'BANDIT\', \'VENICE\', \'MIZU_SHOBAI\', \'PASTA_BOYS\', \'SQUID\', \'CYBERED_UP\', \'DEAD_RECKONING\', \'POPSICLE\', \'FAUST\', \'COLLARBOY\', \'SHOES\', \'TORCH\', \'DELTAJOCK\', \'BUTTERFLY_MAN\', \'WISE_GUYS\', \'BOOST\', \'CAIN\', \'FOUR-FIVE\', \'BREAK-DOWN\', \'POLYMER_ONE-SHOT\', \'FLAG\', \'CALL_GIRL\', \'IN_THE_HUNT\', \'HYDRO\', \'DOCK\', \'FENCE\', \'SHAIKUJIN\', \'GOMI\', \'FILTER\', \'SAINT_NICK\', \'LINEFOOT\', \'CAVALRY\', \'PUKE\', \'CONVERSION\', \'FINGER\', \'CONTRACT\'],\n[\'PLASTIC\', \'CRYSTALJOCKEY,_CRYSTALJOCK\', \'SCREW\', \'TOYSTORE\', \'DREAM_TIME\', \'EXOTIC\', \'WALKABOUT\', \'DIAMOND_SEASON\', \'SARAKIN\', \'CHRISTMAS_BUNDLES\', \'SHADES\', \'BUTTON_MAN\', \'FOXTROT_UNIFORM\', \'KAI\', \'UNDER_THE_PAINT\', \'MINIMUM\', \'TRIPLE_A\', \'PIG_ON_A_WHEEL\', \'BAG_MAN\', \'DIP\', \'PIGEONS\', \'MAN\', \'ADAM_HENRY\', \'HIGH\', \'HEAT\', \'NINJO\', \'KNIFE_FIGHT\', \'MOUTHPIECE\', \'AGRIPLEX\', \'DATA_TERM\', \'LIZ\', \'CHROMER\', \'OUTPUT\', \'N.O.E.\', \'CLOSE_A_CONTRACT\', \'LASSIE\', \'FLATLINE\', \'CHIV\', \'SING\', \'AMMO\', \'RAT\', \'MATCHBOX\', \'PULL_AN_ASH\', \'BORYOKUDAN\', \'SQUEEZE\', \'RONIN\', \'HIT\', \'RAGS\', \'TAKE_OUT\', \'BEAT_THE_RAP\', \'GIRI\', \'RUNNING_THE_LINE\', \'HARNESS\', \'GRAVEROBBER\', \'DROP_A_DIME\', \'BADGE_ON_A_BEAVER\', \'FLETCHER\', \'AMPED-OUT\', \'NEUTRALIZE\', \'PETER\', \'CONFIG\', \'HARDFIRE\', \'B.A.M.A.\', \'CHROMATIC_ROCK\', \'MOLDED\', \'RAD\', \'CREASED\', \'CHATTER_BOX\', \'HAND_CANNON\', \'NIPPERS\', \'SIERRA_HOTEL\', \'HOOK_UP\', \'-JOCKEY,_-JOCK\', \'BUG\', \'BATMAN_AND_ROBIN\', \'BLACK_OPERATIONS\', "D.C.\'S", \'SO_KA\'],\n[\'_A.A.A.\', \'HOME_PLATE\', \'LITEJACK\', \'PINEAPPLE\', \'MAKE\', \'THE_STREET\', \'SITREP\', \'HANGING_PAPER\', \'PAINT_BOYS\', \'WETWORK\', \'NINER\', \'BOOKIE\', \'WHIPLASH\', \'TORPEDO\', \'HEATWAVE\', \'SOLAR_WIND\', \'QUIFF\', \'BIKE\', \'TRAFFIC\', \'WIRE_ROOM\', \'OYABUN\', \'COWBOY\', \'KOBUN\', \'MUDBOY\', \'COP_OUT\', \'SOKAIYA\', "\'DORPH", \'JOYBOY\', \'DIRTY\', \'BOAT\', \'DROP\', \'GRAV_or_GEE\', \'APOGEE\', \'BOOSTER\', \'BOOK\', \'FRY\', \'PULLING_TEETH\', \'ONE_LARGE\', \'COMBAT_DRUGS\', \'THRASH\', \'DO_A_GHOST\', \'DELTA\', \'RIN_TIN_TIN\', \'DROP_OUT\', \'GUMI\', \'ROCKERBOY/GIRL\', \'BULLET\', \'DEB\', \'THREADING_THE_NEEDLE\', \'MOTOR\', \'BLEEDER\', \'ARC\', \'BOPPER\', \'WASTE\', \'_DEMUKAI\', \'BREAK\', \'HOLDING_DOWN\', \'FEDS\', \'GAP\', \'RABBI\', \'BAKUTO\', \'CHOMBATTA_(CHOOMBA)\', \'BIG_HATS\', \'MR._JOHNSON\', \'EXEC\', \'BULL\', \'BULLSEYE\', \'POSERGANG\', \'CHAOL\', \'GEISHA\', \'SLAMMIT_ON\', \'POP_CAPS\', \'HARD_TIME\', \'BENJI\', \'MAKING_BANK\', \'PAPERHANGER\', \'NETRUN\', \'BOGEY\'],\n]     \n    i = 0\n    invits = []\n    print number\n    while (i < number):\n        invit = ""\n        j = 0\n        while (j < word):\n            debut = random.randint(0,len(code)-1)\n            codepick = code[debut][random.randint(0,len(code[debut])-1)]\n            j += 1\n            invit += codepick+"-"\n        j = 0\n        while (j < num):\n            invit += randomdig(numdigit)+"-"\n            j += 1\n        i+= 1\n        invit = invit[:-1]\n        if invit not in invits :\n            invits.append(invit[:-1])\n            print invit\n    return invits\n        \ndef randomdig(number):\n    max = "9"*number\n    max = int(max)\n    rand =  random.randint(0,max)\n    rand = str(rand)\n    rand = "0"*(number-len(rand))+rand\n    return rand\n\n@auth.requires_login()\ndef inscriptioninvit():\n    form = SQLFORM(db[auth.settings.table_user_name])\n    return dict(form=form)\n\n\ndef userstuff():\n    return dict(rows1 = db().select(db.Carac.ALL),rows2 = db().select(db.SkillLevel.ALL) )\n\ndef initdbjack():\n    if db(db.auth_user.username == "bussiere").count() == 0:\n            password= "titi" \n            my_crypt = CRYPT(key=auth.settings.hmac_key)\n            crypt_pass = my_crypt(password)[0]  \n            buss = db.auth_user.insert(\n               email= "bussiere2@gmail.com",\n               username="bussiere",\n               password=crypt_pass,\n            )\n            jack = auth.add_group(\'Jack\', \'Jack master of none\')\n            auth.add_membership(jack, buss)\n            db.commit()  \n    db.commit() \n    carac = ["Force","Logique","Volonte","Charisme","Apparence","Dexterite"]\n    skills = { \n    "Physique":{\n                "Sport":{\n                         "Capoeira" :{ \n                                      "bengale":{}\n                                      },\n                        "Karate":{\n                                  "Nord" : {},\n                                  "Sud" : {},\n                                 },\n                         },\n            },\n\n\n    "Technique":{\n                "Mettalerrie" : {\n                                 "Forge" : {},\n                                  \n                                  },\n                 \n    },\n\n    "Savoir":{\n              "Informatique" : {\n                                   "Programmation" :{\n                                                     "Python" :{\n                                                                 "Django" : {} ,\n                                                                  "Web2py" : {}\n                                                                },\n                                                     "Methode" :{\n                                                                 "Uml":{},\n                                                                  "Merise": {}\n                                                                },\n                                                     },\n                                   },\n\n            },\n    }\n\n    for c in carac :\n        if db(db.Carac.Nom == c).count() == 0:\n            db.Carac.insert(Nom=c)\n\n    for level1 in skills.keys() :\n        i = 0\n        if db(db.Skill.Nom == level1).count() == 0:\n            Skill1 = db.SkillLevel.insert(Skill = (db.Skill.insert(Nom=level1)),Level = i)\n\n            for level2 in skills[level1].keys() :\n                i = 1\n                if db(db.Skill.Nom == level2).count() == 0:\n                    #Todo\n                    # c\'est crade a revoir :\n                    for row in db((db.Skill.Nom==level1) & (db.Skill.id)).select() :\n                        parent = row.id\n                    #fin du truc a revoir\n                    Skill2 = db.SkillLevel.insert(Skill = (db.Skill.insert(Nom=level2)),Level = i,Parent = parent )\n                    for level3 in skills[level1][level2].keys() :\n                        i = 2\n                        if db(db.Skill.Nom == level3).count() == 0:\n                            #Todo\n                            # c\'est crade a revoir :\n                            for row in db((db.Skill.Nom==level2) & (db.Skill.id)).select() :\n                                parent = row.id\n                            #fin du truc a revoir\n                            Skill3 = db.SkillLevel.insert(Skill = (db.Skill.insert(Nom=level3)),Level = i,Parent = parent)\n                            for level4 in skills[level1][level2][level3].keys() :\n                                i = 3\n                            if db(db.Skill.Nom == level4).count() == 0:\n                                #Todo\n                                # c\'est crade a revoir :\n                                for row in db((db.Skill.Nom==level3) & (db.Skill.id)).select() :\n                                    parent = row.id\n                                #fin du truc a revoir\n                                Skill3 = db.SkillLevel.insert(Skill = (db.Skill.insert(Nom=level4)),Level = i,Parent = parent)\n                                for level5 in skills[level1][level2][level3][level4].keys() :\n                                    i = 4\n                                    if db(db.Skill.Nom == level5).count() == 0:\n                                        #Todo\n                                        # c\'est crade a revoir :\n                                        for row in db((db.Skill.Nom==level4) & (db.Skill.id)).select() :\n                                            parent = row.id\n                                        #fin du truc a revoir\n                                        Skill4 = db.SkillLevel.insert(Skill = (db.Skill.insert(Nom=level5)),Level = i,Parent = parent)\n    db.commit() \n\n\n\n\n\n\n\ndef liste_invitations():\n    return dict(rows = db().select(db.Invitation.ALL))\n\ndef liste_user():\n    return dict(rows = db().select(db.auth_user.ALL))\n\n#@auth.requires_membership(\'manager\')\ndef generate_invitationpage():\n   form=FORM("Nombre d\'invit a generer:", INPUT(_name=\'nmbreinvit\'), INPUT(_type=\'submit\'))\n   if form.process().accepted and form.vars.nmbreinvit != None :\n       i = form.vars.nmbreinvit\n       invitsgenere = generate_invitation(int(i))\n       for invit in invitsgenere :\n           db.Invitation.insert(Code=invit)\n           db.commit()\n       session.flash = \'invitation inserted\'\n       form=FORM("Nombre d\'invit a generer:", INPUT(_name=\'nmbreinvit\'), INPUT(_type=\'submit\'))\n       #db.Invitation.insert(Code="Toto-5542")\n       db.commit()\n   return dict(form=form)\n\ndef verif_invitation(form):\n    print form.vars.invitation\n    if db.Invitation(db.Invitation.Code==form.vars.invitation) == None :\n        form.errors.invitation = \'code invitation incorrect\'\n        print "mauvais"\n    else :\n        print "bon"\n\ndef invitation():\n    form=FORM("Code Invitation :", INPUT(_name=\'invitation\'),"<Email :",INPUT(_name=\'email\'),  INPUT(_type=\'submit\'))\n    if form.process(onvalidation=verif_invitation).accepted and  form.vars.invitation != None  :\n        email = form.vars.email\n        if db(db.auth_user.email == email).count() == 0:\n            password= form.vars.invitation  \n            my_crypt = CRYPT(key=auth.settings.hmac_key)\n            crypt_pass = my_crypt(password)[0]  \n            db.auth_user.insert(\n               email= email,\n               username="John_Doe",\n               password=crypt_pass,\n            )\n            db.commit()  \n            user = db(db.auth_user.email==email).select().first()\n            auth.user = Storage(auth.settings.table_user._filter_fields(user, id=True))\n            auth.environment.session.auth = Storage(user=user, last_visit=request.now,\n                                                expiration=auth.settings.expiration)\n            redirect(URL(\'inscriptioninvit\'))\n    return dict(form=form)\n\ndef faq():\n\n    return dict()\ndef user():\n    """\n    exposes:\n    http://..../[app]/default/user/login\n    http://..../[app]/default/user/logout\n    http://..../[app]/default/user/register\n    http://..../[app]/default/user/profile\n    http://..../[app]/default/user/retrieve_password\n    http://..../[app]/default/user/change_password\n    use @auth.requires_login()\n        @auth.requires_membership(\'group name\')\n        @auth.requires_permission(\'read\',\'table name\',record_id)\n    to decorate functions that need access control\n    """\n    return dict(form=auth())\n\n\ndef download():\n    """\n    allows downloading of uploaded files\n    http://..../[app]/default/download/[filename]\n    """\n    return response.download(request,db)\n\n\ndef call():\n    """\n    exposes services. for example:\n    http://..../[app]/default/call/jsonrpc\n    decorate with @services.jsonrpc the functions to expose\n    supports xml, json, xmlrpc, jsonrpc, amfrpc, rss, csv\n    """\n    return service()\n\n\n@auth.requires_signature()\ndef data():\n    """\n    http://..../[app]/default/data/tables\n    http://..../[app]/default/data/create/[table]\n    http://..../[app]/default/data/read/[table]/[id]\n    http://..../[app]/default/data/update/[table]/[id]\n    http://..../[app]/default/data/delete/[table]/[id]\n    http://..../[app]/default/data/select/[table]\n    http://..../[app]/default/data/search/[table]\n    but URLs must be signed, i.e. linked with\n      A(\'table\',_href=URL(\'data/tables\',user_signature=True))\n    or with the signed load operator\n      LOAD(\'default\',\'data.load\',args=\'tables\',ajax=True,user_signature=True)\n    """\n    return dict(form=crud())\n\nresponse._vars=response._caller(initdbjack)\n'
p7
sS'snapshot'
p8
(dp9
S'exception'
p10
(dp11
S'__hash__'
p12
S"<method-wrapper '__hash__' of exceptions.UnboundLocalError object at 0x07FFDFD0>"
p13
sS'__setattr__'
p14
S"<method-wrapper '__setattr__' of exceptions.UnboundLocalError object at 0x07FFDFD0>"
p15
sS'__reduce_ex__'
p16
S'<built-in method __reduce_ex__ of exceptions.UnboundLocalError object at 0x07FFDFD0>'
p17
sS'__getslice__'
p18
S"<method-wrapper '__getslice__' of exceptions.UnboundLocalError object at 0x07FFDFD0>"
p19
sS'__getitem__'
p20
S"<method-wrapper '__getitem__' of exceptions.UnboundLocalError object at 0x07FFDFD0>"
p21
sS'__setstate__'
p22
S'<built-in method __setstate__ of exceptions.UnboundLocalError object at 0x07FFDFD0>'
p23
sS'__reduce__'
p24
S'<built-in method __reduce__ of exceptions.UnboundLocalError object at 0x07FFDFD0>'
p25
sS'__str__'
p26
S"<method-wrapper '__str__' of exceptions.UnboundLocalError object at 0x07FFDFD0>"
p27
sS'args'
p28
S'("local variable \'level4\' referenced before assignment",)'
p29
sS'__getattribute__'
p30
S"<method-wrapper '__getattribute__' of exceptions.UnboundLocalError object at 0x07FFDFD0>"
p31
sS'__class__'
p32
S"<type 'exceptions.UnboundLocalError'>"
p33
sS'__delattr__'
p34
S"<method-wrapper '__delattr__' of exceptions.UnboundLocalError object at 0x07FFDFD0>"
p35
sS'__repr__'
p36
S"<method-wrapper '__repr__' of exceptions.UnboundLocalError object at 0x07FFDFD0>"
p37
sS'__dict__'
p38
S'{}'
p39
sS'__doc__'
p40
S"'Local name referenced but not bound to a value.'"
p41
sS'__init__'
p42
S"<method-wrapper '__init__' of exceptions.UnboundLocalError object at 0x07FFDFD0>"
p43
sS'__new__'
p44
S'<built-in method __new__ of type object at 0x1E1CD9A0>'
p45
ssS'evalue'
p46
S"local variable 'level4' referenced before assignment"
p47
sS'request'
p48
ccopy_reg
_reconstructor
p49
(cgluon.html
BEAUTIFY
p50
c__builtin__
object
p51
NtRp52
(dp53
S'attributes'
p54
(dp55
sS'components'
p56
(lp57
g49
(cgluon.html
TABLE
p58
g51
NtRp59
(dp60
g54
(dp61
S'level'
p62
I5
ssS'parent'
p63
Nsg56
(lp64
g49
(cgluon.html
TR
p65
g51
NtRp66
(dp67
g54
(dp68
sg63
g59
sg56
(lp69
g49
(cgluon.html
TD
p70
g51
NtRp71
(dp72
g54
(dp73
S'_style'
p74
S'font-weight:bold;vertical-align:top'
p75
ssg63
g66
sg56
(lp76
S'ajax'
p77
asbag49
(g70
g51
NtRp78
(dp79
g54
(dp80
S'_valign'
p81
S'top'
p82
ssg63
g66
sg56
(lp83
S':'
asbag49
(g70
g51
NtRp84
(dp85
g54
(dp86
sg63
g66
sg56
(lp87
g49
(g50
g51
NtRp88
(dp89
g54
(dp90
g62
I5
ssg63
g84
sg56
(lp91
S'False'
p92
asbasbasbag49
(g65
g51
NtRp93
(dp94
g54
(dp95
sg63
g59
sg56
(lp96
g49
(g70
g51
NtRp97
(dp98
g54
(dp99
g74
g75
ssg63
g93
sg56
(lp100
S'application'
p101
asbag49
(g70
g51
NtRp102
(dp103
g54
(dp104
g81
g82
ssg63
g93
sg56
(lp105
S':'
asbag49
(g70
g51
NtRp106
(dp107
g54
(dp108
sg63
g93
sg56
(lp109
g49
(g50
g51
NtRp110
(dp111
g54
(dp112
g62
I5
ssg63
g106
sg56
(lp113
S'init'
p114
asbasbasbag49
(g65
g51
NtRp115
(dp116
g54
(dp117
sg63
g59
sg56
(lp118
g49
(g70
g51
NtRp119
(dp120
g54
(dp121
g74
g75
ssg63
g115
sg56
(lp122
g28
asbag49
(g70
g51
NtRp123
(dp124
g54
(dp125
g81
g82
ssg63
g115
sg56
(lp126
S':'
asbag49
(g70
g51
NtRp127
(dp128
g54
(dp129
sg63
g115
sg56
(lp130
g49
(g50
g51
NtRp131
(dp132
g54
(dp133
g62
I5
ssg63
g127
sg56
(lp134
g49
(g58
g51
NtRp135
(dp136
g54
(dp137
g62
I4
ssg63
Nsg56
(lp138
sbasbasbasbag49
(g65
g51
NtRp139
(dp140
g54
(dp141
sg63
g59
sg56
(lp142
g49
(g70
g51
NtRp143
(dp144
g54
(dp145
g74
g75
ssg63
g139
sg56
(lp146
S'body'
p147
asbag49
(g70
g51
NtRp148
(dp149
g54
(dp150
g81
g82
ssg63
g139
sg56
(lp151
S':'
asbag49
(g70
g51
NtRp152
(dp153
g54
(dp154
sg63
g139
sg56
(lp155
g49
(g50
g51
NtRp156
(dp157
g54
(dp158
g62
I5
ssg63
g152
sg56
(lp159
S'<cStringIO.StringO object at 0x0482F6C0>'
p160
asbasbasbag49
(g65
g51
NtRp161
(dp162
g54
(dp163
sg63
g59
sg56
(lp164
g49
(g70
g51
NtRp165
(dp166
g54
(dp167
g74
g75
ssg63
g161
sg56
(lp168
S'client'
p169
asbag49
(g70
g51
NtRp170
(dp171
g54
(dp172
g81
g82
ssg63
g161
sg56
(lp173
S':'
asbag49
(g70
g51
NtRp174
(dp175
g54
(dp176
sg63
g161
sg56
(lp177
g49
(g50
g51
NtRp178
(dp179
g54
(dp180
g62
I5
ssg63
g174
sg56
(lp181
S'127.0.0.1'
p182
asbasbasbag49
(g65
g51
NtRp183
(dp184
g54
(dp185
sg63
g59
sg56
(lp186
g49
(g70
g51
NtRp187
(dp188
g54
(dp189
g74
g75
ssg63
g183
sg56
(lp190
S'controller'
p191
asbag49
(g70
g51
NtRp192
(dp193
g54
(dp194
g81
g82
ssg63
g183
sg56
(lp195
S':'
asbag49
(g70
g51
NtRp196
(dp197
g54
(dp198
sg63
g183
sg56
(lp199
g49
(g50
g51
NtRp200
(dp201
g54
(dp202
g62
I5
ssg63
g196
sg56
(lp203
S'default'
p204
asbasbasbag49
(g65
g51
NtRp205
(dp206
g54
(dp207
sg63
g59
sg56
(lp208
g49
(g70
g51
NtRp209
(dp210
g54
(dp211
g74
g75
ssg63
g205
sg56
(lp212
S'cookies'
p213
asbag49
(g70
g51
NtRp214
(dp215
g54
(dp216
g81
g82
ssg63
g205
sg56
(lp217
S':'
asbag49
(g70
g51
NtRp218
(dp219
g54
(dp220
sg63
g205
sg56
(lp221
g49
(g50
g51
NtRp222
(dp223
g54
(dp224
g62
I5
ssg63
g218
sg56
(lp225
g49
(g58
g51
NtRp226
(dp227
g54
(dp228
g62
I4
ssg63
Nsg56
(lp229
g49
(g65
g51
NtRp230
(dp231
g54
(dp232
sg63
g226
sg56
(lp233
g49
(g70
g51
NtRp234
(dp235
g54
(dp236
g74
g75
ssg63
g230
sg56
(lp237
S'session_id_admin'
p238
asbag49
(g70
g51
NtRp239
(dp240
g54
(dp241
g81
g82
ssg63
g230
sg56
(lp242
S':'
asbag49
(g70
g51
NtRp243
(dp244
g54
(dp245
sg63
g230
sg56
(lp246
g49
(g50
g51
NtRp247
(dp248
g54
(dp249
g62
I4
ssg63
g243
sg56
(lp250
g49
(g58
g51
NtRp251
(dp252
g54
(dp253
g62
I3
ssg63
Nsg56
(lp254
g49
(g65
g51
NtRp255
(dp256
g54
(dp257
sg63
g251
sg56
(lp258
g49
(g70
g51
NtRp259
(dp260
g54
(dp261
g74
g75
ssg63
g255
sg56
(lp262
S'comment'
p263
asbag49
(g70
g51
NtRp264
(dp265
g54
(dp266
g81
g82
ssg63
g255
sg56
(lp267
S':'
asbag49
(g70
g51
NtRp268
(dp269
g54
(dp270
sg63
g255
sg56
(lp271
g49
(g50
g51
NtRp272
(dp273
g54
(dp274
g62
I3
ssg63
g268
sg56
(lp275
S''
asbasbasbag49
(g65
g51
NtRp276
(dp277
g54
(dp278
sg63
g251
sg56
(lp279
g49
(g70
g51
NtRp280
(dp281
g54
(dp282
g74
g75
ssg63
g276
sg56
(lp283
S'domain'
p284
asbag49
(g70
g51
NtRp285
(dp286
g54
(dp287
g81
g82
ssg63
g276
sg56
(lp288
S':'
asbag49
(g70
g51
NtRp289
(dp290
g54
(dp291
sg63
g276
sg56
(lp292
g49
(g50
g51
NtRp293
(dp294
g54
(dp295
g62
I3
ssg63
g289
sg56
(lp296
S''
asbasbasbag49
(g65
g51
NtRp297
(dp298
g54
(dp299
sg63
g251
sg56
(lp300
g49
(g70
g51
NtRp301
(dp302
g54
(dp303
g74
g75
ssg63
g297
sg56
(lp304
S'expires'
p305
asbag49
(g70
g51
NtRp306
(dp307
g54
(dp308
g81
g82
ssg63
g297
sg56
(lp309
S':'
asbag49
(g70
g51
NtRp310
(dp311
g54
(dp312
sg63
g297
sg56
(lp313
g49
(g50
g51
NtRp314
(dp315
g54
(dp316
g62
I3
ssg63
g310
sg56
(lp317
S''
asbasbasbag49
(g65
g51
NtRp318
(dp319
g54
(dp320
sg63
g251
sg56
(lp321
g49
(g70
g51
NtRp322
(dp323
g54
(dp324
g74
g75
ssg63
g318
sg56
(lp325
S'max-age'
p326
asbag49
(g70
g51
NtRp327
(dp328
g54
(dp329
g81
g82
ssg63
g318
sg56
(lp330
S':'
asbag49
(g70
g51
NtRp331
(dp332
g54
(dp333
sg63
g318
sg56
(lp334
g49
(g50
g51
NtRp335
(dp336
g54
(dp337
g62
I3
ssg63
g331
sg56
(lp338
S''
asbasbasbag49
(g65
g51
NtRp339
(dp340
g54
(dp341
sg63
g251
sg56
(lp342
g49
(g70
g51
NtRp343
(dp344
g54
(dp345
g74
g75
ssg63
g339
sg56
(lp346
S'path'
p347
asbag49
(g70
g51
NtRp348
(dp349
g54
(dp350
g81
g82
ssg63
g339
sg56
(lp351
S':'
asbag49
(g70
g51
NtRp352
(dp353
g54
(dp354
sg63
g339
sg56
(lp355
g49
(g50
g51
NtRp356
(dp357
g54
(dp358
g62
I3
ssg63
g352
sg56
(lp359
S''
asbasbasbag49
(g65
g51
NtRp360
(dp361
g54
(dp362
sg63
g251
sg56
(lp363
g49
(g70
g51
NtRp364
(dp365
g54
(dp366
g74
g75
ssg63
g360
sg56
(lp367
S'secure'
p368
asbag49
(g70
g51
NtRp369
(dp370
g54
(dp371
g81
g82
ssg63
g360
sg56
(lp372
S':'
asbag49
(g70
g51
NtRp373
(dp374
g54
(dp375
sg63
g360
sg56
(lp376
g49
(g50
g51
NtRp377
(dp378
g54
(dp379
g62
I3
ssg63
g373
sg56
(lp380
S''
asbasbasbag49
(g65
g51
NtRp381
(dp382
g54
(dp383
sg63
g251
sg56
(lp384
g49
(g70
g51
NtRp385
(dp386
g54
(dp387
g74
g75
ssg63
g381
sg56
(lp388
S'version'
p389
asbag49
(g70
g51
NtRp390
(dp391
g54
(dp392
g81
g82
ssg63
g381
sg56
(lp393
S':'
asbag49
(g70
g51
NtRp394
(dp395
g54
(dp396
sg63
g381
sg56
(lp397
g49
(g50
g51
NtRp398
(dp399
g54
(dp400
g62
I3
ssg63
g394
sg56
(lp401
S''
asbasbasbasbasbasbasbag49
(g65
g51
NtRp402
(dp403
g54
(dp404
sg63
g226
sg56
(lp405
g49
(g70
g51
NtRp406
(dp407
g54
(dp408
g74
g75
ssg63
g402
sg56
(lp409
S'session_id_init'
p410
asbag49
(g70
g51
NtRp411
(dp412
g54
(dp413
g81
g82
ssg63
g402
sg56
(lp414
S':'
asbag49
(g70
g51
NtRp415
(dp416
g54
(dp417
sg63
g402
sg56
(lp418
g49
(g50
g51
NtRp419
(dp420
g54
(dp421
g62
I4
ssg63
g415
sg56
(lp422
g49
(g58
g51
NtRp423
(dp424
g54
(dp425
g62
I3
ssg63
Nsg56
(lp426
g49
(g65
g51
NtRp427
(dp428
g54
(dp429
sg63
g423
sg56
(lp430
g49
(g70
g51
NtRp431
(dp432
g54
(dp433
g74
g75
ssg63
g427
sg56
(lp434
g263
asbag49
(g70
g51
NtRp435
(dp436
g54
(dp437
g81
g82
ssg63
g427
sg56
(lp438
S':'
asbag49
(g70
g51
NtRp439
(dp440
g54
(dp441
sg63
g427
sg56
(lp442
g49
(g50
g51
NtRp443
(dp444
g54
(dp445
g62
I3
ssg63
g439
sg56
(lp446
S''
asbasbasbag49
(g65
g51
NtRp447
(dp448
g54
(dp449
sg63
g423
sg56
(lp450
g49
(g70
g51
NtRp451
(dp452
g54
(dp453
g74
g75
ssg63
g447
sg56
(lp454
g284
asbag49
(g70
g51
NtRp455
(dp456
g54
(dp457
g81
g82
ssg63
g447
sg56
(lp458
S':'
asbag49
(g70
g51
NtRp459
(dp460
g54
(dp461
sg63
g447
sg56
(lp462
g49
(g50
g51
NtRp463
(dp464
g54
(dp465
g62
I3
ssg63
g459
sg56
(lp466
S''
asbasbasbag49
(g65
g51
NtRp467
(dp468
g54
(dp469
sg63
g423
sg56
(lp470
g49
(g70
g51
NtRp471
(dp472
g54
(dp473
g74
g75
ssg63
g467
sg56
(lp474
g305
asbag49
(g70
g51
NtRp475
(dp476
g54
(dp477
g81
g82
ssg63
g467
sg56
(lp478
S':'
asbag49
(g70
g51
NtRp479
(dp480
g54
(dp481
sg63
g467
sg56
(lp482
g49
(g50
g51
NtRp483
(dp484
g54
(dp485
g62
I3
ssg63
g479
sg56
(lp486
S''
asbasbasbag49
(g65
g51
NtRp487
(dp488
g54
(dp489
sg63
g423
sg56
(lp490
g49
(g70
g51
NtRp491
(dp492
g54
(dp493
g74
g75
ssg63
g487
sg56
(lp494
g326
asbag49
(g70
g51
NtRp495
(dp496
g54
(dp497
g81
g82
ssg63
g487
sg56
(lp498
S':'
asbag49
(g70
g51
NtRp499
(dp500
g54
(dp501
sg63
g487
sg56
(lp502
g49
(g50
g51
NtRp503
(dp504
g54
(dp505
g62
I3
ssg63
g499
sg56
(lp506
S''
asbasbasbag49
(g65
g51
NtRp507
(dp508
g54
(dp509
sg63
g423
sg56
(lp510
g49
(g70
g51
NtRp511
(dp512
g54
(dp513
g74
g75
ssg63
g507
sg56
(lp514
g347
asbag49
(g70
g51
NtRp515
(dp516
g54
(dp517
g81
g82
ssg63
g507
sg56
(lp518
S':'
asbag49
(g70
g51
NtRp519
(dp520
g54
(dp521
sg63
g507
sg56
(lp522
g49
(g50
g51
NtRp523
(dp524
g54
(dp525
g62
I3
ssg63
g519
sg56
(lp526
S''
asbasbasbag49
(g65
g51
NtRp527
(dp528
g54
(dp529
sg63
g423
sg56
(lp530
g49
(g70
g51
NtRp531
(dp532
g54
(dp533
g74
g75
ssg63
g527
sg56
(lp534
g368
asbag49
(g70
g51
NtRp535
(dp536
g54
(dp537
g81
g82
ssg63
g527
sg56
(lp538
S':'
asbag49
(g70
g51
NtRp539
(dp540
g54
(dp541
sg63
g527
sg56
(lp542
g49
(g50
g51
NtRp543
(dp544
g54
(dp545
g62
I3
ssg63
g539
sg56
(lp546
S''
asbasbasbag49
(g65
g51
NtRp547
(dp548
g54
(dp549
sg63
g423
sg56
(lp550
g49
(g70
g51
NtRp551
(dp552
g54
(dp553
g74
g75
ssg63
g547
sg56
(lp554
g389
asbag49
(g70
g51
NtRp555
(dp556
g54
(dp557
g81
g82
ssg63
g547
sg56
(lp558
S':'
asbag49
(g70
g51
NtRp559
(dp560
g54
(dp561
sg63
g547
sg56
(lp562
g49
(g50
g51
NtRp563
(dp564
g54
(dp565
g62
I3
ssg63
g559
sg56
(lp566
S''
asbasbasbasbasbasbasbasbasbasbasbag49
(g65
g51
NtRp567
(dp568
g54
(dp569
sg63
g59
sg56
(lp570
g49
(g70
g51
NtRp571
(dp572
g54
(dp573
g74
g75
ssg63
g567
sg56
(lp574
S'env'
p575
asbag49
(g70
g51
NtRp576
(dp577
g54
(dp578
g81
g82
ssg63
g567
sg56
(lp579
S':'
asbag49
(g70
g51
NtRp580
(dp581
g54
(dp582
sg63
g567
sg56
(lp583
g49
(g50
g51
NtRp584
(dp585
g54
(dp586
g62
I5
ssg63
g580
sg56
(lp587
g49
(g58
g51
NtRp588
(dp589
g54
(dp590
g62
I4
ssg63
Nsg56
(lp591
g49
(g65
g51
NtRp592
(dp593
g54
(dp594
sg63
g588
sg56
(lp595
g49
(g70
g51
NtRp596
(dp597
g54
(dp598
g74
g75
ssg63
g592
sg56
(lp599
S'app_folders'
p600
asbag49
(g70
g51
NtRp601
(dp602
g54
(dp603
g81
g82
ssg63
g592
sg56
(lp604
S':'
asbag49
(g70
g51
NtRp605
(dp606
g54
(dp607
sg63
g592
sg56
(lp608
g49
(g50
g51
NtRp609
(dp610
g54
(dp611
g62
I4
ssg63
g605
sg56
(lp612
S"set(['C:\\\\Users\\\\Bussiere\\\\Dropbox\\\\Projets\\\\jackpoint\\\\web2py\\\\applications\\\\init\\\\', 'C:\\\\Users\\\\Bussiere\\\\Dropbox\\\\Projets\\\\jackpoint\\\\web2py\\\\applications\\\\admin\\\\'])"
p613
asbasbasbag49
(g65
g51
NtRp614
(dp615
g54
(dp616
sg63
g588
sg56
(lp617
g49
(g70
g51
NtRp618
(dp619
g54
(dp620
g74
g75
ssg63
g614
sg56
(lp621
S'applications_parent'
p622
asbag49
(g70
g51
NtRp623
(dp624
g54
(dp625
g81
g82
ssg63
g614
sg56
(lp626
S':'
asbag49
(g70
g51
NtRp627
(dp628
g54
(dp629
sg63
g614
sg56
(lp630
g49
(g50
g51
NtRp631
(dp632
g54
(dp633
g62
I4
ssg63
g627
sg56
(lp634
S'C:\\Users\\Bussiere\\Dropbox\\Projets\\jackpoint\\web2py'
p635
asbasbasbag49
(g65
g51
NtRp636
(dp637
g54
(dp638
sg63
g588
sg56
(lp639
g49
(g70
g51
NtRp640
(dp641
g54
(dp642
g74
g75
ssg63
g636
sg56
(lp643
S'cmd_args'
p644
asbag49
(g70
g51
NtRp645
(dp646
g54
(dp647
g81
g82
ssg63
g636
sg56
(lp648
S':'
asbag49
(g70
g51
NtRp649
(dp650
g54
(dp651
sg63
g636
sg56
(lp652
g49
(g50
g51
NtRp653
(dp654
g54
(dp655
g62
I4
ssg63
g649
sg56
(lp656
g49
(g58
g51
NtRp657
(dp658
g54
(dp659
g62
I3
ssg63
Nsg56
(lp660
sbasbasbasbag49
(g65
g51
NtRp661
(dp662
g54
(dp663
sg63
g588
sg56
(lp664
g49
(g70
g51
NtRp665
(dp666
g54
(dp667
g74
g75
ssg63
g661
sg56
(lp668
S'cmd_options'
p669
asbag49
(g70
g51
NtRp670
(dp671
g54
(dp672
g81
g82
ssg63
g661
sg56
(lp673
S':'
asbag49
(g70
g51
NtRp674
(dp675
g54
(dp676
sg63
g661
sg56
(lp677
g49
(g50
g51
NtRp678
(dp679
g54
(dp680
g62
I4
ssg63
g674
sg56
(lp681
S"<Values at 0x3d15fa8: {'verbose': False, 'ip': '127.0.0.1', 'shutdown_timeout': 5, 'taskbar': False, 'nocron': False, 'pid_filename': 'httpserver.pid', 'maxthreads': None, 'softcron': False, 'server_name': 'Batou', 'bpython': False, 'nogui': False, 'port': 8000, 'extcron': False, 'debuglevel': 30, 'test': None, 'folder': 'C:\\\\Users\\\\Bussiere\\\\Dropbox\\\\Projets\\\\jackpoint\\\\web2py', 'config': '', 'import_models': False, 'winservice': '', 'shell': None, 'run': '', 'log_filename': 'httpserver.log', 'args': [''], 'socket_timeout': 5, 'ssl_ca_certificate': None, 'scheduler': None, 'profiler_filename': None, 'ssl_private_key': '', 'password': '<ask>', 'request_queue_size': 5, 'ssl_certificate': '', 'cronjob': False, 'numthreads': None, 'quiet': False, 'interfaces': None, 'minthreads': None, 'timeout': 10, 'plain': False, 'nobanner': False}>"
p682
asbasbasbag49
(g65
g51
NtRp683
(dp684
g54
(dp685
sg63
g588
sg56
(lp686
g49
(g70
g51
NtRp687
(dp688
g54
(dp689
g74
g75
ssg63
g683
sg56
(lp690
S'db_sessions'
p691
asbag49
(g70
g51
NtRp692
(dp693
g54
(dp694
g81
g82
ssg63
g683
sg56
(lp695
S':'
asbag49
(g70
g51
NtRp696
(dp697
g54
(dp698
sg63
g683
sg56
(lp699
g49
(g50
g51
NtRp700
(dp701
g54
(dp702
g62
I4
ssg63
g696
sg56
(lp703
S"set(['init'])"
p704
asbasbasbag49
(g65
g51
NtRp705
(dp706
g54
(dp707
sg63
g588
sg56
(lp708
g49
(g70
g51
NtRp709
(dp710
g54
(dp711
g74
g75
ssg63
g705
sg56
(lp712
S'debugging'
p713
asbag49
(g70
g51
NtRp714
(dp715
g54
(dp716
g81
g82
ssg63
g705
sg56
(lp717
S':'
asbag49
(g70
g51
NtRp718
(dp719
g54
(dp720
sg63
g705
sg56
(lp721
g49
(g50
g51
NtRp722
(dp723
g54
(dp724
g62
I4
ssg63
g718
sg56
(lp725
S'True'
p726
asbasbasbag49
(g65
g51
NtRp727
(dp728
g54
(dp729
sg63
g588
sg56
(lp730
g49
(g70
g51
NtRp731
(dp732
g54
(dp733
g74
g75
ssg63
g727
sg56
(lp734
S'gluon_parent'
p735
asbag49
(g70
g51
NtRp736
(dp737
g54
(dp738
g81
g82
ssg63
g727
sg56
(lp739
S':'
asbag49
(g70
g51
NtRp740
(dp741
g54
(dp742
sg63
g727
sg56
(lp743
g49
(g50
g51
NtRp744
(dp745
g54
(dp746
g62
I4
ssg63
g740
sg56
(lp747
S'C:\\Users\\Bussiere\\Dropbox\\Projets\\jackpoint\\web2py'
p748
asbasbasbag49
(g65
g51
NtRp749
(dp750
g54
(dp751
sg63
g588
sg56
(lp752
g49
(g70
g51
NtRp753
(dp754
g54
(dp755
g74
g75
ssg63
g749
sg56
(lp756
S'http_accept'
p757
asbag49
(g70
g51
NtRp758
(dp759
g54
(dp760
g81
g82
ssg63
g749
sg56
(lp761
S':'
asbag49
(g70
g51
NtRp762
(dp763
g54
(dp764
sg63
g749
sg56
(lp765
g49
(g50
g51
NtRp766
(dp767
g54
(dp768
g62
I4
ssg63
g762
sg56
(lp769
S'text/html,application/xhtml+xml,application/xml;q=0.9,*/*;q=0.8'
p770
asbasbasbag49
(g65
g51
NtRp771
(dp772
g54
(dp773
sg63
g588
sg56
(lp774
g49
(g70
g51
NtRp775
(dp776
g54
(dp777
g74
g75
ssg63
g771
sg56
(lp778
S'http_accept_charset'
p779
asbag49
(g70
g51
NtRp780
(dp781
g54
(dp782
g81
g82
ssg63
g771
sg56
(lp783
S':'
asbag49
(g70
g51
NtRp784
(dp785
g54
(dp786
sg63
g771
sg56
(lp787
g49
(g50
g51
NtRp788
(dp789
g54
(dp790
g62
I4
ssg63
g784
sg56
(lp791
S'ISO-8859-1,utf-8;q=0.7,*;q=0.3'
p792
asbasbasbag49
(g65
g51
NtRp793
(dp794
g54
(dp795
sg63
g588
sg56
(lp796
g49
(g70
g51
NtRp797
(dp798
g54
(dp799
g74
g75
ssg63
g793
sg56
(lp800
S'http_accept_encoding'
p801
asbag49
(g70
g51
NtRp802
(dp803
g54
(dp804
g81
g82
ssg63
g793
sg56
(lp805
S':'
asbag49
(g70
g51
NtRp806
(dp807
g54
(dp808
sg63
g793
sg56
(lp809
g49
(g50
g51
NtRp810
(dp811
g54
(dp812
g62
I4
ssg63
g806
sg56
(lp813
S'gzip,deflate,sdch'
p814
asbasbasbag49
(g65
g51
NtRp815
(dp816
g54
(dp817
sg63
g588
sg56
(lp818
g49
(g70
g51
NtRp819
(dp820
g54
(dp821
g74
g75
ssg63
g815
sg56
(lp822
S'http_accept_language'
p823
asbag49
(g70
g51
NtRp824
(dp825
g54
(dp826
g81
g82
ssg63
g815
sg56
(lp827
S':'
asbag49
(g70
g51
NtRp828
(dp829
g54
(dp830
sg63
g815
sg56
(lp831
g49
(g50
g51
NtRp832
(dp833
g54
(dp834
g62
I4
ssg63
g828
sg56
(lp835
S'fr-FR,fr;q=0.8,en-US;q=0.6,en;q=0.4'
p836
asbasbasbag49
(g65
g51
NtRp837
(dp838
g54
(dp839
sg63
g588
sg56
(lp840
g49
(g70
g51
NtRp841
(dp842
g54
(dp843
g74
g75
ssg63
g837
sg56
(lp844
S'http_connection'
p845
asbag49
(g70
g51
NtRp846
(dp847
g54
(dp848
g81
g82
ssg63
g837
sg56
(lp849
S':'
asbag49
(g70
g51
NtRp850
(dp851
g54
(dp852
sg63
g837
sg56
(lp853
g49
(g50
g51
NtRp854
(dp855
g54
(dp856
g62
I4
ssg63
g850
sg56
(lp857
S'keep-alive'
p858
asbasbasbag49
(g65
g51
NtRp859
(dp860
g54
(dp861
sg63
g588
sg56
(lp862
g49
(g70
g51
NtRp863
(dp864
g54
(dp865
g74
g75
ssg63
g859
sg56
(lp866
S'http_cookie'
p867
asbag49
(g70
g51
NtRp868
(dp869
g54
(dp870
g81
g82
ssg63
g859
sg56
(lp871
S':'
asbag49
(g70
g51
NtRp872
(dp873
g54
(dp874
sg63
g859
sg56
(lp875
g49
(g50
g51
NtRp876
(dp877
g54
(dp878
g62
I4
ssg63
g872
sg56
(lp879
S'session_id_admin=127.0.0.1-e7ba9533-971b-48d8-b9b4-ae4775a353f8; session_id_init="19:a8687721-5787-4713-9329-1674aeb3f1bb"'
p880
asbasbasbag49
(g65
g51
NtRp881
(dp882
g54
(dp883
sg63
g588
sg56
(lp884
g49
(g70
g51
NtRp885
(dp886
g54
(dp887
g74
g75
ssg63
g881
sg56
(lp888
S'http_host'
p889
asbag49
(g70
g51
NtRp890
(dp891
g54
(dp892
g81
g82
ssg63
g881
sg56
(lp893
S':'
asbag49
(g70
g51
NtRp894
(dp895
g54
(dp896
sg63
g881
sg56
(lp897
g49
(g50
g51
NtRp898
(dp899
g54
(dp900
g62
I4
ssg63
g894
sg56
(lp901
S'localhost:8000'
p902
asbasbasbag49
(g65
g51
NtRp903
(dp904
g54
(dp905
sg63
g588
sg56
(lp906
g49
(g70
g51
NtRp907
(dp908
g54
(dp909
g74
g75
ssg63
g903
sg56
(lp910
S'http_user_agent'
p911
asbag49
(g70
g51
NtRp912
(dp913
g54
(dp914
g81
g82
ssg63
g903
sg56
(lp915
S':'
asbag49
(g70
g51
NtRp916
(dp917
g54
(dp918
sg63
g903
sg56
(lp919
g49
(g50
g51
NtRp920
(dp921
g54
(dp922
g62
I4
ssg63
g916
sg56
(lp923
S'Mozilla/5.0 (Windows NT 6.1; WOW64) AppleWebKit/535.11 (KHTML, like Gecko) Chrome/17.0.963.83 Safari/535.11'
p924
asbasbasbag49
(g65
g51
NtRp925
(dp926
g54
(dp927
sg63
g588
sg56
(lp928
g49
(g70
g51
NtRp929
(dp930
g54
(dp931
g74
g75
ssg63
g925
sg56
(lp932
S'is_jython'
p933
asbag49
(g70
g51
NtRp934
(dp935
g54
(dp936
g81
g82
ssg63
g925
sg56
(lp937
S':'
asbag49
(g70
g51
NtRp938
(dp939
g54
(dp940
sg63
g925
sg56
(lp941
g49
(g50
g51
NtRp942
(dp943
g54
(dp944
g62
I4
ssg63
g938
sg56
(lp945
g92
asbasbasbag49
(g65
g51
NtRp946
(dp947
g54
(dp948
sg63
g588
sg56
(lp949
g49
(g70
g51
NtRp950
(dp951
g54
(dp952
g74
g75
ssg63
g946
sg56
(lp953
S'is_pypy'
p954
asbag49
(g70
g51
NtRp955
(dp956
g54
(dp957
g81
g82
ssg63
g946
sg56
(lp958
S':'
asbag49
(g70
g51
NtRp959
(dp960
g54
(dp961
sg63
g946
sg56
(lp962
g49
(g50
g51
NtRp963
(dp964
g54
(dp965
g62
I4
ssg63
g959
sg56
(lp966
g92
asbasbasbag49
(g65
g51
NtRp967
(dp968
g54
(dp969
sg63
g588
sg56
(lp970
g49
(g70
g51
NtRp971
(dp972
g54
(dp973
g74
g75
ssg63
g967
sg56
(lp974
S'path_info'
p975
asbag49
(g70
g51
NtRp976
(dp977
g54
(dp978
g81
g82
ssg63
g967
sg56
(lp979
S':'
asbag49
(g70
g51
NtRp980
(dp981
g54
(dp982
sg63
g967
sg56
(lp983
g49
(g50
g51
NtRp984
(dp985
g54
(dp986
g62
I4
ssg63
g980
sg56
(lp987
S'/init/default/initdbjack'
p988
asbasbasbag49
(g65
g51
NtRp989
(dp990
g54
(dp991
sg63
g588
sg56
(lp992
g49
(g70
g51
NtRp993
(dp994
g54
(dp995
g74
g75
ssg63
g989
sg56
(lp996
S'query_string'
p997
asbag49
(g70
g51
NtRp998
(dp999
g54
(dp1000
g81
g82
ssg63
g989
sg56
(lp1001
S':'
asbag49
(g70
g51
NtRp1002
(dp1003
g54
(dp1004
sg63
g989
sg56
(lp1005
g49
(g50
g51
NtRp1006
(dp1007
g54
(dp1008
g62
I4
ssg63
g1002
sg56
(lp1009
S''
asbasbasbag49
(g65
g51
NtRp1010
(dp1011
g54
(dp1012
sg63
g588
sg56
(lp1013
g49
(g70
g51
NtRp1014
(dp1015
g54
(dp1016
g74
g75
ssg63
g1010
sg56
(lp1017
S'remote_addr'
p1018
asbag49
(g70
g51
NtRp1019
(dp1020
g54
(dp1021
g81
g82
ssg63
g1010
sg56
(lp1022
S':'
asbag49
(g70
g51
NtRp1023
(dp1024
g54
(dp1025
sg63
g1010
sg56
(lp1026
g49
(g50
g51
NtRp1027
(dp1028
g54
(dp1029
g62
I4
ssg63
g1023
sg56
(lp1030
g182
asbasbasbag49
(g65
g51
NtRp1031
(dp1032
g54
(dp1033
sg63
g588
sg56
(lp1034
g49
(g70
g51
NtRp1035
(dp1036
g54
(dp1037
g74
g75
ssg63
g1031
sg56
(lp1038
S'remote_port'
p1039
asbag49
(g70
g51
NtRp1040
(dp1041
g54
(dp1042
g81
g82
ssg63
g1031
sg56
(lp1043
S':'
asbag49
(g70
g51
NtRp1044
(dp1045
g54
(dp1046
sg63
g1031
sg56
(lp1047
g49
(g50
g51
NtRp1048
(dp1049
g54
(dp1050
g62
I4
ssg63
g1044
sg56
(lp1051
S'63828'
p1052
asbasbasbag49
(g65
g51
NtRp1053
(dp1054
g54
(dp1055
sg63
g588
sg56
(lp1056
g49
(g70
g51
NtRp1057
(dp1058
g54
(dp1059
g74
g75
ssg63
g1053
sg56
(lp1060
S'request_method'
p1061
asbag49
(g70
g51
NtRp1062
(dp1063
g54
(dp1064
g81
g82
ssg63
g1053
sg56
(lp1065
S':'
asbag49
(g70
g51
NtRp1066
(dp1067
g54
(dp1068
sg63
g1053
sg56
(lp1069
g49
(g50
g51
NtRp1070
(dp1071
g54
(dp1072
g62
I4
ssg63
g1066
sg56
(lp1073
S'GET'
p1074
asbasbasbag49
(g65
g51
NtRp1075
(dp1076
g54
(dp1077
sg63
g588
sg56
(lp1078
g49
(g70
g51
NtRp1079
(dp1080
g54
(dp1081
g74
g75
ssg63
g1075
sg56
(lp1082
S'script_name'
p1083
asbag49
(g70
g51
NtRp1084
(dp1085
g54
(dp1086
g81
g82
ssg63
g1075
sg56
(lp1087
S':'
asbag49
(g70
g51
NtRp1088
(dp1089
g54
(dp1090
sg63
g1075
sg56
(lp1091
g49
(g50
g51
NtRp1092
(dp1093
g54
(dp1094
g62
I4
ssg63
g1088
sg56
(lp1095
S''
asbasbasbag49
(g65
g51
NtRp1096
(dp1097
g54
(dp1098
sg63
g588
sg56
(lp1099
g49
(g70
g51
NtRp1100
(dp1101
g54
(dp1102
g74
g75
ssg63
g1096
sg56
(lp1103
S'server_name'
p1104
asbag49
(g70
g51
NtRp1105
(dp1106
g54
(dp1107
g81
g82
ssg63
g1096
sg56
(lp1108
S':'
asbag49
(g70
g51
NtRp1109
(dp1110
g54
(dp1111
sg63
g1096
sg56
(lp1112
g49
(g50
g51
NtRp1113
(dp1114
g54
(dp1115
g62
I4
ssg63
g1109
sg56
(lp1116
S'Batou'
p1117
asbasbasbag49
(g65
g51
NtRp1118
(dp1119
g54
(dp1120
sg63
g588
sg56
(lp1121
g49
(g70
g51
NtRp1122
(dp1123
g54
(dp1124
g74
g75
ssg63
g1118
sg56
(lp1125
S'server_port'
p1126
asbag49
(g70
g51
NtRp1127
(dp1128
g54
(dp1129
g81
g82
ssg63
g1118
sg56
(lp1130
S':'
asbag49
(g70
g51
NtRp1131
(dp1132
g54
(dp1133
sg63
g1118
sg56
(lp1134
g49
(g50
g51
NtRp1135
(dp1136
g54
(dp1137
g62
I4
ssg63
g1131
sg56
(lp1138
S'8000'
p1139
asbasbasbag49
(g65
g51
NtRp1140
(dp1141
g54
(dp1142
sg63
g588
sg56
(lp1143
g49
(g70
g51
NtRp1144
(dp1145
g54
(dp1146
g74
g75
ssg63
g1140
sg56
(lp1147
S'server_protocol'
p1148
asbag49
(g70
g51
NtRp1149
(dp1150
g54
(dp1151
g81
g82
ssg63
g1140
sg56
(lp1152
S':'
asbag49
(g70
g51
NtRp1153
(dp1154
g54
(dp1155
sg63
g1140
sg56
(lp1156
g49
(g50
g51
NtRp1157
(dp1158
g54
(dp1159
g62
I4
ssg63
g1153
sg56
(lp1160
S'HTTP/1.1'
p1161
asbasbasbag49
(g65
g51
NtRp1162
(dp1163
g54
(dp1164
sg63
g588
sg56
(lp1165
g49
(g70
g51
NtRp1166
(dp1167
g54
(dp1168
g74
g75
ssg63
g1162
sg56
(lp1169
S'server_software'
p1170
asbag49
(g70
g51
NtRp1171
(dp1172
g54
(dp1173
g81
g82
ssg63
g1162
sg56
(lp1174
S':'
asbag49
(g70
g51
NtRp1175
(dp1176
g54
(dp1177
sg63
g1162
sg56
(lp1178
g49
(g50
g51
NtRp1179
(dp1180
g54
(dp1181
g62
I4
ssg63
g1175
sg56
(lp1182
S'Rocket 1.2.4'
p1183
asbasbasbag49
(g65
g51
NtRp1184
(dp1185
g54
(dp1186
sg63
g588
sg56
(lp1187
g49
(g70
g51
NtRp1188
(dp1189
g54
(dp1190
g74
g75
ssg63
g1184
sg56
(lp1191
S'web2py_crontype'
p1192
asbag49
(g70
g51
NtRp1193
(dp1194
g54
(dp1195
g81
g82
ssg63
g1184
sg56
(lp1196
S':'
asbag49
(g70
g51
NtRp1197
(dp1198
g54
(dp1199
sg63
g1184
sg56
(lp1200
g49
(g50
g51
NtRp1201
(dp1202
g54
(dp1203
g62
I4
ssg63
g1197
sg56
(lp1204
S'hard'
p1205
asbasbasbag49
(g65
g51
NtRp1206
(dp1207
g54
(dp1208
sg63
g588
sg56
(lp1209
g49
(g70
g51
NtRp1210
(dp1211
g54
(dp1212
g74
g75
ssg63
g1206
sg56
(lp1213
S'web2py_path'
p1214
asbag49
(g70
g51
NtRp1215
(dp1216
g54
(dp1217
g81
g82
ssg63
g1206
sg56
(lp1218
S':'
asbag49
(g70
g51
NtRp1219
(dp1220
g54
(dp1221
sg63
g1206
sg56
(lp1222
g49
(g50
g51
NtRp1223
(dp1224
g54
(dp1225
g62
I4
ssg63
g1219
sg56
(lp1226
g635
asbasbasbag49
(g65
g51
NtRp1227
(dp1228
g54
(dp1229
sg63
g588
sg56
(lp1230
g49
(g70
g51
NtRp1231
(dp1232
g54
(dp1233
g74
g75
ssg63
g1227
sg56
(lp1234
S'web2py_version'
p1235
asbag49
(g70
g51
NtRp1236
(dp1237
g54
(dp1238
g81
g82
ssg63
g1227
sg56
(lp1239
S':'
asbag49
(g70
g51
NtRp1240
(dp1241
g54
(dp1242
sg63
g1227
sg56
(lp1243
g49
(g50
g51
NtRp1244
(dp1245
g54
(dp1246
g62
I4
ssg63
g1240
sg56
(lp1247
g49
(g58
g51
NtRp1248
(dp1249
g54
(dp1250
g62
I3
ssg63
Nsg56
(lp1251
g49
(g65
g51
NtRp1252
(dp1253
g54
(dp1254
sg63
g1248
sg56
(lp1255
g49
(g70
g51
NtRp1256
(dp1257
g54
(dp1258
sg63
g1252
sg56
(lp1259
g49
(g50
g51
NtRp1260
(dp1261
g54
(dp1262
g62
I3
ssg63
g1256
sg56
(lp1263
S'1'
asbasbasbag49
(g65
g51
NtRp1264
(dp1265
g54
(dp1266
sg63
g1248
sg56
(lp1267
g49
(g70
g51
NtRp1268
(dp1269
g54
(dp1270
sg63
g1264
sg56
(lp1271
g49
(g50
g51
NtRp1272
(dp1273
g54
(dp1274
g62
I3
ssg63
g1268
sg56
(lp1275
S'99'
p1276
asbasbasbag49
(g65
g51
NtRp1277
(dp1278
g54
(dp1279
sg63
g1248
sg56
(lp1280
g49
(g70
g51
NtRp1281
(dp1282
g54
(dp1283
sg63
g1277
sg56
(lp1284
g49
(g50
g51
NtRp1285
(dp1286
g54
(dp1287
g62
I3
ssg63
g1281
sg56
(lp1288
S'7'
asbasbasbag49
(g65
g51
NtRp1289
(dp1290
g54
(dp1291
sg63
g1248
sg56
(lp1292
g49
(g70
g51
NtRp1293
(dp1294
g54
(dp1295
sg63
g1289
sg56
(lp1296
g49
(g50
g51
NtRp1297
(dp1298
g54
(dp1299
g62
I3
ssg63
g1293
sg56
(lp1300
S'datetime.datetime(2012, 3, 4, 22, 12, 8)'
p1301
asbasbasbag49
(g65
g51
NtRp1302
(dp1303
g54
(dp1304
sg63
g1248
sg56
(lp1305
g49
(g70
g51
NtRp1306
(dp1307
g54
(dp1308
sg63
g1302
sg56
(lp1309
g49
(g50
g51
NtRp1310
(dp1311
g54
(dp1312
g62
I3
ssg63
g1306
sg56
(lp1313
S'stable'
p1314
asbasbasbasbasbasbasbag49
(g65
g51
NtRp1315
(dp1316
g54
(dp1317
sg63
g588
sg56
(lp1318
g49
(g70
g51
NtRp1319
(dp1320
g54
(dp1321
g74
g75
ssg63
g1315
sg56
(lp1322
S'wsgi_errors'
p1323
asbag49
(g70
g51
NtRp1324
(dp1325
g54
(dp1326
g81
g82
ssg63
g1315
sg56
(lp1327
S':'
asbag49
(g70
g51
NtRp1328
(dp1329
g54
(dp1330
sg63
g1315
sg56
(lp1331
g49
(g50
g51
NtRp1332
(dp1333
g54
(dp1334
g62
I4
ssg63
g1328
sg56
(lp1335
S"<open file '<stderr>', mode 'w' at 0x005300B0>"
p1336
asbasbasbag49
(g65
g51
NtRp1337
(dp1338
g54
(dp1339
sg63
g588
sg56
(lp1340
g49
(g70
g51
NtRp1341
(dp1342
g54
(dp1343
g74
g75
ssg63
g1337
sg56
(lp1344
S'wsgi_file_wrapper'
p1345
asbag49
(g70
g51
NtRp1346
(dp1347
g54
(dp1348
g81
g82
ssg63
g1337
sg56
(lp1349
S':'
asbag49
(g70
g51
NtRp1350
(dp1351
g54
(dp1352
sg63
g1337
sg56
(lp1353
g49
(g50
g51
NtRp1354
(dp1355
g54
(dp1356
g62
I4
ssg63
g1350
sg56
(lp1357
S'<class wsgiref.util.FileWrapper at 0x02C34900>'
p1358
asbasbasbag49
(g65
g51
NtRp1359
(dp1360
g54
(dp1361
sg63
g588
sg56
(lp1362
g49
(g70
g51
NtRp1363
(dp1364
g54
(dp1365
g74
g75
ssg63
g1359
sg56
(lp1366
S'wsgi_input'
p1367
asbag49
(g70
g51
NtRp1368
(dp1369
g54
(dp1370
g81
g82
ssg63
g1359
sg56
(lp1371
S':'
asbag49
(g70
g51
NtRp1372
(dp1373
g54
(dp1374
sg63
g1359
sg56
(lp1375
g49
(g50
g51
NtRp1376
(dp1377
g54
(dp1378
g62
I4
ssg63
g1372
sg56
(lp1379
S'<socket._fileobject object at 0x045B7D30>'
p1380
asbasbasbag49
(g65
g51
NtRp1381
(dp1382
g54
(dp1383
sg63
g588
sg56
(lp1384
g49
(g70
g51
NtRp1385
(dp1386
g54
(dp1387
g74
g75
ssg63
g1381
sg56
(lp1388
S'wsgi_multiprocess'
p1389
asbag49
(g70
g51
NtRp1390
(dp1391
g54
(dp1392
g81
g82
ssg63
g1381
sg56
(lp1393
S':'
asbag49
(g70
g51
NtRp1394
(dp1395
g54
(dp1396
sg63
g1381
sg56
(lp1397
g49
(g50
g51
NtRp1398
(dp1399
g54
(dp1400
g62
I4
ssg63
g1394
sg56
(lp1401
g92
asbasbasbag49
(g65
g51
NtRp1402
(dp1403
g54
(dp1404
sg63
g588
sg56
(lp1405
g49
(g70
g51
NtRp1406
(dp1407
g54
(dp1408
g74
g75
ssg63
g1402
sg56
(lp1409
S'wsgi_multithread'
p1410
asbag49
(g70
g51
NtRp1411
(dp1412
g54
(dp1413
g81
g82
ssg63
g1402
sg56
(lp1414
S':'
asbag49
(g70
g51
NtRp1415
(dp1416
g54
(dp1417
sg63
g1402
sg56
(lp1418
g49
(g50
g51
NtRp1419
(dp1420
g54
(dp1421
g62
I4
ssg63
g1415
sg56
(lp1422
g726
asbasbasbag49
(g65
g51
NtRp1423
(dp1424
g54
(dp1425
sg63
g588
sg56
(lp1426
g49
(g70
g51
NtRp1427
(dp1428
g54
(dp1429
g74
g75
ssg63
g1423
sg56
(lp1430
S'wsgi_run_once'
p1431
asbag49
(g70
g51
NtRp1432
(dp1433
g54
(dp1434
g81
g82
ssg63
g1423
sg56
(lp1435
S':'
asbag49
(g70
g51
NtRp1436
(dp1437
g54
(dp1438
sg63
g1423
sg56
(lp1439
g49
(g50
g51
NtRp1440
(dp1441
g54
(dp1442
g62
I4
ssg63
g1436
sg56
(lp1443
g92
asbasbasbag49
(g65
g51
NtRp1444
(dp1445
g54
(dp1446
sg63
g588
sg56
(lp1447
g49
(g70
g51
NtRp1448
(dp1449
g54
(dp1450
g74
g75
ssg63
g1444
sg56
(lp1451
S'wsgi_url_scheme'
p1452
asbag49
(g70
g51
NtRp1453
(dp1454
g54
(dp1455
g81
g82
ssg63
g1444
sg56
(lp1456
S':'
asbag49
(g70
g51
NtRp1457
(dp1458
g54
(dp1459
sg63
g1444
sg56
(lp1460
g49
(g50
g51
NtRp1461
(dp1462
g54
(dp1463
g62
I4
ssg63
g1457
sg56
(lp1464
S'http'
p1465
asbasbasbag49
(g65
g51
NtRp1466
(dp1467
g54
(dp1468
sg63
g588
sg56
(lp1469
g49
(g70
g51
NtRp1470
(dp1471
g54
(dp1472
g74
g75
ssg63
g1466
sg56
(lp1473
S'wsgi_version'
p1474
asbag49
(g70
g51
NtRp1475
(dp1476
g54
(dp1477
g81
g82
ssg63
g1466
sg56
(lp1478
S':'
asbag49
(g70
g51
NtRp1479
(dp1480
g54
(dp1481
sg63
g1466
sg56
(lp1482
g49
(g50
g51
NtRp1483
(dp1484
g54
(dp1485
g62
I4
ssg63
g1479
sg56
(lp1486
g49
(g58
g51
NtRp1487
(dp1488
g54
(dp1489
g62
I3
ssg63
Nsg56
(lp1490
g49
(g65
g51
NtRp1491
(dp1492
g54
(dp1493
sg63
g1487
sg56
(lp1494
g49
(g70
g51
NtRp1495
(dp1496
g54
(dp1497
sg63
g1491
sg56
(lp1498
g49
(g50
g51
NtRp1499
(dp1500
g54
(dp1501
g62
I3
ssg63
g1495
sg56
(lp1502
S'1'
asbasbasbag49
(g65
g51
NtRp1503
(dp1504
g54
(dp1505
sg63
g1487
sg56
(lp1506
g49
(g70
g51
NtRp1507
(dp1508
g54
(dp1509
sg63
g1503
sg56
(lp1510
g49
(g50
g51
NtRp1511
(dp1512
g54
(dp1513
g62
I3
ssg63
g1507
sg56
(lp1514
S'0'
asbasbasbasbasbasbasbasbasbasbasbag49
(g65
g51
NtRp1515
(dp1516
g54
(dp1517
sg63
g59
sg56
(lp1518
g49
(g70
g51
NtRp1519
(dp1520
g54
(dp1521
g74
g75
ssg63
g1515
sg56
(lp1522
S'extension'
p1523
asbag49
(g70
g51
NtRp1524
(dp1525
g54
(dp1526
g81
g82
ssg63
g1515
sg56
(lp1527
S':'
asbag49
(g70
g51
NtRp1528
(dp1529
g54
(dp1530
sg63
g1515
sg56
(lp1531
g49
(g50
g51
NtRp1532
(dp1533
g54
(dp1534
g62
I5
ssg63
g1528
sg56
(lp1535
S'html'
p1536
asbasbasbag49
(g65
g51
NtRp1537
(dp1538
g54
(dp1539
sg63
g59
sg56
(lp1540
g49
(g70
g51
NtRp1541
(dp1542
g54
(dp1543
g74
g75
ssg63
g1537
sg56
(lp1544
S'folder'
p1545
asbag49
(g70
g51
NtRp1546
(dp1547
g54
(dp1548
g81
g82
ssg63
g1537
sg56
(lp1549
S':'
asbag49
(g70
g51
NtRp1550
(dp1551
g54
(dp1552
sg63
g1537
sg56
(lp1553
g49
(g50
g51
NtRp1554
(dp1555
g54
(dp1556
g62
I5
ssg63
g1550
sg56
(lp1557
S'C:\\Users\\Bussiere\\Dropbox\\Projets\\jackpoint\\web2py\\applications\\init\\'
p1558
asbasbasbag49
(g65
g51
NtRp1559
(dp1560
g54
(dp1561
sg63
g59
sg56
(lp1562
g49
(g70
g51
NtRp1563
(dp1564
g54
(dp1565
g74
g75
ssg63
g1559
sg56
(lp1566
S'function'
p1567
asbag49
(g70
g51
NtRp1568
(dp1569
g54
(dp1570
g81
g82
ssg63
g1559
sg56
(lp1571
S':'
asbag49
(g70
g51
NtRp1572
(dp1573
g54
(dp1574
sg63
g1559
sg56
(lp1575
g49
(g50
g51
NtRp1576
(dp1577
g54
(dp1578
g62
I5
ssg63
g1572
sg56
(lp1579
S'initdbjack'
p1580
asbasbasbag49
(g65
g51
NtRp1581
(dp1582
g54
(dp1583
sg63
g59
sg56
(lp1584
g49
(g70
g51
NtRp1585
(dp1586
g54
(dp1587
g74
g75
ssg63
g1581
sg56
(lp1588
S'get_vars'
p1589
asbag49
(g70
g51
NtRp1590
(dp1591
g54
(dp1592
g81
g82
ssg63
g1581
sg56
(lp1593
S':'
asbag49
(g70
g51
NtRp1594
(dp1595
g54
(dp1596
sg63
g1581
sg56
(lp1597
g49
(g50
g51
NtRp1598
(dp1599
g54
(dp1600
g62
I5
ssg63
g1594
sg56
(lp1601
g49
(g58
g51
NtRp1602
(dp1603
g54
(dp1604
g62
I4
ssg63
Nsg56
(lp1605
sbasbasbasbag49
(g65
g51
NtRp1606
(dp1607
g54
(dp1608
sg63
g59
sg56
(lp1609
g49
(g70
g51
NtRp1610
(dp1611
g54
(dp1612
g74
g75
ssg63
g1606
sg56
(lp1613
S'global_settings'
p1614
asbag49
(g70
g51
NtRp1615
(dp1616
g54
(dp1617
g81
g82
ssg63
g1606
sg56
(lp1618
S':'
asbag49
(g70
g51
NtRp1619
(dp1620
g54
(dp1621
sg63
g1606
sg56
(lp1622
g49
(g50
g51
NtRp1623
(dp1624
g54
(dp1625
g62
I5
ssg63
g1619
sg56
(lp1626
g49
(g58
g51
NtRp1627
(dp1628
g54
(dp1629
g62
I4
ssg63
Nsg56
(lp1630
g49
(g65
g51
NtRp1631
(dp1632
g54
(dp1633
sg63
g1627
sg56
(lp1634
g49
(g70
g51
NtRp1635
(dp1636
g54
(dp1637
g74
g75
ssg63
g1631
sg56
(lp1638
g600
asbag49
(g70
g51
NtRp1639
(dp1640
g54
(dp1641
g81
g82
ssg63
g1631
sg56
(lp1642
S':'
asbag49
(g70
g51
NtRp1643
(dp1644
g54
(dp1645
sg63
g1631
sg56
(lp1646
g49
(g50
g51
NtRp1647
(dp1648
g54
(dp1649
g62
I4
ssg63
g1643
sg56
(lp1650
S"set(['C:\\\\Users\\\\Bussiere\\\\Dropbox\\\\Projets\\\\jackpoint\\\\web2py\\\\applications\\\\init\\\\', 'C:\\\\Users\\\\Bussiere\\\\Dropbox\\\\Projets\\\\jackpoint\\\\web2py\\\\applications\\\\admin\\\\'])"
p1651
asbasbasbag49
(g65
g51
NtRp1652
(dp1653
g54
(dp1654
sg63
g1627
sg56
(lp1655
g49
(g70
g51
NtRp1656
(dp1657
g54
(dp1658
g74
g75
ssg63
g1652
sg56
(lp1659
g622
asbag49
(g70
g51
NtRp1660
(dp1661
g54
(dp1662
g81
g82
ssg63
g1652
sg56
(lp1663
S':'
asbag49
(g70
g51
NtRp1664
(dp1665
g54
(dp1666
sg63
g1652
sg56
(lp1667
g49
(g50
g51
NtRp1668
(dp1669
g54
(dp1670
g62
I4
ssg63
g1664
sg56
(lp1671
g635
asbasbasbag49
(g65
g51
NtRp1672
(dp1673
g54
(dp1674
sg63
g1627
sg56
(lp1675
g49
(g70
g51
NtRp1676
(dp1677
g54
(dp1678
g74
g75
ssg63
g1672
sg56
(lp1679
g644
asbag49
(g70
g51
NtRp1680
(dp1681
g54
(dp1682
g81
g82
ssg63
g1672
sg56
(lp1683
S':'
asbag49
(g70
g51
NtRp1684
(dp1685
g54
(dp1686
sg63
g1672
sg56
(lp1687
g49
(g50
g51
NtRp1688
(dp1689
g54
(dp1690
g62
I4
ssg63
g1684
sg56
(lp1691
g49
(g58
g51
NtRp1692
(dp1693
g54
(dp1694
g62
I3
ssg63
Nsg56
(lp1695
sbasbasbasbag49
(g65
g51
NtRp1696
(dp1697
g54
(dp1698
sg63
g1627
sg56
(lp1699
g49
(g70
g51
NtRp1700
(dp1701
g54
(dp1702
g74
g75
ssg63
g1696
sg56
(lp1703
g669
asbag49
(g70
g51
NtRp1704
(dp1705
g54
(dp1706
g81
g82
ssg63
g1696
sg56
(lp1707
S':'
asbag49
(g70
g51
NtRp1708
(dp1709
g54
(dp1710
sg63
g1696
sg56
(lp1711
g49
(g50
g51
NtRp1712
(dp1713
g54
(dp1714
g62
I4
ssg63
g1708
sg56
(lp1715
S"<Values at 0x3d15fa8: {'verbose': False, 'ip': '127.0.0.1', 'shutdown_timeout': 5, 'taskbar': False, 'nocron': False, 'pid_filename': 'httpserver.pid', 'maxthreads': None, 'softcron': False, 'server_name': 'Batou', 'bpython': False, 'nogui': False, 'port': 8000, 'extcron': False, 'debuglevel': 30, 'test': None, 'folder': 'C:\\\\Users\\\\Bussiere\\\\Dropbox\\\\Projets\\\\jackpoint\\\\web2py', 'config': '', 'import_models': False, 'winservice': '', 'shell': None, 'run': '', 'log_filename': 'httpserver.log', 'args': [''], 'socket_timeout': 5, 'ssl_ca_certificate': None, 'scheduler': None, 'profiler_filename': None, 'ssl_private_key': '', 'password': '<ask>', 'request_queue_size': 5, 'ssl_certificate': '', 'cronjob': False, 'numthreads': None, 'quiet': False, 'interfaces': None, 'minthreads': None, 'timeout': 10, 'plain': False, 'nobanner': False}>"
p1716
asbasbasbag49
(g65
g51
NtRp1717
(dp1718
g54
(dp1719
sg63
g1627
sg56
(lp1720
g49
(g70
g51
NtRp1721
(dp1722
g54
(dp1723
g74
g75
ssg63
g1717
sg56
(lp1724
g691
asbag49
(g70
g51
NtRp1725
(dp1726
g54
(dp1727
g81
g82
ssg63
g1717
sg56
(lp1728
S':'
asbag49
(g70
g51
NtRp1729
(dp1730
g54
(dp1731
sg63
g1717
sg56
(lp1732
g49
(g50
g51
NtRp1733
(dp1734
g54
(dp1735
g62
I4
ssg63
g1729
sg56
(lp1736
S"set(['init'])"
p1737
asbasbasbag49
(g65
g51
NtRp1738
(dp1739
g54
(dp1740
sg63
g1627
sg56
(lp1741
g49
(g70
g51
NtRp1742
(dp1743
g54
(dp1744
g74
g75
ssg63
g1738
sg56
(lp1745
g713
asbag49
(g70
g51
NtRp1746
(dp1747
g54
(dp1748
g81
g82
ssg63
g1738
sg56
(lp1749
S':'
asbag49
(g70
g51
NtRp1750
(dp1751
g54
(dp1752
sg63
g1738
sg56
(lp1753
g49
(g50
g51
NtRp1754
(dp1755
g54
(dp1756
g62
I4
ssg63
g1750
sg56
(lp1757
g726
asbasbasbag49
(g65
g51
NtRp1758
(dp1759
g54
(dp1760
sg63
g1627
sg56
(lp1761
g49
(g70
g51
NtRp1762
(dp1763
g54
(dp1764
g74
g75
ssg63
g1758
sg56
(lp1765
g735
asbag49
(g70
g51
NtRp1766
(dp1767
g54
(dp1768
g81
g82
ssg63
g1758
sg56
(lp1769
S':'
asbag49
(g70
g51
NtRp1770
(dp1771
g54
(dp1772
sg63
g1758
sg56
(lp1773
g49
(g50
g51
NtRp1774
(dp1775
g54
(dp1776
g62
I4
ssg63
g1770
sg56
(lp1777
g748
asbasbasbag49
(g65
g51
NtRp1778
(dp1779
g54
(dp1780
sg63
g1627
sg56
(lp1781
g49
(g70
g51
NtRp1782
(dp1783
g54
(dp1784
g74
g75
ssg63
g1778
sg56
(lp1785
g933
asbag49
(g70
g51
NtRp1786
(dp1787
g54
(dp1788
g81
g82
ssg63
g1778
sg56
(lp1789
S':'
asbag49
(g70
g51
NtRp1790
(dp1791
g54
(dp1792
sg63
g1778
sg56
(lp1793
g49
(g50
g51
NtRp1794
(dp1795
g54
(dp1796
g62
I4
ssg63
g1790
sg56
(lp1797
g92
asbasbasbag49
(g65
g51
NtRp1798
(dp1799
g54
(dp1800
sg63
g1627
sg56
(lp1801
g49
(g70
g51
NtRp1802
(dp1803
g54
(dp1804
g74
g75
ssg63
g1798
sg56
(lp1805
g954
asbag49
(g70
g51
NtRp1806
(dp1807
g54
(dp1808
g81
g82
ssg63
g1798
sg56
(lp1809
S':'
asbag49
(g70
g51
NtRp1810
(dp1811
g54
(dp1812
sg63
g1798
sg56
(lp1813
g49
(g50
g51
NtRp1814
(dp1815
g54
(dp1816
g62
I4
ssg63
g1810
sg56
(lp1817
g92
asbasbasbag49
(g65
g51
NtRp1818
(dp1819
g54
(dp1820
sg63
g1627
sg56
(lp1821
g49
(g70
g51
NtRp1822
(dp1823
g54
(dp1824
g74
g75
ssg63
g1818
sg56
(lp1825
g1192
asbag49
(g70
g51
NtRp1826
(dp1827
g54
(dp1828
g81
g82
ssg63
g1818
sg56
(lp1829
S':'
asbag49
(g70
g51
NtRp1830
(dp1831
g54
(dp1832
sg63
g1818
sg56
(lp1833
g49
(g50
g51
NtRp1834
(dp1835
g54
(dp1836
g62
I4
ssg63
g1830
sg56
(lp1837
g1205
asbasbasbag49
(g65
g51
NtRp1838
(dp1839
g54
(dp1840
sg63
g1627
sg56
(lp1841
g49
(g70
g51
NtRp1842
(dp1843
g54
(dp1844
g74
g75
ssg63
g1838
sg56
(lp1845
g1235
asbag49
(g70
g51
NtRp1846
(dp1847
g54
(dp1848
g81
g82
ssg63
g1838
sg56
(lp1849
S':'
asbag49
(g70
g51
NtRp1850
(dp1851
g54
(dp1852
sg63
g1838
sg56
(lp1853
g49
(g50
g51
NtRp1854
(dp1855
g54
(dp1856
g62
I4
ssg63
g1850
sg56
(lp1857
g49
(g58
g51
NtRp1858
(dp1859
g54
(dp1860
g62
I3
ssg63
Nsg56
(lp1861
g49
(g65
g51
NtRp1862
(dp1863
g54
(dp1864
sg63
g1858
sg56
(lp1865
g49
(g70
g51
NtRp1866
(dp1867
g54
(dp1868
sg63
g1862
sg56
(lp1869
g49
(g50
g51
NtRp1870
(dp1871
g54
(dp1872
g62
I3
ssg63
g1866
sg56
(lp1873
S'1'
asbasbasbag49
(g65
g51
NtRp1874
(dp1875
g54
(dp1876
sg63
g1858
sg56
(lp1877
g49
(g70
g51
NtRp1878
(dp1879
g54
(dp1880
sg63
g1874
sg56
(lp1881
g49
(g50
g51
NtRp1882
(dp1883
g54
(dp1884
g62
I3
ssg63
g1878
sg56
(lp1885
S'99'
p1886
asbasbasbag49
(g65
g51
NtRp1887
(dp1888
g54
(dp1889
sg63
g1858
sg56
(lp1890
g49
(g70
g51
NtRp1891
(dp1892
g54
(dp1893
sg63
g1887
sg56
(lp1894
g49
(g50
g51
NtRp1895
(dp1896
g54
(dp1897
g62
I3
ssg63
g1891
sg56
(lp1898
S'7'
asbasbasbag49
(g65
g51
NtRp1899
(dp1900
g54
(dp1901
sg63
g1858
sg56
(lp1902
g49
(g70
g51
NtRp1903
(dp1904
g54
(dp1905
sg63
g1899
sg56
(lp1906
g49
(g50
g51
NtRp1907
(dp1908
g54
(dp1909
g62
I3
ssg63
g1903
sg56
(lp1910
S'datetime.datetime(2012, 3, 4, 22, 12, 8)'
p1911
asbasbasbag49
(g65
g51
NtRp1912
(dp1913
g54
(dp1914
sg63
g1858
sg56
(lp1915
g49
(g70
g51
NtRp1916
(dp1917
g54
(dp1918
sg63
g1912
sg56
(lp1919
g49
(g50
g51
NtRp1920
(dp1921
g54
(dp1922
g62
I3
ssg63
g1916
sg56
(lp1923
g1314
asbasbasbasbasbasbasbasbasbasbasbag49
(g65
g51
NtRp1924
(dp1925
g54
(dp1926
sg63
g59
sg56
(lp1927
g49
(g70
g51
NtRp1928
(dp1929
g54
(dp1930
g74
g75
ssg63
g1924
sg56
(lp1931
S'is_https'
p1932
asbag49
(g70
g51
NtRp1933
(dp1934
g54
(dp1935
g81
g82
ssg63
g1924
sg56
(lp1936
S':'
asbag49
(g70
g51
NtRp1937
(dp1938
g54
(dp1939
sg63
g1924
sg56
(lp1940
g49
(g50
g51
NtRp1941
(dp1942
g54
(dp1943
g62
I5
ssg63
g1937
sg56
(lp1944
g92
asbasbasbag49
(g65
g51
NtRp1945
(dp1946
g54
(dp1947
sg63
g59
sg56
(lp1948
g49
(g70
g51
NtRp1949
(dp1950
g54
(dp1951
g74
g75
ssg63
g1945
sg56
(lp1952
S'is_local'
p1953
asbag49
(g70
g51
NtRp1954
(dp1955
g54
(dp1956
g81
g82
ssg63
g1945
sg56
(lp1957
S':'
asbag49
(g70
g51
NtRp1958
(dp1959
g54
(dp1960
sg63
g1945
sg56
(lp1961
g49
(g50
g51
NtRp1962
(dp1963
g54
(dp1964
g62
I5
ssg63
g1958
sg56
(lp1965
g726
asbasbasbag49
(g65
g51
NtRp1966
(dp1967
g54
(dp1968
sg63
g59
sg56
(lp1969
g49
(g70
g51
NtRp1970
(dp1971
g54
(dp1972
g74
g75
ssg63
g1966
sg56
(lp1973
S'is_restful'
p1974
asbag49
(g70
g51
NtRp1975
(dp1976
g54
(dp1977
g81
g82
ssg63
g1966
sg56
(lp1978
S':'
asbag49
(g70
g51
NtRp1979
(dp1980
g54
(dp1981
sg63
g1966
sg56
(lp1982
g49
(g50
g51
NtRp1983
(dp1984
g54
(dp1985
g62
I5
ssg63
g1979
sg56
(lp1986
g92
asbasbasbag49
(g65
g51
NtRp1987
(dp1988
g54
(dp1989
sg63
g59
sg56
(lp1990
g49
(g70
g51
NtRp1991
(dp1992
g54
(dp1993
g74
g75
ssg63
g1987
sg56
(lp1994
S'now'
p1995
asbag49
(g70
g51
NtRp1996
(dp1997
g54
(dp1998
g81
g82
ssg63
g1987
sg56
(lp1999
S':'
asbag49
(g70
g51
NtRp2000
(dp2001
g54
(dp2002
sg63
g1987
sg56
(lp2003
g49
(g50
g51
NtRp2004
(dp2005
g54
(dp2006
g62
I5
ssg63
g2000
sg56
(lp2007
S'datetime.datetime(2012, 3, 29, 13, 33, 56, 757000)'
p2008
asbasbasbag49
(g65
g51
NtRp2009
(dp2010
g54
(dp2011
sg63
g59
sg56
(lp2012
g49
(g70
g51
NtRp2013
(dp2014
g54
(dp2015
g74
g75
ssg63
g2009
sg56
(lp2016
S'post_vars'
p2017
asbag49
(g70
g51
NtRp2018
(dp2019
g54
(dp2020
g81
g82
ssg63
g2009
sg56
(lp2021
S':'
asbag49
(g70
g51
NtRp2022
(dp2023
g54
(dp2024
sg63
g2009
sg56
(lp2025
g49
(g50
g51
NtRp2026
(dp2027
g54
(dp2028
g62
I5
ssg63
g2022
sg56
(lp2029
g49
(g58
g51
NtRp2030
(dp2031
g54
(dp2032
g62
I4
ssg63
Nsg56
(lp2033
sbasbasbasbag49
(g65
g51
NtRp2034
(dp2035
g54
(dp2036
sg63
g59
sg56
(lp2037
g49
(g70
g51
NtRp2038
(dp2039
g54
(dp2040
g74
g75
ssg63
g2034
sg56
(lp2041
S'url'
p2042
asbag49
(g70
g51
NtRp2043
(dp2044
g54
(dp2045
g81
g82
ssg63
g2034
sg56
(lp2046
S':'
asbag49
(g70
g51
NtRp2047
(dp2048
g54
(dp2049
sg63
g2034
sg56
(lp2050
g49
(g50
g51
NtRp2051
(dp2052
g54
(dp2053
g62
I5
ssg63
g2047
sg56
(lp2054
S'/init/default/initdbjack'
p2055
asbasbasbag49
(g65
g51
NtRp2056
(dp2057
g54
(dp2058
sg63
g59
sg56
(lp2059
g49
(g70
g51
NtRp2060
(dp2061
g54
(dp2062
g74
g75
ssg63
g2056
sg56
(lp2063
S'utcnow'
p2064
asbag49
(g70
g51
NtRp2065
(dp2066
g54
(dp2067
g81
g82
ssg63
g2056
sg56
(lp2068
S':'
asbag49
(g70
g51
NtRp2069
(dp2070
g54
(dp2071
sg63
g2056
sg56
(lp2072
g49
(g50
g51
NtRp2073
(dp2074
g54
(dp2075
g62
I5
ssg63
g2069
sg56
(lp2076
S'datetime.datetime(2012, 3, 29, 11, 33, 56, 758000)'
p2077
asbasbasbag49
(g65
g51
NtRp2078
(dp2079
g54
(dp2080
sg63
g59
sg56
(lp2081
g49
(g70
g51
NtRp2082
(dp2083
g54
(dp2084
g74
g75
ssg63
g2078
sg56
(lp2085
S'uuid'
p2086
asbag49
(g70
g51
NtRp2087
(dp2088
g54
(dp2089
g81
g82
ssg63
g2078
sg56
(lp2090
S':'
asbag49
(g70
g51
NtRp2091
(dp2092
g54
(dp2093
sg63
g2078
sg56
(lp2094
g49
(g50
g51
NtRp2095
(dp2096
g54
(dp2097
g62
I5
ssg63
g2091
sg56
(lp2098
S'init/127.0.0.1.2012-03-29.13-33-56.2b8f4ab5-819d-4b86-bbcc-c2276531c398'
p2099
asbasbasbag49
(g65
g51
NtRp2100
(dp2101
g54
(dp2102
sg63
g59
sg56
(lp2103
g49
(g70
g51
NtRp2104
(dp2105
g54
(dp2106
g74
g75
ssg63
g2100
sg56
(lp2107
S'vars'
p2108
asbag49
(g70
g51
NtRp2109
(dp2110
g54
(dp2111
g81
g82
ssg63
g2100
sg56
(lp2112
S':'
asbag49
(g70
g51
NtRp2113
(dp2114
g54
(dp2115
sg63
g2100
sg56
(lp2116
g49
(g50
g51
NtRp2117
(dp2118
g54
(dp2119
g62
I5
ssg63
g2113
sg56
(lp2120
g49
(g58
g51
NtRp2121
(dp2122
g54
(dp2123
g62
I4
ssg63
Nsg56
(lp2124
sbasbasbasbag49
(g65
g51
NtRp2125
(dp2126
g54
(dp2127
sg63
g59
sg56
(lp2128
g49
(g70
g51
NtRp2129
(dp2130
g54
(dp2131
g74
g75
ssg63
g2125
sg56
(lp2132
S'wsgi'
p2133
asbag49
(g70
g51
NtRp2134
(dp2135
g54
(dp2136
g81
g82
ssg63
g2125
sg56
(lp2137
S':'
asbag49
(g70
g51
NtRp2138
(dp2139
g54
(dp2140
sg63
g2125
sg56
(lp2141
g49
(g50
g51
NtRp2142
(dp2143
g54
(dp2144
g62
I5
ssg63
g2138
sg56
(lp2145
g49
(g58
g51
NtRp2146
(dp2147
g54
(dp2148
g62
I4
ssg63
Nsg56
(lp2149
g49
(g65
g51
NtRp2150
(dp2151
g54
(dp2152
sg63
g2146
sg56
(lp2153
g49
(g70
g51
NtRp2154
(dp2155
g54
(dp2156
g74
g75
ssg63
g2150
sg56
(lp2157
S'environ'
p2158
asbag49
(g70
g51
NtRp2159
(dp2160
g54
(dp2161
g81
g82
ssg63
g2150
sg56
(lp2162
S':'
asbag49
(g70
g51
NtRp2163
(dp2164
g54
(dp2165
sg63
g2150
sg56
(lp2166
g49
(g50
g51
NtRp2167
(dp2168
g54
(dp2169
g62
I4
ssg63
g2163
sg56
(lp2170
g49
(g58
g51
NtRp2171
(dp2172
g54
(dp2173
g62
I3
ssg63
Nsg56
(lp2174
g49
(g65
g51
NtRp2175
(dp2176
g54
(dp2177
sg63
g2171
sg56
(lp2178
g49
(g70
g51
NtRp2179
(dp2180
g54
(dp2181
g74
g75
ssg63
g2175
sg56
(lp2182
S'HTTP_ACCEPT'
p2183
asbag49
(g70
g51
NtRp2184
(dp2185
g54
(dp2186
g81
g82
ssg63
g2175
sg56
(lp2187
S':'
asbag49
(g70
g51
NtRp2188
(dp2189
g54
(dp2190
sg63
g2175
sg56
(lp2191
g49
(g50
g51
NtRp2192
(dp2193
g54
(dp2194
g62
I3
ssg63
g2188
sg56
(lp2195
g770
asbasbasbag49
(g65
g51
NtRp2196
(dp2197
g54
(dp2198
sg63
g2171
sg56
(lp2199
g49
(g70
g51
NtRp2200
(dp2201
g54
(dp2202
g74
g75
ssg63
g2196
sg56
(lp2203
S'HTTP_ACCEPT_CHARSET'
p2204
asbag49
(g70
g51
NtRp2205
(dp2206
g54
(dp2207
g81
g82
ssg63
g2196
sg56
(lp2208
S':'
asbag49
(g70
g51
NtRp2209
(dp2210
g54
(dp2211
sg63
g2196
sg56
(lp2212
g49
(g50
g51
NtRp2213
(dp2214
g54
(dp2215
g62
I3
ssg63
g2209
sg56
(lp2216
g792
asbasbasbag49
(g65
g51
NtRp2217
(dp2218
g54
(dp2219
sg63
g2171
sg56
(lp2220
g49
(g70
g51
NtRp2221
(dp2222
g54
(dp2223
g74
g75
ssg63
g2217
sg56
(lp2224
S'HTTP_ACCEPT_ENCODING'
p2225
asbag49
(g70
g51
NtRp2226
(dp2227
g54
(dp2228
g81
g82
ssg63
g2217
sg56
(lp2229
S':'
asbag49
(g70
g51
NtRp2230
(dp2231
g54
(dp2232
sg63
g2217
sg56
(lp2233
g49
(g50
g51
NtRp2234
(dp2235
g54
(dp2236
g62
I3
ssg63
g2230
sg56
(lp2237
g814
asbasbasbag49
(g65
g51
NtRp2238
(dp2239
g54
(dp2240
sg63
g2171
sg56
(lp2241
g49
(g70
g51
NtRp2242
(dp2243
g54
(dp2244
g74
g75
ssg63
g2238
sg56
(lp2245
S'HTTP_ACCEPT_LANGUAGE'
p2246
asbag49
(g70
g51
NtRp2247
(dp2248
g54
(dp2249
g81
g82
ssg63
g2238
sg56
(lp2250
S':'
asbag49
(g70
g51
NtRp2251
(dp2252
g54
(dp2253
sg63
g2238
sg56
(lp2254
g49
(g50
g51
NtRp2255
(dp2256
g54
(dp2257
g62
I3
ssg63
g2251
sg56
(lp2258
g836
asbasbasbag49
(g65
g51
NtRp2259
(dp2260
g54
(dp2261
sg63
g2171
sg56
(lp2262
g49
(g70
g51
NtRp2263
(dp2264
g54
(dp2265
g74
g75
ssg63
g2259
sg56
(lp2266
S'HTTP_CONNECTION'
p2267
asbag49
(g70
g51
NtRp2268
(dp2269
g54
(dp2270
g81
g82
ssg63
g2259
sg56
(lp2271
S':'
asbag49
(g70
g51
NtRp2272
(dp2273
g54
(dp2274
sg63
g2259
sg56
(lp2275
g49
(g50
g51
NtRp2276
(dp2277
g54
(dp2278
g62
I3
ssg63
g2272
sg56
(lp2279
g858
asbasbasbag49
(g65
g51
NtRp2280
(dp2281
g54
(dp2282
sg63
g2171
sg56
(lp2283
g49
(g70
g51
NtRp2284
(dp2285
g54
(dp2286
g74
g75
ssg63
g2280
sg56
(lp2287
S'HTTP_COOKIE'
p2288
asbag49
(g70
g51
NtRp2289
(dp2290
g54
(dp2291
g81
g82
ssg63
g2280
sg56
(lp2292
S':'
asbag49
(g70
g51
NtRp2293
(dp2294
g54
(dp2295
sg63
g2280
sg56
(lp2296
g49
(g50
g51
NtRp2297
(dp2298
g54
(dp2299
g62
I3
ssg63
g2293
sg56
(lp2300
g880
asbasbasbag49
(g65
g51
NtRp2301
(dp2302
g54
(dp2303
sg63
g2171
sg56
(lp2304
g49
(g70
g51
NtRp2305
(dp2306
g54
(dp2307
g74
g75
ssg63
g2301
sg56
(lp2308
S'HTTP_HOST'
p2309
asbag49
(g70
g51
NtRp2310
(dp2311
g54
(dp2312
g81
g82
ssg63
g2301
sg56
(lp2313
S':'
asbag49
(g70
g51
NtRp2314
(dp2315
g54
(dp2316
sg63
g2301
sg56
(lp2317
g49
(g50
g51
NtRp2318
(dp2319
g54
(dp2320
g62
I3
ssg63
g2314
sg56
(lp2321
g902
asbasbasbag49
(g65
g51
NtRp2322
(dp2323
g54
(dp2324
sg63
g2171
sg56
(lp2325
g49
(g70
g51
NtRp2326
(dp2327
g54
(dp2328
g74
g75
ssg63
g2322
sg56
(lp2329
S'HTTP_USER_AGENT'
p2330
asbag49
(g70
g51
NtRp2331
(dp2332
g54
(dp2333
g81
g82
ssg63
g2322
sg56
(lp2334
S':'
asbag49
(g70
g51
NtRp2335
(dp2336
g54
(dp2337
sg63
g2322
sg56
(lp2338
g49
(g50
g51
NtRp2339
(dp2340
g54
(dp2341
g62
I3
ssg63
g2335
sg56
(lp2342
g924
asbasbasbag49
(g65
g51
NtRp2343
(dp2344
g54
(dp2345
sg63
g2171
sg56
(lp2346
g49
(g70
g51
NtRp2347
(dp2348
g54
(dp2349
g74
g75
ssg63
g2343
sg56
(lp2350
S'PATH_INFO'
p2351
asbag49
(g70
g51
NtRp2352
(dp2353
g54
(dp2354
g81
g82
ssg63
g2343
sg56
(lp2355
S':'
asbag49
(g70
g51
NtRp2356
(dp2357
g54
(dp2358
sg63
g2343
sg56
(lp2359
g49
(g50
g51
NtRp2360
(dp2361
g54
(dp2362
g62
I3
ssg63
g2356
sg56
(lp2363
g988
asbasbasbag49
(g65
g51
NtRp2364
(dp2365
g54
(dp2366
sg63
g2171
sg56
(lp2367
g49
(g70
g51
NtRp2368
(dp2369
g54
(dp2370
g74
g75
ssg63
g2364
sg56
(lp2371
S'QUERY_STRING'
p2372
asbag49
(g70
g51
NtRp2373
(dp2374
g54
(dp2375
g81
g82
ssg63
g2364
sg56
(lp2376
S':'
asbag49
(g70
g51
NtRp2377
(dp2378
g54
(dp2379
sg63
g2364
sg56
(lp2380
g49
(g50
g51
NtRp2381
(dp2382
g54
(dp2383
g62
I3
ssg63
g2377
sg56
(lp2384
S''
asbasbasbag49
(g65
g51
NtRp2385
(dp2386
g54
(dp2387
sg63
g2171
sg56
(lp2388
g49
(g70
g51
NtRp2389
(dp2390
g54
(dp2391
g74
g75
ssg63
g2385
sg56
(lp2392
S'REMOTE_ADDR'
p2393
asbag49
(g70
g51
NtRp2394
(dp2395
g54
(dp2396
g81
g82
ssg63
g2385
sg56
(lp2397
S':'
asbag49
(g70
g51
NtRp2398
(dp2399
g54
(dp2400
sg63
g2385
sg56
(lp2401
g49
(g50
g51
NtRp2402
(dp2403
g54
(dp2404
g62
I3
ssg63
g2398
sg56
(lp2405
g182
asbasbasbag49
(g65
g51
NtRp2406
(dp2407
g54
(dp2408
sg63
g2171
sg56
(lp2409
g49
(g70
g51
NtRp2410
(dp2411
g54
(dp2412
g74
g75
ssg63
g2406
sg56
(lp2413
S'REMOTE_PORT'
p2414
asbag49
(g70
g51
NtRp2415
(dp2416
g54
(dp2417
g81
g82
ssg63
g2406
sg56
(lp2418
S':'
asbag49
(g70
g51
NtRp2419
(dp2420
g54
(dp2421
sg63
g2406
sg56
(lp2422
g49
(g50
g51
NtRp2423
(dp2424
g54
(dp2425
g62
I3
ssg63
g2419
sg56
(lp2426
g1052
asbasbasbag49
(g65
g51
NtRp2427
(dp2428
g54
(dp2429
sg63
g2171
sg56
(lp2430
g49
(g70
g51
NtRp2431
(dp2432
g54
(dp2433
g74
g75
ssg63
g2427
sg56
(lp2434
S'REQUEST_METHOD'
p2435
asbag49
(g70
g51
NtRp2436
(dp2437
g54
(dp2438
g81
g82
ssg63
g2427
sg56
(lp2439
S':'
asbag49
(g70
g51
NtRp2440
(dp2441
g54
(dp2442
sg63
g2427
sg56
(lp2443
g49
(g50
g51
NtRp2444
(dp2445
g54
(dp2446
g62
I3
ssg63
g2440
sg56
(lp2447
g1074
asbasbasbag49
(g65
g51
NtRp2448
(dp2449
g54
(dp2450
sg63
g2171
sg56
(lp2451
g49
(g70
g51
NtRp2452
(dp2453
g54
(dp2454
g74
g75
ssg63
g2448
sg56
(lp2455
S'SCRIPT_NAME'
p2456
asbag49
(g70
g51
NtRp2457
(dp2458
g54
(dp2459
g81
g82
ssg63
g2448
sg56
(lp2460
S':'
asbag49
(g70
g51
NtRp2461
(dp2462
g54
(dp2463
sg63
g2448
sg56
(lp2464
g49
(g50
g51
NtRp2465
(dp2466
g54
(dp2467
g62
I3
ssg63
g2461
sg56
(lp2468
S''
asbasbasbag49
(g65
g51
NtRp2469
(dp2470
g54
(dp2471
sg63
g2171
sg56
(lp2472
g49
(g70
g51
NtRp2473
(dp2474
g54
(dp2475
g74
g75
ssg63
g2469
sg56
(lp2476
S'SERVER_NAME'
p2477
asbag49
(g70
g51
NtRp2478
(dp2479
g54
(dp2480
g81
g82
ssg63
g2469
sg56
(lp2481
S':'
asbag49
(g70
g51
NtRp2482
(dp2483
g54
(dp2484
sg63
g2469
sg56
(lp2485
g49
(g50
g51
NtRp2486
(dp2487
g54
(dp2488
g62
I3
ssg63
g2482
sg56
(lp2489
g1117
asbasbasbag49
(g65
g51
NtRp2490
(dp2491
g54
(dp2492
sg63
g2171
sg56
(lp2493
g49
(g70
g51
NtRp2494
(dp2495
g54
(dp2496
g74
g75
ssg63
g2490
sg56
(lp2497
S'SERVER_PORT'
p2498
asbag49
(g70
g51
NtRp2499
(dp2500
g54
(dp2501
g81
g82
ssg63
g2490
sg56
(lp2502
S':'
asbag49
(g70
g51
NtRp2503
(dp2504
g54
(dp2505
sg63
g2490
sg56
(lp2506
g49
(g50
g51
NtRp2507
(dp2508
g54
(dp2509
g62
I3
ssg63
g2503
sg56
(lp2510
g1139
asbasbasbag49
(g65
g51
NtRp2511
(dp2512
g54
(dp2513
sg63
g2171
sg56
(lp2514
g49
(g70
g51
NtRp2515
(dp2516
g54
(dp2517
g74
g75
ssg63
g2511
sg56
(lp2518
S'SERVER_PROTOCOL'
p2519
asbag49
(g70
g51
NtRp2520
(dp2521
g54
(dp2522
g81
g82
ssg63
g2511
sg56
(lp2523
S':'
asbag49
(g70
g51
NtRp2524
(dp2525
g54
(dp2526
sg63
g2511
sg56
(lp2527
g49
(g50
g51
NtRp2528
(dp2529
g54
(dp2530
g62
I3
ssg63
g2524
sg56
(lp2531
g1161
asbasbasbag49
(g65
g51
NtRp2532
(dp2533
g54
(dp2534
sg63
g2171
sg56
(lp2535
g49
(g70
g51
NtRp2536
(dp2537
g54
(dp2538
g74
g75
ssg63
g2532
sg56
(lp2539
S'SERVER_SOFTWARE'
p2540
asbag49
(g70
g51
NtRp2541
(dp2542
g54
(dp2543
g81
g82
ssg63
g2532
sg56
(lp2544
S':'
asbag49
(g70
g51
NtRp2545
(dp2546
g54
(dp2547
sg63
g2532
sg56
(lp2548
g49
(g50
g51
NtRp2549
(dp2550
g54
(dp2551
g62
I3
ssg63
g2545
sg56
(lp2552
g1183
asbasbasbag49
(g65
g51
NtRp2553
(dp2554
g54
(dp2555
sg63
g2171
sg56
(lp2556
g49
(g70
g51
NtRp2557
(dp2558
g54
(dp2559
g74
g75
ssg63
g2553
sg56
(lp2560
S'wsgi.errors'
p2561
asbag49
(g70
g51
NtRp2562
(dp2563
g54
(dp2564
g81
g82
ssg63
g2553
sg56
(lp2565
S':'
asbag49
(g70
g51
NtRp2566
(dp2567
g54
(dp2568
sg63
g2553
sg56
(lp2569
g49
(g50
g51
NtRp2570
(dp2571
g54
(dp2572
g62
I3
ssg63
g2566
sg56
(lp2573
S"<open file '<stderr>', mode 'w' at 0x005300B0>"
p2574
asbasbasbag49
(g65
g51
NtRp2575
(dp2576
g54
(dp2577
sg63
g2171
sg56
(lp2578
g49
(g70
g51
NtRp2579
(dp2580
g54
(dp2581
g74
g75
ssg63
g2575
sg56
(lp2582
S'wsgi.file_wrapper'
p2583
asbag49
(g70
g51
NtRp2584
(dp2585
g54
(dp2586
g81
g82
ssg63
g2575
sg56
(lp2587
S':'
asbag49
(g70
g51
NtRp2588
(dp2589
g54
(dp2590
sg63
g2575
sg56
(lp2591
g49
(g50
g51
NtRp2592
(dp2593
g54
(dp2594
g62
I3
ssg63
g2588
sg56
(lp2595
S'<class wsgiref.util.FileWrapper at 0x02C34900>'
p2596
asbasbasbag49
(g65
g51
NtRp2597
(dp2598
g54
(dp2599
sg63
g2171
sg56
(lp2600
g49
(g70
g51
NtRp2601
(dp2602
g54
(dp2603
g74
g75
ssg63
g2597
sg56
(lp2604
S'wsgi.input'
p2605
asbag49
(g70
g51
NtRp2606
(dp2607
g54
(dp2608
g81
g82
ssg63
g2597
sg56
(lp2609
S':'
asbag49
(g70
g51
NtRp2610
(dp2611
g54
(dp2612
sg63
g2597
sg56
(lp2613
g49
(g50
g51
NtRp2614
(dp2615
g54
(dp2616
g62
I3
ssg63
g2610
sg56
(lp2617
S'<cStringIO.StringO object at 0x0482F6C0>'
p2618
asbasbasbag49
(g65
g51
NtRp2619
(dp2620
g54
(dp2621
sg63
g2171
sg56
(lp2622
g49
(g70
g51
NtRp2623
(dp2624
g54
(dp2625
g74
g75
ssg63
g2619
sg56
(lp2626
S'wsgi.multiprocess'
p2627
asbag49
(g70
g51
NtRp2628
(dp2629
g54
(dp2630
g81
g82
ssg63
g2619
sg56
(lp2631
S':'
asbag49
(g70
g51
NtRp2632
(dp2633
g54
(dp2634
sg63
g2619
sg56
(lp2635
g49
(g50
g51
NtRp2636
(dp2637
g54
(dp2638
g62
I3
ssg63
g2632
sg56
(lp2639
g92
asbasbasbag49
(g65
g51
NtRp2640
(dp2641
g54
(dp2642
sg63
g2171
sg56
(lp2643
g49
(g70
g51
NtRp2644
(dp2645
g54
(dp2646
g74
g75
ssg63
g2640
sg56
(lp2647
S'wsgi.multithread'
p2648
asbag49
(g70
g51
NtRp2649
(dp2650
g54
(dp2651
g81
g82
ssg63
g2640
sg56
(lp2652
S':'
asbag49
(g70
g51
NtRp2653
(dp2654
g54
(dp2655
sg63
g2640
sg56
(lp2656
g49
(g50
g51
NtRp2657
(dp2658
g54
(dp2659
g62
I3
ssg63
g2653
sg56
(lp2660
g726
asbasbasbag49
(g65
g51
NtRp2661
(dp2662
g54
(dp2663
sg63
g2171
sg56
(lp2664
g49
(g70
g51
NtRp2665
(dp2666
g54
(dp2667
g74
g75
ssg63
g2661
sg56
(lp2668
S'wsgi.run_once'
p2669
asbag49
(g70
g51
NtRp2670
(dp2671
g54
(dp2672
g81
g82
ssg63
g2661
sg56
(lp2673
S':'
asbag49
(g70
g51
NtRp2674
(dp2675
g54
(dp2676
sg63
g2661
sg56
(lp2677
g49
(g50
g51
NtRp2678
(dp2679
g54
(dp2680
g62
I3
ssg63
g2674
sg56
(lp2681
g92
asbasbasbag49
(g65
g51
NtRp2682
(dp2683
g54
(dp2684
sg63
g2171
sg56
(lp2685
g49
(g70
g51
NtRp2686
(dp2687
g54
(dp2688
g74
g75
ssg63
g2682
sg56
(lp2689
S'wsgi.url_scheme'
p2690
asbag49
(g70
g51
NtRp2691
(dp2692
g54
(dp2693
g81
g82
ssg63
g2682
sg56
(lp2694
S':'
asbag49
(g70
g51
NtRp2695
(dp2696
g54
(dp2697
sg63
g2682
sg56
(lp2698
g49
(g50
g51
NtRp2699
(dp2700
g54
(dp2701
g62
I3
ssg63
g2695
sg56
(lp2702
g1465
asbasbasbag49
(g65
g51
NtRp2703
(dp2704
g54
(dp2705
sg63
g2171
sg56
(lp2706
g49
(g70
g51
NtRp2707
(dp2708
g54
(dp2709
g74
g75
ssg63
g2703
sg56
(lp2710
S'wsgi.version'
p2711
asbag49
(g70
g51
NtRp2712
(dp2713
g54
(dp2714
g81
g82
ssg63
g2703
sg56
(lp2715
S':'
asbag49
(g70
g51
NtRp2716
(dp2717
g54
(dp2718
sg63
g2703
sg56
(lp2719
g49
(g50
g51
NtRp2720
(dp2721
g54
(dp2722
g62
I3
ssg63
g2716
sg56
(lp2723
S'1'
asbasbasbasbasbasbasbasbasbasbasbasbasbsS'frames'
p2724
(lp2725
(dp2726
S'file'
p2727
S'C:\\Users\\Bussiere\\Dropbox\\Projets\\jackpoint\\web2py\\gluon\\restricted.py'
p2728
sS'dump'
p2729
(dp2730
sS'lnum'
p2731
I205
sS'lines'
p2732
(dp2733
I200
S'    try:'
p2734
sI201
S'        if type(code) == types.CodeType:'
p2735
sI202
S'            ccode = code'
p2736
sI203
S'        else:'
p2737
sI204
S'            ccode = compile2(code,layer)'
p2738
sI205
S'        exec ccode in environment'
p2739
sI206
S'    except HTTP:'
p2740
sI207
S'        raise'
p2741
sI208
S'    except RestrictedError:'
p2742
sI209
S'        # do not encapsulate (obfuscate) the original RestrictedError'
p2743
ssS'call'
p2744
S"(code='\\xef\\xbb\\xbf# -*- coding: utf-8 -*-\\n# this file is releas...())\\n\\nresponse._vars=response._caller(initdbjack)\\n', environment={'A': <class 'gluon.html.A'>, 'Auth': <class 'gluon.tools.Auth'>, 'AutocompleteWidget': <class 'gluon.sqlhtml.AutocompleteWidget'>, 'B': <class 'gluon.html.B'>, 'BEAUTIFY': <class 'gluon.html.BEAUTIFY'>, 'BODY': <class 'gluon.html.BODY'>, 'BR': <class 'gluon.html.BR'>, 'BUTTON': <class 'gluon.html.BUTTON'>, 'BooleanWidget': <class 'gluon.sqlhtml.BooleanWidget'>, 'CALLABLETYPES': (<type 'function'>, <type 'function'>, <type 'builtin_function_or_method'>, <type 'instancemethod'>, <type 'builtin_function_or_method'>), ...}, layer=r'C:\\Users\\Bussiere\\Dropbox\\Projets\\jackpoint\\web2py\\applications\\init\\controllers/default.py')"
p2745
sS'func'
p2746
S'restricted'
p2747
sa(dp2748
g2727
S'C:\\Users\\Bussiere\\Dropbox\\Projets\\jackpoint\\web2py\\applications\\init\\controllers\\default.py'
p2749
sg2729
(dp2750
sg2731
I468
sg2732
(dp2751
I457
S'    http://..../[app]/default/data/update/[table]/[id]'
p2752
sI458
S'    http://..../[app]/default/data/delete/[table]/[id]'
p2753
sI459
S'    http://..../[app]/default/data/select/[table]'
p2754
sI460
S'    http://..../[app]/default/data/search/[table]'
p2755
sI461
S'    but URLs must be signed, i.e. linked with'
p2756
sI462
S"      A('table',_href=URL('data/tables',user_signature=True))"
p2757
sI463
S'    or with the signed load operator'
p2758
sI464
S"      LOAD('default','data.load',args='tables',ajax=True,user_signature=True)"
p2759
sI465
S'    """'
p2760
sI466
S'    return dict(form=crud())'
p2761
ssg2744
S'()'
p2762
sg2746
S'<module>'
p2763
sa(dp2764
g2727
S'C:\\Users\\Bussiere\\Dropbox\\Projets\\jackpoint\\web2py\\gluon\\globals.py'
p2765
sg2729
(dp2766
sg2731
I173
sg2732
(dp2767
I168
S'        self.menu = []             # used by the default view layout'
p2768
sI169
S'        self.files = []            # used by web2py_ajax.html'
p2769
sI170
S'        self.generic_patterns = [] # patterns to allow generic views'
p2770
sI171
S"        self.delimiters = ('{{','}}')"
p2771
sI172
S'        self._vars = None'
p2772
sI173
S'        self._caller = lambda f: f()'
p2773
sI174
S'        self._view_environment = None'
p2774
sI175
S'        self._custom_commit = None'
p2775
sI176
S'        self._custom_rollback = None'
p2776
sI177
S''
ssg2744
S'(f=<function initdbjack at 0x0433CFB0>)'
p2777
sg2746
S'<lambda>'
p2778
sa(dp2779
g2727
S'C:\\Users\\Bussiere\\Dropbox\\Projets\\jackpoint\\web2py\\applications\\init\\controllers\\default.py'
p2780
sg2729
(dp2781
sg2731
I339
sg2732
(dp2782
I334
S'                                parent = row.id'
p2783
sI335
S'                            #fin du truc a revoir'
p2784
sI336
S'                            Skill3 = db.SkillLevel.insert(Skill = (db.Skill.insert(Nom=level3)),Level = i,Parent = parent)'
p2785
sI337
S'                            for level4 in skills[level1][level2][level3].keys() :'
p2786
sI338
S'                                i = 3'
p2787
sI339
S'                            if db(db.Skill.Nom == level4).count() == 0:'
p2788
sI340
S'                                #Todo'
p2789
sI341
S"                                # c'est crade a revoir :"
p2790
sI342
S'                                for row in db((db.Skill.Nom==level3) & (db.Skill.id)).select() :'
p2791
sI343
S'                                    parent = row.id'
p2792
ssg2744
S'()'
p2793
sg2746
S'initdbjack'
p2794
sasS'pyver'
p2795
S'Python 2.5.4: C:\\Users\\Bussiere\\Dropbox\\Projets\\jackpoint\\web2py\\web2py.exe'
p2796
sS'session'
p2797
g49
(g50
g51
NtRp2798
(dp2799
g54
(dp2800
sg56
(lp2801
g49
(g58
g51
NtRp2802
(dp2803
g54
(dp2804
g62
I5
ssg63
Nsg56
(lp2805
sbasbsS'etype'
p2806
S"<type 'exceptions.UnboundLocalError'>"
p2807
sS'date'
p2808
S'Thu Mar 29 13:33:57 2012'
p2809
sS'response'
p2810
g49
(g50
g51
NtRp2811
(dp2812
g54
(dp2813
sg56
(lp2814
g49
(g58
g51
NtRp2815
(dp2816
g54
(dp2817
g62
I5
ssg63
Nsg56
(lp2818
g49
(g65
g51
NtRp2819
(dp2820
g54
(dp2821
sg63
g2815
sg56
(lp2822
g49
(g70
g51
NtRp2823
(dp2824
g54
(dp2825
g74
g75
ssg63
g2819
sg56
(lp2826
g147
asbag49
(g70
g51
NtRp2827
(dp2828
g54
(dp2829
g81
g82
ssg63
g2819
sg56
(lp2830
S':'
asbag49
(g70
g51
NtRp2831
(dp2832
g54
(dp2833
sg63
g2819
sg56
(lp2834
g49
(g50
g51
NtRp2835
(dp2836
g54
(dp2837
g62
I5
ssg63
g2831
sg56
(lp2838
S'<cStringIO.StringO object at 0x08088FC0>'
p2839
asbasbasbag49
(g65
g51
NtRp2840
(dp2841
g54
(dp2842
sg63
g2815
sg56
(lp2843
g49
(g70
g51
NtRp2844
(dp2845
g54
(dp2846
g74
g75
ssg63
g2840
sg56
(lp2847
g213
asbag49
(g70
g51
NtRp2848
(dp2849
g54
(dp2850
g81
g82
ssg63
g2840
sg56
(lp2851
S':'
asbag49
(g70
g51
NtRp2852
(dp2853
g54
(dp2854
sg63
g2840
sg56
(lp2855
g49
(g50
g51
NtRp2856
(dp2857
g54
(dp2858
g62
I5
ssg63
g2852
sg56
(lp2859
g49
(g58
g51
NtRp2860
(dp2861
g54
(dp2862
g62
I4
ssg63
Nsg56
(lp2863
g49
(g65
g51
NtRp2864
(dp2865
g54
(dp2866
sg63
g2860
sg56
(lp2867
g49
(g70
g51
NtRp2868
(dp2869
g54
(dp2870
g74
g75
ssg63
g2864
sg56
(lp2871
S'session_id_init'
p2872
asbag49
(g70
g51
NtRp2873
(dp2874
g54
(dp2875
g81
g82
ssg63
g2864
sg56
(lp2876
S':'
asbag49
(g70
g51
NtRp2877
(dp2878
g54
(dp2879
sg63
g2864
sg56
(lp2880
g49
(g50
g51
NtRp2881
(dp2882
g54
(dp2883
g62
I4
ssg63
g2877
sg56
(lp2884
g49
(g58
g51
NtRp2885
(dp2886
g54
(dp2887
g62
I3
ssg63
Nsg56
(lp2888
g49
(g65
g51
NtRp2889
(dp2890
g54
(dp2891
sg63
g2885
sg56
(lp2892
g49
(g70
g51
NtRp2893
(dp2894
g54
(dp2895
g74
g75
ssg63
g2889
sg56
(lp2896
g263
asbag49
(g70
g51
NtRp2897
(dp2898
g54
(dp2899
g81
g82
ssg63
g2889
sg56
(lp2900
S':'
asbag49
(g70
g51
NtRp2901
(dp2902
g54
(dp2903
sg63
g2889
sg56
(lp2904
g49
(g50
g51
NtRp2905
(dp2906
g54
(dp2907
g62
I3
ssg63
g2901
sg56
(lp2908
S''
asbasbasbag49
(g65
g51
NtRp2909
(dp2910
g54
(dp2911
sg63
g2885
sg56
(lp2912
g49
(g70
g51
NtRp2913
(dp2914
g54
(dp2915
g74
g75
ssg63
g2909
sg56
(lp2916
g284
asbag49
(g70
g51
NtRp2917
(dp2918
g54
(dp2919
g81
g82
ssg63
g2909
sg56
(lp2920
S':'
asbag49
(g70
g51
NtRp2921
(dp2922
g54
(dp2923
sg63
g2909
sg56
(lp2924
g49
(g50
g51
NtRp2925
(dp2926
g54
(dp2927
g62
I3
ssg63
g2921
sg56
(lp2928
S''
asbasbasbag49
(g65
g51
NtRp2929
(dp2930
g54
(dp2931
sg63
g2885
sg56
(lp2932
g49
(g70
g51
NtRp2933
(dp2934
g54
(dp2935
g74
g75
ssg63
g2929
sg56
(lp2936
g305
asbag49
(g70
g51
NtRp2937
(dp2938
g54
(dp2939
g81
g82
ssg63
g2929
sg56
(lp2940
S':'
asbag49
(g70
g51
NtRp2941
(dp2942
g54
(dp2943
sg63
g2929
sg56
(lp2944
g49
(g50
g51
NtRp2945
(dp2946
g54
(dp2947
g62
I3
ssg63
g2941
sg56
(lp2948
S''
asbasbasbag49
(g65
g51
NtRp2949
(dp2950
g54
(dp2951
sg63
g2885
sg56
(lp2952
g49
(g70
g51
NtRp2953
(dp2954
g54
(dp2955
g74
g75
ssg63
g2949
sg56
(lp2956
g326
asbag49
(g70
g51
NtRp2957
(dp2958
g54
(dp2959
g81
g82
ssg63
g2949
sg56
(lp2960
S':'
asbag49
(g70
g51
NtRp2961
(dp2962
g54
(dp2963
sg63
g2949
sg56
(lp2964
g49
(g50
g51
NtRp2965
(dp2966
g54
(dp2967
g62
I3
ssg63
g2961
sg56
(lp2968
S''
asbasbasbag49
(g65
g51
NtRp2969
(dp2970
g54
(dp2971
sg63
g2885
sg56
(lp2972
g49
(g70
g51
NtRp2973
(dp2974
g54
(dp2975
g74
g75
ssg63
g2969
sg56
(lp2976
g347
asbag49
(g70
g51
NtRp2977
(dp2978
g54
(dp2979
g81
g82
ssg63
g2969
sg56
(lp2980
S':'
asbag49
(g70
g51
NtRp2981
(dp2982
g54
(dp2983
sg63
g2969
sg56
(lp2984
g49
(g50
g51
NtRp2985
(dp2986
g54
(dp2987
g62
I3
ssg63
g2981
sg56
(lp2988
S'/'
asbasbasbag49
(g65
g51
NtRp2989
(dp2990
g54
(dp2991
sg63
g2885
sg56
(lp2992
g49
(g70
g51
NtRp2993
(dp2994
g54
(dp2995
g74
g75
ssg63
g2989
sg56
(lp2996
g368
asbag49
(g70
g51
NtRp2997
(dp2998
g54
(dp2999
g81
g82
ssg63
g2989
sg56
(lp3000
S':'
asbag49
(g70
g51
NtRp3001
(dp3002
g54
(dp3003
sg63
g2989
sg56
(lp3004
g49
(g50
g51
NtRp3005
(dp3006
g54
(dp3007
g62
I3
ssg63
g3001
sg56
(lp3008
S''
asbasbasbag49
(g65
g51
NtRp3009
(dp3010
g54
(dp3011
sg63
g2885
sg56
(lp3012
g49
(g70
g51
NtRp3013
(dp3014
g54
(dp3015
g74
g75
ssg63
g3009
sg56
(lp3016
g389
asbag49
(g70
g51
NtRp3017
(dp3018
g54
(dp3019
g81
g82
ssg63
g3009
sg56
(lp3020
S':'
asbag49
(g70
g51
NtRp3021
(dp3022
g54
(dp3023
sg63
g3009
sg56
(lp3024
g49
(g50
g51
NtRp3025
(dp3026
g54
(dp3027
g62
I3
ssg63
g3021
sg56
(lp3028
S''
asbasbasbasbasbasbasbasbasbasbasbag49
(g65
g51
NtRp3029
(dp3030
g54
(dp3031
sg63
g2815
sg56
(lp3032
g49
(g70
g51
NtRp3033
(dp3034
g54
(dp3035
g74
g75
ssg63
g3029
sg56
(lp3036
S'delimiters'
p3037
asbag49
(g70
g51
NtRp3038
(dp3039
g54
(dp3040
g81
g82
ssg63
g3029
sg56
(lp3041
S':'
asbag49
(g70
g51
NtRp3042
(dp3043
g54
(dp3044
sg63
g3029
sg56
(lp3045
g49
(g50
g51
NtRp3046
(dp3047
g54
(dp3048
g62
I5
ssg63
g3042
sg56
(lp3049
g49
(g58
g51
NtRp3050
(dp3051
g54
(dp3052
g62
I4
ssg63
Nsg56
(lp3053
g49
(g65
g51
NtRp3054
(dp3055
g54
(dp3056
sg63
g3050
sg56
(lp3057
g49
(g70
g51
NtRp3058
(dp3059
g54
(dp3060
sg63
g3054
sg56
(lp3061
g49
(g50
g51
NtRp3062
(dp3063
g54
(dp3064
g62
I4
ssg63
g3058
sg56
(lp3065
S'{{'
p3066
asbasbasbag49
(g65
g51
NtRp3067
(dp3068
g54
(dp3069
sg63
g3050
sg56
(lp3070
g49
(g70
g51
NtRp3071
(dp3072
g54
(dp3073
sg63
g3067
sg56
(lp3074
g49
(g50
g51
NtRp3075
(dp3076
g54
(dp3077
g62
I4
ssg63
g3071
sg56
(lp3078
S'}}'
p3079
asbasbasbasbasbasbasbag49
(g65
g51
NtRp3080
(dp3081
g54
(dp3082
sg63
g2815
sg56
(lp3083
g49
(g70
g51
NtRp3084
(dp3085
g54
(dp3086
g74
g75
ssg63
g3080
sg56
(lp3087
S'files'
p3088
asbag49
(g70
g51
NtRp3089
(dp3090
g54
(dp3091
g81
g82
ssg63
g3080
sg56
(lp3092
S':'
asbag49
(g70
g51
NtRp3093
(dp3094
g54
(dp3095
sg63
g3080
sg56
(lp3096
g49
(g50
g51
NtRp3097
(dp3098
g54
(dp3099
g62
I5
ssg63
g3093
sg56
(lp3100
g49
(g58
g51
NtRp3101
(dp3102
g54
(dp3103
g62
I4
ssg63
Nsg56
(lp3104
sbasbasbasbag49
(g65
g51
NtRp3105
(dp3106
g54
(dp3107
sg63
g2815
sg56
(lp3108
g49
(g70
g51
NtRp3109
(dp3110
g54
(dp3111
g74
g75
ssg63
g3105
sg56
(lp3112
S'flash'
p3113
asbag49
(g70
g51
NtRp3114
(dp3115
g54
(dp3116
g81
g82
ssg63
g3105
sg56
(lp3117
S':'
asbag49
(g70
g51
NtRp3118
(dp3119
g54
(dp3120
sg63
g3105
sg56
(lp3121
g49
(g50
g51
NtRp3122
(dp3123
g54
(dp3124
g62
I5
ssg63
g3118
sg56
(lp3125
S''
asbasbasbag49
(g65
g51
NtRp3126
(dp3127
g54
(dp3128
sg63
g2815
sg56
(lp3129
g49
(g70
g51
NtRp3130
(dp3131
g54
(dp3132
g74
g75
ssg63
g3126
sg56
(lp3133
S'generic_patterns'
p3134
asbag49
(g70
g51
NtRp3135
(dp3136
g54
(dp3137
g81
g82
ssg63
g3126
sg56
(lp3138
S':'
asbag49
(g70
g51
NtRp3139
(dp3140
g54
(dp3141
sg63
g3126
sg56
(lp3142
g49
(g50
g51
NtRp3143
(dp3144
g54
(dp3145
g62
I5
ssg63
g3139
sg56
(lp3146
g49
(g58
g51
NtRp3147
(dp3148
g54
(dp3149
g62
I4
ssg63
Nsg56
(lp3150
g49
(g65
g51
NtRp3151
(dp3152
g54
(dp3153
sg63
g3147
sg56
(lp3154
g49
(g70
g51
NtRp3155
(dp3156
g54
(dp3157
sg63
g3151
sg56
(lp3158
g49
(g50
g51
NtRp3159
(dp3160
g54
(dp3161
g62
I4
ssg63
g3155
sg56
(lp3162
S'*'
asbasbasbasbasbasbasbag49
(g65
g51
NtRp3163
(dp3164
g54
(dp3165
sg63
g2815
sg56
(lp3166
g49
(g70
g51
NtRp3167
(dp3168
g54
(dp3169
g74
g75
ssg63
g3163
sg56
(lp3170
S'headers'
p3171
asbag49
(g70
g51
NtRp3172
(dp3173
g54
(dp3174
g81
g82
ssg63
g3163
sg56
(lp3175
S':'
asbag49
(g70
g51
NtRp3176
(dp3177
g54
(dp3178
sg63
g3163
sg56
(lp3179
g49
(g50
g51
NtRp3180
(dp3181
g54
(dp3182
g62
I5
ssg63
g3176
sg56
(lp3183
g49
(g58
g51
NtRp3184
(dp3185
g54
(dp3186
g62
I4
ssg63
Nsg56
(lp3187
g49
(g65
g51
NtRp3188
(dp3189
g54
(dp3190
sg63
g3184
sg56
(lp3191
g49
(g70
g51
NtRp3192
(dp3193
g54
(dp3194
g74
g75
ssg63
g3188
sg56
(lp3195
S'Cache-Control'
p3196
asbag49
(g70
g51
NtRp3197
(dp3198
g54
(dp3199
g81
g82
ssg63
g3188
sg56
(lp3200
S':'
asbag49
(g70
g51
NtRp3201
(dp3202
g54
(dp3203
sg63
g3188
sg56
(lp3204
g49
(g50
g51
NtRp3205
(dp3206
g54
(dp3207
g62
I4
ssg63
g3201
sg56
(lp3208
S'no-store, no-cache, must-revalidate, post-check=0, pre-check=0'
p3209
asbasbasbag49
(g65
g51
NtRp3210
(dp3211
g54
(dp3212
sg63
g3184
sg56
(lp3213
g49
(g70
g51
NtRp3214
(dp3215
g54
(dp3216
g74
g75
ssg63
g3210
sg56
(lp3217
S'Content-Type'
p3218
asbag49
(g70
g51
NtRp3219
(dp3220
g54
(dp3221
g81
g82
ssg63
g3210
sg56
(lp3222
S':'
asbag49
(g70
g51
NtRp3223
(dp3224
g54
(dp3225
sg63
g3210
sg56
(lp3226
g49
(g50
g51
NtRp3227
(dp3228
g54
(dp3229
g62
I4
ssg63
g3223
sg56
(lp3230
S'text/html; charset=utf-8'
p3231
asbasbasbag49
(g65
g51
NtRp3232
(dp3233
g54
(dp3234
sg63
g3184
sg56
(lp3235
g49
(g70
g51
NtRp3236
(dp3237
g54
(dp3238
g74
g75
ssg63
g3232
sg56
(lp3239
S'Expires'
p3240
asbag49
(g70
g51
NtRp3241
(dp3242
g54
(dp3243
g81
g82
ssg63
g3232
sg56
(lp3244
S':'
asbag49
(g70
g51
NtRp3245
(dp3246
g54
(dp3247
sg63
g3232
sg56
(lp3248
g49
(g50
g51
NtRp3249
(dp3250
g54
(dp3251
g62
I4
ssg63
g3245
sg56
(lp3252
S'Thu, 29 Mar 2012 11:33:56 GMT'
p3253
asbasbasbag49
(g65
g51
NtRp3254
(dp3255
g54
(dp3256
sg63
g3184
sg56
(lp3257
g49
(g70
g51
NtRp3258
(dp3259
g54
(dp3260
g74
g75
ssg63
g3254
sg56
(lp3261
S'Pragma'
p3262
asbag49
(g70
g51
NtRp3263
(dp3264
g54
(dp3265
g81
g82
ssg63
g3254
sg56
(lp3266
S':'
asbag49
(g70
g51
NtRp3267
(dp3268
g54
(dp3269
sg63
g3254
sg56
(lp3270
g49
(g50
g51
NtRp3271
(dp3272
g54
(dp3273
g62
I4
ssg63
g3267
sg56
(lp3274
S'no-cache'
p3275
asbasbasbag49
(g65
g51
NtRp3276
(dp3277
g54
(dp3278
sg63
g3184
sg56
(lp3279
g49
(g70
g51
NtRp3280
(dp3281
g54
(dp3282
g74
g75
ssg63
g3276
sg56
(lp3283
S'X-Powered-By'
p3284
asbag49
(g70
g51
NtRp3285
(dp3286
g54
(dp3287
g81
g82
ssg63
g3276
sg56
(lp3288
S':'
asbag49
(g70
g51
NtRp3289
(dp3290
g54
(dp3291
sg63
g3276
sg56
(lp3292
g49
(g50
g51
NtRp3293
(dp3294
g54
(dp3295
g62
I4
ssg63
g3289
sg56
(lp3296
S'web2py'
p3297
asbasbasbasbasbasbasbag49
(g65
g51
NtRp3298
(dp3299
g54
(dp3300
sg63
g2815
sg56
(lp3301
g49
(g70
g51
NtRp3302
(dp3303
g54
(dp3304
g74
g75
ssg63
g3298
sg56
(lp3305
S'menu'
p3306
asbag49
(g70
g51
NtRp3307
(dp3308
g54
(dp3309
g81
g82
ssg63
g3298
sg56
(lp3310
S':'
asbag49
(g70
g51
NtRp3311
(dp3312
g54
(dp3313
sg63
g3298
sg56
(lp3314
g49
(g50
g51
NtRp3315
(dp3316
g54
(dp3317
g62
I5
ssg63
g3311
sg56
(lp3318
g49
(g58
g51
NtRp3319
(dp3320
g54
(dp3321
g62
I4
ssg63
Nsg56
(lp3322
g49
(g65
g51
NtRp3323
(dp3324
g54
(dp3325
sg63
g3319
sg56
(lp3326
g49
(g70
g51
NtRp3327
(dp3328
g54
(dp3329
sg63
g3323
sg56
(lp3330
g49
(g50
g51
NtRp3331
(dp3332
g54
(dp3333
g62
I4
ssg63
g3327
sg56
(lp3334
g49
(g58
g51
NtRp3335
(dp3336
g54
(dp3337
g62
I3
ssg63
Nsg56
(lp3338
g49
(g65
g51
NtRp3339
(dp3340
g54
(dp3341
sg63
g3335
sg56
(lp3342
g49
(g70
g51
NtRp3343
(dp3344
g54
(dp3345
sg63
g3339
sg56
(lp3346
g49
(g50
g51
NtRp3347
(dp3348
g54
(dp3349
g62
I3
ssg63
g3343
sg56
(lp3350
cgluon.languages
lazyT_unpickle
p3351
(S't\x07\x00\x00\x00Accueil'
tRp3352
asbasbasbag49
(g65
g51
NtRp3353
(dp3354
g54
(dp3355
sg63
g3335
sg56
(lp3356
g49
(g70
g51
NtRp3357
(dp3358
g54
(dp3359
sg63
g3353
sg56
(lp3360
g49
(g50
g51
NtRp3361
(dp3362
g54
(dp3363
g62
I3
ssg63
g3357
sg56
(lp3364
g92
asbasbasbag49
(g65
g51
NtRp3365
(dp3366
g54
(dp3367
sg63
g3335
sg56
(lp3368
g49
(g70
g51
NtRp3369
(dp3370
g54
(dp3371
sg63
g3365
sg56
(lp3372
g49
(g50
g51
NtRp3373
(dp3374
g54
(dp3375
g62
I3
ssg63
g3369
sg56
(lp3376
S'/init/default/index'
p3377
asbasbasbag49
(g65
g51
NtRp3378
(dp3379
g54
(dp3380
sg63
g3335
sg56
(lp3381
g49
(g70
g51
NtRp3382
(dp3383
g54
(dp3384
sg63
g3378
sg56
(lp3385
g49
(g50
g51
NtRp3386
(dp3387
g54
(dp3388
g62
I3
ssg63
g3382
sg56
(lp3389
g49
(g58
g51
NtRp3390
(dp3391
g54
(dp3392
g62
I2
ssg63
Nsg56
(lp3393
sbasbasbasbasbasbasbasbag49
(g65
g51
NtRp3394
(dp3395
g54
(dp3396
sg63
g3319
sg56
(lp3397
g49
(g70
g51
NtRp3398
(dp3399
g54
(dp3400
sg63
g3394
sg56
(lp3401
g49
(g50
g51
NtRp3402
(dp3403
g54
(dp3404
g62
I4
ssg63
g3398
sg56
(lp3405
g49
(g58
g51
NtRp3406
(dp3407
g54
(dp3408
g62
I3
ssg63
Nsg56
(lp3409
g49
(g65
g51
NtRp3410
(dp3411
g54
(dp3412
sg63
g3406
sg56
(lp3413
g49
(g70
g51
NtRp3414
(dp3415
g54
(dp3416
sg63
g3410
sg56
(lp3417
g49
(g50
g51
NtRp3418
(dp3419
g54
(dp3420
g62
I3
ssg63
g3414
sg56
(lp3421
g49
(cgluon.html
SPAN
p3422
g51
NtRp3423
(dp3424
g54
(dp3425
g74
S'color:yellow'
p3426
ssg63
Nsg56
(lp3427
g3297
asbasbasbasbag49
(g65
g51
NtRp3428
(dp3429
g54
(dp3430
sg63
g3406
sg56
(lp3431
g49
(g70
g51
NtRp3432
(dp3433
g54
(dp3434
sg63
g3428
sg56
(lp3435
g49
(g50
g51
NtRp3436
(dp3437
g54
(dp3438
g62
I3
ssg63
g3432
sg56
(lp3439
g92
asbasbasbag49
(g65
g51
NtRp3440
(dp3441
g54
(dp3442
sg63
g3406
sg56
(lp3443
g49
(g70
g51
NtRp3444
(dp3445
g54
(dp3446
sg63
g3440
sg56
(lp3447
g49
(g50
g51
NtRp3448
(dp3449
g54
(dp3450
g62
I3
ssg63
g3444
sg56
(lp3451
S'None'
p3452
asbasbasbag49
(g65
g51
NtRp3453
(dp3454
g54
(dp3455
sg63
g3406
sg56
(lp3456
g49
(g70
g51
NtRp3457
(dp3458
g54
(dp3459
sg63
g3453
sg56
(lp3460
g49
(g50
g51
NtRp3461
(dp3462
g54
(dp3463
g62
I3
ssg63
g3457
sg56
(lp3464
g49
(g58
g51
NtRp3465
(dp3466
g54
(dp3467
g62
I2
ssg63
Nsg56
(lp3468
g49
(g65
g51
NtRp3469
(dp3470
g54
(dp3471
sg63
g3465
sg56
(lp3472
g49
(g70
g51
NtRp3473
(dp3474
g54
(dp3475
sg63
g3469
sg56
(lp3476
g49
(g50
g51
NtRp3477
(dp3478
g54
(dp3479
g62
I2
ssg63
g3473
sg56
(lp3480
g49
(g58
g51
NtRp3481
(dp3482
g54
(dp3483
g62
I1
ssg63
Nsg56
(lp3484
g49
(g65
g51
NtRp3485
(dp3486
g54
(dp3487
sg63
g3481
sg56
(lp3488
g49
(g70
g51
NtRp3489
(dp3490
g54
(dp3491
sg63
g3485
sg56
(lp3492
g49
(g50
g51
NtRp3493
(dp3494
g54
(dp3495
g62
I1
ssg63
g3489
sg56
(lp3496
g3351
(S's\x08\x00\x00\x00My Sites'
tRp3497
asbasbasbag49
(g65
g51
NtRp3498
(dp3499
g54
(dp3500
sg63
g3481
sg56
(lp3501
g49
(g70
g51
NtRp3502
(dp3503
g54
(dp3504
sg63
g3498
sg56
(lp3505
g49
(g50
g51
NtRp3506
(dp3507
g54
(dp3508
g62
I1
ssg63
g3502
sg56
(lp3509
I00
asbasbasbag49
(g65
g51
NtRp3510
(dp3511
g54
(dp3512
sg63
g3481
sg56
(lp3513
g49
(g70
g51
NtRp3514
(dp3515
g54
(dp3516
sg63
g3510
sg56
(lp3517
g49
(g50
g51
NtRp3518
(dp3519
g54
(dp3520
g62
I1
ssg63
g3514
sg56
(lp3521
S'/admin/default/site'
p3522
asbasbasbasbasbasbasbag49
(g65
g51
NtRp3523
(dp3524
g54
(dp3525
sg63
g3465
sg56
(lp3526
g49
(g70
g51
NtRp3527
(dp3528
g54
(dp3529
sg63
g3523
sg56
(lp3530
g49
(g50
g51
NtRp3531
(dp3532
g54
(dp3533
g62
I2
ssg63
g3527
sg56
(lp3534
g49
(g58
g51
NtRp3535
(dp3536
g54
(dp3537
g62
I1
ssg63
Nsg56
(lp3538
g49
(g65
g51
NtRp3539
(dp3540
g54
(dp3541
sg63
g3535
sg56
(lp3542
g49
(g70
g51
NtRp3543
(dp3544
g54
(dp3545
sg63
g3539
sg56
(lp3546
g49
(g50
g51
NtRp3547
(dp3548
g54
(dp3549
g62
I1
ssg63
g3543
sg56
(lp3550
g3351
(S's\x0b\x00\x00\x00Cette Appli'
tRp3551
asbasbasbag49
(g65
g51
NtRp3552
(dp3553
g54
(dp3554
sg63
g3535
sg56
(lp3555
g49
(g70
g51
NtRp3556
(dp3557
g54
(dp3558
sg63
g3552
sg56
(lp3559
g49
(g50
g51
NtRp3560
(dp3561
g54
(dp3562
g62
I1
ssg63
g3556
sg56
(lp3563
I00
asbasbasbag49
(g65
g51
NtRp3564
(dp3565
g54
(dp3566
sg63
g3535
sg56
(lp3567
g49
(g70
g51
NtRp3568
(dp3569
g54
(dp3570
sg63
g3564
sg56
(lp3571
g49
(g50
g51
NtRp3572
(dp3573
g54
(dp3574
g62
I1
ssg63
g3568
sg56
(lp3575
S'/admin/default/design/init'
p3576
asbasbasbag49
(g65
g51
NtRp3577
(dp3578
g54
(dp3579
sg63
g3535
sg56
(lp3580
g49
(g70
g51
NtRp3581
(dp3582
g54
(dp3583
sg63
g3577
sg56
(lp3584
g49
(g50
g51
NtRp3585
(dp3586
g54
(dp3587
g62
I1
ssg63
g3581
sg56
(lp3588
(lp3589
(g3351
(S's\x0b\x00\x00\x00Contr\xc3\xb4leur'
tRp3590
I00
S'/admin/default/edit/init/controllers/default.py'
tp3591
a(g3351
(S's\r\x00\x00\x00Pr\xc3\xa9sentation'
tRp3592
I00
S'/admin/default/edit/init/views/default/initdbjack.html'
tp3593
a(g3351
(S's\x0c\x00\x00\x00Mise en page'
tRp3594
I00
S'/admin/default/edit/init/views/layout.html'
tp3595
a(g3351
(S's\x10\x00\x00\x00Feuille de style'
tRp3596
I00
S'/admin/default/edit/init/static/css/web2py.css'
tp3597
a(g3351
(S's\n\x00\x00\x00Mod\xc3\xa8le DB'
tRp3598
I00
S'/admin/default/edit/init/models/db.py'
tp3599
a(g3351
(S's\x0c\x00\x00\x00Menu mod\xc3\xa8le'
tRp3600
I00
S'/admin/default/edit/init/models/menu.py'
tp3601
a(g3351
(S's\x10\x00\x00\x00Base de donn\xc3\xa9es'
tRp3602
I00
S'/init/appadmin/index'
tp3603
a(g3351
(S't\x07\x00\x00\x00Erreurs'
tRp3604
I00
S'/admin/default/errors/init'
tp3605
a(g3351
(S's\t\x00\x00\x00\xc3\x80 propos'
tRp3606
I00
S'/admin/default/about/init'
tp3607
aasbasbasbasbasbasbasbag49
(g65
g51
NtRp3608
(dp3609
g54
(dp3610
sg63
g3465
sg56
(lp3611
g49
(g70
g51
NtRp3612
(dp3613
g54
(dp3614
sg63
g3608
sg56
(lp3615
g49
(g50
g51
NtRp3616
(dp3617
g54
(dp3618
g62
I2
ssg63
g3612
sg56
(lp3619
g49
(g58
g51
NtRp3620
(dp3621
g54
(dp3622
g62
I1
ssg63
Nsg56
(lp3623
g49
(g65
g51
NtRp3624
(dp3625
g54
(dp3626
sg63
g3620
sg56
(lp3627
g49
(g70
g51
NtRp3628
(dp3629
g54
(dp3630
sg63
g3624
sg56
(lp3631
g49
(g50
g51
NtRp3632
(dp3633
g54
(dp3634
g62
I1
ssg63
g3628
sg56
(lp3635
S'web2py.com'
p3636
asbasbasbag49
(g65
g51
NtRp3637
(dp3638
g54
(dp3639
sg63
g3620
sg56
(lp3640
g49
(g70
g51
NtRp3641
(dp3642
g54
(dp3643
sg63
g3637
sg56
(lp3644
g49
(g50
g51
NtRp3645
(dp3646
g54
(dp3647
g62
I1
ssg63
g3641
sg56
(lp3648
I00
asbasbasbag49
(g65
g51
NtRp3649
(dp3650
g54
(dp3651
sg63
g3620
sg56
(lp3652
g49
(g70
g51
NtRp3653
(dp3654
g54
(dp3655
sg63
g3649
sg56
(lp3656
g49
(g50
g51
NtRp3657
(dp3658
g54
(dp3659
g62
I1
ssg63
g3653
sg56
(lp3660
S'http://www.web2py.com'
p3661
asbasbasbag49
(g65
g51
NtRp3662
(dp3663
g54
(dp3664
sg63
g3620
sg56
(lp3665
g49
(g70
g51
NtRp3666
(dp3667
g54
(dp3668
sg63
g3662
sg56
(lp3669
g49
(g50
g51
NtRp3670
(dp3671
g54
(dp3672
g62
I1
ssg63
g3666
sg56
(lp3673
(lp3674
(g3351
(S's\x10\x00\x00\x00T\xc3\xa9l\xc3\xa9chargement'
tRp3675
I00
S'http://www.web2py.com/examples/default/download'
p3676
tp3677
a(g3351
(S't\x07\x00\x00\x00Support'
tRp3678
I00
S'http://www.web2py.com/examples/default/support'
p3679
tp3680
a(g3351
(S's\x05\x00\x00\x00D\xc3\xa9mo'
tRp3681
I00
S'http://web2py.com/demo_admin'
p3682
tp3683
a(g3351
(S's\x10\x00\x00\x00Examples Rapides'
tRp3684
I00
S'http://web2py.com/examples/default/examples'
p3685
tp3686
a(g3351
(S't\x03\x00\x00\x00FAQ'
tRp3687
I00
S'http://web2py.com/AlterEgo'
p3688
tp3689
a(g3351
(S's\x07\x00\x00\x00Vid\xc3\xa9os'
tRp3690
I00
S'http://www.web2py.com/examples/default/videos/'
p3691
tp3692
a(g3351
(S's\x16\x00\x00\x00Applications gratuites'
tRp3693
I00
S'http://web2py.com/appliances'
p3694
tp3695
a(g3351
(S't\n\x00\x00\x00Plugiciels'
tRp3696
I00
S'http://web2py.com/plugins'
p3697
tp3698
a(g3351
(S't\x07\x00\x00\x00Layouts'
tRp3699
I00
S'http://web2py.com/layouts'
p3700
tp3701
a(g3351
(S't\x08\x00\x00\x00Recettes'
tRp3702
I00
S'http://web2pyslices.com/'
p3703
tp3704
a(g3351
(S's\x0b\x00\x00\x00S\xc3\xa9mantique'
tRp3705
I00
S'http://web2py.com/semantic'
p3706
tp3707
aasbasbasbasbasbasbasbag49
(g65
g51
NtRp3708
(dp3709
g54
(dp3710
sg63
g3465
sg56
(lp3711
g49
(g70
g51
NtRp3712
(dp3713
g54
(dp3714
sg63
g3708
sg56
(lp3715
g49
(g50
g51
NtRp3716
(dp3717
g54
(dp3718
g62
I2
ssg63
g3712
sg56
(lp3719
g49
(g58
g51
NtRp3720
(dp3721
g54
(dp3722
g62
I1
ssg63
Nsg56
(lp3723
g49
(g65
g51
NtRp3724
(dp3725
g54
(dp3726
sg63
g3720
sg56
(lp3727
g49
(g70
g51
NtRp3728
(dp3729
g54
(dp3730
sg63
g3724
sg56
(lp3731
g49
(g50
g51
NtRp3732
(dp3733
g54
(dp3734
g62
I1
ssg63
g3728
sg56
(lp3735
g3351
(S't\r\x00\x00\x00Documentation'
tRp3736
asbasbasbag49
(g65
g51
NtRp3737
(dp3738
g54
(dp3739
sg63
g3720
sg56
(lp3740
g49
(g70
g51
NtRp3741
(dp3742
g54
(dp3743
sg63
g3737
sg56
(lp3744
g49
(g50
g51
NtRp3745
(dp3746
g54
(dp3747
g62
I1
ssg63
g3741
sg56
(lp3748
I00
asbasbasbag49
(g65
g51
NtRp3749
(dp3750
g54
(dp3751
sg63
g3720
sg56
(lp3752
g49
(g70
g51
NtRp3753
(dp3754
g54
(dp3755
sg63
g3749
sg56
(lp3756
g49
(g50
g51
NtRp3757
(dp3758
g54
(dp3759
g62
I1
ssg63
g3753
sg56
(lp3760
S'http://www.web2py.com/book'
p3761
asbasbasbag49
(g65
g51
NtRp3762
(dp3763
g54
(dp3764
sg63
g3720
sg56
(lp3765
g49
(g70
g51
NtRp3766
(dp3767
g54
(dp3768
sg63
g3762
sg56
(lp3769
g49
(g50
g51
NtRp3770
(dp3771
g54
(dp3772
g62
I1
ssg63
g3766
sg56
(lp3773
(lp3774
(g3351
(S's\x08\x00\x00\x00Pr\xc3\xa9face'
tRp3775
I00
S'http://www.web2py.com/book/default/chapter/00'
p3776
tp3777
a(g3351
(S't\x0c\x00\x00\x00Introduction'
tRp3778
I00
S'http://www.web2py.com/book/default/chapter/01'
p3779
tp3780
a(g3351
(S't\x06\x00\x00\x00Python'
tRp3781
I00
S'http://www.web2py.com/book/default/chapter/02'
p3782
tp3783
a(g3351
(S's\r\x00\x00\x00Pr\xc3\xa9sentation'
tRp3784
I00
S'http://www.web2py.com/book/default/chapter/03'
p3785
tp3786
a(g3351
(S's\x08\x00\x00\x00Le noyau'
tRp3787
I00
S'http://www.web2py.com/book/default/chapter/04'
p3788
tp3789
a(g3351
(S's\x08\x00\x00\x00Les Vues'
tRp3790
I00
S'http://www.web2py.com/book/default/chapter/05'
p3791
tp3792
a(g3351
(S's\x10\x00\x00\x00Base de donn\xc3\xa9es'
tRp3793
I00
S'http://www.web2py.com/book/default/chapter/06'
p3794
tp3795
a(g3351
(S's\x1a\x00\x00\x00Formulaires et Validateurs'
tRp3796
I00
S'http://www.web2py.com/book/default/chapter/07'
p3797
tp3798
a(g3351
(S's\r\x00\x00\x00Email and SMS'
tRp3799
I00
S'http://www.web2py.com/book/default/chapter/08'
p3800
tp3801
a(g3351
(S"s\x12\x00\x00\x00Contr\xc3\xb4le d'acc\xc3\xa8s"
tRp3802
I00
S'http://www.web2py.com/book/default/chapter/09'
p3803
tp3804
a(g3351
(S't\x08\x00\x00\x00Services'
tRp3805
I00
S'http://www.web2py.com/book/default/chapter/10'
p3806
tp3807
a(g3351
(S's\r\x00\x00\x00Recettes Ajax'
tRp3808
I00
S'http://www.web2py.com/book/default/chapter/11'
p3809
tp3810
a(g3351
(S's\x16\x00\x00\x00Components and Plugins'
tRp3811
I00
S'http://www.web2py.com/book/default/chapter/12'
p3812
tp3813
a(g3351
(S's\x18\x00\x00\x00Recettes de d\xc3\xa9ploiement'
tRp3814
I00
S'http://www.web2py.com/book/default/chapter/13'
p3815
tp3816
a(g3351
(S's\x0f\x00\x00\x00Autres recettes'
tRp3817
I00
S'http://www.web2py.com/book/default/chapter/14'
p3818
tp3819
a(g3351
(S's\x10\x00\x00\x00Acheter ce livre'
tRp3820
I00
S'http://stores.lulu.com/web2py'
p3821
tp3822
aasbasbasbasbasbasbasbag49
(g65
g51
NtRp3823
(dp3824
g54
(dp3825
sg63
g3465
sg56
(lp3826
g49
(g70
g51
NtRp3827
(dp3828
g54
(dp3829
sg63
g3823
sg56
(lp3830
g49
(g50
g51
NtRp3831
(dp3832
g54
(dp3833
g62
I2
ssg63
g3827
sg56
(lp3834
g49
(g58
g51
NtRp3835
(dp3836
g54
(dp3837
g62
I1
ssg63
Nsg56
(lp3838
g49
(g65
g51
NtRp3839
(dp3840
g54
(dp3841
sg63
g3835
sg56
(lp3842
g49
(g70
g51
NtRp3843
(dp3844
g54
(dp3845
sg63
g3839
sg56
(lp3846
g49
(g50
g51
NtRp3847
(dp3848
g54
(dp3849
g62
I1
ssg63
g3843
sg56
(lp3850
g3351
(S's\x0b\x00\x00\x00Communaut\xc3\xa9'
tRp3851
asbasbasbag49
(g65
g51
NtRp3852
(dp3853
g54
(dp3854
sg63
g3835
sg56
(lp3855
g49
(g70
g51
NtRp3856
(dp3857
g54
(dp3858
sg63
g3852
sg56
(lp3859
g49
(g50
g51
NtRp3860
(dp3861
g54
(dp3862
g62
I1
ssg63
g3856
sg56
(lp3863
I00
asbasbasbag49
(g65
g51
NtRp3864
(dp3865
g54
(dp3866
sg63
g3835
sg56
(lp3867
g49
(g70
g51
NtRp3868
(dp3869
g54
(dp3870
sg63
g3864
sg56
(lp3871
g49
(g50
g51
NtRp3872
(dp3873
g54
(dp3874
g62
I1
ssg63
g3868
sg56
(lp3875
Nasbasbasbag49
(g65
g51
NtRp3876
(dp3877
g54
(dp3878
sg63
g3835
sg56
(lp3879
g49
(g70
g51
NtRp3880
(dp3881
g54
(dp3882
sg63
g3876
sg56
(lp3883
g49
(g50
g51
NtRp3884
(dp3885
g54
(dp3886
g62
I1
ssg63
g3880
sg56
(lp3887
(lp3888
(g3351
(S't\x06\x00\x00\x00Groups'
tRp3889
I00
S'http://www.web2py.com/examples/default/usergroups'
p3890
tp3891
a(g3351
(S't\x07\x00\x00\x00Twitter'
tRp3892
I00
S'http://twitter.com/web2py'
p3893
tp3894
a(g3351
(S's\t\x00\x00\x00Live Chat'
tRp3895
I00
S'http://webchat.freenode.net/?channels=web2py'
p3896
tp3897
aasbasbasbasbasbasbasbag49
(g65
g51
NtRp3898
(dp3899
g54
(dp3900
sg63
g3465
sg56
(lp3901
g49
(g70
g51
NtRp3902
(dp3903
g54
(dp3904
sg63
g3898
sg56
(lp3905
g49
(g50
g51
NtRp3906
(dp3907
g54
(dp3908
g62
I2
ssg63
g3902
sg56
(lp3909
g49
(g58
g51
NtRp3910
(dp3911
g54
(dp3912
g62
I1
ssg63
Nsg56
(lp3913
g49
(g65
g51
NtRp3914
(dp3915
g54
(dp3916
sg63
g3910
sg56
(lp3917
g49
(g70
g51
NtRp3918
(dp3919
g54
(dp3920
sg63
g3914
sg56
(lp3921
g49
(g50
g51
NtRp3922
(dp3923
g54
(dp3924
g62
I1
ssg63
g3918
sg56
(lp3925
g3351
(S't\n\x00\x00\x00Plugiciels'
tRp3926
asbasbasbag49
(g65
g51
NtRp3927
(dp3928
g54
(dp3929
sg63
g3910
sg56
(lp3930
g49
(g70
g51
NtRp3931
(dp3932
g54
(dp3933
sg63
g3927
sg56
(lp3934
g49
(g50
g51
NtRp3935
(dp3936
g54
(dp3937
g62
I1
ssg63
g3931
sg56
(lp3938
I00
asbasbasbag49
(g65
g51
NtRp3939
(dp3940
g54
(dp3941
sg63
g3910
sg56
(lp3942
g49
(g70
g51
NtRp3943
(dp3944
g54
(dp3945
sg63
g3939
sg56
(lp3946
g49
(g50
g51
NtRp3947
(dp3948
g54
(dp3949
g62
I1
ssg63
g3943
sg56
(lp3950
Nasbasbasbag49
(g65
g51
NtRp3951
(dp3952
g54
(dp3953
sg63
g3910
sg56
(lp3954
g49
(g70
g51
NtRp3955
(dp3956
g54
(dp3957
sg63
g3951
sg56
(lp3958
g49
(g50
g51
NtRp3959
(dp3960
g54
(dp3961
g62
I1
ssg63
g3955
sg56
(lp3962
(lp3963
(S'plugin_wiki'
p3964
I00
S'http://web2py.com/examples/default/download'
p3965
tp3966
a(g3351
(S's\r\x00\x00\x00Other Plugins'
tRp3967
I00
g3697
tp3968
a(g3351
(S's\x0e\x00\x00\x00Layout Plugins'
tRp3969
I00
g3700
tp3970
aasbasbasbasbasbasbasbasbasbasbasbasbasbasbasbasbasbasbasbag49
(g65
g51
NtRp3971
(dp3972
g54
(dp3973
sg63
g2815
sg56
(lp3974
g49
(g70
g51
NtRp3975
(dp3976
g54
(dp3977
g74
g75
ssg63
g3971
sg56
(lp3978
S'meta'
p3979
asbag49
(g70
g51
NtRp3980
(dp3981
g54
(dp3982
g81
g82
ssg63
g3971
sg56
(lp3983
S':'
asbag49
(g70
g51
NtRp3984
(dp3985
g54
(dp3986
sg63
g3971
sg56
(lp3987
g49
(g50
g51
NtRp3988
(dp3989
g54
(dp3990
g62
I5
ssg63
g3984
sg56
(lp3991
g49
(g58
g51
NtRp3992
(dp3993
g54
(dp3994
g62
I4
ssg63
Nsg56
(lp3995
g49
(g65
g51
NtRp3996
(dp3997
g54
(dp3998
sg63
g3992
sg56
(lp3999
g49
(g70
g51
NtRp4000
(dp4001
g54
(dp4002
g74
g75
ssg63
g3996
sg56
(lp4003
S'author'
p4004
asbag49
(g70
g51
NtRp4005
(dp4006
g54
(dp4007
g81
g82
ssg63
g3996
sg56
(lp4008
S':'
asbag49
(g70
g51
NtRp4009
(dp4010
g54
(dp4011
sg63
g3996
sg56
(lp4012
g49
(g50
g51
NtRp4013
(dp4014
g54
(dp4015
g62
I4
ssg63
g4009
sg56
(lp4016
S'Your Name <you@example.com>'
p4017
asbasbasbag49
(g65
g51
NtRp4018
(dp4019
g54
(dp4020
sg63
g3992
sg56
(lp4021
g49
(g70
g51
NtRp4022
(dp4023
g54
(dp4024
g74
g75
ssg63
g4018
sg56
(lp4025
S'copyright'
p4026
asbag49
(g70
g51
NtRp4027
(dp4028
g54
(dp4029
g81
g82
ssg63
g4018
sg56
(lp4030
S':'
asbag49
(g70
g51
NtRp4031
(dp4032
g54
(dp4033
sg63
g4018
sg56
(lp4034
g49
(g50
g51
NtRp4035
(dp4036
g54
(dp4037
g62
I4
ssg63
g4031
sg56
(lp4038
S'Copyright 2011'
p4039
asbasbasbag49
(g65
g51
NtRp4040
(dp4041
g54
(dp4042
sg63
g3992
sg56
(lp4043
g49
(g70
g51
NtRp4044
(dp4045
g54
(dp4046
g74
g75
ssg63
g4040
sg56
(lp4047
S'description'
p4048
asbag49
(g70
g51
NtRp4049
(dp4050
g54
(dp4051
g81
g82
ssg63
g4040
sg56
(lp4052
S':'
asbag49
(g70
g51
NtRp4053
(dp4054
g54
(dp4055
sg63
g4040
sg56
(lp4056
g49
(g50
g51
NtRp4057
(dp4058
g54
(dp4059
g62
I4
ssg63
g4053
sg56
(lp4060
S'a cool new app'
p4061
asbasbasbag49
(g65
g51
NtRp4062
(dp4063
g54
(dp4064
sg63
g3992
sg56
(lp4065
g49
(g70
g51
NtRp4066
(dp4067
g54
(dp4068
g74
g75
ssg63
g4062
sg56
(lp4069
S'generator'
p4070
asbag49
(g70
g51
NtRp4071
(dp4072
g54
(dp4073
g81
g82
ssg63
g4062
sg56
(lp4074
S':'
asbag49
(g70
g51
NtRp4075
(dp4076
g54
(dp4077
sg63
g4062
sg56
(lp4078
g49
(g50
g51
NtRp4079
(dp4080
g54
(dp4081
g62
I4
ssg63
g4075
sg56
(lp4082
S'Web2py Web Framework'
p4083
asbasbasbag49
(g65
g51
NtRp4084
(dp4085
g54
(dp4086
sg63
g3992
sg56
(lp4087
g49
(g70
g51
NtRp4088
(dp4089
g54
(dp4090
g74
g75
ssg63
g4084
sg56
(lp4091
S'keywords'
p4092
asbag49
(g70
g51
NtRp4093
(dp4094
g54
(dp4095
g81
g82
ssg63
g4084
sg56
(lp4096
S':'
asbag49
(g70
g51
NtRp4097
(dp4098
g54
(dp4099
sg63
g4084
sg56
(lp4100
g49
(g50
g51
NtRp4101
(dp4102
g54
(dp4103
g62
I4
ssg63
g4097
sg56
(lp4104
S'web2py, python, framework'
p4105
asbasbasbasbasbasbasbag49
(g65
g51
NtRp4106
(dp4107
g54
(dp4108
sg63
g2815
sg56
(lp4109
g49
(g70
g51
NtRp4110
(dp4111
g54
(dp4112
g74
g75
ssg63
g4106
sg56
(lp4113
S'postprocessing'
p4114
asbag49
(g70
g51
NtRp4115
(dp4116
g54
(dp4117
g81
g82
ssg63
g4106
sg56
(lp4118
S':'
asbag49
(g70
g51
NtRp4119
(dp4120
g54
(dp4121
sg63
g4106
sg56
(lp4122
g49
(g50
g51
NtRp4123
(dp4124
g54
(dp4125
g62
I5
ssg63
g4119
sg56
(lp4126
g49
(g58
g51
NtRp4127
(dp4128
g54
(dp4129
g62
I4
ssg63
Nsg56
(lp4130
sbasbasbasbag49
(g65
g51
NtRp4131
(dp4132
g54
(dp4133
sg63
g2815
sg56
(lp4134
g49
(g70
g51
NtRp4135
(dp4136
g54
(dp4137
g74
g75
ssg63
g4131
sg56
(lp4138
S'session_db'
p4139
asbag49
(g70
g51
NtRp4140
(dp4141
g54
(dp4142
g81
g82
ssg63
g4131
sg56
(lp4143
S':'
asbag49
(g70
g51
NtRp4144
(dp4145
g54
(dp4146
sg63
g4131
sg56
(lp4147
g49
(g50
g51
NtRp4148
(dp4149
g54
(dp4150
g62
I5
ssg63
g4144
sg56
(lp4151
g726
asbasbasbag49
(g65
g51
NtRp4152
(dp4153
g54
(dp4154
sg63
g2815
sg56
(lp4155
g49
(g70
g51
NtRp4156
(dp4157
g54
(dp4158
g74
g75
ssg63
g4152
sg56
(lp4159
S'session_id'
p4160
asbag49
(g70
g51
NtRp4161
(dp4162
g54
(dp4163
g81
g82
ssg63
g4152
sg56
(lp4164
S':'
asbag49
(g70
g51
NtRp4165
(dp4166
g54
(dp4167
sg63
g4152
sg56
(lp4168
g49
(g50
g51
NtRp4169
(dp4170
g54
(dp4171
g62
I5
ssg63
g4165
sg56
(lp4172
S'19:a8687721-5787-4713-9329-1674aeb3f1bb'
p4173
asbasbasbag49
(g65
g51
NtRp4174
(dp4175
g54
(dp4176
sg63
g2815
sg56
(lp4177
g49
(g70
g51
NtRp4178
(dp4179
g54
(dp4180
g74
g75
ssg63
g4174
sg56
(lp4181
S'session_id_name'
p4182
asbag49
(g70
g51
NtRp4183
(dp4184
g54
(dp4185
g81
g82
ssg63
g4174
sg56
(lp4186
S':'
asbag49
(g70
g51
NtRp4187
(dp4188
g54
(dp4189
sg63
g4174
sg56
(lp4190
g49
(g50
g51
NtRp4191
(dp4192
g54
(dp4193
g62
I5
ssg63
g4187
sg56
(lp4194
S'session_id_init'
p4195
asbasbasbag49
(g65
g51
NtRp4196
(dp4197
g54
(dp4198
sg63
g2815
sg56
(lp4199
g49
(g70
g51
NtRp4200
(dp4201
g54
(dp4202
g74
g75
ssg63
g4196
sg56
(lp4203
S'status'
p4204
asbag49
(g70
g51
NtRp4205
(dp4206
g54
(dp4207
g81
g82
ssg63
g4196
sg56
(lp4208
S':'
asbag49
(g70
g51
NtRp4209
(dp4210
g54
(dp4211
sg63
g4196
sg56
(lp4212
g49
(g50
g51
NtRp4213
(dp4214
g54
(dp4215
g62
I5
ssg63
g4209
sg56
(lp4216
S'200'
p4217
asbasbasbag49
(g65
g51
NtRp4218
(dp4219
g54
(dp4220
sg63
g2815
sg56
(lp4221
g49
(g70
g51
NtRp4222
(dp4223
g54
(dp4224
g74
g75
ssg63
g4218
sg56
(lp4225
S'subtitle'
p4226
asbag49
(g70
g51
NtRp4227
(dp4228
g54
(dp4229
g81
g82
ssg63
g4218
sg56
(lp4230
S':'
asbag49
(g70
g51
NtRp4231
(dp4232
g54
(dp4233
sg63
g4218
sg56
(lp4234
g49
(g50
g51
NtRp4235
(dp4236
g54
(dp4237
g62
I5
ssg63
g4231
sg56
(lp4238
g3351
(S's\x12\x00\x00\x00personnalisez-moi!'
tRp4239
asbasbasbag49
(g65
g51
NtRp4240
(dp4241
g54
(dp4242
sg63
g2815
sg56
(lp4243
g49
(g70
g51
NtRp4244
(dp4245
g54
(dp4246
g74
g75
ssg63
g4240
sg56
(lp4247
S'title'
p4248
asbag49
(g70
g51
NtRp4249
(dp4250
g54
(dp4251
g81
g82
ssg63
g4240
sg56
(lp4252
S':'
asbag49
(g70
g51
NtRp4253
(dp4254
g54
(dp4255
sg63
g4240
sg56
(lp4256
g49
(g50
g51
NtRp4257
(dp4258
g54
(dp4259
g62
I5
ssg63
g4253
sg56
(lp4260
S'Init'
p4261
asbasbasbag49
(g65
g51
NtRp4262
(dp4263
g54
(dp4264
sg63
g2815
sg56
(lp4265
g49
(g70
g51
NtRp4266
(dp4267
g54
(dp4268
g74
g75
ssg63
g4262
sg56
(lp4269
g2086
asbag49
(g70
g51
NtRp4270
(dp4271
g54
(dp4272
g81
g82
ssg63
g4262
sg56
(lp4273
S':'
asbag49
(g70
g51
NtRp4274
(dp4275
g54
(dp4276
sg63
g4262
sg56
(lp4277
g49
(g50
g51
NtRp4278
(dp4279
g54
(dp4280
g62
I5
ssg63
g4274
sg56
(lp4281
g2099
asbasbasbag49
(g65
g51
NtRp4282
(dp4283
g54
(dp4284
sg63
g2815
sg56
(lp4285
g49
(g70
g51
NtRp4286
(dp4287
g54
(dp4288
g74
g75
ssg63
g4282
sg56
(lp4289
S'view'
p4290
asbag49
(g70
g51
NtRp4291
(dp4292
g54
(dp4293
g81
g82
ssg63
g4282
sg56
(lp4294
S':'
asbag49
(g70
g51
NtRp4295
(dp4296
g54
(dp4297
sg63
g4282
sg56
(lp4298
g49
(g50
g51
NtRp4299
(dp4300
g54
(dp4301
g62
I5
ssg63
g4295
sg56
(lp4302
S'default/initdbjack.html'
p4303
asbasbasbasbasbsS'locals'
p4304
(dp4305
S'c'
S"'Dexterite'"
p4306
sS'i'
S'2'
sg63
S'2'
sS'Skill3'
p4307
S'3'
sS'Skill2'
p4308
S'2'
sS'Skill1'
p4309
S'1'
sS'level1'
p4310
S"'Technique'"
p4311
sS'level2'
p4312
S"'Mettalerrie'"
p4313
sS'level3'
p4314
S"'Forge'"
p4315
sS'skills'
p4316
S"{'Physique': {'Sport': {'Capoeira': {'bengale': {}}, 'Karate': {'Nord': {}, 'Sud': {}}}}, 'Savoir': {'Informatique': {'Programmation': {'Methode': {'Merise': {}, 'Uml': {}}, 'Python': {'Django': {}, 'Web2py': {}}}}}, 'Technique': {'Mettalerrie': {'Forge': {}}}}"
p4317
sS'carac'
p4318
S"['Force', 'Logique', 'Volonte', 'Charisme', 'Apparence', 'Dexterite']"
p4319
sS'row'
p4320
S"<Row {'Nom': 'Mettalerrie', 'update_record': <fu...lDemande': <gluon.dal.Set object at 0x03D2E5D0>}>"
p4321
sssS'traceback'
p4322
S'Traceback (most recent call last):\n  File "gluon/restricted.py", line 205, in restricted\n  File "C:\\Users\\Bussiere\\Dropbox\\Projets\\jackpoint\\web2py\\applications\\init\\controllers/default.py", line 468, in <module>\n  File "gluon/globals.py", line 173, in <lambda>\n  File "C:\\Users\\Bussiere\\Dropbox\\Projets\\jackpoint\\web2py\\applications\\init\\controllers/default.py", line 339, in initdbjack\nUnboundLocalError: local variable \'level4\' referenced before assignment\n'
p4323
s.