(dp1
S'output'
p2
S"<type 'exceptions.SyntaxError'> EOL while scanning single-quoted string (default/index.html, line 6)"
p3
sS'layer'
p4
S'C:\\Users\\Bussiere\\Dropbox\\Projets\\jackpoint\\web2py\\applications\\init\\views\\default/index.html'
p5
sS'code'
p6
S'response.write(\'<!DOCTYPE HTML>\\r\\n<html>\\r\\n<head>\\r\\n\\t<meta charset="utf-8" />\\r\\n\\t<link rel="stylesheet" href="\', escape=False)\nresponse.write(URL(\'static\', \'stylesheet.css\'))\nresponse.write(\'" />\\r\\n\\t<link rel="icon" type="image/png" href="\', escape=False)\nresponse.write(URL(\'static\',\'gfx/favicon.ico\'))\nresponse.write(\'"/>\\r\\n\\t<!--[if gte IE 9]>\\r\\n\\t<style>\\r\\n\\t\\t.jp-button {\\r\\n\\t\\t\\tfilter:none !important;\\r\\n\\t\\t}\\r\\n\\t</style>\\r\\n\\t<![endif]-->\\r\\n</head>\\r\\n<body>\\r\\n\\t<div id="wrapper">\\r\\n\\t\\t<div id="login_wrapper">\\r\\n\\t\\t\\t<div id="login_container" class="jp-winhandle">\\r\\n\\t\\t\\t\\t<div id="login_window" class="jp-window"><!--style="clip: rect(0px, 657px, 0px, 0px);"-->\\r\\n\\t\\t\\t\\t\\t<div id="logo">\\r\\n\\t\\t\\t\\t\\t\\t<!-- Do not put anything here -->\\r\\n\\t\\t\\t\\t\\t</div>\\r\\n\\t\\t\\t\\t\\t<div id="login_inputs_c">\\r\\n\\t\\t\\t\\t\\t\\t<div id="login_title">LOGIN</div>\\r\\n\\t\\t\\t\\t\\t\\t<div id="login_inputs">\\r\\n\\t\\t\\t\\t\\t\\t\\t<input type="text" placeholder="Username" id="username_input" class="log-input" />\\r\\n\\t\\t\\t\\t\\t\\t\\t<input type="password" placeholder="Password" id="password_input" class="log-input" />\\r\\n\\t\\t\\t\\t\\t\\t\\t<div id="loginbtn_wrapper">\\r\\n\\t\\t\\t\\t\\t\\t\\t\\t<input type="checkbox" id="remember_input" style="margin-right:10px;"/>Remember me for 30 days<br/><br/>\\r\\n\\t\\t\\t\\t\\t\\t\\t\\t<button id="login_submit" class="jp-button">Login</button>\\r\\n\\t\\t\\t\\t\\t\\t\\t</div>\\r\\n\\t\\t\\t\\t\\t\\t</div>\\r\\n\\t\\t\\t\\t\\t</div>\\r\\n\\t\\t\\t\\t</div>\\r\\n\\t\\t\\t</div>\\r\\n\\t\\t\\t<div id="login_faq_wrapper" class="jp-winhandle-left">\\r\\n\\t\\t\\t\\t<div id="login_faq" class="jp-window-left">\\r\\n\\t\\t\\t\\t\\t<span style="padding:0 50px;">FAQ</span><span>Vous avez une invitation? Follow the rabbit...</span>\\r\\n\\t\\t\\t\\t</div>\\r\\n\\t\\t\\t</div>\\r\\n\\t\\t</div>\\r\\n\\t\\t<div id="copyright_wrapper" class="jp-winhandle-left">\\r\\n\\t\\t\\t<div id="copyright_window" class="jp-window-left">\\r\\n\\t\\t\\t\\t<div id="copyright">\\r\\n\\t\\t\\t\\t\\tcopyright &copy; 2012 JackPoint<br/>\\r\\n\\t\\t\\t\\t\\tYour name here\\r\\n\\t\\t\\t\\t</div>\\r\\n\\t\\t\\t</div>\\r\\n\\t\\t</div>\\r\\n\\t</div>\\r\\n\\t<!--\\r\\n\\t<script src="https://ajax.googleapis.com/ajax/libs/jquery/1.7.1/jquery.min.js"></script>\\r\\n\\t<script src="https://ajax.googleapis.com/ajax/libs/jqueryui/1.8.18/jquery-ui.min.js"></script>\\r\\n\\t-->\\r\\n\\t<script src="\', escape=False)\nresponse.write(URL(\'static\',\'js/jquery-1.7.1.min.js))\nresponse.write(\'"></script>\\r\\n\\t<script src="\', escape=False)\nresponse.write(URL(\'static\',\'js/jquery-ui-1.8.18.custom.min.js))\nresponse.write(\'"></script>\\r\\n\\t<!--\\r\\n\\t<script src="js/jquery.mousewheel.js"></script>\\r\\n\\t<script src="js/mwheelIntent.js"></script>\\r\\n\\t<script src="js/jquery.jscrollpane.min.js"></script>\\r\\n\\t-->\\r\\n\\t<script src="\', escape=False)\nresponse.write(URL(\'static\',\'js/raphael-min.js))\nresponse.write(\'"></script>\\r\\n\\t<script src="\', escape=False)\nresponse.write(URL(\'static\',\'js/jackpoint.js))\nresponse.write(\'"></script>\\r\\n</body>\\r\\n</html>\', escape=False)'
p7
sS'snapshot'
p8
(dp9
S'exception'
p10
(dp11
S'__getslice__'
p12
S"<method-wrapper '__getslice__' of exceptions.SyntaxError object at 0x0854F730>"
p13
sS'text'
p14
S'"response.write(URL(\'static\',\'js/jquery-1.7.1.min.js))\\n"'
p15
sS'__str__'
p16
S"<method-wrapper '__str__' of exceptions.SyntaxError object at 0x0854F730>"
p17
sS'__reduce__'
p18
S'<built-in method __reduce__ of exceptions.SyntaxError object at 0x0854F730>'
p19
sS'__dict__'
p20
S'{}'
p21
sS'__init__'
p22
S"<method-wrapper '__init__' of exceptions.SyntaxError object at 0x0854F730>"
p23
sS'__setattr__'
p24
S"<method-wrapper '__setattr__' of exceptions.SyntaxError object at 0x0854F730>"
p25
sS'__reduce_ex__'
p26
S'<built-in method __reduce_ex__ of exceptions.SyntaxError object at 0x0854F730>'
p27
sS'__new__'
p28
S'<built-in method __new__ of type object at 0x1E1CDBD0>'
p29
sS'__class__'
p30
S"<type 'exceptions.SyntaxError'>"
p31
sS'filename'
p32
S"r'C:\\Users\\Bussiere\\Dropbox\\Projets\\jackpoint\\web2py\\applications\\init\\views\\default/index.html'"
p33
sS'lineno'
p34
S'6'
sS'msg'
p35
S"'EOL while scanning single-quoted string'"
p36
sS'__doc__'
p37
S"'Invalid syntax.'"
p38
sS'__getitem__'
p39
S"<method-wrapper '__getitem__' of exceptions.SyntaxError object at 0x0854F730>"
p40
sS'__setstate__'
p41
S'<built-in method __setstate__ of exceptions.SyntaxError object at 0x0854F730>'
p42
sS'__getattribute__'
p43
S"<method-wrapper '__getattribute__' of exceptions.SyntaxError object at 0x0854F730>"
p44
sS'print_file_and_line'
p45
S'None'
p46
sS'args'
p47
S'(\'EOL while scanning single-quoted string\', (r\'C:\\Users\\Bussiere\\Dropbox\\Projets\\jackpoint\\web2py\\applications\\init\\views\\default/index.html\', 6, 53, "response.write(URL(\'static\',\'js/jquery-1.7.1.min.js))\\n"))'
p48
sS'offset'
p49
S'53'
p50
sS'__delattr__'
p51
S"<method-wrapper '__delattr__' of exceptions.SyntaxError object at 0x0854F730>"
p52
sS'__repr__'
p53
S"<method-wrapper '__repr__' of exceptions.SyntaxError object at 0x0854F730>"
p54
sS'__hash__'
p55
S"<method-wrapper '__hash__' of exceptions.SyntaxError object at 0x0854F730>"
p56
ssS'evalue'
p57
S'EOL while scanning single-quoted string (default/index.html, line 6)'
p58
sS'request'
p59
ccopy_reg
_reconstructor
p60
(cgluon.html
BEAUTIFY
p61
c__builtin__
object
p62
NtRp63
(dp64
S'attributes'
p65
(dp66
sS'components'
p67
(lp68
g60
(cgluon.html
TABLE
p69
g62
NtRp70
(dp71
g65
(dp72
S'level'
p73
I5
ssS'parent'
p74
Nsg67
(lp75
g60
(cgluon.html
TR
p76
g62
NtRp77
(dp78
g65
(dp79
sg74
g70
sg67
(lp80
g60
(cgluon.html
TD
p81
g62
NtRp82
(dp83
g65
(dp84
S'_style'
p85
S'font-weight:bold;vertical-align:top'
p86
ssg74
g77
sg67
(lp87
S'ajax'
p88
asbag60
(g81
g62
NtRp89
(dp90
g65
(dp91
S'_valign'
p92
S'top'
p93
ssg74
g77
sg67
(lp94
S':'
asbag60
(g81
g62
NtRp95
(dp96
g65
(dp97
sg74
g77
sg67
(lp98
g60
(g61
g62
NtRp99
(dp100
g65
(dp101
g73
I5
ssg74
g95
sg67
(lp102
S'False'
p103
asbasbasbag60
(g76
g62
NtRp104
(dp105
g65
(dp106
sg74
g70
sg67
(lp107
g60
(g81
g62
NtRp108
(dp109
g65
(dp110
g85
g86
ssg74
g104
sg67
(lp111
S'application'
p112
asbag60
(g81
g62
NtRp113
(dp114
g65
(dp115
g92
g93
ssg74
g104
sg67
(lp116
S':'
asbag60
(g81
g62
NtRp117
(dp118
g65
(dp119
sg74
g104
sg67
(lp120
g60
(g61
g62
NtRp121
(dp122
g65
(dp123
g73
I5
ssg74
g117
sg67
(lp124
S'init'
p125
asbasbasbag60
(g76
g62
NtRp126
(dp127
g65
(dp128
sg74
g70
sg67
(lp129
g60
(g81
g62
NtRp130
(dp131
g65
(dp132
g85
g86
ssg74
g126
sg67
(lp133
g47
asbag60
(g81
g62
NtRp134
(dp135
g65
(dp136
g92
g93
ssg74
g126
sg67
(lp137
S':'
asbag60
(g81
g62
NtRp138
(dp139
g65
(dp140
sg74
g126
sg67
(lp141
g60
(g61
g62
NtRp142
(dp143
g65
(dp144
g73
I5
ssg74
g138
sg67
(lp145
g60
(g69
g62
NtRp146
(dp147
g65
(dp148
g73
I4
ssg74
Nsg67
(lp149
sbasbasbasbag60
(g76
g62
NtRp150
(dp151
g65
(dp152
sg74
g70
sg67
(lp153
g60
(g81
g62
NtRp154
(dp155
g65
(dp156
g85
g86
ssg74
g150
sg67
(lp157
S'body'
p158
asbag60
(g81
g62
NtRp159
(dp160
g65
(dp161
g92
g93
ssg74
g150
sg67
(lp162
S':'
asbag60
(g81
g62
NtRp163
(dp164
g65
(dp165
sg74
g150
sg67
(lp166
g60
(g61
g62
NtRp167
(dp168
g65
(dp169
g73
I5
ssg74
g163
sg67
(lp170
S'<cStringIO.StringO object at 0x082AC420>'
p171
asbasbasbag60
(g76
g62
NtRp172
(dp173
g65
(dp174
sg74
g70
sg67
(lp175
g60
(g81
g62
NtRp176
(dp177
g65
(dp178
g85
g86
ssg74
g172
sg67
(lp179
S'client'
p180
asbag60
(g81
g62
NtRp181
(dp182
g65
(dp183
g92
g93
ssg74
g172
sg67
(lp184
S':'
asbag60
(g81
g62
NtRp185
(dp186
g65
(dp187
sg74
g172
sg67
(lp188
g60
(g61
g62
NtRp189
(dp190
g65
(dp191
g73
I5
ssg74
g185
sg67
(lp192
S'127.0.0.1'
p193
asbasbasbag60
(g76
g62
NtRp194
(dp195
g65
(dp196
sg74
g70
sg67
(lp197
g60
(g81
g62
NtRp198
(dp199
g65
(dp200
g85
g86
ssg74
g194
sg67
(lp201
S'controller'
p202
asbag60
(g81
g62
NtRp203
(dp204
g65
(dp205
g92
g93
ssg74
g194
sg67
(lp206
S':'
asbag60
(g81
g62
NtRp207
(dp208
g65
(dp209
sg74
g194
sg67
(lp210
g60
(g61
g62
NtRp211
(dp212
g65
(dp213
g73
I5
ssg74
g207
sg67
(lp214
S'default'
p215
asbasbasbag60
(g76
g62
NtRp216
(dp217
g65
(dp218
sg74
g70
sg67
(lp219
g60
(g81
g62
NtRp220
(dp221
g65
(dp222
g85
g86
ssg74
g216
sg67
(lp223
S'cookies'
p224
asbag60
(g81
g62
NtRp225
(dp226
g65
(dp227
g92
g93
ssg74
g216
sg67
(lp228
S':'
asbag60
(g81
g62
NtRp229
(dp230
g65
(dp231
sg74
g216
sg67
(lp232
g60
(g61
g62
NtRp233
(dp234
g65
(dp235
g73
I5
ssg74
g229
sg67
(lp236
g60
(g69
g62
NtRp237
(dp238
g65
(dp239
g73
I4
ssg74
Nsg67
(lp240
g60
(g76
g62
NtRp241
(dp242
g65
(dp243
sg74
g237
sg67
(lp244
g60
(g81
g62
NtRp245
(dp246
g65
(dp247
g85
g86
ssg74
g241
sg67
(lp248
S'session_id_admin'
p249
asbag60
(g81
g62
NtRp250
(dp251
g65
(dp252
g92
g93
ssg74
g241
sg67
(lp253
S':'
asbag60
(g81
g62
NtRp254
(dp255
g65
(dp256
sg74
g241
sg67
(lp257
g60
(g61
g62
NtRp258
(dp259
g65
(dp260
g73
I4
ssg74
g254
sg67
(lp261
g60
(g69
g62
NtRp262
(dp263
g65
(dp264
g73
I3
ssg74
Nsg67
(lp265
g60
(g76
g62
NtRp266
(dp267
g65
(dp268
sg74
g262
sg67
(lp269
g60
(g81
g62
NtRp270
(dp271
g65
(dp272
g85
g86
ssg74
g266
sg67
(lp273
S'comment'
p274
asbag60
(g81
g62
NtRp275
(dp276
g65
(dp277
g92
g93
ssg74
g266
sg67
(lp278
S':'
asbag60
(g81
g62
NtRp279
(dp280
g65
(dp281
sg74
g266
sg67
(lp282
g60
(g61
g62
NtRp283
(dp284
g65
(dp285
g73
I3
ssg74
g279
sg67
(lp286
S''
asbasbasbag60
(g76
g62
NtRp287
(dp288
g65
(dp289
sg74
g262
sg67
(lp290
g60
(g81
g62
NtRp291
(dp292
g65
(dp293
g85
g86
ssg74
g287
sg67
(lp294
S'domain'
p295
asbag60
(g81
g62
NtRp296
(dp297
g65
(dp298
g92
g93
ssg74
g287
sg67
(lp299
S':'
asbag60
(g81
g62
NtRp300
(dp301
g65
(dp302
sg74
g287
sg67
(lp303
g60
(g61
g62
NtRp304
(dp305
g65
(dp306
g73
I3
ssg74
g300
sg67
(lp307
S''
asbasbasbag60
(g76
g62
NtRp308
(dp309
g65
(dp310
sg74
g262
sg67
(lp311
g60
(g81
g62
NtRp312
(dp313
g65
(dp314
g85
g86
ssg74
g308
sg67
(lp315
S'expires'
p316
asbag60
(g81
g62
NtRp317
(dp318
g65
(dp319
g92
g93
ssg74
g308
sg67
(lp320
S':'
asbag60
(g81
g62
NtRp321
(dp322
g65
(dp323
sg74
g308
sg67
(lp324
g60
(g61
g62
NtRp325
(dp326
g65
(dp327
g73
I3
ssg74
g321
sg67
(lp328
S''
asbasbasbag60
(g76
g62
NtRp329
(dp330
g65
(dp331
sg74
g262
sg67
(lp332
g60
(g81
g62
NtRp333
(dp334
g65
(dp335
g85
g86
ssg74
g329
sg67
(lp336
S'max-age'
p337
asbag60
(g81
g62
NtRp338
(dp339
g65
(dp340
g92
g93
ssg74
g329
sg67
(lp341
S':'
asbag60
(g81
g62
NtRp342
(dp343
g65
(dp344
sg74
g329
sg67
(lp345
g60
(g61
g62
NtRp346
(dp347
g65
(dp348
g73
I3
ssg74
g342
sg67
(lp349
S''
asbasbasbag60
(g76
g62
NtRp350
(dp351
g65
(dp352
sg74
g262
sg67
(lp353
g60
(g81
g62
NtRp354
(dp355
g65
(dp356
g85
g86
ssg74
g350
sg67
(lp357
S'path'
p358
asbag60
(g81
g62
NtRp359
(dp360
g65
(dp361
g92
g93
ssg74
g350
sg67
(lp362
S':'
asbag60
(g81
g62
NtRp363
(dp364
g65
(dp365
sg74
g350
sg67
(lp366
g60
(g61
g62
NtRp367
(dp368
g65
(dp369
g73
I3
ssg74
g363
sg67
(lp370
S''
asbasbasbag60
(g76
g62
NtRp371
(dp372
g65
(dp373
sg74
g262
sg67
(lp374
g60
(g81
g62
NtRp375
(dp376
g65
(dp377
g85
g86
ssg74
g371
sg67
(lp378
S'secure'
p379
asbag60
(g81
g62
NtRp380
(dp381
g65
(dp382
g92
g93
ssg74
g371
sg67
(lp383
S':'
asbag60
(g81
g62
NtRp384
(dp385
g65
(dp386
sg74
g371
sg67
(lp387
g60
(g61
g62
NtRp388
(dp389
g65
(dp390
g73
I3
ssg74
g384
sg67
(lp391
S''
asbasbasbag60
(g76
g62
NtRp392
(dp393
g65
(dp394
sg74
g262
sg67
(lp395
g60
(g81
g62
NtRp396
(dp397
g65
(dp398
g85
g86
ssg74
g392
sg67
(lp399
S'version'
p400
asbag60
(g81
g62
NtRp401
(dp402
g65
(dp403
g92
g93
ssg74
g392
sg67
(lp404
S':'
asbag60
(g81
g62
NtRp405
(dp406
g65
(dp407
sg74
g392
sg67
(lp408
g60
(g61
g62
NtRp409
(dp410
g65
(dp411
g73
I3
ssg74
g405
sg67
(lp412
S''
asbasbasbasbasbasbasbag60
(g76
g62
NtRp413
(dp414
g65
(dp415
sg74
g237
sg67
(lp416
g60
(g81
g62
NtRp417
(dp418
g65
(dp419
g85
g86
ssg74
g413
sg67
(lp420
S'session_id_init'
p421
asbag60
(g81
g62
NtRp422
(dp423
g65
(dp424
g92
g93
ssg74
g413
sg67
(lp425
S':'
asbag60
(g81
g62
NtRp426
(dp427
g65
(dp428
sg74
g413
sg67
(lp429
g60
(g61
g62
NtRp430
(dp431
g65
(dp432
g73
I4
ssg74
g426
sg67
(lp433
g60
(g69
g62
NtRp434
(dp435
g65
(dp436
g73
I3
ssg74
Nsg67
(lp437
g60
(g76
g62
NtRp438
(dp439
g65
(dp440
sg74
g434
sg67
(lp441
g60
(g81
g62
NtRp442
(dp443
g65
(dp444
g85
g86
ssg74
g438
sg67
(lp445
g274
asbag60
(g81
g62
NtRp446
(dp447
g65
(dp448
g92
g93
ssg74
g438
sg67
(lp449
S':'
asbag60
(g81
g62
NtRp450
(dp451
g65
(dp452
sg74
g438
sg67
(lp453
g60
(g61
g62
NtRp454
(dp455
g65
(dp456
g73
I3
ssg74
g450
sg67
(lp457
S''
asbasbasbag60
(g76
g62
NtRp458
(dp459
g65
(dp460
sg74
g434
sg67
(lp461
g60
(g81
g62
NtRp462
(dp463
g65
(dp464
g85
g86
ssg74
g458
sg67
(lp465
g295
asbag60
(g81
g62
NtRp466
(dp467
g65
(dp468
g92
g93
ssg74
g458
sg67
(lp469
S':'
asbag60
(g81
g62
NtRp470
(dp471
g65
(dp472
sg74
g458
sg67
(lp473
g60
(g61
g62
NtRp474
(dp475
g65
(dp476
g73
I3
ssg74
g470
sg67
(lp477
S''
asbasbasbag60
(g76
g62
NtRp478
(dp479
g65
(dp480
sg74
g434
sg67
(lp481
g60
(g81
g62
NtRp482
(dp483
g65
(dp484
g85
g86
ssg74
g478
sg67
(lp485
g316
asbag60
(g81
g62
NtRp486
(dp487
g65
(dp488
g92
g93
ssg74
g478
sg67
(lp489
S':'
asbag60
(g81
g62
NtRp490
(dp491
g65
(dp492
sg74
g478
sg67
(lp493
g60
(g61
g62
NtRp494
(dp495
g65
(dp496
g73
I3
ssg74
g490
sg67
(lp497
S''
asbasbasbag60
(g76
g62
NtRp498
(dp499
g65
(dp500
sg74
g434
sg67
(lp501
g60
(g81
g62
NtRp502
(dp503
g65
(dp504
g85
g86
ssg74
g498
sg67
(lp505
g337
asbag60
(g81
g62
NtRp506
(dp507
g65
(dp508
g92
g93
ssg74
g498
sg67
(lp509
S':'
asbag60
(g81
g62
NtRp510
(dp511
g65
(dp512
sg74
g498
sg67
(lp513
g60
(g61
g62
NtRp514
(dp515
g65
(dp516
g73
I3
ssg74
g510
sg67
(lp517
S''
asbasbasbag60
(g76
g62
NtRp518
(dp519
g65
(dp520
sg74
g434
sg67
(lp521
g60
(g81
g62
NtRp522
(dp523
g65
(dp524
g85
g86
ssg74
g518
sg67
(lp525
g358
asbag60
(g81
g62
NtRp526
(dp527
g65
(dp528
g92
g93
ssg74
g518
sg67
(lp529
S':'
asbag60
(g81
g62
NtRp530
(dp531
g65
(dp532
sg74
g518
sg67
(lp533
g60
(g61
g62
NtRp534
(dp535
g65
(dp536
g73
I3
ssg74
g530
sg67
(lp537
S''
asbasbasbag60
(g76
g62
NtRp538
(dp539
g65
(dp540
sg74
g434
sg67
(lp541
g60
(g81
g62
NtRp542
(dp543
g65
(dp544
g85
g86
ssg74
g538
sg67
(lp545
g379
asbag60
(g81
g62
NtRp546
(dp547
g65
(dp548
g92
g93
ssg74
g538
sg67
(lp549
S':'
asbag60
(g81
g62
NtRp550
(dp551
g65
(dp552
sg74
g538
sg67
(lp553
g60
(g61
g62
NtRp554
(dp555
g65
(dp556
g73
I3
ssg74
g550
sg67
(lp557
S''
asbasbasbag60
(g76
g62
NtRp558
(dp559
g65
(dp560
sg74
g434
sg67
(lp561
g60
(g81
g62
NtRp562
(dp563
g65
(dp564
g85
g86
ssg74
g558
sg67
(lp565
g400
asbag60
(g81
g62
NtRp566
(dp567
g65
(dp568
g92
g93
ssg74
g558
sg67
(lp569
S':'
asbag60
(g81
g62
NtRp570
(dp571
g65
(dp572
sg74
g558
sg67
(lp573
g60
(g61
g62
NtRp574
(dp575
g65
(dp576
g73
I3
ssg74
g570
sg67
(lp577
S''
asbasbasbasbasbasbasbasbasbasbasbag60
(g76
g62
NtRp578
(dp579
g65
(dp580
sg74
g70
sg67
(lp581
g60
(g81
g62
NtRp582
(dp583
g65
(dp584
g85
g86
ssg74
g578
sg67
(lp585
S'env'
p586
asbag60
(g81
g62
NtRp587
(dp588
g65
(dp589
g92
g93
ssg74
g578
sg67
(lp590
S':'
asbag60
(g81
g62
NtRp591
(dp592
g65
(dp593
sg74
g578
sg67
(lp594
g60
(g61
g62
NtRp595
(dp596
g65
(dp597
g73
I5
ssg74
g591
sg67
(lp598
g60
(g69
g62
NtRp599
(dp600
g65
(dp601
g73
I4
ssg74
Nsg67
(lp602
g60
(g76
g62
NtRp603
(dp604
g65
(dp605
sg74
g599
sg67
(lp606
g60
(g81
g62
NtRp607
(dp608
g65
(dp609
g85
g86
ssg74
g603
sg67
(lp610
S'app_folders'
p611
asbag60
(g81
g62
NtRp612
(dp613
g65
(dp614
g92
g93
ssg74
g603
sg67
(lp615
S':'
asbag60
(g81
g62
NtRp616
(dp617
g65
(dp618
sg74
g603
sg67
(lp619
g60
(g61
g62
NtRp620
(dp621
g65
(dp622
g73
I4
ssg74
g616
sg67
(lp623
S"set(['C:\\\\Users\\\\Bussiere\\\\Dropbox\\\\Projets\\\\jackpoint\\\\web2py\\\\applications\\\\init\\\\', 'C:\\\\Users\\\\Bussiere\\\\Dropbox\\\\Projets\\\\jackpoint\\\\web2py\\\\applications\\\\admin\\\\'])"
p624
asbasbasbag60
(g76
g62
NtRp625
(dp626
g65
(dp627
sg74
g599
sg67
(lp628
g60
(g81
g62
NtRp629
(dp630
g65
(dp631
g85
g86
ssg74
g625
sg67
(lp632
S'applications_parent'
p633
asbag60
(g81
g62
NtRp634
(dp635
g65
(dp636
g92
g93
ssg74
g625
sg67
(lp637
S':'
asbag60
(g81
g62
NtRp638
(dp639
g65
(dp640
sg74
g625
sg67
(lp641
g60
(g61
g62
NtRp642
(dp643
g65
(dp644
g73
I4
ssg74
g638
sg67
(lp645
S'C:\\Users\\Bussiere\\Dropbox\\Projets\\jackpoint\\web2py'
p646
asbasbasbag60
(g76
g62
NtRp647
(dp648
g65
(dp649
sg74
g599
sg67
(lp650
g60
(g81
g62
NtRp651
(dp652
g65
(dp653
g85
g86
ssg74
g647
sg67
(lp654
S'cmd_args'
p655
asbag60
(g81
g62
NtRp656
(dp657
g65
(dp658
g92
g93
ssg74
g647
sg67
(lp659
S':'
asbag60
(g81
g62
NtRp660
(dp661
g65
(dp662
sg74
g647
sg67
(lp663
g60
(g61
g62
NtRp664
(dp665
g65
(dp666
g73
I4
ssg74
g660
sg67
(lp667
g60
(g69
g62
NtRp668
(dp669
g65
(dp670
g73
I3
ssg74
Nsg67
(lp671
sbasbasbasbag60
(g76
g62
NtRp672
(dp673
g65
(dp674
sg74
g599
sg67
(lp675
g60
(g81
g62
NtRp676
(dp677
g65
(dp678
g85
g86
ssg74
g672
sg67
(lp679
S'cmd_options'
p680
asbag60
(g81
g62
NtRp681
(dp682
g65
(dp683
g92
g93
ssg74
g672
sg67
(lp684
S':'
asbag60
(g81
g62
NtRp685
(dp686
g65
(dp687
sg74
g672
sg67
(lp688
g60
(g61
g62
NtRp689
(dp690
g65
(dp691
g73
I4
ssg74
g685
sg67
(lp692
S"<Values at 0x3ca5fa8: {'verbose': False, 'ip': '127.0.0.1', 'shutdown_timeout': 5, 'taskbar': False, 'nocron': False, 'pid_filename': 'httpserver.pid', 'maxthreads': None, 'softcron': False, 'server_name': 'Batou', 'bpython': False, 'nogui': False, 'port': 8000, 'extcron': False, 'debuglevel': 30, 'test': None, 'folder': 'C:\\\\Users\\\\Bussiere\\\\Dropbox\\\\Projets\\\\jackpoint\\\\web2py', 'config': '', 'import_models': False, 'winservice': '', 'shell': None, 'run': '', 'log_filename': 'httpserver.log', 'args': [''], 'socket_timeout': 5, 'ssl_ca_certificate': None, 'scheduler': None, 'profiler_filename': None, 'ssl_private_key': '', 'password': '<ask>', 'request_queue_size': 5, 'ssl_certificate': '', 'cronjob': False, 'numthreads': None, 'quiet': False, 'interfaces': None, 'minthreads': None, 'timeout': 10, 'plain': False, 'nobanner': False}>"
p693
asbasbasbag60
(g76
g62
NtRp694
(dp695
g65
(dp696
sg74
g599
sg67
(lp697
g60
(g81
g62
NtRp698
(dp699
g65
(dp700
g85
g86
ssg74
g694
sg67
(lp701
S'db_sessions'
p702
asbag60
(g81
g62
NtRp703
(dp704
g65
(dp705
g92
g93
ssg74
g694
sg67
(lp706
S':'
asbag60
(g81
g62
NtRp707
(dp708
g65
(dp709
sg74
g694
sg67
(lp710
g60
(g61
g62
NtRp711
(dp712
g65
(dp713
g73
I4
ssg74
g707
sg67
(lp714
S"set(['init'])"
p715
asbasbasbag60
(g76
g62
NtRp716
(dp717
g65
(dp718
sg74
g599
sg67
(lp719
g60
(g81
g62
NtRp720
(dp721
g65
(dp722
g85
g86
ssg74
g716
sg67
(lp723
S'debugging'
p724
asbag60
(g81
g62
NtRp725
(dp726
g65
(dp727
g92
g93
ssg74
g716
sg67
(lp728
S':'
asbag60
(g81
g62
NtRp729
(dp730
g65
(dp731
sg74
g716
sg67
(lp732
g60
(g61
g62
NtRp733
(dp734
g65
(dp735
g73
I4
ssg74
g729
sg67
(lp736
S'True'
p737
asbasbasbag60
(g76
g62
NtRp738
(dp739
g65
(dp740
sg74
g599
sg67
(lp741
g60
(g81
g62
NtRp742
(dp743
g65
(dp744
g85
g86
ssg74
g738
sg67
(lp745
S'gluon_parent'
p746
asbag60
(g81
g62
NtRp747
(dp748
g65
(dp749
g92
g93
ssg74
g738
sg67
(lp750
S':'
asbag60
(g81
g62
NtRp751
(dp752
g65
(dp753
sg74
g738
sg67
(lp754
g60
(g61
g62
NtRp755
(dp756
g65
(dp757
g73
I4
ssg74
g751
sg67
(lp758
S'C:\\Users\\Bussiere\\Dropbox\\Projets\\jackpoint\\web2py'
p759
asbasbasbag60
(g76
g62
NtRp760
(dp761
g65
(dp762
sg74
g599
sg67
(lp763
g60
(g81
g62
NtRp764
(dp765
g65
(dp766
g85
g86
ssg74
g760
sg67
(lp767
S'http_accept'
p768
asbag60
(g81
g62
NtRp769
(dp770
g65
(dp771
g92
g93
ssg74
g760
sg67
(lp772
S':'
asbag60
(g81
g62
NtRp773
(dp774
g65
(dp775
sg74
g760
sg67
(lp776
g60
(g61
g62
NtRp777
(dp778
g65
(dp779
g73
I4
ssg74
g773
sg67
(lp780
S'text/html,application/xhtml+xml,application/xml;q=0.9,*/*;q=0.8'
p781
asbasbasbag60
(g76
g62
NtRp782
(dp783
g65
(dp784
sg74
g599
sg67
(lp785
g60
(g81
g62
NtRp786
(dp787
g65
(dp788
g85
g86
ssg74
g782
sg67
(lp789
S'http_accept_charset'
p790
asbag60
(g81
g62
NtRp791
(dp792
g65
(dp793
g92
g93
ssg74
g782
sg67
(lp794
S':'
asbag60
(g81
g62
NtRp795
(dp796
g65
(dp797
sg74
g782
sg67
(lp798
g60
(g61
g62
NtRp799
(dp800
g65
(dp801
g73
I4
ssg74
g795
sg67
(lp802
S'ISO-8859-1,utf-8;q=0.7,*;q=0.3'
p803
asbasbasbag60
(g76
g62
NtRp804
(dp805
g65
(dp806
sg74
g599
sg67
(lp807
g60
(g81
g62
NtRp808
(dp809
g65
(dp810
g85
g86
ssg74
g804
sg67
(lp811
S'http_accept_encoding'
p812
asbag60
(g81
g62
NtRp813
(dp814
g65
(dp815
g92
g93
ssg74
g804
sg67
(lp816
S':'
asbag60
(g81
g62
NtRp817
(dp818
g65
(dp819
sg74
g804
sg67
(lp820
g60
(g61
g62
NtRp821
(dp822
g65
(dp823
g73
I4
ssg74
g817
sg67
(lp824
S'gzip,deflate,sdch'
p825
asbasbasbag60
(g76
g62
NtRp826
(dp827
g65
(dp828
sg74
g599
sg67
(lp829
g60
(g81
g62
NtRp830
(dp831
g65
(dp832
g85
g86
ssg74
g826
sg67
(lp833
S'http_accept_language'
p834
asbag60
(g81
g62
NtRp835
(dp836
g65
(dp837
g92
g93
ssg74
g826
sg67
(lp838
S':'
asbag60
(g81
g62
NtRp839
(dp840
g65
(dp841
sg74
g826
sg67
(lp842
g60
(g61
g62
NtRp843
(dp844
g65
(dp845
g73
I4
ssg74
g839
sg67
(lp846
S'en-US,en;q=0.8'
p847
asbasbasbag60
(g76
g62
NtRp848
(dp849
g65
(dp850
sg74
g599
sg67
(lp851
g60
(g81
g62
NtRp852
(dp853
g65
(dp854
g85
g86
ssg74
g848
sg67
(lp855
S'http_cache_control'
p856
asbag60
(g81
g62
NtRp857
(dp858
g65
(dp859
g92
g93
ssg74
g848
sg67
(lp860
S':'
asbag60
(g81
g62
NtRp861
(dp862
g65
(dp863
sg74
g848
sg67
(lp864
g60
(g61
g62
NtRp865
(dp866
g65
(dp867
g73
I4
ssg74
g861
sg67
(lp868
S'max-age=0'
p869
asbasbasbag60
(g76
g62
NtRp870
(dp871
g65
(dp872
sg74
g599
sg67
(lp873
g60
(g81
g62
NtRp874
(dp875
g65
(dp876
g85
g86
ssg74
g870
sg67
(lp877
S'http_connection'
p878
asbag60
(g81
g62
NtRp879
(dp880
g65
(dp881
g92
g93
ssg74
g870
sg67
(lp882
S':'
asbag60
(g81
g62
NtRp883
(dp884
g65
(dp885
sg74
g870
sg67
(lp886
g60
(g61
g62
NtRp887
(dp888
g65
(dp889
g73
I4
ssg74
g883
sg67
(lp890
S'keep-alive'
p891
asbasbasbag60
(g76
g62
NtRp892
(dp893
g65
(dp894
sg74
g599
sg67
(lp895
g60
(g81
g62
NtRp896
(dp897
g65
(dp898
g85
g86
ssg74
g892
sg67
(lp899
S'http_cookie'
p900
asbag60
(g81
g62
NtRp901
(dp902
g65
(dp903
g92
g93
ssg74
g892
sg67
(lp904
S':'
asbag60
(g81
g62
NtRp905
(dp906
g65
(dp907
sg74
g892
sg67
(lp908
g60
(g61
g62
NtRp909
(dp910
g65
(dp911
g73
I4
ssg74
g905
sg67
(lp912
S'session_id_init="23:f93ffc77-47dd-4300-b481-5f82165b57dd"; session_id_admin=127.0.0.1-a69eea23-17df-4add-a515-fbbf1b4e8ac7'
p913
asbasbasbag60
(g76
g62
NtRp914
(dp915
g65
(dp916
sg74
g599
sg67
(lp917
g60
(g81
g62
NtRp918
(dp919
g65
(dp920
g85
g86
ssg74
g914
sg67
(lp921
S'http_host'
p922
asbag60
(g81
g62
NtRp923
(dp924
g65
(dp925
g92
g93
ssg74
g914
sg67
(lp926
S':'
asbag60
(g81
g62
NtRp927
(dp928
g65
(dp929
sg74
g914
sg67
(lp930
g60
(g61
g62
NtRp931
(dp932
g65
(dp933
g73
I4
ssg74
g927
sg67
(lp934
S'127.0.0.1:8000'
p935
asbasbasbag60
(g76
g62
NtRp936
(dp937
g65
(dp938
sg74
g599
sg67
(lp939
g60
(g81
g62
NtRp940
(dp941
g65
(dp942
g85
g86
ssg74
g936
sg67
(lp943
S'http_user_agent'
p944
asbag60
(g81
g62
NtRp945
(dp946
g65
(dp947
g92
g93
ssg74
g936
sg67
(lp948
S':'
asbag60
(g81
g62
NtRp949
(dp950
g65
(dp951
sg74
g936
sg67
(lp952
g60
(g61
g62
NtRp953
(dp954
g65
(dp955
g73
I4
ssg74
g949
sg67
(lp956
S'Mozilla/5.0 (Windows NT 6.1; WOW64) AppleWebKit/535.18 (KHTML, like Gecko) Chrome/18.0.1011.0 Safari/535.18'
p957
asbasbasbag60
(g76
g62
NtRp958
(dp959
g65
(dp960
sg74
g599
sg67
(lp961
g60
(g81
g62
NtRp962
(dp963
g65
(dp964
g85
g86
ssg74
g958
sg67
(lp965
S'is_jython'
p966
asbag60
(g81
g62
NtRp967
(dp968
g65
(dp969
g92
g93
ssg74
g958
sg67
(lp970
S':'
asbag60
(g81
g62
NtRp971
(dp972
g65
(dp973
sg74
g958
sg67
(lp974
g60
(g61
g62
NtRp975
(dp976
g65
(dp977
g73
I4
ssg74
g971
sg67
(lp978
g103
asbasbasbag60
(g76
g62
NtRp979
(dp980
g65
(dp981
sg74
g599
sg67
(lp982
g60
(g81
g62
NtRp983
(dp984
g65
(dp985
g85
g86
ssg74
g979
sg67
(lp986
S'is_pypy'
p987
asbag60
(g81
g62
NtRp988
(dp989
g65
(dp990
g92
g93
ssg74
g979
sg67
(lp991
S':'
asbag60
(g81
g62
NtRp992
(dp993
g65
(dp994
sg74
g979
sg67
(lp995
g60
(g61
g62
NtRp996
(dp997
g65
(dp998
g73
I4
ssg74
g992
sg67
(lp999
g103
asbasbasbag60
(g76
g62
NtRp1000
(dp1001
g65
(dp1002
sg74
g599
sg67
(lp1003
g60
(g81
g62
NtRp1004
(dp1005
g65
(dp1006
g85
g86
ssg74
g1000
sg67
(lp1007
S'path_info'
p1008
asbag60
(g81
g62
NtRp1009
(dp1010
g65
(dp1011
g92
g93
ssg74
g1000
sg67
(lp1012
S':'
asbag60
(g81
g62
NtRp1013
(dp1014
g65
(dp1015
sg74
g1000
sg67
(lp1016
g60
(g61
g62
NtRp1017
(dp1018
g65
(dp1019
g73
I4
ssg74
g1013
sg67
(lp1020
S'/'
asbasbasbag60
(g76
g62
NtRp1021
(dp1022
g65
(dp1023
sg74
g599
sg67
(lp1024
g60
(g81
g62
NtRp1025
(dp1026
g65
(dp1027
g85
g86
ssg74
g1021
sg67
(lp1028
S'query_string'
p1029
asbag60
(g81
g62
NtRp1030
(dp1031
g65
(dp1032
g92
g93
ssg74
g1021
sg67
(lp1033
S':'
asbag60
(g81
g62
NtRp1034
(dp1035
g65
(dp1036
sg74
g1021
sg67
(lp1037
g60
(g61
g62
NtRp1038
(dp1039
g65
(dp1040
g73
I4
ssg74
g1034
sg67
(lp1041
S''
asbasbasbag60
(g76
g62
NtRp1042
(dp1043
g65
(dp1044
sg74
g599
sg67
(lp1045
g60
(g81
g62
NtRp1046
(dp1047
g65
(dp1048
g85
g86
ssg74
g1042
sg67
(lp1049
S'remote_addr'
p1050
asbag60
(g81
g62
NtRp1051
(dp1052
g65
(dp1053
g92
g93
ssg74
g1042
sg67
(lp1054
S':'
asbag60
(g81
g62
NtRp1055
(dp1056
g65
(dp1057
sg74
g1042
sg67
(lp1058
g60
(g61
g62
NtRp1059
(dp1060
g65
(dp1061
g73
I4
ssg74
g1055
sg67
(lp1062
g193
asbasbasbag60
(g76
g62
NtRp1063
(dp1064
g65
(dp1065
sg74
g599
sg67
(lp1066
g60
(g81
g62
NtRp1067
(dp1068
g65
(dp1069
g85
g86
ssg74
g1063
sg67
(lp1070
S'remote_port'
p1071
asbag60
(g81
g62
NtRp1072
(dp1073
g65
(dp1074
g92
g93
ssg74
g1063
sg67
(lp1075
S':'
asbag60
(g81
g62
NtRp1076
(dp1077
g65
(dp1078
sg74
g1063
sg67
(lp1079
g60
(g61
g62
NtRp1080
(dp1081
g65
(dp1082
g73
I4
ssg74
g1076
sg67
(lp1083
S'58126'
p1084
asbasbasbag60
(g76
g62
NtRp1085
(dp1086
g65
(dp1087
sg74
g599
sg67
(lp1088
g60
(g81
g62
NtRp1089
(dp1090
g65
(dp1091
g85
g86
ssg74
g1085
sg67
(lp1092
S'request_method'
p1093
asbag60
(g81
g62
NtRp1094
(dp1095
g65
(dp1096
g92
g93
ssg74
g1085
sg67
(lp1097
S':'
asbag60
(g81
g62
NtRp1098
(dp1099
g65
(dp1100
sg74
g1085
sg67
(lp1101
g60
(g61
g62
NtRp1102
(dp1103
g65
(dp1104
g73
I4
ssg74
g1098
sg67
(lp1105
S'GET'
p1106
asbasbasbag60
(g76
g62
NtRp1107
(dp1108
g65
(dp1109
sg74
g599
sg67
(lp1110
g60
(g81
g62
NtRp1111
(dp1112
g65
(dp1113
g85
g86
ssg74
g1107
sg67
(lp1114
S'script_name'
p1115
asbag60
(g81
g62
NtRp1116
(dp1117
g65
(dp1118
g92
g93
ssg74
g1107
sg67
(lp1119
S':'
asbag60
(g81
g62
NtRp1120
(dp1121
g65
(dp1122
sg74
g1107
sg67
(lp1123
g60
(g61
g62
NtRp1124
(dp1125
g65
(dp1126
g73
I4
ssg74
g1120
sg67
(lp1127
S''
asbasbasbag60
(g76
g62
NtRp1128
(dp1129
g65
(dp1130
sg74
g599
sg67
(lp1131
g60
(g81
g62
NtRp1132
(dp1133
g65
(dp1134
g85
g86
ssg74
g1128
sg67
(lp1135
S'server_name'
p1136
asbag60
(g81
g62
NtRp1137
(dp1138
g65
(dp1139
g92
g93
ssg74
g1128
sg67
(lp1140
S':'
asbag60
(g81
g62
NtRp1141
(dp1142
g65
(dp1143
sg74
g1128
sg67
(lp1144
g60
(g61
g62
NtRp1145
(dp1146
g65
(dp1147
g73
I4
ssg74
g1141
sg67
(lp1148
S'Batou'
p1149
asbasbasbag60
(g76
g62
NtRp1150
(dp1151
g65
(dp1152
sg74
g599
sg67
(lp1153
g60
(g81
g62
NtRp1154
(dp1155
g65
(dp1156
g85
g86
ssg74
g1150
sg67
(lp1157
S'server_port'
p1158
asbag60
(g81
g62
NtRp1159
(dp1160
g65
(dp1161
g92
g93
ssg74
g1150
sg67
(lp1162
S':'
asbag60
(g81
g62
NtRp1163
(dp1164
g65
(dp1165
sg74
g1150
sg67
(lp1166
g60
(g61
g62
NtRp1167
(dp1168
g65
(dp1169
g73
I4
ssg74
g1163
sg67
(lp1170
S'8000'
p1171
asbasbasbag60
(g76
g62
NtRp1172
(dp1173
g65
(dp1174
sg74
g599
sg67
(lp1175
g60
(g81
g62
NtRp1176
(dp1177
g65
(dp1178
g85
g86
ssg74
g1172
sg67
(lp1179
S'server_protocol'
p1180
asbag60
(g81
g62
NtRp1181
(dp1182
g65
(dp1183
g92
g93
ssg74
g1172
sg67
(lp1184
S':'
asbag60
(g81
g62
NtRp1185
(dp1186
g65
(dp1187
sg74
g1172
sg67
(lp1188
g60
(g61
g62
NtRp1189
(dp1190
g65
(dp1191
g73
I4
ssg74
g1185
sg67
(lp1192
S'HTTP/1.1'
p1193
asbasbasbag60
(g76
g62
NtRp1194
(dp1195
g65
(dp1196
sg74
g599
sg67
(lp1197
g60
(g81
g62
NtRp1198
(dp1199
g65
(dp1200
g85
g86
ssg74
g1194
sg67
(lp1201
S'server_software'
p1202
asbag60
(g81
g62
NtRp1203
(dp1204
g65
(dp1205
g92
g93
ssg74
g1194
sg67
(lp1206
S':'
asbag60
(g81
g62
NtRp1207
(dp1208
g65
(dp1209
sg74
g1194
sg67
(lp1210
g60
(g61
g62
NtRp1211
(dp1212
g65
(dp1213
g73
I4
ssg74
g1207
sg67
(lp1214
S'Rocket 1.2.4'
p1215
asbasbasbag60
(g76
g62
NtRp1216
(dp1217
g65
(dp1218
sg74
g599
sg67
(lp1219
g60
(g81
g62
NtRp1220
(dp1221
g65
(dp1222
g85
g86
ssg74
g1216
sg67
(lp1223
S'web2py_crontype'
p1224
asbag60
(g81
g62
NtRp1225
(dp1226
g65
(dp1227
g92
g93
ssg74
g1216
sg67
(lp1228
S':'
asbag60
(g81
g62
NtRp1229
(dp1230
g65
(dp1231
sg74
g1216
sg67
(lp1232
g60
(g61
g62
NtRp1233
(dp1234
g65
(dp1235
g73
I4
ssg74
g1229
sg67
(lp1236
S'hard'
p1237
asbasbasbag60
(g76
g62
NtRp1238
(dp1239
g65
(dp1240
sg74
g599
sg67
(lp1241
g60
(g81
g62
NtRp1242
(dp1243
g65
(dp1244
g85
g86
ssg74
g1238
sg67
(lp1245
S'web2py_path'
p1246
asbag60
(g81
g62
NtRp1247
(dp1248
g65
(dp1249
g92
g93
ssg74
g1238
sg67
(lp1250
S':'
asbag60
(g81
g62
NtRp1251
(dp1252
g65
(dp1253
sg74
g1238
sg67
(lp1254
g60
(g61
g62
NtRp1255
(dp1256
g65
(dp1257
g73
I4
ssg74
g1251
sg67
(lp1258
g646
asbasbasbag60
(g76
g62
NtRp1259
(dp1260
g65
(dp1261
sg74
g599
sg67
(lp1262
g60
(g81
g62
NtRp1263
(dp1264
g65
(dp1265
g85
g86
ssg74
g1259
sg67
(lp1266
S'web2py_version'
p1267
asbag60
(g81
g62
NtRp1268
(dp1269
g65
(dp1270
g92
g93
ssg74
g1259
sg67
(lp1271
S':'
asbag60
(g81
g62
NtRp1272
(dp1273
g65
(dp1274
sg74
g1259
sg67
(lp1275
g60
(g61
g62
NtRp1276
(dp1277
g65
(dp1278
g73
I4
ssg74
g1272
sg67
(lp1279
g60
(g69
g62
NtRp1280
(dp1281
g65
(dp1282
g73
I3
ssg74
Nsg67
(lp1283
g60
(g76
g62
NtRp1284
(dp1285
g65
(dp1286
sg74
g1280
sg67
(lp1287
g60
(g81
g62
NtRp1288
(dp1289
g65
(dp1290
sg74
g1284
sg67
(lp1291
g60
(g61
g62
NtRp1292
(dp1293
g65
(dp1294
g73
I3
ssg74
g1288
sg67
(lp1295
S'1'
asbasbasbag60
(g76
g62
NtRp1296
(dp1297
g65
(dp1298
sg74
g1280
sg67
(lp1299
g60
(g81
g62
NtRp1300
(dp1301
g65
(dp1302
sg74
g1296
sg67
(lp1303
g60
(g61
g62
NtRp1304
(dp1305
g65
(dp1306
g73
I3
ssg74
g1300
sg67
(lp1307
S'99'
p1308
asbasbasbag60
(g76
g62
NtRp1309
(dp1310
g65
(dp1311
sg74
g1280
sg67
(lp1312
g60
(g81
g62
NtRp1313
(dp1314
g65
(dp1315
sg74
g1309
sg67
(lp1316
g60
(g61
g62
NtRp1317
(dp1318
g65
(dp1319
g73
I3
ssg74
g1313
sg67
(lp1320
S'7'
asbasbasbag60
(g76
g62
NtRp1321
(dp1322
g65
(dp1323
sg74
g1280
sg67
(lp1324
g60
(g81
g62
NtRp1325
(dp1326
g65
(dp1327
sg74
g1321
sg67
(lp1328
g60
(g61
g62
NtRp1329
(dp1330
g65
(dp1331
g73
I3
ssg74
g1325
sg67
(lp1332
S'datetime.datetime(2012, 3, 4, 22, 12, 8)'
p1333
asbasbasbag60
(g76
g62
NtRp1334
(dp1335
g65
(dp1336
sg74
g1280
sg67
(lp1337
g60
(g81
g62
NtRp1338
(dp1339
g65
(dp1340
sg74
g1334
sg67
(lp1341
g60
(g61
g62
NtRp1342
(dp1343
g65
(dp1344
g73
I3
ssg74
g1338
sg67
(lp1345
S'stable'
p1346
asbasbasbasbasbasbasbag60
(g76
g62
NtRp1347
(dp1348
g65
(dp1349
sg74
g599
sg67
(lp1350
g60
(g81
g62
NtRp1351
(dp1352
g65
(dp1353
g85
g86
ssg74
g1347
sg67
(lp1354
S'wsgi_errors'
p1355
asbag60
(g81
g62
NtRp1356
(dp1357
g65
(dp1358
g92
g93
ssg74
g1347
sg67
(lp1359
S':'
asbag60
(g81
g62
NtRp1360
(dp1361
g65
(dp1362
sg74
g1347
sg67
(lp1363
g60
(g61
g62
NtRp1364
(dp1365
g65
(dp1366
g73
I4
ssg74
g1360
sg67
(lp1367
S"<open file '<stderr>', mode 'w' at 0x004300B0>"
p1368
asbasbasbag60
(g76
g62
NtRp1369
(dp1370
g65
(dp1371
sg74
g599
sg67
(lp1372
g60
(g81
g62
NtRp1373
(dp1374
g65
(dp1375
g85
g86
ssg74
g1369
sg67
(lp1376
S'wsgi_file_wrapper'
p1377
asbag60
(g81
g62
NtRp1378
(dp1379
g65
(dp1380
g92
g93
ssg74
g1369
sg67
(lp1381
S':'
asbag60
(g81
g62
NtRp1382
(dp1383
g65
(dp1384
sg74
g1369
sg67
(lp1385
g60
(g61
g62
NtRp1386
(dp1387
g65
(dp1388
g73
I4
ssg74
g1382
sg67
(lp1389
S'<class wsgiref.util.FileWrapper at 0x02C44900>'
p1390
asbasbasbag60
(g76
g62
NtRp1391
(dp1392
g65
(dp1393
sg74
g599
sg67
(lp1394
g60
(g81
g62
NtRp1395
(dp1396
g65
(dp1397
g85
g86
ssg74
g1391
sg67
(lp1398
S'wsgi_input'
p1399
asbag60
(g81
g62
NtRp1400
(dp1401
g65
(dp1402
g92
g93
ssg74
g1391
sg67
(lp1403
S':'
asbag60
(g81
g62
NtRp1404
(dp1405
g65
(dp1406
sg74
g1391
sg67
(lp1407
g60
(g61
g62
NtRp1408
(dp1409
g65
(dp1410
g73
I4
ssg74
g1404
sg67
(lp1411
S'<socket._fileobject object at 0x044AE3F0>'
p1412
asbasbasbag60
(g76
g62
NtRp1413
(dp1414
g65
(dp1415
sg74
g599
sg67
(lp1416
g60
(g81
g62
NtRp1417
(dp1418
g65
(dp1419
g85
g86
ssg74
g1413
sg67
(lp1420
S'wsgi_multiprocess'
p1421
asbag60
(g81
g62
NtRp1422
(dp1423
g65
(dp1424
g92
g93
ssg74
g1413
sg67
(lp1425
S':'
asbag60
(g81
g62
NtRp1426
(dp1427
g65
(dp1428
sg74
g1413
sg67
(lp1429
g60
(g61
g62
NtRp1430
(dp1431
g65
(dp1432
g73
I4
ssg74
g1426
sg67
(lp1433
g103
asbasbasbag60
(g76
g62
NtRp1434
(dp1435
g65
(dp1436
sg74
g599
sg67
(lp1437
g60
(g81
g62
NtRp1438
(dp1439
g65
(dp1440
g85
g86
ssg74
g1434
sg67
(lp1441
S'wsgi_multithread'
p1442
asbag60
(g81
g62
NtRp1443
(dp1444
g65
(dp1445
g92
g93
ssg74
g1434
sg67
(lp1446
S':'
asbag60
(g81
g62
NtRp1447
(dp1448
g65
(dp1449
sg74
g1434
sg67
(lp1450
g60
(g61
g62
NtRp1451
(dp1452
g65
(dp1453
g73
I4
ssg74
g1447
sg67
(lp1454
g737
asbasbasbag60
(g76
g62
NtRp1455
(dp1456
g65
(dp1457
sg74
g599
sg67
(lp1458
g60
(g81
g62
NtRp1459
(dp1460
g65
(dp1461
g85
g86
ssg74
g1455
sg67
(lp1462
S'wsgi_run_once'
p1463
asbag60
(g81
g62
NtRp1464
(dp1465
g65
(dp1466
g92
g93
ssg74
g1455
sg67
(lp1467
S':'
asbag60
(g81
g62
NtRp1468
(dp1469
g65
(dp1470
sg74
g1455
sg67
(lp1471
g60
(g61
g62
NtRp1472
(dp1473
g65
(dp1474
g73
I4
ssg74
g1468
sg67
(lp1475
g103
asbasbasbag60
(g76
g62
NtRp1476
(dp1477
g65
(dp1478
sg74
g599
sg67
(lp1479
g60
(g81
g62
NtRp1480
(dp1481
g65
(dp1482
g85
g86
ssg74
g1476
sg67
(lp1483
S'wsgi_url_scheme'
p1484
asbag60
(g81
g62
NtRp1485
(dp1486
g65
(dp1487
g92
g93
ssg74
g1476
sg67
(lp1488
S':'
asbag60
(g81
g62
NtRp1489
(dp1490
g65
(dp1491
sg74
g1476
sg67
(lp1492
g60
(g61
g62
NtRp1493
(dp1494
g65
(dp1495
g73
I4
ssg74
g1489
sg67
(lp1496
S'http'
p1497
asbasbasbag60
(g76
g62
NtRp1498
(dp1499
g65
(dp1500
sg74
g599
sg67
(lp1501
g60
(g81
g62
NtRp1502
(dp1503
g65
(dp1504
g85
g86
ssg74
g1498
sg67
(lp1505
S'wsgi_version'
p1506
asbag60
(g81
g62
NtRp1507
(dp1508
g65
(dp1509
g92
g93
ssg74
g1498
sg67
(lp1510
S':'
asbag60
(g81
g62
NtRp1511
(dp1512
g65
(dp1513
sg74
g1498
sg67
(lp1514
g60
(g61
g62
NtRp1515
(dp1516
g65
(dp1517
g73
I4
ssg74
g1511
sg67
(lp1518
g60
(g69
g62
NtRp1519
(dp1520
g65
(dp1521
g73
I3
ssg74
Nsg67
(lp1522
g60
(g76
g62
NtRp1523
(dp1524
g65
(dp1525
sg74
g1519
sg67
(lp1526
g60
(g81
g62
NtRp1527
(dp1528
g65
(dp1529
sg74
g1523
sg67
(lp1530
g60
(g61
g62
NtRp1531
(dp1532
g65
(dp1533
g73
I3
ssg74
g1527
sg67
(lp1534
S'1'
asbasbasbag60
(g76
g62
NtRp1535
(dp1536
g65
(dp1537
sg74
g1519
sg67
(lp1538
g60
(g81
g62
NtRp1539
(dp1540
g65
(dp1541
sg74
g1535
sg67
(lp1542
g60
(g61
g62
NtRp1543
(dp1544
g65
(dp1545
g73
I3
ssg74
g1539
sg67
(lp1546
S'0'
asbasbasbasbasbasbasbasbasbasbasbag60
(g76
g62
NtRp1547
(dp1548
g65
(dp1549
sg74
g70
sg67
(lp1550
g60
(g81
g62
NtRp1551
(dp1552
g65
(dp1553
g85
g86
ssg74
g1547
sg67
(lp1554
S'extension'
p1555
asbag60
(g81
g62
NtRp1556
(dp1557
g65
(dp1558
g92
g93
ssg74
g1547
sg67
(lp1559
S':'
asbag60
(g81
g62
NtRp1560
(dp1561
g65
(dp1562
sg74
g1547
sg67
(lp1563
g60
(g61
g62
NtRp1564
(dp1565
g65
(dp1566
g73
I5
ssg74
g1560
sg67
(lp1567
S'html'
p1568
asbasbasbag60
(g76
g62
NtRp1569
(dp1570
g65
(dp1571
sg74
g70
sg67
(lp1572
g60
(g81
g62
NtRp1573
(dp1574
g65
(dp1575
g85
g86
ssg74
g1569
sg67
(lp1576
S'folder'
p1577
asbag60
(g81
g62
NtRp1578
(dp1579
g65
(dp1580
g92
g93
ssg74
g1569
sg67
(lp1581
S':'
asbag60
(g81
g62
NtRp1582
(dp1583
g65
(dp1584
sg74
g1569
sg67
(lp1585
g60
(g61
g62
NtRp1586
(dp1587
g65
(dp1588
g73
I5
ssg74
g1582
sg67
(lp1589
S'C:\\Users\\Bussiere\\Dropbox\\Projets\\jackpoint\\web2py\\applications\\init\\'
p1590
asbasbasbag60
(g76
g62
NtRp1591
(dp1592
g65
(dp1593
sg74
g70
sg67
(lp1594
g60
(g81
g62
NtRp1595
(dp1596
g65
(dp1597
g85
g86
ssg74
g1591
sg67
(lp1598
S'function'
p1599
asbag60
(g81
g62
NtRp1600
(dp1601
g65
(dp1602
g92
g93
ssg74
g1591
sg67
(lp1603
S':'
asbag60
(g81
g62
NtRp1604
(dp1605
g65
(dp1606
sg74
g1591
sg67
(lp1607
g60
(g61
g62
NtRp1608
(dp1609
g65
(dp1610
g73
I5
ssg74
g1604
sg67
(lp1611
S'index'
p1612
asbasbasbag60
(g76
g62
NtRp1613
(dp1614
g65
(dp1615
sg74
g70
sg67
(lp1616
g60
(g81
g62
NtRp1617
(dp1618
g65
(dp1619
g85
g86
ssg74
g1613
sg67
(lp1620
S'get_vars'
p1621
asbag60
(g81
g62
NtRp1622
(dp1623
g65
(dp1624
g92
g93
ssg74
g1613
sg67
(lp1625
S':'
asbag60
(g81
g62
NtRp1626
(dp1627
g65
(dp1628
sg74
g1613
sg67
(lp1629
g60
(g61
g62
NtRp1630
(dp1631
g65
(dp1632
g73
I5
ssg74
g1626
sg67
(lp1633
g60
(g69
g62
NtRp1634
(dp1635
g65
(dp1636
g73
I4
ssg74
Nsg67
(lp1637
sbasbasbasbag60
(g76
g62
NtRp1638
(dp1639
g65
(dp1640
sg74
g70
sg67
(lp1641
g60
(g81
g62
NtRp1642
(dp1643
g65
(dp1644
g85
g86
ssg74
g1638
sg67
(lp1645
S'global_settings'
p1646
asbag60
(g81
g62
NtRp1647
(dp1648
g65
(dp1649
g92
g93
ssg74
g1638
sg67
(lp1650
S':'
asbag60
(g81
g62
NtRp1651
(dp1652
g65
(dp1653
sg74
g1638
sg67
(lp1654
g60
(g61
g62
NtRp1655
(dp1656
g65
(dp1657
g73
I5
ssg74
g1651
sg67
(lp1658
g60
(g69
g62
NtRp1659
(dp1660
g65
(dp1661
g73
I4
ssg74
Nsg67
(lp1662
g60
(g76
g62
NtRp1663
(dp1664
g65
(dp1665
sg74
g1659
sg67
(lp1666
g60
(g81
g62
NtRp1667
(dp1668
g65
(dp1669
g85
g86
ssg74
g1663
sg67
(lp1670
g611
asbag60
(g81
g62
NtRp1671
(dp1672
g65
(dp1673
g92
g93
ssg74
g1663
sg67
(lp1674
S':'
asbag60
(g81
g62
NtRp1675
(dp1676
g65
(dp1677
sg74
g1663
sg67
(lp1678
g60
(g61
g62
NtRp1679
(dp1680
g65
(dp1681
g73
I4
ssg74
g1675
sg67
(lp1682
S"set(['C:\\\\Users\\\\Bussiere\\\\Dropbox\\\\Projets\\\\jackpoint\\\\web2py\\\\applications\\\\init\\\\', 'C:\\\\Users\\\\Bussiere\\\\Dropbox\\\\Projets\\\\jackpoint\\\\web2py\\\\applications\\\\admin\\\\'])"
p1683
asbasbasbag60
(g76
g62
NtRp1684
(dp1685
g65
(dp1686
sg74
g1659
sg67
(lp1687
g60
(g81
g62
NtRp1688
(dp1689
g65
(dp1690
g85
g86
ssg74
g1684
sg67
(lp1691
g633
asbag60
(g81
g62
NtRp1692
(dp1693
g65
(dp1694
g92
g93
ssg74
g1684
sg67
(lp1695
S':'
asbag60
(g81
g62
NtRp1696
(dp1697
g65
(dp1698
sg74
g1684
sg67
(lp1699
g60
(g61
g62
NtRp1700
(dp1701
g65
(dp1702
g73
I4
ssg74
g1696
sg67
(lp1703
g646
asbasbasbag60
(g76
g62
NtRp1704
(dp1705
g65
(dp1706
sg74
g1659
sg67
(lp1707
g60
(g81
g62
NtRp1708
(dp1709
g65
(dp1710
g85
g86
ssg74
g1704
sg67
(lp1711
g655
asbag60
(g81
g62
NtRp1712
(dp1713
g65
(dp1714
g92
g93
ssg74
g1704
sg67
(lp1715
S':'
asbag60
(g81
g62
NtRp1716
(dp1717
g65
(dp1718
sg74
g1704
sg67
(lp1719
g60
(g61
g62
NtRp1720
(dp1721
g65
(dp1722
g73
I4
ssg74
g1716
sg67
(lp1723
g60
(g69
g62
NtRp1724
(dp1725
g65
(dp1726
g73
I3
ssg74
Nsg67
(lp1727
sbasbasbasbag60
(g76
g62
NtRp1728
(dp1729
g65
(dp1730
sg74
g1659
sg67
(lp1731
g60
(g81
g62
NtRp1732
(dp1733
g65
(dp1734
g85
g86
ssg74
g1728
sg67
(lp1735
g680
asbag60
(g81
g62
NtRp1736
(dp1737
g65
(dp1738
g92
g93
ssg74
g1728
sg67
(lp1739
S':'
asbag60
(g81
g62
NtRp1740
(dp1741
g65
(dp1742
sg74
g1728
sg67
(lp1743
g60
(g61
g62
NtRp1744
(dp1745
g65
(dp1746
g73
I4
ssg74
g1740
sg67
(lp1747
S"<Values at 0x3ca5fa8: {'verbose': False, 'ip': '127.0.0.1', 'shutdown_timeout': 5, 'taskbar': False, 'nocron': False, 'pid_filename': 'httpserver.pid', 'maxthreads': None, 'softcron': False, 'server_name': 'Batou', 'bpython': False, 'nogui': False, 'port': 8000, 'extcron': False, 'debuglevel': 30, 'test': None, 'folder': 'C:\\\\Users\\\\Bussiere\\\\Dropbox\\\\Projets\\\\jackpoint\\\\web2py', 'config': '', 'import_models': False, 'winservice': '', 'shell': None, 'run': '', 'log_filename': 'httpserver.log', 'args': [''], 'socket_timeout': 5, 'ssl_ca_certificate': None, 'scheduler': None, 'profiler_filename': None, 'ssl_private_key': '', 'password': '<ask>', 'request_queue_size': 5, 'ssl_certificate': '', 'cronjob': False, 'numthreads': None, 'quiet': False, 'interfaces': None, 'minthreads': None, 'timeout': 10, 'plain': False, 'nobanner': False}>"
p1748
asbasbasbag60
(g76
g62
NtRp1749
(dp1750
g65
(dp1751
sg74
g1659
sg67
(lp1752
g60
(g81
g62
NtRp1753
(dp1754
g65
(dp1755
g85
g86
ssg74
g1749
sg67
(lp1756
g702
asbag60
(g81
g62
NtRp1757
(dp1758
g65
(dp1759
g92
g93
ssg74
g1749
sg67
(lp1760
S':'
asbag60
(g81
g62
NtRp1761
(dp1762
g65
(dp1763
sg74
g1749
sg67
(lp1764
g60
(g61
g62
NtRp1765
(dp1766
g65
(dp1767
g73
I4
ssg74
g1761
sg67
(lp1768
S"set(['init'])"
p1769
asbasbasbag60
(g76
g62
NtRp1770
(dp1771
g65
(dp1772
sg74
g1659
sg67
(lp1773
g60
(g81
g62
NtRp1774
(dp1775
g65
(dp1776
g85
g86
ssg74
g1770
sg67
(lp1777
g724
asbag60
(g81
g62
NtRp1778
(dp1779
g65
(dp1780
g92
g93
ssg74
g1770
sg67
(lp1781
S':'
asbag60
(g81
g62
NtRp1782
(dp1783
g65
(dp1784
sg74
g1770
sg67
(lp1785
g60
(g61
g62
NtRp1786
(dp1787
g65
(dp1788
g73
I4
ssg74
g1782
sg67
(lp1789
g737
asbasbasbag60
(g76
g62
NtRp1790
(dp1791
g65
(dp1792
sg74
g1659
sg67
(lp1793
g60
(g81
g62
NtRp1794
(dp1795
g65
(dp1796
g85
g86
ssg74
g1790
sg67
(lp1797
g746
asbag60
(g81
g62
NtRp1798
(dp1799
g65
(dp1800
g92
g93
ssg74
g1790
sg67
(lp1801
S':'
asbag60
(g81
g62
NtRp1802
(dp1803
g65
(dp1804
sg74
g1790
sg67
(lp1805
g60
(g61
g62
NtRp1806
(dp1807
g65
(dp1808
g73
I4
ssg74
g1802
sg67
(lp1809
g759
asbasbasbag60
(g76
g62
NtRp1810
(dp1811
g65
(dp1812
sg74
g1659
sg67
(lp1813
g60
(g81
g62
NtRp1814
(dp1815
g65
(dp1816
g85
g86
ssg74
g1810
sg67
(lp1817
g966
asbag60
(g81
g62
NtRp1818
(dp1819
g65
(dp1820
g92
g93
ssg74
g1810
sg67
(lp1821
S':'
asbag60
(g81
g62
NtRp1822
(dp1823
g65
(dp1824
sg74
g1810
sg67
(lp1825
g60
(g61
g62
NtRp1826
(dp1827
g65
(dp1828
g73
I4
ssg74
g1822
sg67
(lp1829
g103
asbasbasbag60
(g76
g62
NtRp1830
(dp1831
g65
(dp1832
sg74
g1659
sg67
(lp1833
g60
(g81
g62
NtRp1834
(dp1835
g65
(dp1836
g85
g86
ssg74
g1830
sg67
(lp1837
g987
asbag60
(g81
g62
NtRp1838
(dp1839
g65
(dp1840
g92
g93
ssg74
g1830
sg67
(lp1841
S':'
asbag60
(g81
g62
NtRp1842
(dp1843
g65
(dp1844
sg74
g1830
sg67
(lp1845
g60
(g61
g62
NtRp1846
(dp1847
g65
(dp1848
g73
I4
ssg74
g1842
sg67
(lp1849
g103
asbasbasbag60
(g76
g62
NtRp1850
(dp1851
g65
(dp1852
sg74
g1659
sg67
(lp1853
g60
(g81
g62
NtRp1854
(dp1855
g65
(dp1856
g85
g86
ssg74
g1850
sg67
(lp1857
g1224
asbag60
(g81
g62
NtRp1858
(dp1859
g65
(dp1860
g92
g93
ssg74
g1850
sg67
(lp1861
S':'
asbag60
(g81
g62
NtRp1862
(dp1863
g65
(dp1864
sg74
g1850
sg67
(lp1865
g60
(g61
g62
NtRp1866
(dp1867
g65
(dp1868
g73
I4
ssg74
g1862
sg67
(lp1869
g1237
asbasbasbag60
(g76
g62
NtRp1870
(dp1871
g65
(dp1872
sg74
g1659
sg67
(lp1873
g60
(g81
g62
NtRp1874
(dp1875
g65
(dp1876
g85
g86
ssg74
g1870
sg67
(lp1877
g1267
asbag60
(g81
g62
NtRp1878
(dp1879
g65
(dp1880
g92
g93
ssg74
g1870
sg67
(lp1881
S':'
asbag60
(g81
g62
NtRp1882
(dp1883
g65
(dp1884
sg74
g1870
sg67
(lp1885
g60
(g61
g62
NtRp1886
(dp1887
g65
(dp1888
g73
I4
ssg74
g1882
sg67
(lp1889
g60
(g69
g62
NtRp1890
(dp1891
g65
(dp1892
g73
I3
ssg74
Nsg67
(lp1893
g60
(g76
g62
NtRp1894
(dp1895
g65
(dp1896
sg74
g1890
sg67
(lp1897
g60
(g81
g62
NtRp1898
(dp1899
g65
(dp1900
sg74
g1894
sg67
(lp1901
g60
(g61
g62
NtRp1902
(dp1903
g65
(dp1904
g73
I3
ssg74
g1898
sg67
(lp1905
S'1'
asbasbasbag60
(g76
g62
NtRp1906
(dp1907
g65
(dp1908
sg74
g1890
sg67
(lp1909
g60
(g81
g62
NtRp1910
(dp1911
g65
(dp1912
sg74
g1906
sg67
(lp1913
g60
(g61
g62
NtRp1914
(dp1915
g65
(dp1916
g73
I3
ssg74
g1910
sg67
(lp1917
S'99'
p1918
asbasbasbag60
(g76
g62
NtRp1919
(dp1920
g65
(dp1921
sg74
g1890
sg67
(lp1922
g60
(g81
g62
NtRp1923
(dp1924
g65
(dp1925
sg74
g1919
sg67
(lp1926
g60
(g61
g62
NtRp1927
(dp1928
g65
(dp1929
g73
I3
ssg74
g1923
sg67
(lp1930
S'7'
asbasbasbag60
(g76
g62
NtRp1931
(dp1932
g65
(dp1933
sg74
g1890
sg67
(lp1934
g60
(g81
g62
NtRp1935
(dp1936
g65
(dp1937
sg74
g1931
sg67
(lp1938
g60
(g61
g62
NtRp1939
(dp1940
g65
(dp1941
g73
I3
ssg74
g1935
sg67
(lp1942
S'datetime.datetime(2012, 3, 4, 22, 12, 8)'
p1943
asbasbasbag60
(g76
g62
NtRp1944
(dp1945
g65
(dp1946
sg74
g1890
sg67
(lp1947
g60
(g81
g62
NtRp1948
(dp1949
g65
(dp1950
sg74
g1944
sg67
(lp1951
g60
(g61
g62
NtRp1952
(dp1953
g65
(dp1954
g73
I3
ssg74
g1948
sg67
(lp1955
g1346
asbasbasbasbasbasbasbasbasbasbasbag60
(g76
g62
NtRp1956
(dp1957
g65
(dp1958
sg74
g70
sg67
(lp1959
g60
(g81
g62
NtRp1960
(dp1961
g65
(dp1962
g85
g86
ssg74
g1956
sg67
(lp1963
S'is_https'
p1964
asbag60
(g81
g62
NtRp1965
(dp1966
g65
(dp1967
g92
g93
ssg74
g1956
sg67
(lp1968
S':'
asbag60
(g81
g62
NtRp1969
(dp1970
g65
(dp1971
sg74
g1956
sg67
(lp1972
g60
(g61
g62
NtRp1973
(dp1974
g65
(dp1975
g73
I5
ssg74
g1969
sg67
(lp1976
g103
asbasbasbag60
(g76
g62
NtRp1977
(dp1978
g65
(dp1979
sg74
g70
sg67
(lp1980
g60
(g81
g62
NtRp1981
(dp1982
g65
(dp1983
g85
g86
ssg74
g1977
sg67
(lp1984
S'is_local'
p1985
asbag60
(g81
g62
NtRp1986
(dp1987
g65
(dp1988
g92
g93
ssg74
g1977
sg67
(lp1989
S':'
asbag60
(g81
g62
NtRp1990
(dp1991
g65
(dp1992
sg74
g1977
sg67
(lp1993
g60
(g61
g62
NtRp1994
(dp1995
g65
(dp1996
g73
I5
ssg74
g1990
sg67
(lp1997
g737
asbasbasbag60
(g76
g62
NtRp1998
(dp1999
g65
(dp2000
sg74
g70
sg67
(lp2001
g60
(g81
g62
NtRp2002
(dp2003
g65
(dp2004
g85
g86
ssg74
g1998
sg67
(lp2005
S'is_restful'
p2006
asbag60
(g81
g62
NtRp2007
(dp2008
g65
(dp2009
g92
g93
ssg74
g1998
sg67
(lp2010
S':'
asbag60
(g81
g62
NtRp2011
(dp2012
g65
(dp2013
sg74
g1998
sg67
(lp2014
g60
(g61
g62
NtRp2015
(dp2016
g65
(dp2017
g73
I5
ssg74
g2011
sg67
(lp2018
g103
asbasbasbag60
(g76
g62
NtRp2019
(dp2020
g65
(dp2021
sg74
g70
sg67
(lp2022
g60
(g81
g62
NtRp2023
(dp2024
g65
(dp2025
g85
g86
ssg74
g2019
sg67
(lp2026
S'now'
p2027
asbag60
(g81
g62
NtRp2028
(dp2029
g65
(dp2030
g92
g93
ssg74
g2019
sg67
(lp2031
S':'
asbag60
(g81
g62
NtRp2032
(dp2033
g65
(dp2034
sg74
g2019
sg67
(lp2035
g60
(g61
g62
NtRp2036
(dp2037
g65
(dp2038
g73
I5
ssg74
g2032
sg67
(lp2039
S'datetime.datetime(2012, 3, 30, 0, 43, 48, 512000)'
p2040
asbasbasbag60
(g76
g62
NtRp2041
(dp2042
g65
(dp2043
sg74
g70
sg67
(lp2044
g60
(g81
g62
NtRp2045
(dp2046
g65
(dp2047
g85
g86
ssg74
g2041
sg67
(lp2048
S'post_vars'
p2049
asbag60
(g81
g62
NtRp2050
(dp2051
g65
(dp2052
g92
g93
ssg74
g2041
sg67
(lp2053
S':'
asbag60
(g81
g62
NtRp2054
(dp2055
g65
(dp2056
sg74
g2041
sg67
(lp2057
g60
(g61
g62
NtRp2058
(dp2059
g65
(dp2060
g73
I5
ssg74
g2054
sg67
(lp2061
g60
(g69
g62
NtRp2062
(dp2063
g65
(dp2064
g73
I4
ssg74
Nsg67
(lp2065
sbasbasbasbag60
(g76
g62
NtRp2066
(dp2067
g65
(dp2068
sg74
g70
sg67
(lp2069
g60
(g81
g62
NtRp2070
(dp2071
g65
(dp2072
g85
g86
ssg74
g2066
sg67
(lp2073
S'url'
p2074
asbag60
(g81
g62
NtRp2075
(dp2076
g65
(dp2077
g92
g93
ssg74
g2066
sg67
(lp2078
S':'
asbag60
(g81
g62
NtRp2079
(dp2080
g65
(dp2081
sg74
g2066
sg67
(lp2082
g60
(g61
g62
NtRp2083
(dp2084
g65
(dp2085
g73
I5
ssg74
g2079
sg67
(lp2086
S'/init/default/index'
p2087
asbasbasbag60
(g76
g62
NtRp2088
(dp2089
g65
(dp2090
sg74
g70
sg67
(lp2091
g60
(g81
g62
NtRp2092
(dp2093
g65
(dp2094
g85
g86
ssg74
g2088
sg67
(lp2095
S'utcnow'
p2096
asbag60
(g81
g62
NtRp2097
(dp2098
g65
(dp2099
g92
g93
ssg74
g2088
sg67
(lp2100
S':'
asbag60
(g81
g62
NtRp2101
(dp2102
g65
(dp2103
sg74
g2088
sg67
(lp2104
g60
(g61
g62
NtRp2105
(dp2106
g65
(dp2107
g73
I5
ssg74
g2101
sg67
(lp2108
S'datetime.datetime(2012, 3, 29, 22, 43, 48, 512000)'
p2109
asbasbasbag60
(g76
g62
NtRp2110
(dp2111
g65
(dp2112
sg74
g70
sg67
(lp2113
g60
(g81
g62
NtRp2114
(dp2115
g65
(dp2116
g85
g86
ssg74
g2110
sg67
(lp2117
S'uuid'
p2118
asbag60
(g81
g62
NtRp2119
(dp2120
g65
(dp2121
g92
g93
ssg74
g2110
sg67
(lp2122
S':'
asbag60
(g81
g62
NtRp2123
(dp2124
g65
(dp2125
sg74
g2110
sg67
(lp2126
g60
(g61
g62
NtRp2127
(dp2128
g65
(dp2129
g73
I5
ssg74
g2123
sg67
(lp2130
S'init/127.0.0.1.2012-03-30.00-43-48.e2683895-9f95-4444-8313-110b45a4bd52'
p2131
asbasbasbag60
(g76
g62
NtRp2132
(dp2133
g65
(dp2134
sg74
g70
sg67
(lp2135
g60
(g81
g62
NtRp2136
(dp2137
g65
(dp2138
g85
g86
ssg74
g2132
sg67
(lp2139
S'vars'
p2140
asbag60
(g81
g62
NtRp2141
(dp2142
g65
(dp2143
g92
g93
ssg74
g2132
sg67
(lp2144
S':'
asbag60
(g81
g62
NtRp2145
(dp2146
g65
(dp2147
sg74
g2132
sg67
(lp2148
g60
(g61
g62
NtRp2149
(dp2150
g65
(dp2151
g73
I5
ssg74
g2145
sg67
(lp2152
g60
(g69
g62
NtRp2153
(dp2154
g65
(dp2155
g73
I4
ssg74
Nsg67
(lp2156
sbasbasbasbag60
(g76
g62
NtRp2157
(dp2158
g65
(dp2159
sg74
g70
sg67
(lp2160
g60
(g81
g62
NtRp2161
(dp2162
g65
(dp2163
g85
g86
ssg74
g2157
sg67
(lp2164
S'wsgi'
p2165
asbag60
(g81
g62
NtRp2166
(dp2167
g65
(dp2168
g92
g93
ssg74
g2157
sg67
(lp2169
S':'
asbag60
(g81
g62
NtRp2170
(dp2171
g65
(dp2172
sg74
g2157
sg67
(lp2173
g60
(g61
g62
NtRp2174
(dp2175
g65
(dp2176
g73
I5
ssg74
g2170
sg67
(lp2177
g60
(g69
g62
NtRp2178
(dp2179
g65
(dp2180
g73
I4
ssg74
Nsg67
(lp2181
g60
(g76
g62
NtRp2182
(dp2183
g65
(dp2184
sg74
g2178
sg67
(lp2185
g60
(g81
g62
NtRp2186
(dp2187
g65
(dp2188
g85
g86
ssg74
g2182
sg67
(lp2189
S'environ'
p2190
asbag60
(g81
g62
NtRp2191
(dp2192
g65
(dp2193
g92
g93
ssg74
g2182
sg67
(lp2194
S':'
asbag60
(g81
g62
NtRp2195
(dp2196
g65
(dp2197
sg74
g2182
sg67
(lp2198
g60
(g61
g62
NtRp2199
(dp2200
g65
(dp2201
g73
I4
ssg74
g2195
sg67
(lp2202
g60
(g69
g62
NtRp2203
(dp2204
g65
(dp2205
g73
I3
ssg74
Nsg67
(lp2206
g60
(g76
g62
NtRp2207
(dp2208
g65
(dp2209
sg74
g2203
sg67
(lp2210
g60
(g81
g62
NtRp2211
(dp2212
g65
(dp2213
g85
g86
ssg74
g2207
sg67
(lp2214
S'HTTP_ACCEPT'
p2215
asbag60
(g81
g62
NtRp2216
(dp2217
g65
(dp2218
g92
g93
ssg74
g2207
sg67
(lp2219
S':'
asbag60
(g81
g62
NtRp2220
(dp2221
g65
(dp2222
sg74
g2207
sg67
(lp2223
g60
(g61
g62
NtRp2224
(dp2225
g65
(dp2226
g73
I3
ssg74
g2220
sg67
(lp2227
g781
asbasbasbag60
(g76
g62
NtRp2228
(dp2229
g65
(dp2230
sg74
g2203
sg67
(lp2231
g60
(g81
g62
NtRp2232
(dp2233
g65
(dp2234
g85
g86
ssg74
g2228
sg67
(lp2235
S'HTTP_ACCEPT_CHARSET'
p2236
asbag60
(g81
g62
NtRp2237
(dp2238
g65
(dp2239
g92
g93
ssg74
g2228
sg67
(lp2240
S':'
asbag60
(g81
g62
NtRp2241
(dp2242
g65
(dp2243
sg74
g2228
sg67
(lp2244
g60
(g61
g62
NtRp2245
(dp2246
g65
(dp2247
g73
I3
ssg74
g2241
sg67
(lp2248
g803
asbasbasbag60
(g76
g62
NtRp2249
(dp2250
g65
(dp2251
sg74
g2203
sg67
(lp2252
g60
(g81
g62
NtRp2253
(dp2254
g65
(dp2255
g85
g86
ssg74
g2249
sg67
(lp2256
S'HTTP_ACCEPT_ENCODING'
p2257
asbag60
(g81
g62
NtRp2258
(dp2259
g65
(dp2260
g92
g93
ssg74
g2249
sg67
(lp2261
S':'
asbag60
(g81
g62
NtRp2262
(dp2263
g65
(dp2264
sg74
g2249
sg67
(lp2265
g60
(g61
g62
NtRp2266
(dp2267
g65
(dp2268
g73
I3
ssg74
g2262
sg67
(lp2269
g825
asbasbasbag60
(g76
g62
NtRp2270
(dp2271
g65
(dp2272
sg74
g2203
sg67
(lp2273
g60
(g81
g62
NtRp2274
(dp2275
g65
(dp2276
g85
g86
ssg74
g2270
sg67
(lp2277
S'HTTP_ACCEPT_LANGUAGE'
p2278
asbag60
(g81
g62
NtRp2279
(dp2280
g65
(dp2281
g92
g93
ssg74
g2270
sg67
(lp2282
S':'
asbag60
(g81
g62
NtRp2283
(dp2284
g65
(dp2285
sg74
g2270
sg67
(lp2286
g60
(g61
g62
NtRp2287
(dp2288
g65
(dp2289
g73
I3
ssg74
g2283
sg67
(lp2290
g847
asbasbasbag60
(g76
g62
NtRp2291
(dp2292
g65
(dp2293
sg74
g2203
sg67
(lp2294
g60
(g81
g62
NtRp2295
(dp2296
g65
(dp2297
g85
g86
ssg74
g2291
sg67
(lp2298
S'HTTP_CACHE_CONTROL'
p2299
asbag60
(g81
g62
NtRp2300
(dp2301
g65
(dp2302
g92
g93
ssg74
g2291
sg67
(lp2303
S':'
asbag60
(g81
g62
NtRp2304
(dp2305
g65
(dp2306
sg74
g2291
sg67
(lp2307
g60
(g61
g62
NtRp2308
(dp2309
g65
(dp2310
g73
I3
ssg74
g2304
sg67
(lp2311
g869
asbasbasbag60
(g76
g62
NtRp2312
(dp2313
g65
(dp2314
sg74
g2203
sg67
(lp2315
g60
(g81
g62
NtRp2316
(dp2317
g65
(dp2318
g85
g86
ssg74
g2312
sg67
(lp2319
S'HTTP_CONNECTION'
p2320
asbag60
(g81
g62
NtRp2321
(dp2322
g65
(dp2323
g92
g93
ssg74
g2312
sg67
(lp2324
S':'
asbag60
(g81
g62
NtRp2325
(dp2326
g65
(dp2327
sg74
g2312
sg67
(lp2328
g60
(g61
g62
NtRp2329
(dp2330
g65
(dp2331
g73
I3
ssg74
g2325
sg67
(lp2332
g891
asbasbasbag60
(g76
g62
NtRp2333
(dp2334
g65
(dp2335
sg74
g2203
sg67
(lp2336
g60
(g81
g62
NtRp2337
(dp2338
g65
(dp2339
g85
g86
ssg74
g2333
sg67
(lp2340
S'HTTP_COOKIE'
p2341
asbag60
(g81
g62
NtRp2342
(dp2343
g65
(dp2344
g92
g93
ssg74
g2333
sg67
(lp2345
S':'
asbag60
(g81
g62
NtRp2346
(dp2347
g65
(dp2348
sg74
g2333
sg67
(lp2349
g60
(g61
g62
NtRp2350
(dp2351
g65
(dp2352
g73
I3
ssg74
g2346
sg67
(lp2353
g913
asbasbasbag60
(g76
g62
NtRp2354
(dp2355
g65
(dp2356
sg74
g2203
sg67
(lp2357
g60
(g81
g62
NtRp2358
(dp2359
g65
(dp2360
g85
g86
ssg74
g2354
sg67
(lp2361
S'HTTP_HOST'
p2362
asbag60
(g81
g62
NtRp2363
(dp2364
g65
(dp2365
g92
g93
ssg74
g2354
sg67
(lp2366
S':'
asbag60
(g81
g62
NtRp2367
(dp2368
g65
(dp2369
sg74
g2354
sg67
(lp2370
g60
(g61
g62
NtRp2371
(dp2372
g65
(dp2373
g73
I3
ssg74
g2367
sg67
(lp2374
g935
asbasbasbag60
(g76
g62
NtRp2375
(dp2376
g65
(dp2377
sg74
g2203
sg67
(lp2378
g60
(g81
g62
NtRp2379
(dp2380
g65
(dp2381
g85
g86
ssg74
g2375
sg67
(lp2382
S'HTTP_USER_AGENT'
p2383
asbag60
(g81
g62
NtRp2384
(dp2385
g65
(dp2386
g92
g93
ssg74
g2375
sg67
(lp2387
S':'
asbag60
(g81
g62
NtRp2388
(dp2389
g65
(dp2390
sg74
g2375
sg67
(lp2391
g60
(g61
g62
NtRp2392
(dp2393
g65
(dp2394
g73
I3
ssg74
g2388
sg67
(lp2395
g957
asbasbasbag60
(g76
g62
NtRp2396
(dp2397
g65
(dp2398
sg74
g2203
sg67
(lp2399
g60
(g81
g62
NtRp2400
(dp2401
g65
(dp2402
g85
g86
ssg74
g2396
sg67
(lp2403
S'PATH_INFO'
p2404
asbag60
(g81
g62
NtRp2405
(dp2406
g65
(dp2407
g92
g93
ssg74
g2396
sg67
(lp2408
S':'
asbag60
(g81
g62
NtRp2409
(dp2410
g65
(dp2411
sg74
g2396
sg67
(lp2412
g60
(g61
g62
NtRp2413
(dp2414
g65
(dp2415
g73
I3
ssg74
g2409
sg67
(lp2416
S'/'
asbasbasbag60
(g76
g62
NtRp2417
(dp2418
g65
(dp2419
sg74
g2203
sg67
(lp2420
g60
(g81
g62
NtRp2421
(dp2422
g65
(dp2423
g85
g86
ssg74
g2417
sg67
(lp2424
S'QUERY_STRING'
p2425
asbag60
(g81
g62
NtRp2426
(dp2427
g65
(dp2428
g92
g93
ssg74
g2417
sg67
(lp2429
S':'
asbag60
(g81
g62
NtRp2430
(dp2431
g65
(dp2432
sg74
g2417
sg67
(lp2433
g60
(g61
g62
NtRp2434
(dp2435
g65
(dp2436
g73
I3
ssg74
g2430
sg67
(lp2437
S''
asbasbasbag60
(g76
g62
NtRp2438
(dp2439
g65
(dp2440
sg74
g2203
sg67
(lp2441
g60
(g81
g62
NtRp2442
(dp2443
g65
(dp2444
g85
g86
ssg74
g2438
sg67
(lp2445
S'REMOTE_ADDR'
p2446
asbag60
(g81
g62
NtRp2447
(dp2448
g65
(dp2449
g92
g93
ssg74
g2438
sg67
(lp2450
S':'
asbag60
(g81
g62
NtRp2451
(dp2452
g65
(dp2453
sg74
g2438
sg67
(lp2454
g60
(g61
g62
NtRp2455
(dp2456
g65
(dp2457
g73
I3
ssg74
g2451
sg67
(lp2458
g193
asbasbasbag60
(g76
g62
NtRp2459
(dp2460
g65
(dp2461
sg74
g2203
sg67
(lp2462
g60
(g81
g62
NtRp2463
(dp2464
g65
(dp2465
g85
g86
ssg74
g2459
sg67
(lp2466
S'REMOTE_PORT'
p2467
asbag60
(g81
g62
NtRp2468
(dp2469
g65
(dp2470
g92
g93
ssg74
g2459
sg67
(lp2471
S':'
asbag60
(g81
g62
NtRp2472
(dp2473
g65
(dp2474
sg74
g2459
sg67
(lp2475
g60
(g61
g62
NtRp2476
(dp2477
g65
(dp2478
g73
I3
ssg74
g2472
sg67
(lp2479
g1084
asbasbasbag60
(g76
g62
NtRp2480
(dp2481
g65
(dp2482
sg74
g2203
sg67
(lp2483
g60
(g81
g62
NtRp2484
(dp2485
g65
(dp2486
g85
g86
ssg74
g2480
sg67
(lp2487
S'REQUEST_METHOD'
p2488
asbag60
(g81
g62
NtRp2489
(dp2490
g65
(dp2491
g92
g93
ssg74
g2480
sg67
(lp2492
S':'
asbag60
(g81
g62
NtRp2493
(dp2494
g65
(dp2495
sg74
g2480
sg67
(lp2496
g60
(g61
g62
NtRp2497
(dp2498
g65
(dp2499
g73
I3
ssg74
g2493
sg67
(lp2500
g1106
asbasbasbag60
(g76
g62
NtRp2501
(dp2502
g65
(dp2503
sg74
g2203
sg67
(lp2504
g60
(g81
g62
NtRp2505
(dp2506
g65
(dp2507
g85
g86
ssg74
g2501
sg67
(lp2508
S'SCRIPT_NAME'
p2509
asbag60
(g81
g62
NtRp2510
(dp2511
g65
(dp2512
g92
g93
ssg74
g2501
sg67
(lp2513
S':'
asbag60
(g81
g62
NtRp2514
(dp2515
g65
(dp2516
sg74
g2501
sg67
(lp2517
g60
(g61
g62
NtRp2518
(dp2519
g65
(dp2520
g73
I3
ssg74
g2514
sg67
(lp2521
S''
asbasbasbag60
(g76
g62
NtRp2522
(dp2523
g65
(dp2524
sg74
g2203
sg67
(lp2525
g60
(g81
g62
NtRp2526
(dp2527
g65
(dp2528
g85
g86
ssg74
g2522
sg67
(lp2529
S'SERVER_NAME'
p2530
asbag60
(g81
g62
NtRp2531
(dp2532
g65
(dp2533
g92
g93
ssg74
g2522
sg67
(lp2534
S':'
asbag60
(g81
g62
NtRp2535
(dp2536
g65
(dp2537
sg74
g2522
sg67
(lp2538
g60
(g61
g62
NtRp2539
(dp2540
g65
(dp2541
g73
I3
ssg74
g2535
sg67
(lp2542
g1149
asbasbasbag60
(g76
g62
NtRp2543
(dp2544
g65
(dp2545
sg74
g2203
sg67
(lp2546
g60
(g81
g62
NtRp2547
(dp2548
g65
(dp2549
g85
g86
ssg74
g2543
sg67
(lp2550
S'SERVER_PORT'
p2551
asbag60
(g81
g62
NtRp2552
(dp2553
g65
(dp2554
g92
g93
ssg74
g2543
sg67
(lp2555
S':'
asbag60
(g81
g62
NtRp2556
(dp2557
g65
(dp2558
sg74
g2543
sg67
(lp2559
g60
(g61
g62
NtRp2560
(dp2561
g65
(dp2562
g73
I3
ssg74
g2556
sg67
(lp2563
g1171
asbasbasbag60
(g76
g62
NtRp2564
(dp2565
g65
(dp2566
sg74
g2203
sg67
(lp2567
g60
(g81
g62
NtRp2568
(dp2569
g65
(dp2570
g85
g86
ssg74
g2564
sg67
(lp2571
S'SERVER_PROTOCOL'
p2572
asbag60
(g81
g62
NtRp2573
(dp2574
g65
(dp2575
g92
g93
ssg74
g2564
sg67
(lp2576
S':'
asbag60
(g81
g62
NtRp2577
(dp2578
g65
(dp2579
sg74
g2564
sg67
(lp2580
g60
(g61
g62
NtRp2581
(dp2582
g65
(dp2583
g73
I3
ssg74
g2577
sg67
(lp2584
g1193
asbasbasbag60
(g76
g62
NtRp2585
(dp2586
g65
(dp2587
sg74
g2203
sg67
(lp2588
g60
(g81
g62
NtRp2589
(dp2590
g65
(dp2591
g85
g86
ssg74
g2585
sg67
(lp2592
S'SERVER_SOFTWARE'
p2593
asbag60
(g81
g62
NtRp2594
(dp2595
g65
(dp2596
g92
g93
ssg74
g2585
sg67
(lp2597
S':'
asbag60
(g81
g62
NtRp2598
(dp2599
g65
(dp2600
sg74
g2585
sg67
(lp2601
g60
(g61
g62
NtRp2602
(dp2603
g65
(dp2604
g73
I3
ssg74
g2598
sg67
(lp2605
g1215
asbasbasbag60
(g76
g62
NtRp2606
(dp2607
g65
(dp2608
sg74
g2203
sg67
(lp2609
g60
(g81
g62
NtRp2610
(dp2611
g65
(dp2612
g85
g86
ssg74
g2606
sg67
(lp2613
S'wsgi.errors'
p2614
asbag60
(g81
g62
NtRp2615
(dp2616
g65
(dp2617
g92
g93
ssg74
g2606
sg67
(lp2618
S':'
asbag60
(g81
g62
NtRp2619
(dp2620
g65
(dp2621
sg74
g2606
sg67
(lp2622
g60
(g61
g62
NtRp2623
(dp2624
g65
(dp2625
g73
I3
ssg74
g2619
sg67
(lp2626
S"<open file '<stderr>', mode 'w' at 0x004300B0>"
p2627
asbasbasbag60
(g76
g62
NtRp2628
(dp2629
g65
(dp2630
sg74
g2203
sg67
(lp2631
g60
(g81
g62
NtRp2632
(dp2633
g65
(dp2634
g85
g86
ssg74
g2628
sg67
(lp2635
S'wsgi.file_wrapper'
p2636
asbag60
(g81
g62
NtRp2637
(dp2638
g65
(dp2639
g92
g93
ssg74
g2628
sg67
(lp2640
S':'
asbag60
(g81
g62
NtRp2641
(dp2642
g65
(dp2643
sg74
g2628
sg67
(lp2644
g60
(g61
g62
NtRp2645
(dp2646
g65
(dp2647
g73
I3
ssg74
g2641
sg67
(lp2648
S'<class wsgiref.util.FileWrapper at 0x02C44900>'
p2649
asbasbasbag60
(g76
g62
NtRp2650
(dp2651
g65
(dp2652
sg74
g2203
sg67
(lp2653
g60
(g81
g62
NtRp2654
(dp2655
g65
(dp2656
g85
g86
ssg74
g2650
sg67
(lp2657
S'wsgi.input'
p2658
asbag60
(g81
g62
NtRp2659
(dp2660
g65
(dp2661
g92
g93
ssg74
g2650
sg67
(lp2662
S':'
asbag60
(g81
g62
NtRp2663
(dp2664
g65
(dp2665
sg74
g2650
sg67
(lp2666
g60
(g61
g62
NtRp2667
(dp2668
g65
(dp2669
g73
I3
ssg74
g2663
sg67
(lp2670
S'<cStringIO.StringO object at 0x082AC420>'
p2671
asbasbasbag60
(g76
g62
NtRp2672
(dp2673
g65
(dp2674
sg74
g2203
sg67
(lp2675
g60
(g81
g62
NtRp2676
(dp2677
g65
(dp2678
g85
g86
ssg74
g2672
sg67
(lp2679
S'wsgi.multiprocess'
p2680
asbag60
(g81
g62
NtRp2681
(dp2682
g65
(dp2683
g92
g93
ssg74
g2672
sg67
(lp2684
S':'
asbag60
(g81
g62
NtRp2685
(dp2686
g65
(dp2687
sg74
g2672
sg67
(lp2688
g60
(g61
g62
NtRp2689
(dp2690
g65
(dp2691
g73
I3
ssg74
g2685
sg67
(lp2692
g103
asbasbasbag60
(g76
g62
NtRp2693
(dp2694
g65
(dp2695
sg74
g2203
sg67
(lp2696
g60
(g81
g62
NtRp2697
(dp2698
g65
(dp2699
g85
g86
ssg74
g2693
sg67
(lp2700
S'wsgi.multithread'
p2701
asbag60
(g81
g62
NtRp2702
(dp2703
g65
(dp2704
g92
g93
ssg74
g2693
sg67
(lp2705
S':'
asbag60
(g81
g62
NtRp2706
(dp2707
g65
(dp2708
sg74
g2693
sg67
(lp2709
g60
(g61
g62
NtRp2710
(dp2711
g65
(dp2712
g73
I3
ssg74
g2706
sg67
(lp2713
g737
asbasbasbag60
(g76
g62
NtRp2714
(dp2715
g65
(dp2716
sg74
g2203
sg67
(lp2717
g60
(g81
g62
NtRp2718
(dp2719
g65
(dp2720
g85
g86
ssg74
g2714
sg67
(lp2721
S'wsgi.run_once'
p2722
asbag60
(g81
g62
NtRp2723
(dp2724
g65
(dp2725
g92
g93
ssg74
g2714
sg67
(lp2726
S':'
asbag60
(g81
g62
NtRp2727
(dp2728
g65
(dp2729
sg74
g2714
sg67
(lp2730
g60
(g61
g62
NtRp2731
(dp2732
g65
(dp2733
g73
I3
ssg74
g2727
sg67
(lp2734
g103
asbasbasbag60
(g76
g62
NtRp2735
(dp2736
g65
(dp2737
sg74
g2203
sg67
(lp2738
g60
(g81
g62
NtRp2739
(dp2740
g65
(dp2741
g85
g86
ssg74
g2735
sg67
(lp2742
S'wsgi.url_scheme'
p2743
asbag60
(g81
g62
NtRp2744
(dp2745
g65
(dp2746
g92
g93
ssg74
g2735
sg67
(lp2747
S':'
asbag60
(g81
g62
NtRp2748
(dp2749
g65
(dp2750
sg74
g2735
sg67
(lp2751
g60
(g61
g62
NtRp2752
(dp2753
g65
(dp2754
g73
I3
ssg74
g2748
sg67
(lp2755
g1497
asbasbasbag60
(g76
g62
NtRp2756
(dp2757
g65
(dp2758
sg74
g2203
sg67
(lp2759
g60
(g81
g62
NtRp2760
(dp2761
g65
(dp2762
g85
g86
ssg74
g2756
sg67
(lp2763
S'wsgi.version'
p2764
asbag60
(g81
g62
NtRp2765
(dp2766
g65
(dp2767
g92
g93
ssg74
g2756
sg67
(lp2768
S':'
asbag60
(g81
g62
NtRp2769
(dp2770
g65
(dp2771
sg74
g2756
sg67
(lp2772
g60
(g61
g62
NtRp2773
(dp2774
g65
(dp2775
g73
I3
ssg74
g2769
sg67
(lp2776
S'1'
asbasbasbasbasbasbasbasbasbasbasbasbasbsS'frames'
p2777
(lp2778
(dp2779
S'file'
p2780
S'C:\\Users\\Bussiere\\Dropbox\\Projets\\jackpoint\\web2py\\gluon\\restricted.py'
p2781
sS'dump'
p2782
(dp2783
sS'lnum'
p2784
I204
sS'lines'
p2785
(dp2786
I199
S"    environment['__name__'] = '__restricted__'"
p2787
sI200
S'    try:'
p2788
sI201
S'        if type(code) == types.CodeType:'
p2789
sI202
S'            ccode = code'
p2790
sI203
S'        else:'
p2791
sI204
S'            ccode = compile2(code,layer)'
p2792
sI205
S'        exec ccode in environment'
p2793
sI206
S'    except HTTP:'
p2794
sI207
S'        raise'
p2795
sI208
S'    except RestrictedError:'
p2796
ssS'call'
p2797
S'(code=\'response.write(\\\'<!DOCTYPE HTML>\\\\r\\\\n<html>\\\\r\\\\n<he..."></script>\\\\r\\\\n</body>\\\\r\\\\n</html>\\\', escape=False)\', environment={\'A\': <class \'gluon.html.A\'>, \'Auth\': <class \'gluon.tools.Auth\'>, \'AutocompleteWidget\': <class \'gluon.sqlhtml.AutocompleteWidget\'>, \'B\': <class \'gluon.html.B\'>, \'BEAUTIFY\': <class \'gluon.html.BEAUTIFY\'>, \'BODY\': <class \'gluon.html.BODY\'>, \'BR\': <class \'gluon.html.BR\'>, \'BUTTON\': <class \'gluon.html.BUTTON\'>, \'BooleanWidget\': <class \'gluon.sqlhtml.BooleanWidget\'>, \'CALLABLETYPES\': (<type \'function\'>, <type \'function\'>, <type \'builtin_function_or_method\'>, <type \'instancemethod\'>, <type \'builtin_function_or_method\'>), ...}, layer=r\'C:\\Users\\Bussiere\\Dropbox\\Projets\\jackpoint\\web2py\\applications\\init\\views\\default/index.html\')'
p2798
sS'func'
p2799
S'restricted'
p2800
sa(dp2801
g2780
S'C:\\Users\\Bussiere\\Dropbox\\Projets\\jackpoint\\web2py\\gluon\\restricted.py'
p2802
sg2782
(dp2803
sg2784
I189
sg2785
(dp2804
I192
S'    """'
p2805
sI193
S'    runs code in environment and returns the output. if an exception occurs'
p2806
sI184
S''
sI185
S'def compile2(code,layer):'
p2807
sI186
S'    """'
p2808
sI187
S"    The +'\\n' is necessary else compile fails when code ends in a comment."
p2809
sI188
S'    """'
p2810
sI189
S"    return compile(code.rstrip().replace('\\r\\n','\\n')+'\\n', layer, 'exec')"
p2811
sI190
S''
sI191
S"def restricted(code, environment=None, layer='Unknown'):"
p2812
ssg2797
S'(code=\'response.write(\\\'<!DOCTYPE HTML>\\\\r\\\\n<html>\\\\r\\\\n<he..."></script>\\\\r\\\\n</body>\\\\r\\\\n</html>\\\', escape=False)\', layer=r\'C:\\Users\\Bussiere\\Dropbox\\Projets\\jackpoint\\web2py\\applications\\init\\views\\default/index.html\')'
p2813
sg2799
S'compile2'
p2814
sasS'pyver'
p2815
S'Python 2.5.4: C:\\Users\\Bussiere\\Dropbox\\Projets\\jackpoint\\web2py\\web2py.exe'
p2816
sS'session'
p2817
g60
(g61
g62
NtRp2818
(dp2819
g65
(dp2820
sg67
(lp2821
g60
(g69
g62
NtRp2822
(dp2823
g65
(dp2824
g73
I5
ssg74
Nsg67
(lp2825
sbasbsS'etype'
p2826
S"<type 'exceptions.SyntaxError'>"
p2827
sS'date'
p2828
S'Fri Mar 30 00:43:49 2012'
p2829
sS'response'
p2830
g60
(g61
g62
NtRp2831
(dp2832
g65
(dp2833
sg67
(lp2834
g60
(g69
g62
NtRp2835
(dp2836
g65
(dp2837
g73
I5
ssg74
Nsg67
(lp2838
g60
(g76
g62
NtRp2839
(dp2840
g65
(dp2841
sg74
g2835
sg67
(lp2842
g60
(g81
g62
NtRp2843
(dp2844
g65
(dp2845
g85
g86
ssg74
g2839
sg67
(lp2846
g158
asbag60
(g81
g62
NtRp2847
(dp2848
g65
(dp2849
g92
g93
ssg74
g2839
sg67
(lp2850
S':'
asbag60
(g81
g62
NtRp2851
(dp2852
g65
(dp2853
sg74
g2839
sg67
(lp2854
g60
(g61
g62
NtRp2855
(dp2856
g65
(dp2857
g73
I5
ssg74
g2851
sg67
(lp2858
S'<cStringIO.StringO object at 0x082AC540>'
p2859
asbasbasbag60
(g76
g62
NtRp2860
(dp2861
g65
(dp2862
sg74
g2835
sg67
(lp2863
g60
(g81
g62
NtRp2864
(dp2865
g65
(dp2866
g85
g86
ssg74
g2860
sg67
(lp2867
g224
asbag60
(g81
g62
NtRp2868
(dp2869
g65
(dp2870
g92
g93
ssg74
g2860
sg67
(lp2871
S':'
asbag60
(g81
g62
NtRp2872
(dp2873
g65
(dp2874
sg74
g2860
sg67
(lp2875
g60
(g61
g62
NtRp2876
(dp2877
g65
(dp2878
g73
I5
ssg74
g2872
sg67
(lp2879
g60
(g69
g62
NtRp2880
(dp2881
g65
(dp2882
g73
I4
ssg74
Nsg67
(lp2883
g60
(g76
g62
NtRp2884
(dp2885
g65
(dp2886
sg74
g2880
sg67
(lp2887
g60
(g81
g62
NtRp2888
(dp2889
g65
(dp2890
g85
g86
ssg74
g2884
sg67
(lp2891
S'session_id_init'
p2892
asbag60
(g81
g62
NtRp2893
(dp2894
g65
(dp2895
g92
g93
ssg74
g2884
sg67
(lp2896
S':'
asbag60
(g81
g62
NtRp2897
(dp2898
g65
(dp2899
sg74
g2884
sg67
(lp2900
g60
(g61
g62
NtRp2901
(dp2902
g65
(dp2903
g73
I4
ssg74
g2897
sg67
(lp2904
g60
(g69
g62
NtRp2905
(dp2906
g65
(dp2907
g73
I3
ssg74
Nsg67
(lp2908
g60
(g76
g62
NtRp2909
(dp2910
g65
(dp2911
sg74
g2905
sg67
(lp2912
g60
(g81
g62
NtRp2913
(dp2914
g65
(dp2915
g85
g86
ssg74
g2909
sg67
(lp2916
g274
asbag60
(g81
g62
NtRp2917
(dp2918
g65
(dp2919
g92
g93
ssg74
g2909
sg67
(lp2920
S':'
asbag60
(g81
g62
NtRp2921
(dp2922
g65
(dp2923
sg74
g2909
sg67
(lp2924
g60
(g61
g62
NtRp2925
(dp2926
g65
(dp2927
g73
I3
ssg74
g2921
sg67
(lp2928
S''
asbasbasbag60
(g76
g62
NtRp2929
(dp2930
g65
(dp2931
sg74
g2905
sg67
(lp2932
g60
(g81
g62
NtRp2933
(dp2934
g65
(dp2935
g85
g86
ssg74
g2929
sg67
(lp2936
g295
asbag60
(g81
g62
NtRp2937
(dp2938
g65
(dp2939
g92
g93
ssg74
g2929
sg67
(lp2940
S':'
asbag60
(g81
g62
NtRp2941
(dp2942
g65
(dp2943
sg74
g2929
sg67
(lp2944
g60
(g61
g62
NtRp2945
(dp2946
g65
(dp2947
g73
I3
ssg74
g2941
sg67
(lp2948
S''
asbasbasbag60
(g76
g62
NtRp2949
(dp2950
g65
(dp2951
sg74
g2905
sg67
(lp2952
g60
(g81
g62
NtRp2953
(dp2954
g65
(dp2955
g85
g86
ssg74
g2949
sg67
(lp2956
g316
asbag60
(g81
g62
NtRp2957
(dp2958
g65
(dp2959
g92
g93
ssg74
g2949
sg67
(lp2960
S':'
asbag60
(g81
g62
NtRp2961
(dp2962
g65
(dp2963
sg74
g2949
sg67
(lp2964
g60
(g61
g62
NtRp2965
(dp2966
g65
(dp2967
g73
I3
ssg74
g2961
sg67
(lp2968
S''
asbasbasbag60
(g76
g62
NtRp2969
(dp2970
g65
(dp2971
sg74
g2905
sg67
(lp2972
g60
(g81
g62
NtRp2973
(dp2974
g65
(dp2975
g85
g86
ssg74
g2969
sg67
(lp2976
g337
asbag60
(g81
g62
NtRp2977
(dp2978
g65
(dp2979
g92
g93
ssg74
g2969
sg67
(lp2980
S':'
asbag60
(g81
g62
NtRp2981
(dp2982
g65
(dp2983
sg74
g2969
sg67
(lp2984
g60
(g61
g62
NtRp2985
(dp2986
g65
(dp2987
g73
I3
ssg74
g2981
sg67
(lp2988
S''
asbasbasbag60
(g76
g62
NtRp2989
(dp2990
g65
(dp2991
sg74
g2905
sg67
(lp2992
g60
(g81
g62
NtRp2993
(dp2994
g65
(dp2995
g85
g86
ssg74
g2989
sg67
(lp2996
g358
asbag60
(g81
g62
NtRp2997
(dp2998
g65
(dp2999
g92
g93
ssg74
g2989
sg67
(lp3000
S':'
asbag60
(g81
g62
NtRp3001
(dp3002
g65
(dp3003
sg74
g2989
sg67
(lp3004
g60
(g61
g62
NtRp3005
(dp3006
g65
(dp3007
g73
I3
ssg74
g3001
sg67
(lp3008
S'/'
asbasbasbag60
(g76
g62
NtRp3009
(dp3010
g65
(dp3011
sg74
g2905
sg67
(lp3012
g60
(g81
g62
NtRp3013
(dp3014
g65
(dp3015
g85
g86
ssg74
g3009
sg67
(lp3016
g379
asbag60
(g81
g62
NtRp3017
(dp3018
g65
(dp3019
g92
g93
ssg74
g3009
sg67
(lp3020
S':'
asbag60
(g81
g62
NtRp3021
(dp3022
g65
(dp3023
sg74
g3009
sg67
(lp3024
g60
(g61
g62
NtRp3025
(dp3026
g65
(dp3027
g73
I3
ssg74
g3021
sg67
(lp3028
S''
asbasbasbag60
(g76
g62
NtRp3029
(dp3030
g65
(dp3031
sg74
g2905
sg67
(lp3032
g60
(g81
g62
NtRp3033
(dp3034
g65
(dp3035
g85
g86
ssg74
g3029
sg67
(lp3036
g400
asbag60
(g81
g62
NtRp3037
(dp3038
g65
(dp3039
g92
g93
ssg74
g3029
sg67
(lp3040
S':'
asbag60
(g81
g62
NtRp3041
(dp3042
g65
(dp3043
sg74
g3029
sg67
(lp3044
g60
(g61
g62
NtRp3045
(dp3046
g65
(dp3047
g73
I3
ssg74
g3041
sg67
(lp3048
S''
asbasbasbasbasbasbasbasbasbasbasbag60
(g76
g62
NtRp3049
(dp3050
g65
(dp3051
sg74
g2835
sg67
(lp3052
g60
(g81
g62
NtRp3053
(dp3054
g65
(dp3055
g85
g86
ssg74
g3049
sg67
(lp3056
S'delimiters'
p3057
asbag60
(g81
g62
NtRp3058
(dp3059
g65
(dp3060
g92
g93
ssg74
g3049
sg67
(lp3061
S':'
asbag60
(g81
g62
NtRp3062
(dp3063
g65
(dp3064
sg74
g3049
sg67
(lp3065
g60
(g61
g62
NtRp3066
(dp3067
g65
(dp3068
g73
I5
ssg74
g3062
sg67
(lp3069
g60
(g69
g62
NtRp3070
(dp3071
g65
(dp3072
g73
I4
ssg74
Nsg67
(lp3073
g60
(g76
g62
NtRp3074
(dp3075
g65
(dp3076
sg74
g3070
sg67
(lp3077
g60
(g81
g62
NtRp3078
(dp3079
g65
(dp3080
sg74
g3074
sg67
(lp3081
g60
(g61
g62
NtRp3082
(dp3083
g65
(dp3084
g73
I4
ssg74
g3078
sg67
(lp3085
S'{{'
p3086
asbasbasbag60
(g76
g62
NtRp3087
(dp3088
g65
(dp3089
sg74
g3070
sg67
(lp3090
g60
(g81
g62
NtRp3091
(dp3092
g65
(dp3093
sg74
g3087
sg67
(lp3094
g60
(g61
g62
NtRp3095
(dp3096
g65
(dp3097
g73
I4
ssg74
g3091
sg67
(lp3098
S'}}'
p3099
asbasbasbasbasbasbasbag60
(g76
g62
NtRp3100
(dp3101
g65
(dp3102
sg74
g2835
sg67
(lp3103
g60
(g81
g62
NtRp3104
(dp3105
g65
(dp3106
g85
g86
ssg74
g3100
sg67
(lp3107
S'files'
p3108
asbag60
(g81
g62
NtRp3109
(dp3110
g65
(dp3111
g92
g93
ssg74
g3100
sg67
(lp3112
S':'
asbag60
(g81
g62
NtRp3113
(dp3114
g65
(dp3115
sg74
g3100
sg67
(lp3116
g60
(g61
g62
NtRp3117
(dp3118
g65
(dp3119
g73
I5
ssg74
g3113
sg67
(lp3120
g60
(g69
g62
NtRp3121
(dp3122
g65
(dp3123
g73
I4
ssg74
Nsg67
(lp3124
sbasbasbasbag60
(g76
g62
NtRp3125
(dp3126
g65
(dp3127
sg74
g2835
sg67
(lp3128
g60
(g81
g62
NtRp3129
(dp3130
g65
(dp3131
g85
g86
ssg74
g3125
sg67
(lp3132
S'flash'
p3133
asbag60
(g81
g62
NtRp3134
(dp3135
g65
(dp3136
g92
g93
ssg74
g3125
sg67
(lp3137
S':'
asbag60
(g81
g62
NtRp3138
(dp3139
g65
(dp3140
sg74
g3125
sg67
(lp3141
g60
(g61
g62
NtRp3142
(dp3143
g65
(dp3144
g73
I5
ssg74
g3138
sg67
(lp3145
S''
asbasbasbag60
(g76
g62
NtRp3146
(dp3147
g65
(dp3148
sg74
g2835
sg67
(lp3149
g60
(g81
g62
NtRp3150
(dp3151
g65
(dp3152
g85
g86
ssg74
g3146
sg67
(lp3153
S'generic_patterns'
p3154
asbag60
(g81
g62
NtRp3155
(dp3156
g65
(dp3157
g92
g93
ssg74
g3146
sg67
(lp3158
S':'
asbag60
(g81
g62
NtRp3159
(dp3160
g65
(dp3161
sg74
g3146
sg67
(lp3162
g60
(g61
g62
NtRp3163
(dp3164
g65
(dp3165
g73
I5
ssg74
g3159
sg67
(lp3166
g60
(g69
g62
NtRp3167
(dp3168
g65
(dp3169
g73
I4
ssg74
Nsg67
(lp3170
g60
(g76
g62
NtRp3171
(dp3172
g65
(dp3173
sg74
g3167
sg67
(lp3174
g60
(g81
g62
NtRp3175
(dp3176
g65
(dp3177
sg74
g3171
sg67
(lp3178
g60
(g61
g62
NtRp3179
(dp3180
g65
(dp3181
g73
I4
ssg74
g3175
sg67
(lp3182
S'*'
asbasbasbasbasbasbasbag60
(g76
g62
NtRp3183
(dp3184
g65
(dp3185
sg74
g2835
sg67
(lp3186
g60
(g81
g62
NtRp3187
(dp3188
g65
(dp3189
g85
g86
ssg74
g3183
sg67
(lp3190
S'headers'
p3191
asbag60
(g81
g62
NtRp3192
(dp3193
g65
(dp3194
g92
g93
ssg74
g3183
sg67
(lp3195
S':'
asbag60
(g81
g62
NtRp3196
(dp3197
g65
(dp3198
sg74
g3183
sg67
(lp3199
g60
(g61
g62
NtRp3200
(dp3201
g65
(dp3202
g73
I5
ssg74
g3196
sg67
(lp3203
g60
(g69
g62
NtRp3204
(dp3205
g65
(dp3206
g73
I4
ssg74
Nsg67
(lp3207
g60
(g76
g62
NtRp3208
(dp3209
g65
(dp3210
sg74
g3204
sg67
(lp3211
g60
(g81
g62
NtRp3212
(dp3213
g65
(dp3214
g85
g86
ssg74
g3208
sg67
(lp3215
S'Cache-Control'
p3216
asbag60
(g81
g62
NtRp3217
(dp3218
g65
(dp3219
g92
g93
ssg74
g3208
sg67
(lp3220
S':'
asbag60
(g81
g62
NtRp3221
(dp3222
g65
(dp3223
sg74
g3208
sg67
(lp3224
g60
(g61
g62
NtRp3225
(dp3226
g65
(dp3227
g73
I4
ssg74
g3221
sg67
(lp3228
S'no-store, no-cache, must-revalidate, post-check=0, pre-check=0'
p3229
asbasbasbag60
(g76
g62
NtRp3230
(dp3231
g65
(dp3232
sg74
g3204
sg67
(lp3233
g60
(g81
g62
NtRp3234
(dp3235
g65
(dp3236
g85
g86
ssg74
g3230
sg67
(lp3237
S'Content-Type'
p3238
asbag60
(g81
g62
NtRp3239
(dp3240
g65
(dp3241
g92
g93
ssg74
g3230
sg67
(lp3242
S':'
asbag60
(g81
g62
NtRp3243
(dp3244
g65
(dp3245
sg74
g3230
sg67
(lp3246
g60
(g61
g62
NtRp3247
(dp3248
g65
(dp3249
g73
I4
ssg74
g3243
sg67
(lp3250
S'text/html; charset=utf-8'
p3251
asbasbasbag60
(g76
g62
NtRp3252
(dp3253
g65
(dp3254
sg74
g3204
sg67
(lp3255
g60
(g81
g62
NtRp3256
(dp3257
g65
(dp3258
g85
g86
ssg74
g3252
sg67
(lp3259
S'Expires'
p3260
asbag60
(g81
g62
NtRp3261
(dp3262
g65
(dp3263
g92
g93
ssg74
g3252
sg67
(lp3264
S':'
asbag60
(g81
g62
NtRp3265
(dp3266
g65
(dp3267
sg74
g3252
sg67
(lp3268
g60
(g61
g62
NtRp3269
(dp3270
g65
(dp3271
g73
I4
ssg74
g3265
sg67
(lp3272
S'Thu, 29 Mar 2012 22:43:48 GMT'
p3273
asbasbasbag60
(g76
g62
NtRp3274
(dp3275
g65
(dp3276
sg74
g3204
sg67
(lp3277
g60
(g81
g62
NtRp3278
(dp3279
g65
(dp3280
g85
g86
ssg74
g3274
sg67
(lp3281
S'Pragma'
p3282
asbag60
(g81
g62
NtRp3283
(dp3284
g65
(dp3285
g92
g93
ssg74
g3274
sg67
(lp3286
S':'
asbag60
(g81
g62
NtRp3287
(dp3288
g65
(dp3289
sg74
g3274
sg67
(lp3290
g60
(g61
g62
NtRp3291
(dp3292
g65
(dp3293
g73
I4
ssg74
g3287
sg67
(lp3294
S'no-cache'
p3295
asbasbasbag60
(g76
g62
NtRp3296
(dp3297
g65
(dp3298
sg74
g3204
sg67
(lp3299
g60
(g81
g62
NtRp3300
(dp3301
g65
(dp3302
g85
g86
ssg74
g3296
sg67
(lp3303
S'X-Powered-By'
p3304
asbag60
(g81
g62
NtRp3305
(dp3306
g65
(dp3307
g92
g93
ssg74
g3296
sg67
(lp3308
S':'
asbag60
(g81
g62
NtRp3309
(dp3310
g65
(dp3311
sg74
g3296
sg67
(lp3312
g60
(g61
g62
NtRp3313
(dp3314
g65
(dp3315
g73
I4
ssg74
g3309
sg67
(lp3316
S'web2py'
p3317
asbasbasbasbasbasbasbag60
(g76
g62
NtRp3318
(dp3319
g65
(dp3320
sg74
g2835
sg67
(lp3321
g60
(g81
g62
NtRp3322
(dp3323
g65
(dp3324
g85
g86
ssg74
g3318
sg67
(lp3325
S'menu'
p3326
asbag60
(g81
g62
NtRp3327
(dp3328
g65
(dp3329
g92
g93
ssg74
g3318
sg67
(lp3330
S':'
asbag60
(g81
g62
NtRp3331
(dp3332
g65
(dp3333
sg74
g3318
sg67
(lp3334
g60
(g61
g62
NtRp3335
(dp3336
g65
(dp3337
g73
I5
ssg74
g3331
sg67
(lp3338
g60
(g69
g62
NtRp3339
(dp3340
g65
(dp3341
g73
I4
ssg74
Nsg67
(lp3342
g60
(g76
g62
NtRp3343
(dp3344
g65
(dp3345
sg74
g3339
sg67
(lp3346
g60
(g81
g62
NtRp3347
(dp3348
g65
(dp3349
sg74
g3343
sg67
(lp3350
g60
(g61
g62
NtRp3351
(dp3352
g65
(dp3353
g73
I4
ssg74
g3347
sg67
(lp3354
g60
(g69
g62
NtRp3355
(dp3356
g65
(dp3357
g73
I3
ssg74
Nsg67
(lp3358
g60
(g76
g62
NtRp3359
(dp3360
g65
(dp3361
sg74
g3355
sg67
(lp3362
g60
(g81
g62
NtRp3363
(dp3364
g65
(dp3365
sg74
g3359
sg67
(lp3366
g60
(g61
g62
NtRp3367
(dp3368
g65
(dp3369
g73
I3
ssg74
g3363
sg67
(lp3370
cgluon.languages
lazyT_unpickle
p3371
(S's\x04\x00\x00\x00Home'
tRp3372
asbasbasbag60
(g76
g62
NtRp3373
(dp3374
g65
(dp3375
sg74
g3355
sg67
(lp3376
g60
(g81
g62
NtRp3377
(dp3378
g65
(dp3379
sg74
g3373
sg67
(lp3380
g60
(g61
g62
NtRp3381
(dp3382
g65
(dp3383
g73
I3
ssg74
g3377
sg67
(lp3384
g103
asbasbasbag60
(g76
g62
NtRp3385
(dp3386
g65
(dp3387
sg74
g3355
sg67
(lp3388
g60
(g81
g62
NtRp3389
(dp3390
g65
(dp3391
sg74
g3385
sg67
(lp3392
g60
(g61
g62
NtRp3393
(dp3394
g65
(dp3395
g73
I3
ssg74
g3389
sg67
(lp3396
S'/init/default/index'
p3397
asbasbasbag60
(g76
g62
NtRp3398
(dp3399
g65
(dp3400
sg74
g3355
sg67
(lp3401
g60
(g81
g62
NtRp3402
(dp3403
g65
(dp3404
sg74
g3398
sg67
(lp3405
g60
(g61
g62
NtRp3406
(dp3407
g65
(dp3408
g73
I3
ssg74
g3402
sg67
(lp3409
g60
(g69
g62
NtRp3410
(dp3411
g65
(dp3412
g73
I2
ssg74
Nsg67
(lp3413
sbasbasbasbasbasbasbasbag60
(g76
g62
NtRp3414
(dp3415
g65
(dp3416
sg74
g3339
sg67
(lp3417
g60
(g81
g62
NtRp3418
(dp3419
g65
(dp3420
sg74
g3414
sg67
(lp3421
g60
(g61
g62
NtRp3422
(dp3423
g65
(dp3424
g73
I4
ssg74
g3418
sg67
(lp3425
g60
(g69
g62
NtRp3426
(dp3427
g65
(dp3428
g73
I3
ssg74
Nsg67
(lp3429
g60
(g76
g62
NtRp3430
(dp3431
g65
(dp3432
sg74
g3426
sg67
(lp3433
g60
(g81
g62
NtRp3434
(dp3435
g65
(dp3436
sg74
g3430
sg67
(lp3437
g60
(g61
g62
NtRp3438
(dp3439
g65
(dp3440
g73
I3
ssg74
g3434
sg67
(lp3441
g60
(cgluon.html
SPAN
p3442
g62
NtRp3443
(dp3444
g65
(dp3445
g85
S'color:yellow'
p3446
ssg74
Nsg67
(lp3447
g3317
asbasbasbasbag60
(g76
g62
NtRp3448
(dp3449
g65
(dp3450
sg74
g3426
sg67
(lp3451
g60
(g81
g62
NtRp3452
(dp3453
g65
(dp3454
sg74
g3448
sg67
(lp3455
g60
(g61
g62
NtRp3456
(dp3457
g65
(dp3458
g73
I3
ssg74
g3452
sg67
(lp3459
g103
asbasbasbag60
(g76
g62
NtRp3460
(dp3461
g65
(dp3462
sg74
g3426
sg67
(lp3463
g60
(g81
g62
NtRp3464
(dp3465
g65
(dp3466
sg74
g3460
sg67
(lp3467
g60
(g61
g62
NtRp3468
(dp3469
g65
(dp3470
g73
I3
ssg74
g3464
sg67
(lp3471
S'None'
p3472
asbasbasbag60
(g76
g62
NtRp3473
(dp3474
g65
(dp3475
sg74
g3426
sg67
(lp3476
g60
(g81
g62
NtRp3477
(dp3478
g65
(dp3479
sg74
g3473
sg67
(lp3480
g60
(g61
g62
NtRp3481
(dp3482
g65
(dp3483
g73
I3
ssg74
g3477
sg67
(lp3484
g60
(g69
g62
NtRp3485
(dp3486
g65
(dp3487
g73
I2
ssg74
Nsg67
(lp3488
g60
(g76
g62
NtRp3489
(dp3490
g65
(dp3491
sg74
g3485
sg67
(lp3492
g60
(g81
g62
NtRp3493
(dp3494
g65
(dp3495
sg74
g3489
sg67
(lp3496
g60
(g61
g62
NtRp3497
(dp3498
g65
(dp3499
g73
I2
ssg74
g3493
sg67
(lp3500
g60
(g69
g62
NtRp3501
(dp3502
g65
(dp3503
g73
I1
ssg74
Nsg67
(lp3504
g60
(g76
g62
NtRp3505
(dp3506
g65
(dp3507
sg74
g3501
sg67
(lp3508
g60
(g81
g62
NtRp3509
(dp3510
g65
(dp3511
sg74
g3505
sg67
(lp3512
g60
(g61
g62
NtRp3513
(dp3514
g65
(dp3515
g73
I1
ssg74
g3509
sg67
(lp3516
g3371
(S's\x08\x00\x00\x00My Sites'
tRp3517
asbasbasbag60
(g76
g62
NtRp3518
(dp3519
g65
(dp3520
sg74
g3501
sg67
(lp3521
g60
(g81
g62
NtRp3522
(dp3523
g65
(dp3524
sg74
g3518
sg67
(lp3525
g60
(g61
g62
NtRp3526
(dp3527
g65
(dp3528
g73
I1
ssg74
g3522
sg67
(lp3529
I00
asbasbasbag60
(g76
g62
NtRp3530
(dp3531
g65
(dp3532
sg74
g3501
sg67
(lp3533
g60
(g81
g62
NtRp3534
(dp3535
g65
(dp3536
sg74
g3530
sg67
(lp3537
g60
(g61
g62
NtRp3538
(dp3539
g65
(dp3540
g73
I1
ssg74
g3534
sg67
(lp3541
S'/admin/default/site'
p3542
asbasbasbasbasbasbasbag60
(g76
g62
NtRp3543
(dp3544
g65
(dp3545
sg74
g3485
sg67
(lp3546
g60
(g81
g62
NtRp3547
(dp3548
g65
(dp3549
sg74
g3543
sg67
(lp3550
g60
(g61
g62
NtRp3551
(dp3552
g65
(dp3553
g73
I2
ssg74
g3547
sg67
(lp3554
g60
(g69
g62
NtRp3555
(dp3556
g65
(dp3557
g73
I1
ssg74
Nsg67
(lp3558
g60
(g76
g62
NtRp3559
(dp3560
g65
(dp3561
sg74
g3555
sg67
(lp3562
g60
(g81
g62
NtRp3563
(dp3564
g65
(dp3565
sg74
g3559
sg67
(lp3566
g60
(g61
g62
NtRp3567
(dp3568
g65
(dp3569
g73
I1
ssg74
g3563
sg67
(lp3570
g3371
(S's\x08\x00\x00\x00This App'
tRp3571
asbasbasbag60
(g76
g62
NtRp3572
(dp3573
g65
(dp3574
sg74
g3555
sg67
(lp3575
g60
(g81
g62
NtRp3576
(dp3577
g65
(dp3578
sg74
g3572
sg67
(lp3579
g60
(g61
g62
NtRp3580
(dp3581
g65
(dp3582
g73
I1
ssg74
g3576
sg67
(lp3583
I00
asbasbasbag60
(g76
g62
NtRp3584
(dp3585
g65
(dp3586
sg74
g3555
sg67
(lp3587
g60
(g81
g62
NtRp3588
(dp3589
g65
(dp3590
sg74
g3584
sg67
(lp3591
g60
(g61
g62
NtRp3592
(dp3593
g65
(dp3594
g73
I1
ssg74
g3588
sg67
(lp3595
S'/admin/default/design/init'
p3596
asbasbasbag60
(g76
g62
NtRp3597
(dp3598
g65
(dp3599
sg74
g3555
sg67
(lp3600
g60
(g81
g62
NtRp3601
(dp3602
g65
(dp3603
sg74
g3597
sg67
(lp3604
g60
(g61
g62
NtRp3605
(dp3606
g65
(dp3607
g73
I1
ssg74
g3601
sg67
(lp3608
(lp3609
(g3371
(S's\n\x00\x00\x00Controller'
tRp3610
I00
S'/admin/default/edit/init/controllers/default.py'
tp3611
a(g3371
(S's\x04\x00\x00\x00View'
tRp3612
I00
S'/admin/default/edit/init/views/default/index.html'
tp3613
a(g3371
(S's\x06\x00\x00\x00Layout'
tRp3614
I00
S'/admin/default/edit/init/views/layout.html'
tp3615
a(g3371
(S's\n\x00\x00\x00Stylesheet'
tRp3616
I00
S'/admin/default/edit/init/static/css/web2py.css'
tp3617
a(g3371
(S's\x08\x00\x00\x00DB Model'
tRp3618
I00
S'/admin/default/edit/init/models/db.py'
tp3619
a(g3371
(S's\n\x00\x00\x00Menu Model'
tRp3620
I00
S'/admin/default/edit/init/models/menu.py'
tp3621
a(g3371
(S's\x08\x00\x00\x00Database'
tRp3622
I00
S'/init/appadmin/index'
tp3623
a(g3371
(S's\x06\x00\x00\x00Errors'
tRp3624
I00
S'/admin/default/errors/init'
tp3625
a(g3371
(S's\x05\x00\x00\x00About'
tRp3626
I00
S'/admin/default/about/init'
tp3627
aasbasbasbasbasbasbasbag60
(g76
g62
NtRp3628
(dp3629
g65
(dp3630
sg74
g3485
sg67
(lp3631
g60
(g81
g62
NtRp3632
(dp3633
g65
(dp3634
sg74
g3628
sg67
(lp3635
g60
(g61
g62
NtRp3636
(dp3637
g65
(dp3638
g73
I2
ssg74
g3632
sg67
(lp3639
g60
(g69
g62
NtRp3640
(dp3641
g65
(dp3642
g73
I1
ssg74
Nsg67
(lp3643
g60
(g76
g62
NtRp3644
(dp3645
g65
(dp3646
sg74
g3640
sg67
(lp3647
g60
(g81
g62
NtRp3648
(dp3649
g65
(dp3650
sg74
g3644
sg67
(lp3651
g60
(g61
g62
NtRp3652
(dp3653
g65
(dp3654
g73
I1
ssg74
g3648
sg67
(lp3655
S'web2py.com'
p3656
asbasbasbag60
(g76
g62
NtRp3657
(dp3658
g65
(dp3659
sg74
g3640
sg67
(lp3660
g60
(g81
g62
NtRp3661
(dp3662
g65
(dp3663
sg74
g3657
sg67
(lp3664
g60
(g61
g62
NtRp3665
(dp3666
g65
(dp3667
g73
I1
ssg74
g3661
sg67
(lp3668
I00
asbasbasbag60
(g76
g62
NtRp3669
(dp3670
g65
(dp3671
sg74
g3640
sg67
(lp3672
g60
(g81
g62
NtRp3673
(dp3674
g65
(dp3675
sg74
g3669
sg67
(lp3676
g60
(g61
g62
NtRp3677
(dp3678
g65
(dp3679
g73
I1
ssg74
g3673
sg67
(lp3680
S'http://www.web2py.com'
p3681
asbasbasbag60
(g76
g62
NtRp3682
(dp3683
g65
(dp3684
sg74
g3640
sg67
(lp3685
g60
(g81
g62
NtRp3686
(dp3687
g65
(dp3688
sg74
g3682
sg67
(lp3689
g60
(g61
g62
NtRp3690
(dp3691
g65
(dp3692
g73
I1
ssg74
g3686
sg67
(lp3693
(lp3694
(g3371
(S's\x08\x00\x00\x00Download'
tRp3695
I00
S'http://www.web2py.com/examples/default/download'
p3696
tp3697
a(g3371
(S's\x07\x00\x00\x00Support'
tRp3698
I00
S'http://www.web2py.com/examples/default/support'
p3699
tp3700
a(g3371
(S's\x04\x00\x00\x00Demo'
tRp3701
I00
S'http://web2py.com/demo_admin'
p3702
tp3703
a(g3371
(S's\x0e\x00\x00\x00Quick Examples'
tRp3704
I00
S'http://web2py.com/examples/default/examples'
p3705
tp3706
a(g3371
(S's\x03\x00\x00\x00FAQ'
tRp3707
I00
S'http://web2py.com/AlterEgo'
p3708
tp3709
a(g3371
(S's\x06\x00\x00\x00Videos'
tRp3710
I00
S'http://www.web2py.com/examples/default/videos/'
p3711
tp3712
a(g3371
(S's\x11\x00\x00\x00Free Applications'
tRp3713
I00
S'http://web2py.com/appliances'
p3714
tp3715
a(g3371
(S's\x07\x00\x00\x00Plugins'
tRp3716
I00
S'http://web2py.com/plugins'
p3717
tp3718
a(g3371
(S's\x07\x00\x00\x00Layouts'
tRp3719
I00
S'http://web2py.com/layouts'
p3720
tp3721
a(g3371
(S's\x07\x00\x00\x00Recipes'
tRp3722
I00
S'http://web2pyslices.com/'
p3723
tp3724
a(g3371
(S's\x08\x00\x00\x00Semantic'
tRp3725
I00
S'http://web2py.com/semantic'
p3726
tp3727
aasbasbasbasbasbasbasbag60
(g76
g62
NtRp3728
(dp3729
g65
(dp3730
sg74
g3485
sg67
(lp3731
g60
(g81
g62
NtRp3732
(dp3733
g65
(dp3734
sg74
g3728
sg67
(lp3735
g60
(g61
g62
NtRp3736
(dp3737
g65
(dp3738
g73
I2
ssg74
g3732
sg67
(lp3739
g60
(g69
g62
NtRp3740
(dp3741
g65
(dp3742
g73
I1
ssg74
Nsg67
(lp3743
g60
(g76
g62
NtRp3744
(dp3745
g65
(dp3746
sg74
g3740
sg67
(lp3747
g60
(g81
g62
NtRp3748
(dp3749
g65
(dp3750
sg74
g3744
sg67
(lp3751
g60
(g61
g62
NtRp3752
(dp3753
g65
(dp3754
g73
I1
ssg74
g3748
sg67
(lp3755
g3371
(S's\r\x00\x00\x00Documentation'
tRp3756
asbasbasbag60
(g76
g62
NtRp3757
(dp3758
g65
(dp3759
sg74
g3740
sg67
(lp3760
g60
(g81
g62
NtRp3761
(dp3762
g65
(dp3763
sg74
g3757
sg67
(lp3764
g60
(g61
g62
NtRp3765
(dp3766
g65
(dp3767
g73
I1
ssg74
g3761
sg67
(lp3768
I00
asbasbasbag60
(g76
g62
NtRp3769
(dp3770
g65
(dp3771
sg74
g3740
sg67
(lp3772
g60
(g81
g62
NtRp3773
(dp3774
g65
(dp3775
sg74
g3769
sg67
(lp3776
g60
(g61
g62
NtRp3777
(dp3778
g65
(dp3779
g73
I1
ssg74
g3773
sg67
(lp3780
S'http://www.web2py.com/book'
p3781
asbasbasbag60
(g76
g62
NtRp3782
(dp3783
g65
(dp3784
sg74
g3740
sg67
(lp3785
g60
(g81
g62
NtRp3786
(dp3787
g65
(dp3788
sg74
g3782
sg67
(lp3789
g60
(g61
g62
NtRp3790
(dp3791
g65
(dp3792
g73
I1
ssg74
g3786
sg67
(lp3793
(lp3794
(g3371
(S's\x07\x00\x00\x00Preface'
tRp3795
I00
S'http://www.web2py.com/book/default/chapter/00'
p3796
tp3797
a(g3371
(S's\x0c\x00\x00\x00Introduction'
tRp3798
I00
S'http://www.web2py.com/book/default/chapter/01'
p3799
tp3800
a(g3371
(S's\x06\x00\x00\x00Python'
tRp3801
I00
S'http://www.web2py.com/book/default/chapter/02'
p3802
tp3803
a(g3371
(S's\x08\x00\x00\x00Overview'
tRp3804
I00
S'http://www.web2py.com/book/default/chapter/03'
p3805
tp3806
a(g3371
(S's\x08\x00\x00\x00The Core'
tRp3807
I00
S'http://www.web2py.com/book/default/chapter/04'
p3808
tp3809
a(g3371
(S's\t\x00\x00\x00The Views'
tRp3810
I00
S'http://www.web2py.com/book/default/chapter/05'
p3811
tp3812
a(g3371
(S's\x08\x00\x00\x00Database'
tRp3813
I00
S'http://www.web2py.com/book/default/chapter/06'
p3814
tp3815
a(g3371
(S's\x14\x00\x00\x00Forms and Validators'
tRp3816
I00
S'http://www.web2py.com/book/default/chapter/07'
p3817
tp3818
a(g3371
(S's\r\x00\x00\x00Email and SMS'
tRp3819
I00
S'http://www.web2py.com/book/default/chapter/08'
p3820
tp3821
a(g3371
(S's\x0e\x00\x00\x00Access Control'
tRp3822
I00
S'http://www.web2py.com/book/default/chapter/09'
p3823
tp3824
a(g3371
(S's\x08\x00\x00\x00Services'
tRp3825
I00
S'http://www.web2py.com/book/default/chapter/10'
p3826
tp3827
a(g3371
(S's\x0c\x00\x00\x00Ajax Recipes'
tRp3828
I00
S'http://www.web2py.com/book/default/chapter/11'
p3829
tp3830
a(g3371
(S's\x16\x00\x00\x00Components and Plugins'
tRp3831
I00
S'http://www.web2py.com/book/default/chapter/12'
p3832
tp3833
a(g3371
(S's\x12\x00\x00\x00Deployment Recipes'
tRp3834
I00
S'http://www.web2py.com/book/default/chapter/13'
p3835
tp3836
a(g3371
(S's\r\x00\x00\x00Other Recipes'
tRp3837
I00
S'http://www.web2py.com/book/default/chapter/14'
p3838
tp3839
a(g3371
(S's\r\x00\x00\x00Buy this book'
tRp3840
I00
S'http://stores.lulu.com/web2py'
p3841
tp3842
aasbasbasbasbasbasbasbag60
(g76
g62
NtRp3843
(dp3844
g65
(dp3845
sg74
g3485
sg67
(lp3846
g60
(g81
g62
NtRp3847
(dp3848
g65
(dp3849
sg74
g3843
sg67
(lp3850
g60
(g61
g62
NtRp3851
(dp3852
g65
(dp3853
g73
I2
ssg74
g3847
sg67
(lp3854
g60
(g69
g62
NtRp3855
(dp3856
g65
(dp3857
g73
I1
ssg74
Nsg67
(lp3858
g60
(g76
g62
NtRp3859
(dp3860
g65
(dp3861
sg74
g3855
sg67
(lp3862
g60
(g81
g62
NtRp3863
(dp3864
g65
(dp3865
sg74
g3859
sg67
(lp3866
g60
(g61
g62
NtRp3867
(dp3868
g65
(dp3869
g73
I1
ssg74
g3863
sg67
(lp3870
g3371
(S's\t\x00\x00\x00Community'
tRp3871
asbasbasbag60
(g76
g62
NtRp3872
(dp3873
g65
(dp3874
sg74
g3855
sg67
(lp3875
g60
(g81
g62
NtRp3876
(dp3877
g65
(dp3878
sg74
g3872
sg67
(lp3879
g60
(g61
g62
NtRp3880
(dp3881
g65
(dp3882
g73
I1
ssg74
g3876
sg67
(lp3883
I00
asbasbasbag60
(g76
g62
NtRp3884
(dp3885
g65
(dp3886
sg74
g3855
sg67
(lp3887
g60
(g81
g62
NtRp3888
(dp3889
g65
(dp3890
sg74
g3884
sg67
(lp3891
g60
(g61
g62
NtRp3892
(dp3893
g65
(dp3894
g73
I1
ssg74
g3888
sg67
(lp3895
Nasbasbasbag60
(g76
g62
NtRp3896
(dp3897
g65
(dp3898
sg74
g3855
sg67
(lp3899
g60
(g81
g62
NtRp3900
(dp3901
g65
(dp3902
sg74
g3896
sg67
(lp3903
g60
(g61
g62
NtRp3904
(dp3905
g65
(dp3906
g73
I1
ssg74
g3900
sg67
(lp3907
(lp3908
(g3371
(S's\x06\x00\x00\x00Groups'
tRp3909
I00
S'http://www.web2py.com/examples/default/usergroups'
p3910
tp3911
a(g3371
(S's\x07\x00\x00\x00Twitter'
tRp3912
I00
S'http://twitter.com/web2py'
p3913
tp3914
a(g3371
(S's\t\x00\x00\x00Live Chat'
tRp3915
I00
S'http://webchat.freenode.net/?channels=web2py'
p3916
tp3917
aasbasbasbasbasbasbasbag60
(g76
g62
NtRp3918
(dp3919
g65
(dp3920
sg74
g3485
sg67
(lp3921
g60
(g81
g62
NtRp3922
(dp3923
g65
(dp3924
sg74
g3918
sg67
(lp3925
g60
(g61
g62
NtRp3926
(dp3927
g65
(dp3928
g73
I2
ssg74
g3922
sg67
(lp3929
g60
(g69
g62
NtRp3930
(dp3931
g65
(dp3932
g73
I1
ssg74
Nsg67
(lp3933
g60
(g76
g62
NtRp3934
(dp3935
g65
(dp3936
sg74
g3930
sg67
(lp3937
g60
(g81
g62
NtRp3938
(dp3939
g65
(dp3940
sg74
g3934
sg67
(lp3941
g60
(g61
g62
NtRp3942
(dp3943
g65
(dp3944
g73
I1
ssg74
g3938
sg67
(lp3945
g3371
(S's\x07\x00\x00\x00Plugins'
tRp3946
asbasbasbag60
(g76
g62
NtRp3947
(dp3948
g65
(dp3949
sg74
g3930
sg67
(lp3950
g60
(g81
g62
NtRp3951
(dp3952
g65
(dp3953
sg74
g3947
sg67
(lp3954
g60
(g61
g62
NtRp3955
(dp3956
g65
(dp3957
g73
I1
ssg74
g3951
sg67
(lp3958
I00
asbasbasbag60
(g76
g62
NtRp3959
(dp3960
g65
(dp3961
sg74
g3930
sg67
(lp3962
g60
(g81
g62
NtRp3963
(dp3964
g65
(dp3965
sg74
g3959
sg67
(lp3966
g60
(g61
g62
NtRp3967
(dp3968
g65
(dp3969
g73
I1
ssg74
g3963
sg67
(lp3970
Nasbasbasbag60
(g76
g62
NtRp3971
(dp3972
g65
(dp3973
sg74
g3930
sg67
(lp3974
g60
(g81
g62
NtRp3975
(dp3976
g65
(dp3977
sg74
g3971
sg67
(lp3978
g60
(g61
g62
NtRp3979
(dp3980
g65
(dp3981
g73
I1
ssg74
g3975
sg67
(lp3982
(lp3983
(S'plugin_wiki'
p3984
I00
S'http://web2py.com/examples/default/download'
p3985
tp3986
a(g3371
(S's\r\x00\x00\x00Other Plugins'
tRp3987
I00
g3717
tp3988
a(g3371
(S's\x0e\x00\x00\x00Layout Plugins'
tRp3989
I00
g3720
tp3990
aasbasbasbasbasbasbasbasbasbasbasbasbasbasbasbasbasbasbasbag60
(g76
g62
NtRp3991
(dp3992
g65
(dp3993
sg74
g2835
sg67
(lp3994
g60
(g81
g62
NtRp3995
(dp3996
g65
(dp3997
g85
g86
ssg74
g3991
sg67
(lp3998
S'meta'
p3999
asbag60
(g81
g62
NtRp4000
(dp4001
g65
(dp4002
g92
g93
ssg74
g3991
sg67
(lp4003
S':'
asbag60
(g81
g62
NtRp4004
(dp4005
g65
(dp4006
sg74
g3991
sg67
(lp4007
g60
(g61
g62
NtRp4008
(dp4009
g65
(dp4010
g73
I5
ssg74
g4004
sg67
(lp4011
g60
(g69
g62
NtRp4012
(dp4013
g65
(dp4014
g73
I4
ssg74
Nsg67
(lp4015
g60
(g76
g62
NtRp4016
(dp4017
g65
(dp4018
sg74
g4012
sg67
(lp4019
g60
(g81
g62
NtRp4020
(dp4021
g65
(dp4022
g85
g86
ssg74
g4016
sg67
(lp4023
S'author'
p4024
asbag60
(g81
g62
NtRp4025
(dp4026
g65
(dp4027
g92
g93
ssg74
g4016
sg67
(lp4028
S':'
asbag60
(g81
g62
NtRp4029
(dp4030
g65
(dp4031
sg74
g4016
sg67
(lp4032
g60
(g61
g62
NtRp4033
(dp4034
g65
(dp4035
g73
I4
ssg74
g4029
sg67
(lp4036
S'Your Name <you@example.com>'
p4037
asbasbasbag60
(g76
g62
NtRp4038
(dp4039
g65
(dp4040
sg74
g4012
sg67
(lp4041
g60
(g81
g62
NtRp4042
(dp4043
g65
(dp4044
g85
g86
ssg74
g4038
sg67
(lp4045
S'copyright'
p4046
asbag60
(g81
g62
NtRp4047
(dp4048
g65
(dp4049
g92
g93
ssg74
g4038
sg67
(lp4050
S':'
asbag60
(g81
g62
NtRp4051
(dp4052
g65
(dp4053
sg74
g4038
sg67
(lp4054
g60
(g61
g62
NtRp4055
(dp4056
g65
(dp4057
g73
I4
ssg74
g4051
sg67
(lp4058
S'Copyright 2011'
p4059
asbasbasbag60
(g76
g62
NtRp4060
(dp4061
g65
(dp4062
sg74
g4012
sg67
(lp4063
g60
(g81
g62
NtRp4064
(dp4065
g65
(dp4066
g85
g86
ssg74
g4060
sg67
(lp4067
S'description'
p4068
asbag60
(g81
g62
NtRp4069
(dp4070
g65
(dp4071
g92
g93
ssg74
g4060
sg67
(lp4072
S':'
asbag60
(g81
g62
NtRp4073
(dp4074
g65
(dp4075
sg74
g4060
sg67
(lp4076
g60
(g61
g62
NtRp4077
(dp4078
g65
(dp4079
g73
I4
ssg74
g4073
sg67
(lp4080
S'a cool new app'
p4081
asbasbasbag60
(g76
g62
NtRp4082
(dp4083
g65
(dp4084
sg74
g4012
sg67
(lp4085
g60
(g81
g62
NtRp4086
(dp4087
g65
(dp4088
g85
g86
ssg74
g4082
sg67
(lp4089
S'generator'
p4090
asbag60
(g81
g62
NtRp4091
(dp4092
g65
(dp4093
g92
g93
ssg74
g4082
sg67
(lp4094
S':'
asbag60
(g81
g62
NtRp4095
(dp4096
g65
(dp4097
sg74
g4082
sg67
(lp4098
g60
(g61
g62
NtRp4099
(dp4100
g65
(dp4101
g73
I4
ssg74
g4095
sg67
(lp4102
S'Web2py Web Framework'
p4103
asbasbasbag60
(g76
g62
NtRp4104
(dp4105
g65
(dp4106
sg74
g4012
sg67
(lp4107
g60
(g81
g62
NtRp4108
(dp4109
g65
(dp4110
g85
g86
ssg74
g4104
sg67
(lp4111
S'keywords'
p4112
asbag60
(g81
g62
NtRp4113
(dp4114
g65
(dp4115
g92
g93
ssg74
g4104
sg67
(lp4116
S':'
asbag60
(g81
g62
NtRp4117
(dp4118
g65
(dp4119
sg74
g4104
sg67
(lp4120
g60
(g61
g62
NtRp4121
(dp4122
g65
(dp4123
g73
I4
ssg74
g4117
sg67
(lp4124
S'web2py, python, framework'
p4125
asbasbasbasbasbasbasbag60
(g76
g62
NtRp4126
(dp4127
g65
(dp4128
sg74
g2835
sg67
(lp4129
g60
(g81
g62
NtRp4130
(dp4131
g65
(dp4132
g85
g86
ssg74
g4126
sg67
(lp4133
S'postprocessing'
p4134
asbag60
(g81
g62
NtRp4135
(dp4136
g65
(dp4137
g92
g93
ssg74
g4126
sg67
(lp4138
S':'
asbag60
(g81
g62
NtRp4139
(dp4140
g65
(dp4141
sg74
g4126
sg67
(lp4142
g60
(g61
g62
NtRp4143
(dp4144
g65
(dp4145
g73
I5
ssg74
g4139
sg67
(lp4146
g60
(g69
g62
NtRp4147
(dp4148
g65
(dp4149
g73
I4
ssg74
Nsg67
(lp4150
sbasbasbasbag60
(g76
g62
NtRp4151
(dp4152
g65
(dp4153
sg74
g2835
sg67
(lp4154
g60
(g81
g62
NtRp4155
(dp4156
g65
(dp4157
g85
g86
ssg74
g4151
sg67
(lp4158
S'session_db'
p4159
asbag60
(g81
g62
NtRp4160
(dp4161
g65
(dp4162
g92
g93
ssg74
g4151
sg67
(lp4163
S':'
asbag60
(g81
g62
NtRp4164
(dp4165
g65
(dp4166
sg74
g4151
sg67
(lp4167
g60
(g61
g62
NtRp4168
(dp4169
g65
(dp4170
g73
I5
ssg74
g4164
sg67
(lp4171
g737
asbasbasbag60
(g76
g62
NtRp4172
(dp4173
g65
(dp4174
sg74
g2835
sg67
(lp4175
g60
(g81
g62
NtRp4176
(dp4177
g65
(dp4178
g85
g86
ssg74
g4172
sg67
(lp4179
S'session_id'
p4180
asbag60
(g81
g62
NtRp4181
(dp4182
g65
(dp4183
g92
g93
ssg74
g4172
sg67
(lp4184
S':'
asbag60
(g81
g62
NtRp4185
(dp4186
g65
(dp4187
sg74
g4172
sg67
(lp4188
g60
(g61
g62
NtRp4189
(dp4190
g65
(dp4191
g73
I5
ssg74
g4185
sg67
(lp4192
S'23:f93ffc77-47dd-4300-b481-5f82165b57dd'
p4193
asbasbasbag60
(g76
g62
NtRp4194
(dp4195
g65
(dp4196
sg74
g2835
sg67
(lp4197
g60
(g81
g62
NtRp4198
(dp4199
g65
(dp4200
g85
g86
ssg74
g4194
sg67
(lp4201
S'session_id_name'
p4202
asbag60
(g81
g62
NtRp4203
(dp4204
g65
(dp4205
g92
g93
ssg74
g4194
sg67
(lp4206
S':'
asbag60
(g81
g62
NtRp4207
(dp4208
g65
(dp4209
sg74
g4194
sg67
(lp4210
g60
(g61
g62
NtRp4211
(dp4212
g65
(dp4213
g73
I5
ssg74
g4207
sg67
(lp4214
S'session_id_init'
p4215
asbasbasbag60
(g76
g62
NtRp4216
(dp4217
g65
(dp4218
sg74
g2835
sg67
(lp4219
g60
(g81
g62
NtRp4220
(dp4221
g65
(dp4222
g85
g86
ssg74
g4216
sg67
(lp4223
S'status'
p4224
asbag60
(g81
g62
NtRp4225
(dp4226
g65
(dp4227
g92
g93
ssg74
g4216
sg67
(lp4228
S':'
asbag60
(g81
g62
NtRp4229
(dp4230
g65
(dp4231
sg74
g4216
sg67
(lp4232
g60
(g61
g62
NtRp4233
(dp4234
g65
(dp4235
g73
I5
ssg74
g4229
sg67
(lp4236
S'200'
p4237
asbasbasbag60
(g76
g62
NtRp4238
(dp4239
g65
(dp4240
sg74
g2835
sg67
(lp4241
g60
(g81
g62
NtRp4242
(dp4243
g65
(dp4244
g85
g86
ssg74
g4238
sg67
(lp4245
S'subtitle'
p4246
asbag60
(g81
g62
NtRp4247
(dp4248
g65
(dp4249
g92
g93
ssg74
g4238
sg67
(lp4250
S':'
asbag60
(g81
g62
NtRp4251
(dp4252
g65
(dp4253
sg74
g4238
sg67
(lp4254
g60
(g61
g62
NtRp4255
(dp4256
g65
(dp4257
g73
I5
ssg74
g4251
sg67
(lp4258
g3371
(S's\r\x00\x00\x00customize me!'
tRp4259
asbasbasbag60
(g76
g62
NtRp4260
(dp4261
g65
(dp4262
sg74
g2835
sg67
(lp4263
g60
(g81
g62
NtRp4264
(dp4265
g65
(dp4266
g85
g86
ssg74
g4260
sg67
(lp4267
S'title'
p4268
asbag60
(g81
g62
NtRp4269
(dp4270
g65
(dp4271
g92
g93
ssg74
g4260
sg67
(lp4272
S':'
asbag60
(g81
g62
NtRp4273
(dp4274
g65
(dp4275
sg74
g4260
sg67
(lp4276
g60
(g61
g62
NtRp4277
(dp4278
g65
(dp4279
g73
I5
ssg74
g4273
sg67
(lp4280
S'Init'
p4281
asbasbasbag60
(g76
g62
NtRp4282
(dp4283
g65
(dp4284
sg74
g2835
sg67
(lp4285
g60
(g81
g62
NtRp4286
(dp4287
g65
(dp4288
g85
g86
ssg74
g4282
sg67
(lp4289
g2118
asbag60
(g81
g62
NtRp4290
(dp4291
g65
(dp4292
g92
g93
ssg74
g4282
sg67
(lp4293
S':'
asbag60
(g81
g62
NtRp4294
(dp4295
g65
(dp4296
sg74
g4282
sg67
(lp4297
g60
(g61
g62
NtRp4298
(dp4299
g65
(dp4300
g73
I5
ssg74
g4294
sg67
(lp4301
g2131
asbasbasbag60
(g76
g62
NtRp4302
(dp4303
g65
(dp4304
sg74
g2835
sg67
(lp4305
g60
(g81
g62
NtRp4306
(dp4307
g65
(dp4308
g85
g86
ssg74
g4302
sg67
(lp4309
S'view'
p4310
asbag60
(g81
g62
NtRp4311
(dp4312
g65
(dp4313
g92
g93
ssg74
g4302
sg67
(lp4314
S':'
asbag60
(g81
g62
NtRp4315
(dp4316
g65
(dp4317
sg74
g4302
sg67
(lp4318
g60
(g61
g62
NtRp4319
(dp4320
g65
(dp4321
g73
I5
ssg74
g4315
sg67
(lp4322
S'default/index.html'
p4323
asbasbasbasbasbsS'locals'
p4324
(dp4325
g4
S"r'C:\\Users\\Bussiere\\Dropbox\\Projets\\jackpoint\\web2py\\applications\\init\\views\\default/index.html'"
p4326
sg6
S'\'response.write(\\\'<!DOCTYPE HTML>\\\\r\\\\n<html>\\\\r\\\\n<he..."></script>\\\\r\\\\n</body>\\\\r\\\\n</html>\\\', escape=False)\''
p4327
sssS'traceback'
p4328
S'Traceback (most recent call last):\n  File "gluon/restricted.py", line 204, in restricted\n  File "gluon/restricted.py", line 189, in compile2\n  File "C:\\Users\\Bussiere\\Dropbox\\Projets\\jackpoint\\web2py\\applications\\init\\views\\default/index.html", line 6\n    response.write(URL(\'static\',\'js/jquery-1.7.1.min.js))\n                                                        ^\nSyntaxError: EOL while scanning single-quoted string\n'
p4329
s.