(dp1
S'output'
p2
S"<type 'exceptions.SyntaxError'> Field parent does not belong to the table"
p3
sS'layer'
p4
S'C:\\Users\\Bussiere\\Dropbox\\Projets\\jackpoint\\web2py\\applications\\init\\controllers/default.py'
p5
sS'code'
p6
S'\xef\xbb\xbf# -*- coding: utf-8 -*-\n# this file is released under public domain and you can use without limitations\n\n#########################################################################\n## This is a samples controller\n## - index is the default action of any application\n## - user is required for authentication and authorization\n## - download is for downloading files uploaded in the db (does streaming)\n## - call exposes all registered services (none by default)\n#########################################################################\n# Static analyzer import helpers: (STATIC_IMPORT_MARK)\nif 0: \n    import gluon\n    global cache; cache = gluon.cache.Cache()\n    global LOAD; LOAD  = gluon.compileapp.LoadFactory()\n    import gluon.compileapp.local_import_aux as local_import #@UnusedImport\n    from gluon.contrib.gql import GQLDB #@UnusedImport\n    from gluon.dal import Field #@UnusedImport\n    global request; request = gluon.globals.Request()\n    global response; response = gluon.globals.Response()\n    global session; session = gluon.globals.Session()\n    from gluon.html import A #@UnusedImport\n    from gluon.html import B #@UnusedImport\n    from gluon.html import BEAUTIFY #@UnusedImport\n    from gluon.html import BODY #@UnusedImport\n    from gluon.html import BR #@UnusedImport\n    from gluon.html import CENTER #@UnusedImport\n    from gluon.html import CODE #@UnusedImport\n    from gluon.html import DIV #@UnusedImport\n    from gluon.html import EM #@UnusedImport\n    from gluon.html import EMBED #@UnusedImport\n    from gluon.html import embed64 #@UnusedImport\n    from gluon.html import FIELDSET #@UnusedImport\n    from gluon.html import FORM #@UnusedImport\n    from gluon.html import H1 #@UnusedImport\n    from gluon.html import H2 #@UnusedImport\n    from gluon.html import H3 #@UnusedImport\n    from gluon.html import H4 #@UnusedImport\n    from gluon.html import H5 #@UnusedImport\n    from gluon.html import H6 #@UnusedImport\n    from gluon.html import HEAD #@UnusedImport\n    from gluon.html import HR #@UnusedImport\n    from gluon.html import HTML #@UnusedImport\n    from gluon.html import I #@UnusedImport\n    from gluon.html import IFRAME #@UnusedImport\n    from gluon.html import IMG #@UnusedImport\n    from gluon.html import INPUT #@UnusedImport\n    from gluon.html import LABEL #@UnusedImport\n    from gluon.html import LEGEND #@UnusedImport\n    from gluon.html import LI #@UnusedImport\n    from gluon.html import LINK #@UnusedImport\n    from gluon.html import MARKMIN #@UnusedImport\n    from gluon.html import MENU #@UnusedImport\n    from gluon.html import META #@UnusedImport\n    from gluon.html import OBJECT #@UnusedImport\n    from gluon.html import OL #@UnusedImport\n    from gluon.html import ON #@UnusedImport\n    from gluon.html import OPTGROUP #@UnusedImport\n    from gluon.html import OPTION #@UnusedImport\n    from gluon.html import P #@UnusedImport\n    from gluon.html import PRE #@UnusedImport\n    from gluon.html import STYLE #@UnusedImport\n    from gluon.html import SCRIPT #@UnusedImport\n    from gluon.html import SELECT #@UnusedImport\n    from gluon.html import SPAN #@UnusedImport\n    from gluon.html import TABLE #@UnusedImport\n    from gluon.html import TAG #@UnusedImport\n    from gluon.html import TBODY #@UnusedImport\n    from gluon.html import TD #@UnusedImport\n    from gluon.html import TEXTAREA #@UnusedImport\n    from gluon.html import TFOOT #@UnusedImport\n    from gluon.html import TH  #@UnusedImport\n    from gluon.html import THEAD #@UnusedImport\n    from gluon.html import TITLE #@UnusedImport\n    from gluon.html import TR #@UnusedImport\n    from gluon.html import TT #@UnusedImport\n    from gluon.html import UL #@UnusedImport\n    from gluon.html import URL #@UnusedImport\n    from gluon.html import XHTML #@UnusedImport\n    from gluon.html import XML #@UnusedImport\n    from gluon.html import xmlescape #@UnusedImport\n    from gluon.http import HTTP #@UnusedImport\n    from gluon.http import redirect #@UnusedImport\n    import gluon.languages.translator as T #@UnusedImport\n    from gluon.sql import DAL\n    global db; db = DAL()\n    from gluon.sql import SQLDB #@UnusedImport\n    from gluon.sql import SQLField #@UnusedImport\n    from gluon.sqlhtml import SQLFORM #@UnusedImport\n    from gluon.sqlhtml import SQLTABLE #@UnusedImport\n    from gluon.tools import  Auth\n    global auth; auth = Auth()\n    from gluon.tools import Crud\n    global crud; crud = Crud()\n    from gluon.tools import fetch #@UnusedImport\n    from gluon.tools import geocode #@UnusedImport\n    from gluon.tools import Mail\n    global mail; mail = Mail()\n    from gluon.tools import PluginManager\n    global plugins; plugins = PluginManager()\n    from gluon.tools import prettydate #@UnusedImport\n    from gluon.tools import Recaptcha #@UnusedImport\n    from gluon.tools import Service\n    global service; service = Service()\n    from gluon.validators import CLEANUP  #@UnusedImport\n    from gluon.validators import CRYPT #@UnusedImport\n    from gluon.validators import IS_ALPHANUMERIC #@UnusedImport\n    from gluon.validators import IS_DATE #@UnusedImport\n    from gluon.validators import IS_DATE_IN_RANGE #@UnusedImport\n    from gluon.validators import IS_DATETIME #@UnusedImport\n    from gluon.validators import IS_DATETIME_IN_RANGE #@UnusedImport\n    from gluon.validators import IS_DECIMAL_IN_RANGE #@UnusedImport\n    from gluon.validators import IS_EMAIL #@UnusedImport\n    from gluon.validators import IS_EMPTY_OR #@UnusedImport\n    from gluon.validators import IS_EQUAL_TO #@UnusedImport\n    from gluon.validators import IS_EXPR #@UnusedImport\n    from gluon.validators import IS_FLOAT_IN_RANGE #@UnusedImport\n    from gluon.validators import IS_IMAGE #@UnusedImport\n    from gluon.validators import IS_IN_DB #@UnusedImport\n    from gluon.validators import IS_IN_SET #@UnusedImport\n    from gluon.validators import IS_INT_IN_RANGE #@UnusedImport\n    from gluon.validators import IS_IPV4 #@UnusedImport\n    from gluon.validators import IS_LENGTH #@UnusedImport\n    from gluon.validators import IS_LIST_OF #@UnusedImport\n    from gluon.validators import IS_LOWER #@UnusedImport\n    from gluon.validators import IS_MATCH #@UnusedImport\n    from gluon.validators import IS_NOT_EMPTY #@UnusedImport\n    from gluon.validators import IS_NOT_IN_DB #@UnusedImport\n    from gluon.validators import IS_NULL_OR #@UnusedImport\n    from gluon.validators import IS_SLUG #@UnusedImport\n    from gluon.validators import IS_STRONG  #@UnusedImport\n    from gluon.validators import IS_TIME #@UnusedImport\n    from gluon.validators import IS_UPLOAD_FILENAME #@UnusedImport\n    from gluon.validators import IS_UPPER #@UnusedImpor\n\n\nimport random\nfrom uuid import uuid4\nfrom gluon.storage import Storage\nsettings = Storage()\n\n\ndef logout():\n    return auth.logout()\n\n\ndef index():\n    if auth.is_logged_in() :\n        return "You get the blue pills"\n    else :\n        return dict(form=auth.login(),faq=URL(\'faq\'))\n\n\n\ndef ensurefirstuser(Surnom, email, password):\n  users = db(db.auth_user.email == email).select()\n  if users:\n    user_id = users[0].id\n    created = False\n    print (\'found user_id so created equals %s\') % created\n    if settings.debug_ensure_first_user == True:\n      print (\'found user_id so created equals %s\') % created\n    return (user_id, created)\n\n  else:\n    my_crypt = CRYPT(key=auth.settings.hmac_key)\n    crypt_pass = my_crypt(password)[0]    \n    id_user = db.auth_user.insert(\n                   Surnom=Surnom,\n                   email=email,\n                   username=email,\n                   Items = None,\n                   Skills = None,\n                   password=crypt_pass,\n                                   )\n    db.commit()\n    created = True\n    print (\'creating user_id\')\n    if settings.debug_ensure_first_user == True:\n      print (\'creating user_id\')\n    return (id_user, created)\n\n    \n\n\ndef ensure_users():\n  user_id, created = _ensure_user(\'first\', \'last\', \'email@address.com\', \'UserPassword12345\')\n  if settings.debug_ensure_users == True:\n    print (\'user id %i\') % user_id\n    print (\'created %s\') % created\n\ndef ensure_group_role(role, description):\n  if not auth.id_group(role=role):  \n    auth.add_group(role=role, description=description)  \n    if settings.debug_ensure_group_role == True:\n      print (\'created role %s\') % (role)\n\ndef ensure_membership(group_id, user_id):\n  return_group_id = auth.add_membership(role=role, user_id=user_id)\n  if settings.debug_ensure_membership == True:\n    print (\'made user_id member of %s\') % (role)\n  return return_group_id\n \ndef ensure_permissions(role, description, user_id):\n  ensure_group_role(role, description)\n  return_group_id = ensure_membership(group_id, user_id)\n  if settings.debug_ensure_permissions == True:\n    print return_group_id\n\ndef generate_invitation(number,word=4,num=1,numdigit=5):\n    code = [\n[\'BELCHER\', \'FIX\', \'EEL\', \'PANZERBOY\', \'DESK_JOCKEY\', \'CHILLED\', \'ENFORCER\', \'CHERRY_PICKING\', \'COUNTRY_CLUB\', \'BOMBSHELL\', \'PLUGGED_IN\', \'FINI\', \'LEGIT\', \'JAM\', \'BONED_OUT\', \'BLADE\', \'ROUST\', \'SAMURAI\', \'DISK\', \'INPUT\', \'POST_TIME\', \'SOUNDS\', \'SKIP\', \'FLATBACKER\', \'WILSON\', \'SHOEMAKER\', \'DELTA_SIERRA\', \'HEART\', \'CROAK\', \'HEAD_HUNTER\', \'HOSHO_KAISHA\', "DELTA\'D", "\'FACE_(also,_FACE,_EYE-FACE,_I-FACE)", \'WEEFLE\', \'DIRTGIRL\', \'KEYBOARD\', \'BRAIN_BUCKET\', \'DRYING_OUT\', \'OVERCOOK\', \'PIG\', \'COLD_TEA\', \'RECONFIG\', \'PAD\', \'LIT_UP\', \'WRAITH\', \'HANDLE\', \'L.P.\', \'PINCH\', \'TAKE_A_CAB\', \'SPILL\', \'ACE_KOOL\', \'DO\', \'BIZ\', \'BROWNIE\', \'CANDLE_AND_BLOOD\', \'BLUEBOY\', \'UP_ON_IT\', \'BURN\', \'USER_INTERFACE\', \'HOB\', \'GYRO\', \'STUFFIT\', \'THATCH\', \'ICEBREAKER\', \'ZIP_GUN\', \'PETERMAN\', \'PLAY_DOUGH\', \'TREY-EIGHT\', \'SETTLE\', "CHIPPIN\'_IN", \'MEATBALL\', \'RAFFLES\', \'YUBITSUME\', \'CROAKER\', \'SUCKER_POCKETS\', \'L.A.M.A.\', \'GEEK\', \'BUTTONHEAD\'],\n[\'TAKE\', \'TEKIYA\', \'KURUMAKU\', \'BLOC\', \'GAT\', \'JOHATSU\', \'CRYSTAL\', \'A.I.\', \'ZEROED\', \'OVER_THE_SHOULDER\', \'GRAB_GEE\', \'PANZER\', \'GO_LEO\', \'WASHED\', \'I.C.E.\', \'COPSHOP\', \'COLLATERAL_DAMAGE\', \'BIG_DARK\', \'DOUBLE-DEUCE\', \'ZONEDANCE\', \'MARK\', \'COBBERS\', \'CHIMPIRA\', \'TRIADS\', \'SHANK\', \'FRAG\', \'BREATH_VAC\', "CHARLIE\'S_ANGEL", \'MULE\', \'BURNER\', "PACKIN\'", \'HOTDOGGER\', \'BOSOZOKU\', \'RIPPERDOC\', \'THIRDMAN\', \'MAXIMUM,_MAX\', \'CHOOH2_("CHOO")\', \'CRYO_MAX\', \'HEATER\', \'SHARK\', \'JOYGIRL\', \'GURENTAI\', \'BANDIT\', \'VENICE\', \'MIZU_SHOBAI\', \'PASTA_BOYS\', \'SQUID\', \'CYBERED_UP\', \'DEAD_RECKONING\', \'POPSICLE\', \'FAUST\', \'COLLARBOY\', \'SHOES\', \'TORCH\', \'DELTAJOCK\', \'BUTTERFLY_MAN\', \'WISE_GUYS\', \'BOOST\', \'CAIN\', \'FOUR-FIVE\', \'BREAK-DOWN\', \'POLYMER_ONE-SHOT\', \'FLAG\', \'CALL_GIRL\', \'IN_THE_HUNT\', \'HYDRO\', \'DOCK\', \'FENCE\', \'SHAIKUJIN\', \'GOMI\', \'FILTER\', \'SAINT_NICK\', \'LINEFOOT\', \'CAVALRY\', \'PUKE\', \'CONVERSION\', \'FINGER\', \'CONTRACT\'],\n[\'PLASTIC\', \'CRYSTALJOCKEY,_CRYSTALJOCK\', \'SCREW\', \'TOYSTORE\', \'DREAM_TIME\', \'EXOTIC\', \'WALKABOUT\', \'DIAMOND_SEASON\', \'SARAKIN\', \'CHRISTMAS_BUNDLES\', \'SHADES\', \'BUTTON_MAN\', \'FOXTROT_UNIFORM\', \'KAI\', \'UNDER_THE_PAINT\', \'MINIMUM\', \'TRIPLE_A\', \'PIG_ON_A_WHEEL\', \'BAG_MAN\', \'DIP\', \'PIGEONS\', \'MAN\', \'ADAM_HENRY\', \'HIGH\', \'HEAT\', \'NINJO\', \'KNIFE_FIGHT\', \'MOUTHPIECE\', \'AGRIPLEX\', \'DATA_TERM\', \'LIZ\', \'CHROMER\', \'OUTPUT\', \'N.O.E.\', \'CLOSE_A_CONTRACT\', \'LASSIE\', \'FLATLINE\', \'CHIV\', \'SING\', \'AMMO\', \'RAT\', \'MATCHBOX\', \'PULL_AN_ASH\', \'BORYOKUDAN\', \'SQUEEZE\', \'RONIN\', \'HIT\', \'RAGS\', \'TAKE_OUT\', \'BEAT_THE_RAP\', \'GIRI\', \'RUNNING_THE_LINE\', \'HARNESS\', \'GRAVEROBBER\', \'DROP_A_DIME\', \'BADGE_ON_A_BEAVER\', \'FLETCHER\', \'AMPED-OUT\', \'NEUTRALIZE\', \'PETER\', \'CONFIG\', \'HARDFIRE\', \'B.A.M.A.\', \'CHROMATIC_ROCK\', \'MOLDED\', \'RAD\', \'CREASED\', \'CHATTER_BOX\', \'HAND_CANNON\', \'NIPPERS\', \'SIERRA_HOTEL\', \'HOOK_UP\', \'-JOCKEY,_-JOCK\', \'BUG\', \'BATMAN_AND_ROBIN\', \'BLACK_OPERATIONS\', "D.C.\'S", \'SO_KA\'],\n[\'_A.A.A.\', \'HOME_PLATE\', \'LITEJACK\', \'PINEAPPLE\', \'MAKE\', \'THE_STREET\', \'SITREP\', \'HANGING_PAPER\', \'PAINT_BOYS\', \'WETWORK\', \'NINER\', \'BOOKIE\', \'WHIPLASH\', \'TORPEDO\', \'HEATWAVE\', \'SOLAR_WIND\', \'QUIFF\', \'BIKE\', \'TRAFFIC\', \'WIRE_ROOM\', \'OYABUN\', \'COWBOY\', \'KOBUN\', \'MUDBOY\', \'COP_OUT\', \'SOKAIYA\', "\'DORPH", \'JOYBOY\', \'DIRTY\', \'BOAT\', \'DROP\', \'GRAV_or_GEE\', \'APOGEE\', \'BOOSTER\', \'BOOK\', \'FRY\', \'PULLING_TEETH\', \'ONE_LARGE\', \'COMBAT_DRUGS\', \'THRASH\', \'DO_A_GHOST\', \'DELTA\', \'RIN_TIN_TIN\', \'DROP_OUT\', \'GUMI\', \'ROCKERBOY/GIRL\', \'BULLET\', \'DEB\', \'THREADING_THE_NEEDLE\', \'MOTOR\', \'BLEEDER\', \'ARC\', \'BOPPER\', \'WASTE\', \'_DEMUKAI\', \'BREAK\', \'HOLDING_DOWN\', \'FEDS\', \'GAP\', \'RABBI\', \'BAKUTO\', \'CHOMBATTA_(CHOOMBA)\', \'BIG_HATS\', \'MR._JOHNSON\', \'EXEC\', \'BULL\', \'BULLSEYE\', \'POSERGANG\', \'CHAOL\', \'GEISHA\', \'SLAMMIT_ON\', \'POP_CAPS\', \'HARD_TIME\', \'BENJI\', \'MAKING_BANK\', \'PAPERHANGER\', \'NETRUN\', \'BOGEY\'],\n]     \n    i = 0\n    invits = []\n    print number\n    while (i < number):\n        invit = ""\n        j = 0\n        while (j < word):\n            debut = random.randint(0,len(code)-1)\n            codepick = code[debut][random.randint(0,len(code[debut])-1)]\n            j += 1\n            invit += codepick+"-"\n        j = 0\n        while (j < num):\n            invit += randomdig(numdigit)+"-"\n            j += 1\n        i+= 1\n        invit = invit[:-1]\n        if invit not in invits :\n            invits.append(invit[:-1])\n            print invit\n    return invits\n        \ndef randomdig(number):\n    max = "9"*number\n    max = int(max)\n    rand =  random.randint(0,max)\n    rand = str(rand)\n    rand = "0"*(number-len(rand))+rand\n    return rand\n\n@auth.requires_login()\ndef inscriptioninvit():\n    form = SQLFORM(db[auth.settings.table_user_name])\n    return dict(form=form)\n\n\ndef userstuff():\n    return dict(rows1 = db().select(db.Carac.ALL),rows2 = db().select(db.SkillLevel.ALL) )\n\ndef initdbjack():\n    if db(db.auth_user.username == "bussiere").count() == 0:\n            password= "titi" \n            my_crypt = CRYPT(key=auth.settings.hmac_key)\n            crypt_pass = my_crypt(password)[0]  \n            buss = db.auth_user.insert(\n               email= "bussiere2@gmail.com",\n               username="bussiere",\n               password=crypt_pass,\n            )\n            jack = auth.add_group(\'Jack\', \'Jack master of none\')\n            auth.add_membership(jack, buss)\n            db.commit()  \n    db.commit() \n    carac = ["Force","Logique","Volonte","Charisme","Apparence","Dexterite"]\n    skills = { \n    "Physique":{\n                "Sport":{\n                         "Capoeira" :{ \n                                      "bengale":{}\n                                      },\n                        "Karate":{\n                                  "Nord" : {},\n                                  "Sud" : {},\n                                 },\n                         },\n            },\n\n\n    "Technique":{\n                "Mettalerrie" : {\n                                 "Forge" : {},\n                                  \n                                  },\n                 \n    },\n\n    "Savoir":{\n              "Informatique" : {\n                                   "Programmation" :{\n                                                     "Python" :{\n                                                                 "Django" : {} ,\n                                                                  "Web2py" : {}\n                                                                },\n                                                     "Methode" :{\n                                                                 "Uml":{},\n                                                                  "Merise": {}\n                                                                },\n                                                     },\n                                   },\n\n            },\n    }\n\n    for c in carac :\n        if db(db.Carac.Nom == c).count() == 0:\n            db.Carac.insert(Nom=c)\n\n    for level1 in skills.keys() :\n        i = 0\n        if db(db.Skill.Nom == level1).count() == 0:\n            Skill1 = db.SkillLevel.insert(Skill = (db.Skill.insert(Nom=level1)),Level = i)\n\n            for level2 in skills[level1].keys() :\n                i = 1\n                if db(db.Skill.Nom == level2).count() == 0:\n                    Skill2 = db.SkillLevel.insert(Skill = (db.Skill.insert(Nom=level2)),Level = i,parent = db(db.Skill.Nom==level1).select())\n                    for level3 in skills[level1][level2].keys() :\n                        i = 2\n                        if db(db.Skill.Nom == level3).count() == 0:\n                            Skill3 = db.SkillLevel.insert(Skill = (db.Skill.insert(Nom=level3)),Level = i,parent = db(db.Skill.Nom==level2).select())\n                            for level4 in skills[level1][level2][level3].keys() :\n                                i = 3\n                            if db(db.Skill.Nom == level4).count() == 0:\n                                Skill3 = db.SkillLevel.insert(Skill = (db.Skill.insert(Nom=level4)),Level = i,parent = db(db.Skill.Nom==level3).select())\n                                for level5 in skills[level1][level2][level3][level4].keys() :\n                                    i = 4\n                                    if db(db.Skill.Nom == level5).count() == 0:\n                                        Skill3 = db.SkillLevel.insert(Skill = (db.Skill.insert(Nom=level4)),Level = i,parent = db(db.Skill.Nom==level4).select())\n    db.commit() \n\n\n\n\n\n\n\ndef liste_invitations():\n    return dict(rows = db().select(db.Invitation.ALL))\n\ndef liste_user():\n    return dict(rows = db().select(db.auth_user.ALL))\n\n#@auth.requires_membership(\'manager\')\ndef generate_invitationpage():\n   form=FORM("Nombre d\'invit a generer:", INPUT(_name=\'nmbreinvit\'), INPUT(_type=\'submit\'))\n   if form.process().accepted and form.vars.nmbreinvit != None :\n       i = form.vars.nmbreinvit\n       invitsgenere = generate_invitation(int(i))\n       for invit in invitsgenere :\n           db.Invitation.insert(Code=invit)\n           db.commit()\n       session.flash = \'invitation inserted\'\n       form=FORM("Nombre d\'invit a generer:", INPUT(_name=\'nmbreinvit\'), INPUT(_type=\'submit\'))\n       #db.Invitation.insert(Code="Toto-5542")\n       db.commit()\n   return dict(form=form)\n\ndef verif_invitation(form):\n    print form.vars.invitation\n    if db.Invitation(db.Invitation.Code==form.vars.invitation) == None :\n        form.errors.invitation = \'code invitation incorrect\'\n        print "mauvais"\n    else :\n        print "bon"\n\ndef invitation():\n    form=FORM("Code Invitation :", INPUT(_name=\'invitation\'),"<Email :",INPUT(_name=\'email\'),  INPUT(_type=\'submit\'))\n    if form.process(onvalidation=verif_invitation).accepted and  form.vars.invitation != None  :\n        email = form.vars.email\n        if db(db.auth_user.email == email).count() == 0:\n            password= form.vars.invitation  \n            my_crypt = CRYPT(key=auth.settings.hmac_key)\n            crypt_pass = my_crypt(password)[0]  \n            db.auth_user.insert(\n               email= email,\n               username="John_Doe",\n               password=crypt_pass,\n            )\n            db.commit()  \n            user = db(db.auth_user.email==email).select().first()\n            auth.user = Storage(auth.settings.table_user._filter_fields(user, id=True))\n            auth.environment.session.auth = Storage(user=user, last_visit=request.now,\n                                                expiration=auth.settings.expiration)\n            redirect(URL(\'inscriptioninvit\'))\n    return dict(form=form)\n\ndef faq():\n\n    return dict()\ndef user():\n    """\n    exposes:\n    http://..../[app]/default/user/login\n    http://..../[app]/default/user/logout\n    http://..../[app]/default/user/register\n    http://..../[app]/default/user/profile\n    http://..../[app]/default/user/retrieve_password\n    http://..../[app]/default/user/change_password\n    use @auth.requires_login()\n        @auth.requires_membership(\'group name\')\n        @auth.requires_permission(\'read\',\'table name\',record_id)\n    to decorate functions that need access control\n    """\n    return dict(form=auth())\n\n\ndef download():\n    """\n    allows downloading of uploaded files\n    http://..../[app]/default/download/[filename]\n    """\n    return response.download(request,db)\n\n\ndef call():\n    """\n    exposes services. for example:\n    http://..../[app]/default/call/jsonrpc\n    decorate with @services.jsonrpc the functions to expose\n    supports xml, json, xmlrpc, jsonrpc, amfrpc, rss, csv\n    """\n    return service()\n\n\n@auth.requires_signature()\ndef data():\n    """\n    http://..../[app]/default/data/tables\n    http://..../[app]/default/data/create/[table]\n    http://..../[app]/default/data/read/[table]/[id]\n    http://..../[app]/default/data/update/[table]/[id]\n    http://..../[app]/default/data/delete/[table]/[id]\n    http://..../[app]/default/data/select/[table]\n    http://..../[app]/default/data/search/[table]\n    but URLs must be signed, i.e. linked with\n      A(\'table\',_href=URL(\'data/tables\',user_signature=True))\n    or with the signed load operator\n      LOAD(\'default\',\'data.load\',args=\'tables\',ajax=True,user_signature=True)\n    """\n    return dict(form=crud())\n\nresponse._vars=response._caller(initdbjack)\n'
p7
sS'snapshot'
p8
(dp9
S'exception'
p10
(dp11
S'__getslice__'
p12
S"<method-wrapper '__getslice__' of exceptions.SyntaxError object at 0x0816B630>"
p13
sS'text'
p14
S'None'
p15
sS'__str__'
p16
S"<method-wrapper '__str__' of exceptions.SyntaxError object at 0x0816B630>"
p17
sS'__reduce__'
p18
S'<built-in method __reduce__ of exceptions.SyntaxError object at 0x0816B630>'
p19
sS'__dict__'
p20
S'{}'
p21
sS'__init__'
p22
S"<method-wrapper '__init__' of exceptions.SyntaxError object at 0x0816B630>"
p23
sS'__setattr__'
p24
S"<method-wrapper '__setattr__' of exceptions.SyntaxError object at 0x0816B630>"
p25
sS'__reduce_ex__'
p26
S'<built-in method __reduce_ex__ of exceptions.SyntaxError object at 0x0816B630>'
p27
sS'__new__'
p28
S'<built-in method __new__ of type object at 0x1E1CDBD0>'
p29
sS'__class__'
p30
S"<type 'exceptions.SyntaxError'>"
p31
sS'filename'
p32
S'None'
p33
sS'lineno'
p34
S'None'
p35
sS'msg'
p36
S"'Field parent does not belong to the table'"
p37
sS'__doc__'
p38
S"'Invalid syntax.'"
p39
sS'__getitem__'
p40
S"<method-wrapper '__getitem__' of exceptions.SyntaxError object at 0x0816B630>"
p41
sS'__setstate__'
p42
S'<built-in method __setstate__ of exceptions.SyntaxError object at 0x0816B630>'
p43
sS'__getattribute__'
p44
S"<method-wrapper '__getattribute__' of exceptions.SyntaxError object at 0x0816B630>"
p45
sS'print_file_and_line'
p46
S'None'
p47
sS'args'
p48
S"('Field parent does not belong to the table',)"
p49
sS'offset'
p50
S'None'
p51
sS'__delattr__'
p52
S"<method-wrapper '__delattr__' of exceptions.SyntaxError object at 0x0816B630>"
p53
sS'__repr__'
p54
S"<method-wrapper '__repr__' of exceptions.SyntaxError object at 0x0816B630>"
p55
sS'__hash__'
p56
S"<method-wrapper '__hash__' of exceptions.SyntaxError object at 0x0816B630>"
p57
ssS'evalue'
p58
S'Field parent does not belong to the table'
p59
sS'request'
p60
ccopy_reg
_reconstructor
p61
(cgluon.html
BEAUTIFY
p62
c__builtin__
object
p63
NtRp64
(dp65
S'attributes'
p66
(dp67
sS'components'
p68
(lp69
g61
(cgluon.html
TABLE
p70
g63
NtRp71
(dp72
g66
(dp73
S'level'
p74
I5
ssS'parent'
p75
Nsg68
(lp76
g61
(cgluon.html
TR
p77
g63
NtRp78
(dp79
g66
(dp80
sg75
g71
sg68
(lp81
g61
(cgluon.html
TD
p82
g63
NtRp83
(dp84
g66
(dp85
S'_style'
p86
S'font-weight:bold;vertical-align:top'
p87
ssg75
g78
sg68
(lp88
S'ajax'
p89
asbag61
(g82
g63
NtRp90
(dp91
g66
(dp92
S'_valign'
p93
S'top'
p94
ssg75
g78
sg68
(lp95
S':'
asbag61
(g82
g63
NtRp96
(dp97
g66
(dp98
sg75
g78
sg68
(lp99
g61
(g62
g63
NtRp100
(dp101
g66
(dp102
g74
I5
ssg75
g96
sg68
(lp103
S'False'
p104
asbasbasbag61
(g77
g63
NtRp105
(dp106
g66
(dp107
sg75
g71
sg68
(lp108
g61
(g82
g63
NtRp109
(dp110
g66
(dp111
g86
g87
ssg75
g105
sg68
(lp112
S'application'
p113
asbag61
(g82
g63
NtRp114
(dp115
g66
(dp116
g93
g94
ssg75
g105
sg68
(lp117
S':'
asbag61
(g82
g63
NtRp118
(dp119
g66
(dp120
sg75
g105
sg68
(lp121
g61
(g62
g63
NtRp122
(dp123
g66
(dp124
g74
I5
ssg75
g118
sg68
(lp125
S'init'
p126
asbasbasbag61
(g77
g63
NtRp127
(dp128
g66
(dp129
sg75
g71
sg68
(lp130
g61
(g82
g63
NtRp131
(dp132
g66
(dp133
g86
g87
ssg75
g127
sg68
(lp134
g48
asbag61
(g82
g63
NtRp135
(dp136
g66
(dp137
g93
g94
ssg75
g127
sg68
(lp138
S':'
asbag61
(g82
g63
NtRp139
(dp140
g66
(dp141
sg75
g127
sg68
(lp142
g61
(g62
g63
NtRp143
(dp144
g66
(dp145
g74
I5
ssg75
g139
sg68
(lp146
g61
(g70
g63
NtRp147
(dp148
g66
(dp149
g74
I4
ssg75
Nsg68
(lp150
sbasbasbasbag61
(g77
g63
NtRp151
(dp152
g66
(dp153
sg75
g71
sg68
(lp154
g61
(g82
g63
NtRp155
(dp156
g66
(dp157
g86
g87
ssg75
g151
sg68
(lp158
S'body'
p159
asbag61
(g82
g63
NtRp160
(dp161
g66
(dp162
g93
g94
ssg75
g151
sg68
(lp163
S':'
asbag61
(g82
g63
NtRp164
(dp165
g66
(dp166
sg75
g151
sg68
(lp167
g61
(g62
g63
NtRp168
(dp169
g66
(dp170
g74
I5
ssg75
g164
sg68
(lp171
S'<cStringIO.StringO object at 0x083BC480>'
p172
asbasbasbag61
(g77
g63
NtRp173
(dp174
g66
(dp175
sg75
g71
sg68
(lp176
g61
(g82
g63
NtRp177
(dp178
g66
(dp179
g86
g87
ssg75
g173
sg68
(lp180
S'client'
p181
asbag61
(g82
g63
NtRp182
(dp183
g66
(dp184
g93
g94
ssg75
g173
sg68
(lp185
S':'
asbag61
(g82
g63
NtRp186
(dp187
g66
(dp188
sg75
g173
sg68
(lp189
g61
(g62
g63
NtRp190
(dp191
g66
(dp192
g74
I5
ssg75
g186
sg68
(lp193
S'127.0.0.1'
p194
asbasbasbag61
(g77
g63
NtRp195
(dp196
g66
(dp197
sg75
g71
sg68
(lp198
g61
(g82
g63
NtRp199
(dp200
g66
(dp201
g86
g87
ssg75
g195
sg68
(lp202
S'controller'
p203
asbag61
(g82
g63
NtRp204
(dp205
g66
(dp206
g93
g94
ssg75
g195
sg68
(lp207
S':'
asbag61
(g82
g63
NtRp208
(dp209
g66
(dp210
sg75
g195
sg68
(lp211
g61
(g62
g63
NtRp212
(dp213
g66
(dp214
g74
I5
ssg75
g208
sg68
(lp215
S'default'
p216
asbasbasbag61
(g77
g63
NtRp217
(dp218
g66
(dp219
sg75
g71
sg68
(lp220
g61
(g82
g63
NtRp221
(dp222
g66
(dp223
g86
g87
ssg75
g217
sg68
(lp224
S'cookies'
p225
asbag61
(g82
g63
NtRp226
(dp227
g66
(dp228
g93
g94
ssg75
g217
sg68
(lp229
S':'
asbag61
(g82
g63
NtRp230
(dp231
g66
(dp232
sg75
g217
sg68
(lp233
g61
(g62
g63
NtRp234
(dp235
g66
(dp236
g74
I5
ssg75
g230
sg68
(lp237
g61
(g70
g63
NtRp238
(dp239
g66
(dp240
g74
I4
ssg75
Nsg68
(lp241
g61
(g77
g63
NtRp242
(dp243
g66
(dp244
sg75
g238
sg68
(lp245
g61
(g82
g63
NtRp246
(dp247
g66
(dp248
g86
g87
ssg75
g242
sg68
(lp249
S'session_id_admin'
p250
asbag61
(g82
g63
NtRp251
(dp252
g66
(dp253
g93
g94
ssg75
g242
sg68
(lp254
S':'
asbag61
(g82
g63
NtRp255
(dp256
g66
(dp257
sg75
g242
sg68
(lp258
g61
(g62
g63
NtRp259
(dp260
g66
(dp261
g74
I4
ssg75
g255
sg68
(lp262
g61
(g70
g63
NtRp263
(dp264
g66
(dp265
g74
I3
ssg75
Nsg68
(lp266
g61
(g77
g63
NtRp267
(dp268
g66
(dp269
sg75
g263
sg68
(lp270
g61
(g82
g63
NtRp271
(dp272
g66
(dp273
g86
g87
ssg75
g267
sg68
(lp274
S'comment'
p275
asbag61
(g82
g63
NtRp276
(dp277
g66
(dp278
g93
g94
ssg75
g267
sg68
(lp279
S':'
asbag61
(g82
g63
NtRp280
(dp281
g66
(dp282
sg75
g267
sg68
(lp283
g61
(g62
g63
NtRp284
(dp285
g66
(dp286
g74
I3
ssg75
g280
sg68
(lp287
S''
asbasbasbag61
(g77
g63
NtRp288
(dp289
g66
(dp290
sg75
g263
sg68
(lp291
g61
(g82
g63
NtRp292
(dp293
g66
(dp294
g86
g87
ssg75
g288
sg68
(lp295
S'domain'
p296
asbag61
(g82
g63
NtRp297
(dp298
g66
(dp299
g93
g94
ssg75
g288
sg68
(lp300
S':'
asbag61
(g82
g63
NtRp301
(dp302
g66
(dp303
sg75
g288
sg68
(lp304
g61
(g62
g63
NtRp305
(dp306
g66
(dp307
g74
I3
ssg75
g301
sg68
(lp308
S''
asbasbasbag61
(g77
g63
NtRp309
(dp310
g66
(dp311
sg75
g263
sg68
(lp312
g61
(g82
g63
NtRp313
(dp314
g66
(dp315
g86
g87
ssg75
g309
sg68
(lp316
S'expires'
p317
asbag61
(g82
g63
NtRp318
(dp319
g66
(dp320
g93
g94
ssg75
g309
sg68
(lp321
S':'
asbag61
(g82
g63
NtRp322
(dp323
g66
(dp324
sg75
g309
sg68
(lp325
g61
(g62
g63
NtRp326
(dp327
g66
(dp328
g74
I3
ssg75
g322
sg68
(lp329
S''
asbasbasbag61
(g77
g63
NtRp330
(dp331
g66
(dp332
sg75
g263
sg68
(lp333
g61
(g82
g63
NtRp334
(dp335
g66
(dp336
g86
g87
ssg75
g330
sg68
(lp337
S'max-age'
p338
asbag61
(g82
g63
NtRp339
(dp340
g66
(dp341
g93
g94
ssg75
g330
sg68
(lp342
S':'
asbag61
(g82
g63
NtRp343
(dp344
g66
(dp345
sg75
g330
sg68
(lp346
g61
(g62
g63
NtRp347
(dp348
g66
(dp349
g74
I3
ssg75
g343
sg68
(lp350
S''
asbasbasbag61
(g77
g63
NtRp351
(dp352
g66
(dp353
sg75
g263
sg68
(lp354
g61
(g82
g63
NtRp355
(dp356
g66
(dp357
g86
g87
ssg75
g351
sg68
(lp358
S'path'
p359
asbag61
(g82
g63
NtRp360
(dp361
g66
(dp362
g93
g94
ssg75
g351
sg68
(lp363
S':'
asbag61
(g82
g63
NtRp364
(dp365
g66
(dp366
sg75
g351
sg68
(lp367
g61
(g62
g63
NtRp368
(dp369
g66
(dp370
g74
I3
ssg75
g364
sg68
(lp371
S''
asbasbasbag61
(g77
g63
NtRp372
(dp373
g66
(dp374
sg75
g263
sg68
(lp375
g61
(g82
g63
NtRp376
(dp377
g66
(dp378
g86
g87
ssg75
g372
sg68
(lp379
S'secure'
p380
asbag61
(g82
g63
NtRp381
(dp382
g66
(dp383
g93
g94
ssg75
g372
sg68
(lp384
S':'
asbag61
(g82
g63
NtRp385
(dp386
g66
(dp387
sg75
g372
sg68
(lp388
g61
(g62
g63
NtRp389
(dp390
g66
(dp391
g74
I3
ssg75
g385
sg68
(lp392
S''
asbasbasbag61
(g77
g63
NtRp393
(dp394
g66
(dp395
sg75
g263
sg68
(lp396
g61
(g82
g63
NtRp397
(dp398
g66
(dp399
g86
g87
ssg75
g393
sg68
(lp400
S'version'
p401
asbag61
(g82
g63
NtRp402
(dp403
g66
(dp404
g93
g94
ssg75
g393
sg68
(lp405
S':'
asbag61
(g82
g63
NtRp406
(dp407
g66
(dp408
sg75
g393
sg68
(lp409
g61
(g62
g63
NtRp410
(dp411
g66
(dp412
g74
I3
ssg75
g406
sg68
(lp413
S''
asbasbasbasbasbasbasbag61
(g77
g63
NtRp414
(dp415
g66
(dp416
sg75
g238
sg68
(lp417
g61
(g82
g63
NtRp418
(dp419
g66
(dp420
g86
g87
ssg75
g414
sg68
(lp421
S'session_id_init'
p422
asbag61
(g82
g63
NtRp423
(dp424
g66
(dp425
g93
g94
ssg75
g414
sg68
(lp426
S':'
asbag61
(g82
g63
NtRp427
(dp428
g66
(dp429
sg75
g414
sg68
(lp430
g61
(g62
g63
NtRp431
(dp432
g66
(dp433
g74
I4
ssg75
g427
sg68
(lp434
g61
(g70
g63
NtRp435
(dp436
g66
(dp437
g74
I3
ssg75
Nsg68
(lp438
g61
(g77
g63
NtRp439
(dp440
g66
(dp441
sg75
g435
sg68
(lp442
g61
(g82
g63
NtRp443
(dp444
g66
(dp445
g86
g87
ssg75
g439
sg68
(lp446
g275
asbag61
(g82
g63
NtRp447
(dp448
g66
(dp449
g93
g94
ssg75
g439
sg68
(lp450
S':'
asbag61
(g82
g63
NtRp451
(dp452
g66
(dp453
sg75
g439
sg68
(lp454
g61
(g62
g63
NtRp455
(dp456
g66
(dp457
g74
I3
ssg75
g451
sg68
(lp458
S''
asbasbasbag61
(g77
g63
NtRp459
(dp460
g66
(dp461
sg75
g435
sg68
(lp462
g61
(g82
g63
NtRp463
(dp464
g66
(dp465
g86
g87
ssg75
g459
sg68
(lp466
g296
asbag61
(g82
g63
NtRp467
(dp468
g66
(dp469
g93
g94
ssg75
g459
sg68
(lp470
S':'
asbag61
(g82
g63
NtRp471
(dp472
g66
(dp473
sg75
g459
sg68
(lp474
g61
(g62
g63
NtRp475
(dp476
g66
(dp477
g74
I3
ssg75
g471
sg68
(lp478
S''
asbasbasbag61
(g77
g63
NtRp479
(dp480
g66
(dp481
sg75
g435
sg68
(lp482
g61
(g82
g63
NtRp483
(dp484
g66
(dp485
g86
g87
ssg75
g479
sg68
(lp486
g317
asbag61
(g82
g63
NtRp487
(dp488
g66
(dp489
g93
g94
ssg75
g479
sg68
(lp490
S':'
asbag61
(g82
g63
NtRp491
(dp492
g66
(dp493
sg75
g479
sg68
(lp494
g61
(g62
g63
NtRp495
(dp496
g66
(dp497
g74
I3
ssg75
g491
sg68
(lp498
S''
asbasbasbag61
(g77
g63
NtRp499
(dp500
g66
(dp501
sg75
g435
sg68
(lp502
g61
(g82
g63
NtRp503
(dp504
g66
(dp505
g86
g87
ssg75
g499
sg68
(lp506
g338
asbag61
(g82
g63
NtRp507
(dp508
g66
(dp509
g93
g94
ssg75
g499
sg68
(lp510
S':'
asbag61
(g82
g63
NtRp511
(dp512
g66
(dp513
sg75
g499
sg68
(lp514
g61
(g62
g63
NtRp515
(dp516
g66
(dp517
g74
I3
ssg75
g511
sg68
(lp518
S''
asbasbasbag61
(g77
g63
NtRp519
(dp520
g66
(dp521
sg75
g435
sg68
(lp522
g61
(g82
g63
NtRp523
(dp524
g66
(dp525
g86
g87
ssg75
g519
sg68
(lp526
g359
asbag61
(g82
g63
NtRp527
(dp528
g66
(dp529
g93
g94
ssg75
g519
sg68
(lp530
S':'
asbag61
(g82
g63
NtRp531
(dp532
g66
(dp533
sg75
g519
sg68
(lp534
g61
(g62
g63
NtRp535
(dp536
g66
(dp537
g74
I3
ssg75
g531
sg68
(lp538
S''
asbasbasbag61
(g77
g63
NtRp539
(dp540
g66
(dp541
sg75
g435
sg68
(lp542
g61
(g82
g63
NtRp543
(dp544
g66
(dp545
g86
g87
ssg75
g539
sg68
(lp546
g380
asbag61
(g82
g63
NtRp547
(dp548
g66
(dp549
g93
g94
ssg75
g539
sg68
(lp550
S':'
asbag61
(g82
g63
NtRp551
(dp552
g66
(dp553
sg75
g539
sg68
(lp554
g61
(g62
g63
NtRp555
(dp556
g66
(dp557
g74
I3
ssg75
g551
sg68
(lp558
S''
asbasbasbag61
(g77
g63
NtRp559
(dp560
g66
(dp561
sg75
g435
sg68
(lp562
g61
(g82
g63
NtRp563
(dp564
g66
(dp565
g86
g87
ssg75
g559
sg68
(lp566
g401
asbag61
(g82
g63
NtRp567
(dp568
g66
(dp569
g93
g94
ssg75
g559
sg68
(lp570
S':'
asbag61
(g82
g63
NtRp571
(dp572
g66
(dp573
sg75
g559
sg68
(lp574
g61
(g62
g63
NtRp575
(dp576
g66
(dp577
g74
I3
ssg75
g571
sg68
(lp578
S''
asbasbasbasbasbasbasbasbasbasbasbag61
(g77
g63
NtRp579
(dp580
g66
(dp581
sg75
g71
sg68
(lp582
g61
(g82
g63
NtRp583
(dp584
g66
(dp585
g86
g87
ssg75
g579
sg68
(lp586
S'env'
p587
asbag61
(g82
g63
NtRp588
(dp589
g66
(dp590
g93
g94
ssg75
g579
sg68
(lp591
S':'
asbag61
(g82
g63
NtRp592
(dp593
g66
(dp594
sg75
g579
sg68
(lp595
g61
(g62
g63
NtRp596
(dp597
g66
(dp598
g74
I5
ssg75
g592
sg68
(lp599
g61
(g70
g63
NtRp600
(dp601
g66
(dp602
g74
I4
ssg75
Nsg68
(lp603
g61
(g77
g63
NtRp604
(dp605
g66
(dp606
sg75
g600
sg68
(lp607
g61
(g82
g63
NtRp608
(dp609
g66
(dp610
g86
g87
ssg75
g604
sg68
(lp611
S'app_folders'
p612
asbag61
(g82
g63
NtRp613
(dp614
g66
(dp615
g93
g94
ssg75
g604
sg68
(lp616
S':'
asbag61
(g82
g63
NtRp617
(dp618
g66
(dp619
sg75
g604
sg68
(lp620
g61
(g62
g63
NtRp621
(dp622
g66
(dp623
g74
I4
ssg75
g617
sg68
(lp624
S"set(['C:\\\\Users\\\\Bussiere\\\\Dropbox\\\\Projets\\\\jackpoint\\\\web2py\\\\applications\\\\init\\\\', 'C:\\\\Users\\\\Bussiere\\\\Dropbox\\\\Projets\\\\jackpoint\\\\web2py\\\\applications\\\\admin\\\\'])"
p625
asbasbasbag61
(g77
g63
NtRp626
(dp627
g66
(dp628
sg75
g600
sg68
(lp629
g61
(g82
g63
NtRp630
(dp631
g66
(dp632
g86
g87
ssg75
g626
sg68
(lp633
S'applications_parent'
p634
asbag61
(g82
g63
NtRp635
(dp636
g66
(dp637
g93
g94
ssg75
g626
sg68
(lp638
S':'
asbag61
(g82
g63
NtRp639
(dp640
g66
(dp641
sg75
g626
sg68
(lp642
g61
(g62
g63
NtRp643
(dp644
g66
(dp645
g74
I4
ssg75
g639
sg68
(lp646
S'C:\\Users\\Bussiere\\Dropbox\\Projets\\jackpoint\\web2py'
p647
asbasbasbag61
(g77
g63
NtRp648
(dp649
g66
(dp650
sg75
g600
sg68
(lp651
g61
(g82
g63
NtRp652
(dp653
g66
(dp654
g86
g87
ssg75
g648
sg68
(lp655
S'cmd_args'
p656
asbag61
(g82
g63
NtRp657
(dp658
g66
(dp659
g93
g94
ssg75
g648
sg68
(lp660
S':'
asbag61
(g82
g63
NtRp661
(dp662
g66
(dp663
sg75
g648
sg68
(lp664
g61
(g62
g63
NtRp665
(dp666
g66
(dp667
g74
I4
ssg75
g661
sg68
(lp668
g61
(g70
g63
NtRp669
(dp670
g66
(dp671
g74
I3
ssg75
Nsg68
(lp672
sbasbasbasbag61
(g77
g63
NtRp673
(dp674
g66
(dp675
sg75
g600
sg68
(lp676
g61
(g82
g63
NtRp677
(dp678
g66
(dp679
g86
g87
ssg75
g673
sg68
(lp680
S'cmd_options'
p681
asbag61
(g82
g63
NtRp682
(dp683
g66
(dp684
g93
g94
ssg75
g673
sg68
(lp685
S':'
asbag61
(g82
g63
NtRp686
(dp687
g66
(dp688
sg75
g673
sg68
(lp689
g61
(g62
g63
NtRp690
(dp691
g66
(dp692
g74
I4
ssg75
g686
sg68
(lp693
S"<Values at 0x3d15fa8: {'verbose': False, 'ip': '127.0.0.1', 'shutdown_timeout': 5, 'taskbar': False, 'nocron': False, 'pid_filename': 'httpserver.pid', 'maxthreads': None, 'softcron': False, 'server_name': 'Batou', 'bpython': False, 'nogui': False, 'port': 8000, 'extcron': False, 'debuglevel': 30, 'test': None, 'folder': 'C:\\\\Users\\\\Bussiere\\\\Dropbox\\\\Projets\\\\jackpoint\\\\web2py', 'config': '', 'import_models': False, 'winservice': '', 'shell': None, 'run': '', 'log_filename': 'httpserver.log', 'args': [''], 'socket_timeout': 5, 'ssl_ca_certificate': None, 'scheduler': None, 'profiler_filename': None, 'ssl_private_key': '', 'password': '<ask>', 'request_queue_size': 5, 'ssl_certificate': '', 'cronjob': False, 'numthreads': None, 'quiet': False, 'interfaces': None, 'minthreads': None, 'timeout': 10, 'plain': False, 'nobanner': False}>"
p694
asbasbasbag61
(g77
g63
NtRp695
(dp696
g66
(dp697
sg75
g600
sg68
(lp698
g61
(g82
g63
NtRp699
(dp700
g66
(dp701
g86
g87
ssg75
g695
sg68
(lp702
S'db_sessions'
p703
asbag61
(g82
g63
NtRp704
(dp705
g66
(dp706
g93
g94
ssg75
g695
sg68
(lp707
S':'
asbag61
(g82
g63
NtRp708
(dp709
g66
(dp710
sg75
g695
sg68
(lp711
g61
(g62
g63
NtRp712
(dp713
g66
(dp714
g74
I4
ssg75
g708
sg68
(lp715
S"set(['init'])"
p716
asbasbasbag61
(g77
g63
NtRp717
(dp718
g66
(dp719
sg75
g600
sg68
(lp720
g61
(g82
g63
NtRp721
(dp722
g66
(dp723
g86
g87
ssg75
g717
sg68
(lp724
S'debugging'
p725
asbag61
(g82
g63
NtRp726
(dp727
g66
(dp728
g93
g94
ssg75
g717
sg68
(lp729
S':'
asbag61
(g82
g63
NtRp730
(dp731
g66
(dp732
sg75
g717
sg68
(lp733
g61
(g62
g63
NtRp734
(dp735
g66
(dp736
g74
I4
ssg75
g730
sg68
(lp737
S'True'
p738
asbasbasbag61
(g77
g63
NtRp739
(dp740
g66
(dp741
sg75
g600
sg68
(lp742
g61
(g82
g63
NtRp743
(dp744
g66
(dp745
g86
g87
ssg75
g739
sg68
(lp746
S'gluon_parent'
p747
asbag61
(g82
g63
NtRp748
(dp749
g66
(dp750
g93
g94
ssg75
g739
sg68
(lp751
S':'
asbag61
(g82
g63
NtRp752
(dp753
g66
(dp754
sg75
g739
sg68
(lp755
g61
(g62
g63
NtRp756
(dp757
g66
(dp758
g74
I4
ssg75
g752
sg68
(lp759
S'C:\\Users\\Bussiere\\Dropbox\\Projets\\jackpoint\\web2py'
p760
asbasbasbag61
(g77
g63
NtRp761
(dp762
g66
(dp763
sg75
g600
sg68
(lp764
g61
(g82
g63
NtRp765
(dp766
g66
(dp767
g86
g87
ssg75
g761
sg68
(lp768
S'http_accept'
p769
asbag61
(g82
g63
NtRp770
(dp771
g66
(dp772
g93
g94
ssg75
g761
sg68
(lp773
S':'
asbag61
(g82
g63
NtRp774
(dp775
g66
(dp776
sg75
g761
sg68
(lp777
g61
(g62
g63
NtRp778
(dp779
g66
(dp780
g74
I4
ssg75
g774
sg68
(lp781
S'text/html,application/xhtml+xml,application/xml;q=0.9,*/*;q=0.8'
p782
asbasbasbag61
(g77
g63
NtRp783
(dp784
g66
(dp785
sg75
g600
sg68
(lp786
g61
(g82
g63
NtRp787
(dp788
g66
(dp789
g86
g87
ssg75
g783
sg68
(lp790
S'http_accept_charset'
p791
asbag61
(g82
g63
NtRp792
(dp793
g66
(dp794
g93
g94
ssg75
g783
sg68
(lp795
S':'
asbag61
(g82
g63
NtRp796
(dp797
g66
(dp798
sg75
g783
sg68
(lp799
g61
(g62
g63
NtRp800
(dp801
g66
(dp802
g74
I4
ssg75
g796
sg68
(lp803
S'ISO-8859-1,utf-8;q=0.7,*;q=0.3'
p804
asbasbasbag61
(g77
g63
NtRp805
(dp806
g66
(dp807
sg75
g600
sg68
(lp808
g61
(g82
g63
NtRp809
(dp810
g66
(dp811
g86
g87
ssg75
g805
sg68
(lp812
S'http_accept_encoding'
p813
asbag61
(g82
g63
NtRp814
(dp815
g66
(dp816
g93
g94
ssg75
g805
sg68
(lp817
S':'
asbag61
(g82
g63
NtRp818
(dp819
g66
(dp820
sg75
g805
sg68
(lp821
g61
(g62
g63
NtRp822
(dp823
g66
(dp824
g74
I4
ssg75
g818
sg68
(lp825
S'gzip,deflate,sdch'
p826
asbasbasbag61
(g77
g63
NtRp827
(dp828
g66
(dp829
sg75
g600
sg68
(lp830
g61
(g82
g63
NtRp831
(dp832
g66
(dp833
g86
g87
ssg75
g827
sg68
(lp834
S'http_accept_language'
p835
asbag61
(g82
g63
NtRp836
(dp837
g66
(dp838
g93
g94
ssg75
g827
sg68
(lp839
S':'
asbag61
(g82
g63
NtRp840
(dp841
g66
(dp842
sg75
g827
sg68
(lp843
g61
(g62
g63
NtRp844
(dp845
g66
(dp846
g74
I4
ssg75
g840
sg68
(lp847
S'fr-FR,fr;q=0.8,en-US;q=0.6,en;q=0.4'
p848
asbasbasbag61
(g77
g63
NtRp849
(dp850
g66
(dp851
sg75
g600
sg68
(lp852
g61
(g82
g63
NtRp853
(dp854
g66
(dp855
g86
g87
ssg75
g849
sg68
(lp856
S'http_cache_control'
p857
asbag61
(g82
g63
NtRp858
(dp859
g66
(dp860
g93
g94
ssg75
g849
sg68
(lp861
S':'
asbag61
(g82
g63
NtRp862
(dp863
g66
(dp864
sg75
g849
sg68
(lp865
g61
(g62
g63
NtRp866
(dp867
g66
(dp868
g74
I4
ssg75
g862
sg68
(lp869
S'max-age=0'
p870
asbasbasbag61
(g77
g63
NtRp871
(dp872
g66
(dp873
sg75
g600
sg68
(lp874
g61
(g82
g63
NtRp875
(dp876
g66
(dp877
g86
g87
ssg75
g871
sg68
(lp878
S'http_connection'
p879
asbag61
(g82
g63
NtRp880
(dp881
g66
(dp882
g93
g94
ssg75
g871
sg68
(lp883
S':'
asbag61
(g82
g63
NtRp884
(dp885
g66
(dp886
sg75
g871
sg68
(lp887
g61
(g62
g63
NtRp888
(dp889
g66
(dp890
g74
I4
ssg75
g884
sg68
(lp891
S'keep-alive'
p892
asbasbasbag61
(g77
g63
NtRp893
(dp894
g66
(dp895
sg75
g600
sg68
(lp896
g61
(g82
g63
NtRp897
(dp898
g66
(dp899
g86
g87
ssg75
g893
sg68
(lp900
S'http_cookie'
p901
asbag61
(g82
g63
NtRp902
(dp903
g66
(dp904
g93
g94
ssg75
g893
sg68
(lp905
S':'
asbag61
(g82
g63
NtRp906
(dp907
g66
(dp908
sg75
g893
sg68
(lp909
g61
(g62
g63
NtRp910
(dp911
g66
(dp912
g74
I4
ssg75
g906
sg68
(lp913
S'session_id_init="19:a8687721-5787-4713-9329-1674aeb3f1bb"; session_id_admin=127.0.0.1-e7ba9533-971b-48d8-b9b4-ae4775a353f8'
p914
asbasbasbag61
(g77
g63
NtRp915
(dp916
g66
(dp917
sg75
g600
sg68
(lp918
g61
(g82
g63
NtRp919
(dp920
g66
(dp921
g86
g87
ssg75
g915
sg68
(lp922
S'http_host'
p923
asbag61
(g82
g63
NtRp924
(dp925
g66
(dp926
g93
g94
ssg75
g915
sg68
(lp927
S':'
asbag61
(g82
g63
NtRp928
(dp929
g66
(dp930
sg75
g915
sg68
(lp931
g61
(g62
g63
NtRp932
(dp933
g66
(dp934
g74
I4
ssg75
g928
sg68
(lp935
S'localhost:8000'
p936
asbasbasbag61
(g77
g63
NtRp937
(dp938
g66
(dp939
sg75
g600
sg68
(lp940
g61
(g82
g63
NtRp941
(dp942
g66
(dp943
g86
g87
ssg75
g937
sg68
(lp944
S'http_user_agent'
p945
asbag61
(g82
g63
NtRp946
(dp947
g66
(dp948
g93
g94
ssg75
g937
sg68
(lp949
S':'
asbag61
(g82
g63
NtRp950
(dp951
g66
(dp952
sg75
g937
sg68
(lp953
g61
(g62
g63
NtRp954
(dp955
g66
(dp956
g74
I4
ssg75
g950
sg68
(lp957
S'Mozilla/5.0 (Windows NT 6.1; WOW64) AppleWebKit/535.11 (KHTML, like Gecko) Chrome/17.0.963.83 Safari/535.11'
p958
asbasbasbag61
(g77
g63
NtRp959
(dp960
g66
(dp961
sg75
g600
sg68
(lp962
g61
(g82
g63
NtRp963
(dp964
g66
(dp965
g86
g87
ssg75
g959
sg68
(lp966
S'is_jython'
p967
asbag61
(g82
g63
NtRp968
(dp969
g66
(dp970
g93
g94
ssg75
g959
sg68
(lp971
S':'
asbag61
(g82
g63
NtRp972
(dp973
g66
(dp974
sg75
g959
sg68
(lp975
g61
(g62
g63
NtRp976
(dp977
g66
(dp978
g74
I4
ssg75
g972
sg68
(lp979
g104
asbasbasbag61
(g77
g63
NtRp980
(dp981
g66
(dp982
sg75
g600
sg68
(lp983
g61
(g82
g63
NtRp984
(dp985
g66
(dp986
g86
g87
ssg75
g980
sg68
(lp987
S'is_pypy'
p988
asbag61
(g82
g63
NtRp989
(dp990
g66
(dp991
g93
g94
ssg75
g980
sg68
(lp992
S':'
asbag61
(g82
g63
NtRp993
(dp994
g66
(dp995
sg75
g980
sg68
(lp996
g61
(g62
g63
NtRp997
(dp998
g66
(dp999
g74
I4
ssg75
g993
sg68
(lp1000
g104
asbasbasbag61
(g77
g63
NtRp1001
(dp1002
g66
(dp1003
sg75
g600
sg68
(lp1004
g61
(g82
g63
NtRp1005
(dp1006
g66
(dp1007
g86
g87
ssg75
g1001
sg68
(lp1008
S'path_info'
p1009
asbag61
(g82
g63
NtRp1010
(dp1011
g66
(dp1012
g93
g94
ssg75
g1001
sg68
(lp1013
S':'
asbag61
(g82
g63
NtRp1014
(dp1015
g66
(dp1016
sg75
g1001
sg68
(lp1017
g61
(g62
g63
NtRp1018
(dp1019
g66
(dp1020
g74
I4
ssg75
g1014
sg68
(lp1021
S'/init/default/initdbjack'
p1022
asbasbasbag61
(g77
g63
NtRp1023
(dp1024
g66
(dp1025
sg75
g600
sg68
(lp1026
g61
(g82
g63
NtRp1027
(dp1028
g66
(dp1029
g86
g87
ssg75
g1023
sg68
(lp1030
S'query_string'
p1031
asbag61
(g82
g63
NtRp1032
(dp1033
g66
(dp1034
g93
g94
ssg75
g1023
sg68
(lp1035
S':'
asbag61
(g82
g63
NtRp1036
(dp1037
g66
(dp1038
sg75
g1023
sg68
(lp1039
g61
(g62
g63
NtRp1040
(dp1041
g66
(dp1042
g74
I4
ssg75
g1036
sg68
(lp1043
S''
asbasbasbag61
(g77
g63
NtRp1044
(dp1045
g66
(dp1046
sg75
g600
sg68
(lp1047
g61
(g82
g63
NtRp1048
(dp1049
g66
(dp1050
g86
g87
ssg75
g1044
sg68
(lp1051
S'remote_addr'
p1052
asbag61
(g82
g63
NtRp1053
(dp1054
g66
(dp1055
g93
g94
ssg75
g1044
sg68
(lp1056
S':'
asbag61
(g82
g63
NtRp1057
(dp1058
g66
(dp1059
sg75
g1044
sg68
(lp1060
g61
(g62
g63
NtRp1061
(dp1062
g66
(dp1063
g74
I4
ssg75
g1057
sg68
(lp1064
g194
asbasbasbag61
(g77
g63
NtRp1065
(dp1066
g66
(dp1067
sg75
g600
sg68
(lp1068
g61
(g82
g63
NtRp1069
(dp1070
g66
(dp1071
g86
g87
ssg75
g1065
sg68
(lp1072
S'remote_port'
p1073
asbag61
(g82
g63
NtRp1074
(dp1075
g66
(dp1076
g93
g94
ssg75
g1065
sg68
(lp1077
S':'
asbag61
(g82
g63
NtRp1078
(dp1079
g66
(dp1080
sg75
g1065
sg68
(lp1081
g61
(g62
g63
NtRp1082
(dp1083
g66
(dp1084
g74
I4
ssg75
g1078
sg68
(lp1085
S'63186'
p1086
asbasbasbag61
(g77
g63
NtRp1087
(dp1088
g66
(dp1089
sg75
g600
sg68
(lp1090
g61
(g82
g63
NtRp1091
(dp1092
g66
(dp1093
g86
g87
ssg75
g1087
sg68
(lp1094
S'request_method'
p1095
asbag61
(g82
g63
NtRp1096
(dp1097
g66
(dp1098
g93
g94
ssg75
g1087
sg68
(lp1099
S':'
asbag61
(g82
g63
NtRp1100
(dp1101
g66
(dp1102
sg75
g1087
sg68
(lp1103
g61
(g62
g63
NtRp1104
(dp1105
g66
(dp1106
g74
I4
ssg75
g1100
sg68
(lp1107
S'GET'
p1108
asbasbasbag61
(g77
g63
NtRp1109
(dp1110
g66
(dp1111
sg75
g600
sg68
(lp1112
g61
(g82
g63
NtRp1113
(dp1114
g66
(dp1115
g86
g87
ssg75
g1109
sg68
(lp1116
S'script_name'
p1117
asbag61
(g82
g63
NtRp1118
(dp1119
g66
(dp1120
g93
g94
ssg75
g1109
sg68
(lp1121
S':'
asbag61
(g82
g63
NtRp1122
(dp1123
g66
(dp1124
sg75
g1109
sg68
(lp1125
g61
(g62
g63
NtRp1126
(dp1127
g66
(dp1128
g74
I4
ssg75
g1122
sg68
(lp1129
S''
asbasbasbag61
(g77
g63
NtRp1130
(dp1131
g66
(dp1132
sg75
g600
sg68
(lp1133
g61
(g82
g63
NtRp1134
(dp1135
g66
(dp1136
g86
g87
ssg75
g1130
sg68
(lp1137
S'server_name'
p1138
asbag61
(g82
g63
NtRp1139
(dp1140
g66
(dp1141
g93
g94
ssg75
g1130
sg68
(lp1142
S':'
asbag61
(g82
g63
NtRp1143
(dp1144
g66
(dp1145
sg75
g1130
sg68
(lp1146
g61
(g62
g63
NtRp1147
(dp1148
g66
(dp1149
g74
I4
ssg75
g1143
sg68
(lp1150
S'Batou'
p1151
asbasbasbag61
(g77
g63
NtRp1152
(dp1153
g66
(dp1154
sg75
g600
sg68
(lp1155
g61
(g82
g63
NtRp1156
(dp1157
g66
(dp1158
g86
g87
ssg75
g1152
sg68
(lp1159
S'server_port'
p1160
asbag61
(g82
g63
NtRp1161
(dp1162
g66
(dp1163
g93
g94
ssg75
g1152
sg68
(lp1164
S':'
asbag61
(g82
g63
NtRp1165
(dp1166
g66
(dp1167
sg75
g1152
sg68
(lp1168
g61
(g62
g63
NtRp1169
(dp1170
g66
(dp1171
g74
I4
ssg75
g1165
sg68
(lp1172
S'8000'
p1173
asbasbasbag61
(g77
g63
NtRp1174
(dp1175
g66
(dp1176
sg75
g600
sg68
(lp1177
g61
(g82
g63
NtRp1178
(dp1179
g66
(dp1180
g86
g87
ssg75
g1174
sg68
(lp1181
S'server_protocol'
p1182
asbag61
(g82
g63
NtRp1183
(dp1184
g66
(dp1185
g93
g94
ssg75
g1174
sg68
(lp1186
S':'
asbag61
(g82
g63
NtRp1187
(dp1188
g66
(dp1189
sg75
g1174
sg68
(lp1190
g61
(g62
g63
NtRp1191
(dp1192
g66
(dp1193
g74
I4
ssg75
g1187
sg68
(lp1194
S'HTTP/1.1'
p1195
asbasbasbag61
(g77
g63
NtRp1196
(dp1197
g66
(dp1198
sg75
g600
sg68
(lp1199
g61
(g82
g63
NtRp1200
(dp1201
g66
(dp1202
g86
g87
ssg75
g1196
sg68
(lp1203
S'server_software'
p1204
asbag61
(g82
g63
NtRp1205
(dp1206
g66
(dp1207
g93
g94
ssg75
g1196
sg68
(lp1208
S':'
asbag61
(g82
g63
NtRp1209
(dp1210
g66
(dp1211
sg75
g1196
sg68
(lp1212
g61
(g62
g63
NtRp1213
(dp1214
g66
(dp1215
g74
I4
ssg75
g1209
sg68
(lp1216
S'Rocket 1.2.4'
p1217
asbasbasbag61
(g77
g63
NtRp1218
(dp1219
g66
(dp1220
sg75
g600
sg68
(lp1221
g61
(g82
g63
NtRp1222
(dp1223
g66
(dp1224
g86
g87
ssg75
g1218
sg68
(lp1225
S'web2py_crontype'
p1226
asbag61
(g82
g63
NtRp1227
(dp1228
g66
(dp1229
g93
g94
ssg75
g1218
sg68
(lp1230
S':'
asbag61
(g82
g63
NtRp1231
(dp1232
g66
(dp1233
sg75
g1218
sg68
(lp1234
g61
(g62
g63
NtRp1235
(dp1236
g66
(dp1237
g74
I4
ssg75
g1231
sg68
(lp1238
S'hard'
p1239
asbasbasbag61
(g77
g63
NtRp1240
(dp1241
g66
(dp1242
sg75
g600
sg68
(lp1243
g61
(g82
g63
NtRp1244
(dp1245
g66
(dp1246
g86
g87
ssg75
g1240
sg68
(lp1247
S'web2py_path'
p1248
asbag61
(g82
g63
NtRp1249
(dp1250
g66
(dp1251
g93
g94
ssg75
g1240
sg68
(lp1252
S':'
asbag61
(g82
g63
NtRp1253
(dp1254
g66
(dp1255
sg75
g1240
sg68
(lp1256
g61
(g62
g63
NtRp1257
(dp1258
g66
(dp1259
g74
I4
ssg75
g1253
sg68
(lp1260
g647
asbasbasbag61
(g77
g63
NtRp1261
(dp1262
g66
(dp1263
sg75
g600
sg68
(lp1264
g61
(g82
g63
NtRp1265
(dp1266
g66
(dp1267
g86
g87
ssg75
g1261
sg68
(lp1268
S'web2py_version'
p1269
asbag61
(g82
g63
NtRp1270
(dp1271
g66
(dp1272
g93
g94
ssg75
g1261
sg68
(lp1273
S':'
asbag61
(g82
g63
NtRp1274
(dp1275
g66
(dp1276
sg75
g1261
sg68
(lp1277
g61
(g62
g63
NtRp1278
(dp1279
g66
(dp1280
g74
I4
ssg75
g1274
sg68
(lp1281
g61
(g70
g63
NtRp1282
(dp1283
g66
(dp1284
g74
I3
ssg75
Nsg68
(lp1285
g61
(g77
g63
NtRp1286
(dp1287
g66
(dp1288
sg75
g1282
sg68
(lp1289
g61
(g82
g63
NtRp1290
(dp1291
g66
(dp1292
sg75
g1286
sg68
(lp1293
g61
(g62
g63
NtRp1294
(dp1295
g66
(dp1296
g74
I3
ssg75
g1290
sg68
(lp1297
S'1'
asbasbasbag61
(g77
g63
NtRp1298
(dp1299
g66
(dp1300
sg75
g1282
sg68
(lp1301
g61
(g82
g63
NtRp1302
(dp1303
g66
(dp1304
sg75
g1298
sg68
(lp1305
g61
(g62
g63
NtRp1306
(dp1307
g66
(dp1308
g74
I3
ssg75
g1302
sg68
(lp1309
S'99'
p1310
asbasbasbag61
(g77
g63
NtRp1311
(dp1312
g66
(dp1313
sg75
g1282
sg68
(lp1314
g61
(g82
g63
NtRp1315
(dp1316
g66
(dp1317
sg75
g1311
sg68
(lp1318
g61
(g62
g63
NtRp1319
(dp1320
g66
(dp1321
g74
I3
ssg75
g1315
sg68
(lp1322
S'7'
asbasbasbag61
(g77
g63
NtRp1323
(dp1324
g66
(dp1325
sg75
g1282
sg68
(lp1326
g61
(g82
g63
NtRp1327
(dp1328
g66
(dp1329
sg75
g1323
sg68
(lp1330
g61
(g62
g63
NtRp1331
(dp1332
g66
(dp1333
g74
I3
ssg75
g1327
sg68
(lp1334
S'datetime.datetime(2012, 3, 4, 22, 12, 8)'
p1335
asbasbasbag61
(g77
g63
NtRp1336
(dp1337
g66
(dp1338
sg75
g1282
sg68
(lp1339
g61
(g82
g63
NtRp1340
(dp1341
g66
(dp1342
sg75
g1336
sg68
(lp1343
g61
(g62
g63
NtRp1344
(dp1345
g66
(dp1346
g74
I3
ssg75
g1340
sg68
(lp1347
S'stable'
p1348
asbasbasbasbasbasbasbag61
(g77
g63
NtRp1349
(dp1350
g66
(dp1351
sg75
g600
sg68
(lp1352
g61
(g82
g63
NtRp1353
(dp1354
g66
(dp1355
g86
g87
ssg75
g1349
sg68
(lp1356
S'wsgi_errors'
p1357
asbag61
(g82
g63
NtRp1358
(dp1359
g66
(dp1360
g93
g94
ssg75
g1349
sg68
(lp1361
S':'
asbag61
(g82
g63
NtRp1362
(dp1363
g66
(dp1364
sg75
g1349
sg68
(lp1365
g61
(g62
g63
NtRp1366
(dp1367
g66
(dp1368
g74
I4
ssg75
g1362
sg68
(lp1369
S"<open file '<stderr>', mode 'w' at 0x005300B0>"
p1370
asbasbasbag61
(g77
g63
NtRp1371
(dp1372
g66
(dp1373
sg75
g600
sg68
(lp1374
g61
(g82
g63
NtRp1375
(dp1376
g66
(dp1377
g86
g87
ssg75
g1371
sg68
(lp1378
S'wsgi_file_wrapper'
p1379
asbag61
(g82
g63
NtRp1380
(dp1381
g66
(dp1382
g93
g94
ssg75
g1371
sg68
(lp1383
S':'
asbag61
(g82
g63
NtRp1384
(dp1385
g66
(dp1386
sg75
g1371
sg68
(lp1387
g61
(g62
g63
NtRp1388
(dp1389
g66
(dp1390
g74
I4
ssg75
g1384
sg68
(lp1391
S'<class wsgiref.util.FileWrapper at 0x02C34900>'
p1392
asbasbasbag61
(g77
g63
NtRp1393
(dp1394
g66
(dp1395
sg75
g600
sg68
(lp1396
g61
(g82
g63
NtRp1397
(dp1398
g66
(dp1399
g86
g87
ssg75
g1393
sg68
(lp1400
S'wsgi_input'
p1401
asbag61
(g82
g63
NtRp1402
(dp1403
g66
(dp1404
g93
g94
ssg75
g1393
sg68
(lp1405
S':'
asbag61
(g82
g63
NtRp1406
(dp1407
g66
(dp1408
sg75
g1393
sg68
(lp1409
g61
(g62
g63
NtRp1410
(dp1411
g66
(dp1412
g74
I4
ssg75
g1406
sg68
(lp1413
S'<socket._fileobject object at 0x043622F0>'
p1414
asbasbasbag61
(g77
g63
NtRp1415
(dp1416
g66
(dp1417
sg75
g600
sg68
(lp1418
g61
(g82
g63
NtRp1419
(dp1420
g66
(dp1421
g86
g87
ssg75
g1415
sg68
(lp1422
S'wsgi_multiprocess'
p1423
asbag61
(g82
g63
NtRp1424
(dp1425
g66
(dp1426
g93
g94
ssg75
g1415
sg68
(lp1427
S':'
asbag61
(g82
g63
NtRp1428
(dp1429
g66
(dp1430
sg75
g1415
sg68
(lp1431
g61
(g62
g63
NtRp1432
(dp1433
g66
(dp1434
g74
I4
ssg75
g1428
sg68
(lp1435
g104
asbasbasbag61
(g77
g63
NtRp1436
(dp1437
g66
(dp1438
sg75
g600
sg68
(lp1439
g61
(g82
g63
NtRp1440
(dp1441
g66
(dp1442
g86
g87
ssg75
g1436
sg68
(lp1443
S'wsgi_multithread'
p1444
asbag61
(g82
g63
NtRp1445
(dp1446
g66
(dp1447
g93
g94
ssg75
g1436
sg68
(lp1448
S':'
asbag61
(g82
g63
NtRp1449
(dp1450
g66
(dp1451
sg75
g1436
sg68
(lp1452
g61
(g62
g63
NtRp1453
(dp1454
g66
(dp1455
g74
I4
ssg75
g1449
sg68
(lp1456
g738
asbasbasbag61
(g77
g63
NtRp1457
(dp1458
g66
(dp1459
sg75
g600
sg68
(lp1460
g61
(g82
g63
NtRp1461
(dp1462
g66
(dp1463
g86
g87
ssg75
g1457
sg68
(lp1464
S'wsgi_run_once'
p1465
asbag61
(g82
g63
NtRp1466
(dp1467
g66
(dp1468
g93
g94
ssg75
g1457
sg68
(lp1469
S':'
asbag61
(g82
g63
NtRp1470
(dp1471
g66
(dp1472
sg75
g1457
sg68
(lp1473
g61
(g62
g63
NtRp1474
(dp1475
g66
(dp1476
g74
I4
ssg75
g1470
sg68
(lp1477
g104
asbasbasbag61
(g77
g63
NtRp1478
(dp1479
g66
(dp1480
sg75
g600
sg68
(lp1481
g61
(g82
g63
NtRp1482
(dp1483
g66
(dp1484
g86
g87
ssg75
g1478
sg68
(lp1485
S'wsgi_url_scheme'
p1486
asbag61
(g82
g63
NtRp1487
(dp1488
g66
(dp1489
g93
g94
ssg75
g1478
sg68
(lp1490
S':'
asbag61
(g82
g63
NtRp1491
(dp1492
g66
(dp1493
sg75
g1478
sg68
(lp1494
g61
(g62
g63
NtRp1495
(dp1496
g66
(dp1497
g74
I4
ssg75
g1491
sg68
(lp1498
S'http'
p1499
asbasbasbag61
(g77
g63
NtRp1500
(dp1501
g66
(dp1502
sg75
g600
sg68
(lp1503
g61
(g82
g63
NtRp1504
(dp1505
g66
(dp1506
g86
g87
ssg75
g1500
sg68
(lp1507
S'wsgi_version'
p1508
asbag61
(g82
g63
NtRp1509
(dp1510
g66
(dp1511
g93
g94
ssg75
g1500
sg68
(lp1512
S':'
asbag61
(g82
g63
NtRp1513
(dp1514
g66
(dp1515
sg75
g1500
sg68
(lp1516
g61
(g62
g63
NtRp1517
(dp1518
g66
(dp1519
g74
I4
ssg75
g1513
sg68
(lp1520
g61
(g70
g63
NtRp1521
(dp1522
g66
(dp1523
g74
I3
ssg75
Nsg68
(lp1524
g61
(g77
g63
NtRp1525
(dp1526
g66
(dp1527
sg75
g1521
sg68
(lp1528
g61
(g82
g63
NtRp1529
(dp1530
g66
(dp1531
sg75
g1525
sg68
(lp1532
g61
(g62
g63
NtRp1533
(dp1534
g66
(dp1535
g74
I3
ssg75
g1529
sg68
(lp1536
S'1'
asbasbasbag61
(g77
g63
NtRp1537
(dp1538
g66
(dp1539
sg75
g1521
sg68
(lp1540
g61
(g82
g63
NtRp1541
(dp1542
g66
(dp1543
sg75
g1537
sg68
(lp1544
g61
(g62
g63
NtRp1545
(dp1546
g66
(dp1547
g74
I3
ssg75
g1541
sg68
(lp1548
S'0'
asbasbasbasbasbasbasbasbasbasbasbag61
(g77
g63
NtRp1549
(dp1550
g66
(dp1551
sg75
g71
sg68
(lp1552
g61
(g82
g63
NtRp1553
(dp1554
g66
(dp1555
g86
g87
ssg75
g1549
sg68
(lp1556
S'extension'
p1557
asbag61
(g82
g63
NtRp1558
(dp1559
g66
(dp1560
g93
g94
ssg75
g1549
sg68
(lp1561
S':'
asbag61
(g82
g63
NtRp1562
(dp1563
g66
(dp1564
sg75
g1549
sg68
(lp1565
g61
(g62
g63
NtRp1566
(dp1567
g66
(dp1568
g74
I5
ssg75
g1562
sg68
(lp1569
S'html'
p1570
asbasbasbag61
(g77
g63
NtRp1571
(dp1572
g66
(dp1573
sg75
g71
sg68
(lp1574
g61
(g82
g63
NtRp1575
(dp1576
g66
(dp1577
g86
g87
ssg75
g1571
sg68
(lp1578
S'folder'
p1579
asbag61
(g82
g63
NtRp1580
(dp1581
g66
(dp1582
g93
g94
ssg75
g1571
sg68
(lp1583
S':'
asbag61
(g82
g63
NtRp1584
(dp1585
g66
(dp1586
sg75
g1571
sg68
(lp1587
g61
(g62
g63
NtRp1588
(dp1589
g66
(dp1590
g74
I5
ssg75
g1584
sg68
(lp1591
S'C:\\Users\\Bussiere\\Dropbox\\Projets\\jackpoint\\web2py\\applications\\init\\'
p1592
asbasbasbag61
(g77
g63
NtRp1593
(dp1594
g66
(dp1595
sg75
g71
sg68
(lp1596
g61
(g82
g63
NtRp1597
(dp1598
g66
(dp1599
g86
g87
ssg75
g1593
sg68
(lp1600
S'function'
p1601
asbag61
(g82
g63
NtRp1602
(dp1603
g66
(dp1604
g93
g94
ssg75
g1593
sg68
(lp1605
S':'
asbag61
(g82
g63
NtRp1606
(dp1607
g66
(dp1608
sg75
g1593
sg68
(lp1609
g61
(g62
g63
NtRp1610
(dp1611
g66
(dp1612
g74
I5
ssg75
g1606
sg68
(lp1613
S'initdbjack'
p1614
asbasbasbag61
(g77
g63
NtRp1615
(dp1616
g66
(dp1617
sg75
g71
sg68
(lp1618
g61
(g82
g63
NtRp1619
(dp1620
g66
(dp1621
g86
g87
ssg75
g1615
sg68
(lp1622
S'get_vars'
p1623
asbag61
(g82
g63
NtRp1624
(dp1625
g66
(dp1626
g93
g94
ssg75
g1615
sg68
(lp1627
S':'
asbag61
(g82
g63
NtRp1628
(dp1629
g66
(dp1630
sg75
g1615
sg68
(lp1631
g61
(g62
g63
NtRp1632
(dp1633
g66
(dp1634
g74
I5
ssg75
g1628
sg68
(lp1635
g61
(g70
g63
NtRp1636
(dp1637
g66
(dp1638
g74
I4
ssg75
Nsg68
(lp1639
sbasbasbasbag61
(g77
g63
NtRp1640
(dp1641
g66
(dp1642
sg75
g71
sg68
(lp1643
g61
(g82
g63
NtRp1644
(dp1645
g66
(dp1646
g86
g87
ssg75
g1640
sg68
(lp1647
S'global_settings'
p1648
asbag61
(g82
g63
NtRp1649
(dp1650
g66
(dp1651
g93
g94
ssg75
g1640
sg68
(lp1652
S':'
asbag61
(g82
g63
NtRp1653
(dp1654
g66
(dp1655
sg75
g1640
sg68
(lp1656
g61
(g62
g63
NtRp1657
(dp1658
g66
(dp1659
g74
I5
ssg75
g1653
sg68
(lp1660
g61
(g70
g63
NtRp1661
(dp1662
g66
(dp1663
g74
I4
ssg75
Nsg68
(lp1664
g61
(g77
g63
NtRp1665
(dp1666
g66
(dp1667
sg75
g1661
sg68
(lp1668
g61
(g82
g63
NtRp1669
(dp1670
g66
(dp1671
g86
g87
ssg75
g1665
sg68
(lp1672
g612
asbag61
(g82
g63
NtRp1673
(dp1674
g66
(dp1675
g93
g94
ssg75
g1665
sg68
(lp1676
S':'
asbag61
(g82
g63
NtRp1677
(dp1678
g66
(dp1679
sg75
g1665
sg68
(lp1680
g61
(g62
g63
NtRp1681
(dp1682
g66
(dp1683
g74
I4
ssg75
g1677
sg68
(lp1684
S"set(['C:\\\\Users\\\\Bussiere\\\\Dropbox\\\\Projets\\\\jackpoint\\\\web2py\\\\applications\\\\init\\\\', 'C:\\\\Users\\\\Bussiere\\\\Dropbox\\\\Projets\\\\jackpoint\\\\web2py\\\\applications\\\\admin\\\\'])"
p1685
asbasbasbag61
(g77
g63
NtRp1686
(dp1687
g66
(dp1688
sg75
g1661
sg68
(lp1689
g61
(g82
g63
NtRp1690
(dp1691
g66
(dp1692
g86
g87
ssg75
g1686
sg68
(lp1693
g634
asbag61
(g82
g63
NtRp1694
(dp1695
g66
(dp1696
g93
g94
ssg75
g1686
sg68
(lp1697
S':'
asbag61
(g82
g63
NtRp1698
(dp1699
g66
(dp1700
sg75
g1686
sg68
(lp1701
g61
(g62
g63
NtRp1702
(dp1703
g66
(dp1704
g74
I4
ssg75
g1698
sg68
(lp1705
g647
asbasbasbag61
(g77
g63
NtRp1706
(dp1707
g66
(dp1708
sg75
g1661
sg68
(lp1709
g61
(g82
g63
NtRp1710
(dp1711
g66
(dp1712
g86
g87
ssg75
g1706
sg68
(lp1713
g656
asbag61
(g82
g63
NtRp1714
(dp1715
g66
(dp1716
g93
g94
ssg75
g1706
sg68
(lp1717
S':'
asbag61
(g82
g63
NtRp1718
(dp1719
g66
(dp1720
sg75
g1706
sg68
(lp1721
g61
(g62
g63
NtRp1722
(dp1723
g66
(dp1724
g74
I4
ssg75
g1718
sg68
(lp1725
g61
(g70
g63
NtRp1726
(dp1727
g66
(dp1728
g74
I3
ssg75
Nsg68
(lp1729
sbasbasbasbag61
(g77
g63
NtRp1730
(dp1731
g66
(dp1732
sg75
g1661
sg68
(lp1733
g61
(g82
g63
NtRp1734
(dp1735
g66
(dp1736
g86
g87
ssg75
g1730
sg68
(lp1737
g681
asbag61
(g82
g63
NtRp1738
(dp1739
g66
(dp1740
g93
g94
ssg75
g1730
sg68
(lp1741
S':'
asbag61
(g82
g63
NtRp1742
(dp1743
g66
(dp1744
sg75
g1730
sg68
(lp1745
g61
(g62
g63
NtRp1746
(dp1747
g66
(dp1748
g74
I4
ssg75
g1742
sg68
(lp1749
S"<Values at 0x3d15fa8: {'verbose': False, 'ip': '127.0.0.1', 'shutdown_timeout': 5, 'taskbar': False, 'nocron': False, 'pid_filename': 'httpserver.pid', 'maxthreads': None, 'softcron': False, 'server_name': 'Batou', 'bpython': False, 'nogui': False, 'port': 8000, 'extcron': False, 'debuglevel': 30, 'test': None, 'folder': 'C:\\\\Users\\\\Bussiere\\\\Dropbox\\\\Projets\\\\jackpoint\\\\web2py', 'config': '', 'import_models': False, 'winservice': '', 'shell': None, 'run': '', 'log_filename': 'httpserver.log', 'args': [''], 'socket_timeout': 5, 'ssl_ca_certificate': None, 'scheduler': None, 'profiler_filename': None, 'ssl_private_key': '', 'password': '<ask>', 'request_queue_size': 5, 'ssl_certificate': '', 'cronjob': False, 'numthreads': None, 'quiet': False, 'interfaces': None, 'minthreads': None, 'timeout': 10, 'plain': False, 'nobanner': False}>"
p1750
asbasbasbag61
(g77
g63
NtRp1751
(dp1752
g66
(dp1753
sg75
g1661
sg68
(lp1754
g61
(g82
g63
NtRp1755
(dp1756
g66
(dp1757
g86
g87
ssg75
g1751
sg68
(lp1758
g703
asbag61
(g82
g63
NtRp1759
(dp1760
g66
(dp1761
g93
g94
ssg75
g1751
sg68
(lp1762
S':'
asbag61
(g82
g63
NtRp1763
(dp1764
g66
(dp1765
sg75
g1751
sg68
(lp1766
g61
(g62
g63
NtRp1767
(dp1768
g66
(dp1769
g74
I4
ssg75
g1763
sg68
(lp1770
S"set(['init'])"
p1771
asbasbasbag61
(g77
g63
NtRp1772
(dp1773
g66
(dp1774
sg75
g1661
sg68
(lp1775
g61
(g82
g63
NtRp1776
(dp1777
g66
(dp1778
g86
g87
ssg75
g1772
sg68
(lp1779
g725
asbag61
(g82
g63
NtRp1780
(dp1781
g66
(dp1782
g93
g94
ssg75
g1772
sg68
(lp1783
S':'
asbag61
(g82
g63
NtRp1784
(dp1785
g66
(dp1786
sg75
g1772
sg68
(lp1787
g61
(g62
g63
NtRp1788
(dp1789
g66
(dp1790
g74
I4
ssg75
g1784
sg68
(lp1791
g738
asbasbasbag61
(g77
g63
NtRp1792
(dp1793
g66
(dp1794
sg75
g1661
sg68
(lp1795
g61
(g82
g63
NtRp1796
(dp1797
g66
(dp1798
g86
g87
ssg75
g1792
sg68
(lp1799
g747
asbag61
(g82
g63
NtRp1800
(dp1801
g66
(dp1802
g93
g94
ssg75
g1792
sg68
(lp1803
S':'
asbag61
(g82
g63
NtRp1804
(dp1805
g66
(dp1806
sg75
g1792
sg68
(lp1807
g61
(g62
g63
NtRp1808
(dp1809
g66
(dp1810
g74
I4
ssg75
g1804
sg68
(lp1811
g760
asbasbasbag61
(g77
g63
NtRp1812
(dp1813
g66
(dp1814
sg75
g1661
sg68
(lp1815
g61
(g82
g63
NtRp1816
(dp1817
g66
(dp1818
g86
g87
ssg75
g1812
sg68
(lp1819
g967
asbag61
(g82
g63
NtRp1820
(dp1821
g66
(dp1822
g93
g94
ssg75
g1812
sg68
(lp1823
S':'
asbag61
(g82
g63
NtRp1824
(dp1825
g66
(dp1826
sg75
g1812
sg68
(lp1827
g61
(g62
g63
NtRp1828
(dp1829
g66
(dp1830
g74
I4
ssg75
g1824
sg68
(lp1831
g104
asbasbasbag61
(g77
g63
NtRp1832
(dp1833
g66
(dp1834
sg75
g1661
sg68
(lp1835
g61
(g82
g63
NtRp1836
(dp1837
g66
(dp1838
g86
g87
ssg75
g1832
sg68
(lp1839
g988
asbag61
(g82
g63
NtRp1840
(dp1841
g66
(dp1842
g93
g94
ssg75
g1832
sg68
(lp1843
S':'
asbag61
(g82
g63
NtRp1844
(dp1845
g66
(dp1846
sg75
g1832
sg68
(lp1847
g61
(g62
g63
NtRp1848
(dp1849
g66
(dp1850
g74
I4
ssg75
g1844
sg68
(lp1851
g104
asbasbasbag61
(g77
g63
NtRp1852
(dp1853
g66
(dp1854
sg75
g1661
sg68
(lp1855
g61
(g82
g63
NtRp1856
(dp1857
g66
(dp1858
g86
g87
ssg75
g1852
sg68
(lp1859
g1226
asbag61
(g82
g63
NtRp1860
(dp1861
g66
(dp1862
g93
g94
ssg75
g1852
sg68
(lp1863
S':'
asbag61
(g82
g63
NtRp1864
(dp1865
g66
(dp1866
sg75
g1852
sg68
(lp1867
g61
(g62
g63
NtRp1868
(dp1869
g66
(dp1870
g74
I4
ssg75
g1864
sg68
(lp1871
g1239
asbasbasbag61
(g77
g63
NtRp1872
(dp1873
g66
(dp1874
sg75
g1661
sg68
(lp1875
g61
(g82
g63
NtRp1876
(dp1877
g66
(dp1878
g86
g87
ssg75
g1872
sg68
(lp1879
g1269
asbag61
(g82
g63
NtRp1880
(dp1881
g66
(dp1882
g93
g94
ssg75
g1872
sg68
(lp1883
S':'
asbag61
(g82
g63
NtRp1884
(dp1885
g66
(dp1886
sg75
g1872
sg68
(lp1887
g61
(g62
g63
NtRp1888
(dp1889
g66
(dp1890
g74
I4
ssg75
g1884
sg68
(lp1891
g61
(g70
g63
NtRp1892
(dp1893
g66
(dp1894
g74
I3
ssg75
Nsg68
(lp1895
g61
(g77
g63
NtRp1896
(dp1897
g66
(dp1898
sg75
g1892
sg68
(lp1899
g61
(g82
g63
NtRp1900
(dp1901
g66
(dp1902
sg75
g1896
sg68
(lp1903
g61
(g62
g63
NtRp1904
(dp1905
g66
(dp1906
g74
I3
ssg75
g1900
sg68
(lp1907
S'1'
asbasbasbag61
(g77
g63
NtRp1908
(dp1909
g66
(dp1910
sg75
g1892
sg68
(lp1911
g61
(g82
g63
NtRp1912
(dp1913
g66
(dp1914
sg75
g1908
sg68
(lp1915
g61
(g62
g63
NtRp1916
(dp1917
g66
(dp1918
g74
I3
ssg75
g1912
sg68
(lp1919
S'99'
p1920
asbasbasbag61
(g77
g63
NtRp1921
(dp1922
g66
(dp1923
sg75
g1892
sg68
(lp1924
g61
(g82
g63
NtRp1925
(dp1926
g66
(dp1927
sg75
g1921
sg68
(lp1928
g61
(g62
g63
NtRp1929
(dp1930
g66
(dp1931
g74
I3
ssg75
g1925
sg68
(lp1932
S'7'
asbasbasbag61
(g77
g63
NtRp1933
(dp1934
g66
(dp1935
sg75
g1892
sg68
(lp1936
g61
(g82
g63
NtRp1937
(dp1938
g66
(dp1939
sg75
g1933
sg68
(lp1940
g61
(g62
g63
NtRp1941
(dp1942
g66
(dp1943
g74
I3
ssg75
g1937
sg68
(lp1944
S'datetime.datetime(2012, 3, 4, 22, 12, 8)'
p1945
asbasbasbag61
(g77
g63
NtRp1946
(dp1947
g66
(dp1948
sg75
g1892
sg68
(lp1949
g61
(g82
g63
NtRp1950
(dp1951
g66
(dp1952
sg75
g1946
sg68
(lp1953
g61
(g62
g63
NtRp1954
(dp1955
g66
(dp1956
g74
I3
ssg75
g1950
sg68
(lp1957
g1348
asbasbasbasbasbasbasbasbasbasbasbag61
(g77
g63
NtRp1958
(dp1959
g66
(dp1960
sg75
g71
sg68
(lp1961
g61
(g82
g63
NtRp1962
(dp1963
g66
(dp1964
g86
g87
ssg75
g1958
sg68
(lp1965
S'is_https'
p1966
asbag61
(g82
g63
NtRp1967
(dp1968
g66
(dp1969
g93
g94
ssg75
g1958
sg68
(lp1970
S':'
asbag61
(g82
g63
NtRp1971
(dp1972
g66
(dp1973
sg75
g1958
sg68
(lp1974
g61
(g62
g63
NtRp1975
(dp1976
g66
(dp1977
g74
I5
ssg75
g1971
sg68
(lp1978
g104
asbasbasbag61
(g77
g63
NtRp1979
(dp1980
g66
(dp1981
sg75
g71
sg68
(lp1982
g61
(g82
g63
NtRp1983
(dp1984
g66
(dp1985
g86
g87
ssg75
g1979
sg68
(lp1986
S'is_local'
p1987
asbag61
(g82
g63
NtRp1988
(dp1989
g66
(dp1990
g93
g94
ssg75
g1979
sg68
(lp1991
S':'
asbag61
(g82
g63
NtRp1992
(dp1993
g66
(dp1994
sg75
g1979
sg68
(lp1995
g61
(g62
g63
NtRp1996
(dp1997
g66
(dp1998
g74
I5
ssg75
g1992
sg68
(lp1999
g738
asbasbasbag61
(g77
g63
NtRp2000
(dp2001
g66
(dp2002
sg75
g71
sg68
(lp2003
g61
(g82
g63
NtRp2004
(dp2005
g66
(dp2006
g86
g87
ssg75
g2000
sg68
(lp2007
S'is_restful'
p2008
asbag61
(g82
g63
NtRp2009
(dp2010
g66
(dp2011
g93
g94
ssg75
g2000
sg68
(lp2012
S':'
asbag61
(g82
g63
NtRp2013
(dp2014
g66
(dp2015
sg75
g2000
sg68
(lp2016
g61
(g62
g63
NtRp2017
(dp2018
g66
(dp2019
g74
I5
ssg75
g2013
sg68
(lp2020
g104
asbasbasbag61
(g77
g63
NtRp2021
(dp2022
g66
(dp2023
sg75
g71
sg68
(lp2024
g61
(g82
g63
NtRp2025
(dp2026
g66
(dp2027
g86
g87
ssg75
g2021
sg68
(lp2028
S'now'
p2029
asbag61
(g82
g63
NtRp2030
(dp2031
g66
(dp2032
g93
g94
ssg75
g2021
sg68
(lp2033
S':'
asbag61
(g82
g63
NtRp2034
(dp2035
g66
(dp2036
sg75
g2021
sg68
(lp2037
g61
(g62
g63
NtRp2038
(dp2039
g66
(dp2040
g74
I5
ssg75
g2034
sg68
(lp2041
S'datetime.datetime(2012, 3, 29, 13, 11, 47, 534000)'
p2042
asbasbasbag61
(g77
g63
NtRp2043
(dp2044
g66
(dp2045
sg75
g71
sg68
(lp2046
g61
(g82
g63
NtRp2047
(dp2048
g66
(dp2049
g86
g87
ssg75
g2043
sg68
(lp2050
S'post_vars'
p2051
asbag61
(g82
g63
NtRp2052
(dp2053
g66
(dp2054
g93
g94
ssg75
g2043
sg68
(lp2055
S':'
asbag61
(g82
g63
NtRp2056
(dp2057
g66
(dp2058
sg75
g2043
sg68
(lp2059
g61
(g62
g63
NtRp2060
(dp2061
g66
(dp2062
g74
I5
ssg75
g2056
sg68
(lp2063
g61
(g70
g63
NtRp2064
(dp2065
g66
(dp2066
g74
I4
ssg75
Nsg68
(lp2067
sbasbasbasbag61
(g77
g63
NtRp2068
(dp2069
g66
(dp2070
sg75
g71
sg68
(lp2071
g61
(g82
g63
NtRp2072
(dp2073
g66
(dp2074
g86
g87
ssg75
g2068
sg68
(lp2075
S'url'
p2076
asbag61
(g82
g63
NtRp2077
(dp2078
g66
(dp2079
g93
g94
ssg75
g2068
sg68
(lp2080
S':'
asbag61
(g82
g63
NtRp2081
(dp2082
g66
(dp2083
sg75
g2068
sg68
(lp2084
g61
(g62
g63
NtRp2085
(dp2086
g66
(dp2087
g74
I5
ssg75
g2081
sg68
(lp2088
S'/init/default/initdbjack'
p2089
asbasbasbag61
(g77
g63
NtRp2090
(dp2091
g66
(dp2092
sg75
g71
sg68
(lp2093
g61
(g82
g63
NtRp2094
(dp2095
g66
(dp2096
g86
g87
ssg75
g2090
sg68
(lp2097
S'utcnow'
p2098
asbag61
(g82
g63
NtRp2099
(dp2100
g66
(dp2101
g93
g94
ssg75
g2090
sg68
(lp2102
S':'
asbag61
(g82
g63
NtRp2103
(dp2104
g66
(dp2105
sg75
g2090
sg68
(lp2106
g61
(g62
g63
NtRp2107
(dp2108
g66
(dp2109
g74
I5
ssg75
g2103
sg68
(lp2110
S'datetime.datetime(2012, 3, 29, 11, 11, 47, 534000)'
p2111
asbasbasbag61
(g77
g63
NtRp2112
(dp2113
g66
(dp2114
sg75
g71
sg68
(lp2115
g61
(g82
g63
NtRp2116
(dp2117
g66
(dp2118
g86
g87
ssg75
g2112
sg68
(lp2119
S'uuid'
p2120
asbag61
(g82
g63
NtRp2121
(dp2122
g66
(dp2123
g93
g94
ssg75
g2112
sg68
(lp2124
S':'
asbag61
(g82
g63
NtRp2125
(dp2126
g66
(dp2127
sg75
g2112
sg68
(lp2128
g61
(g62
g63
NtRp2129
(dp2130
g66
(dp2131
g74
I5
ssg75
g2125
sg68
(lp2132
S'init/127.0.0.1.2012-03-29.13-11-47.ff23c62c-68a4-4794-b8a3-26c269bea20c'
p2133
asbasbasbag61
(g77
g63
NtRp2134
(dp2135
g66
(dp2136
sg75
g71
sg68
(lp2137
g61
(g82
g63
NtRp2138
(dp2139
g66
(dp2140
g86
g87
ssg75
g2134
sg68
(lp2141
S'vars'
p2142
asbag61
(g82
g63
NtRp2143
(dp2144
g66
(dp2145
g93
g94
ssg75
g2134
sg68
(lp2146
S':'
asbag61
(g82
g63
NtRp2147
(dp2148
g66
(dp2149
sg75
g2134
sg68
(lp2150
g61
(g62
g63
NtRp2151
(dp2152
g66
(dp2153
g74
I5
ssg75
g2147
sg68
(lp2154
g61
(g70
g63
NtRp2155
(dp2156
g66
(dp2157
g74
I4
ssg75
Nsg68
(lp2158
sbasbasbasbag61
(g77
g63
NtRp2159
(dp2160
g66
(dp2161
sg75
g71
sg68
(lp2162
g61
(g82
g63
NtRp2163
(dp2164
g66
(dp2165
g86
g87
ssg75
g2159
sg68
(lp2166
S'wsgi'
p2167
asbag61
(g82
g63
NtRp2168
(dp2169
g66
(dp2170
g93
g94
ssg75
g2159
sg68
(lp2171
S':'
asbag61
(g82
g63
NtRp2172
(dp2173
g66
(dp2174
sg75
g2159
sg68
(lp2175
g61
(g62
g63
NtRp2176
(dp2177
g66
(dp2178
g74
I5
ssg75
g2172
sg68
(lp2179
g61
(g70
g63
NtRp2180
(dp2181
g66
(dp2182
g74
I4
ssg75
Nsg68
(lp2183
g61
(g77
g63
NtRp2184
(dp2185
g66
(dp2186
sg75
g2180
sg68
(lp2187
g61
(g82
g63
NtRp2188
(dp2189
g66
(dp2190
g86
g87
ssg75
g2184
sg68
(lp2191
S'environ'
p2192
asbag61
(g82
g63
NtRp2193
(dp2194
g66
(dp2195
g93
g94
ssg75
g2184
sg68
(lp2196
S':'
asbag61
(g82
g63
NtRp2197
(dp2198
g66
(dp2199
sg75
g2184
sg68
(lp2200
g61
(g62
g63
NtRp2201
(dp2202
g66
(dp2203
g74
I4
ssg75
g2197
sg68
(lp2204
g61
(g70
g63
NtRp2205
(dp2206
g66
(dp2207
g74
I3
ssg75
Nsg68
(lp2208
g61
(g77
g63
NtRp2209
(dp2210
g66
(dp2211
sg75
g2205
sg68
(lp2212
g61
(g82
g63
NtRp2213
(dp2214
g66
(dp2215
g86
g87
ssg75
g2209
sg68
(lp2216
S'HTTP_ACCEPT'
p2217
asbag61
(g82
g63
NtRp2218
(dp2219
g66
(dp2220
g93
g94
ssg75
g2209
sg68
(lp2221
S':'
asbag61
(g82
g63
NtRp2222
(dp2223
g66
(dp2224
sg75
g2209
sg68
(lp2225
g61
(g62
g63
NtRp2226
(dp2227
g66
(dp2228
g74
I3
ssg75
g2222
sg68
(lp2229
g782
asbasbasbag61
(g77
g63
NtRp2230
(dp2231
g66
(dp2232
sg75
g2205
sg68
(lp2233
g61
(g82
g63
NtRp2234
(dp2235
g66
(dp2236
g86
g87
ssg75
g2230
sg68
(lp2237
S'HTTP_ACCEPT_CHARSET'
p2238
asbag61
(g82
g63
NtRp2239
(dp2240
g66
(dp2241
g93
g94
ssg75
g2230
sg68
(lp2242
S':'
asbag61
(g82
g63
NtRp2243
(dp2244
g66
(dp2245
sg75
g2230
sg68
(lp2246
g61
(g62
g63
NtRp2247
(dp2248
g66
(dp2249
g74
I3
ssg75
g2243
sg68
(lp2250
g804
asbasbasbag61
(g77
g63
NtRp2251
(dp2252
g66
(dp2253
sg75
g2205
sg68
(lp2254
g61
(g82
g63
NtRp2255
(dp2256
g66
(dp2257
g86
g87
ssg75
g2251
sg68
(lp2258
S'HTTP_ACCEPT_ENCODING'
p2259
asbag61
(g82
g63
NtRp2260
(dp2261
g66
(dp2262
g93
g94
ssg75
g2251
sg68
(lp2263
S':'
asbag61
(g82
g63
NtRp2264
(dp2265
g66
(dp2266
sg75
g2251
sg68
(lp2267
g61
(g62
g63
NtRp2268
(dp2269
g66
(dp2270
g74
I3
ssg75
g2264
sg68
(lp2271
g826
asbasbasbag61
(g77
g63
NtRp2272
(dp2273
g66
(dp2274
sg75
g2205
sg68
(lp2275
g61
(g82
g63
NtRp2276
(dp2277
g66
(dp2278
g86
g87
ssg75
g2272
sg68
(lp2279
S'HTTP_ACCEPT_LANGUAGE'
p2280
asbag61
(g82
g63
NtRp2281
(dp2282
g66
(dp2283
g93
g94
ssg75
g2272
sg68
(lp2284
S':'
asbag61
(g82
g63
NtRp2285
(dp2286
g66
(dp2287
sg75
g2272
sg68
(lp2288
g61
(g62
g63
NtRp2289
(dp2290
g66
(dp2291
g74
I3
ssg75
g2285
sg68
(lp2292
g848
asbasbasbag61
(g77
g63
NtRp2293
(dp2294
g66
(dp2295
sg75
g2205
sg68
(lp2296
g61
(g82
g63
NtRp2297
(dp2298
g66
(dp2299
g86
g87
ssg75
g2293
sg68
(lp2300
S'HTTP_CACHE_CONTROL'
p2301
asbag61
(g82
g63
NtRp2302
(dp2303
g66
(dp2304
g93
g94
ssg75
g2293
sg68
(lp2305
S':'
asbag61
(g82
g63
NtRp2306
(dp2307
g66
(dp2308
sg75
g2293
sg68
(lp2309
g61
(g62
g63
NtRp2310
(dp2311
g66
(dp2312
g74
I3
ssg75
g2306
sg68
(lp2313
g870
asbasbasbag61
(g77
g63
NtRp2314
(dp2315
g66
(dp2316
sg75
g2205
sg68
(lp2317
g61
(g82
g63
NtRp2318
(dp2319
g66
(dp2320
g86
g87
ssg75
g2314
sg68
(lp2321
S'HTTP_CONNECTION'
p2322
asbag61
(g82
g63
NtRp2323
(dp2324
g66
(dp2325
g93
g94
ssg75
g2314
sg68
(lp2326
S':'
asbag61
(g82
g63
NtRp2327
(dp2328
g66
(dp2329
sg75
g2314
sg68
(lp2330
g61
(g62
g63
NtRp2331
(dp2332
g66
(dp2333
g74
I3
ssg75
g2327
sg68
(lp2334
g892
asbasbasbag61
(g77
g63
NtRp2335
(dp2336
g66
(dp2337
sg75
g2205
sg68
(lp2338
g61
(g82
g63
NtRp2339
(dp2340
g66
(dp2341
g86
g87
ssg75
g2335
sg68
(lp2342
S'HTTP_COOKIE'
p2343
asbag61
(g82
g63
NtRp2344
(dp2345
g66
(dp2346
g93
g94
ssg75
g2335
sg68
(lp2347
S':'
asbag61
(g82
g63
NtRp2348
(dp2349
g66
(dp2350
sg75
g2335
sg68
(lp2351
g61
(g62
g63
NtRp2352
(dp2353
g66
(dp2354
g74
I3
ssg75
g2348
sg68
(lp2355
g914
asbasbasbag61
(g77
g63
NtRp2356
(dp2357
g66
(dp2358
sg75
g2205
sg68
(lp2359
g61
(g82
g63
NtRp2360
(dp2361
g66
(dp2362
g86
g87
ssg75
g2356
sg68
(lp2363
S'HTTP_HOST'
p2364
asbag61
(g82
g63
NtRp2365
(dp2366
g66
(dp2367
g93
g94
ssg75
g2356
sg68
(lp2368
S':'
asbag61
(g82
g63
NtRp2369
(dp2370
g66
(dp2371
sg75
g2356
sg68
(lp2372
g61
(g62
g63
NtRp2373
(dp2374
g66
(dp2375
g74
I3
ssg75
g2369
sg68
(lp2376
g936
asbasbasbag61
(g77
g63
NtRp2377
(dp2378
g66
(dp2379
sg75
g2205
sg68
(lp2380
g61
(g82
g63
NtRp2381
(dp2382
g66
(dp2383
g86
g87
ssg75
g2377
sg68
(lp2384
S'HTTP_USER_AGENT'
p2385
asbag61
(g82
g63
NtRp2386
(dp2387
g66
(dp2388
g93
g94
ssg75
g2377
sg68
(lp2389
S':'
asbag61
(g82
g63
NtRp2390
(dp2391
g66
(dp2392
sg75
g2377
sg68
(lp2393
g61
(g62
g63
NtRp2394
(dp2395
g66
(dp2396
g74
I3
ssg75
g2390
sg68
(lp2397
g958
asbasbasbag61
(g77
g63
NtRp2398
(dp2399
g66
(dp2400
sg75
g2205
sg68
(lp2401
g61
(g82
g63
NtRp2402
(dp2403
g66
(dp2404
g86
g87
ssg75
g2398
sg68
(lp2405
S'PATH_INFO'
p2406
asbag61
(g82
g63
NtRp2407
(dp2408
g66
(dp2409
g93
g94
ssg75
g2398
sg68
(lp2410
S':'
asbag61
(g82
g63
NtRp2411
(dp2412
g66
(dp2413
sg75
g2398
sg68
(lp2414
g61
(g62
g63
NtRp2415
(dp2416
g66
(dp2417
g74
I3
ssg75
g2411
sg68
(lp2418
g1022
asbasbasbag61
(g77
g63
NtRp2419
(dp2420
g66
(dp2421
sg75
g2205
sg68
(lp2422
g61
(g82
g63
NtRp2423
(dp2424
g66
(dp2425
g86
g87
ssg75
g2419
sg68
(lp2426
S'QUERY_STRING'
p2427
asbag61
(g82
g63
NtRp2428
(dp2429
g66
(dp2430
g93
g94
ssg75
g2419
sg68
(lp2431
S':'
asbag61
(g82
g63
NtRp2432
(dp2433
g66
(dp2434
sg75
g2419
sg68
(lp2435
g61
(g62
g63
NtRp2436
(dp2437
g66
(dp2438
g74
I3
ssg75
g2432
sg68
(lp2439
S''
asbasbasbag61
(g77
g63
NtRp2440
(dp2441
g66
(dp2442
sg75
g2205
sg68
(lp2443
g61
(g82
g63
NtRp2444
(dp2445
g66
(dp2446
g86
g87
ssg75
g2440
sg68
(lp2447
S'REMOTE_ADDR'
p2448
asbag61
(g82
g63
NtRp2449
(dp2450
g66
(dp2451
g93
g94
ssg75
g2440
sg68
(lp2452
S':'
asbag61
(g82
g63
NtRp2453
(dp2454
g66
(dp2455
sg75
g2440
sg68
(lp2456
g61
(g62
g63
NtRp2457
(dp2458
g66
(dp2459
g74
I3
ssg75
g2453
sg68
(lp2460
g194
asbasbasbag61
(g77
g63
NtRp2461
(dp2462
g66
(dp2463
sg75
g2205
sg68
(lp2464
g61
(g82
g63
NtRp2465
(dp2466
g66
(dp2467
g86
g87
ssg75
g2461
sg68
(lp2468
S'REMOTE_PORT'
p2469
asbag61
(g82
g63
NtRp2470
(dp2471
g66
(dp2472
g93
g94
ssg75
g2461
sg68
(lp2473
S':'
asbag61
(g82
g63
NtRp2474
(dp2475
g66
(dp2476
sg75
g2461
sg68
(lp2477
g61
(g62
g63
NtRp2478
(dp2479
g66
(dp2480
g74
I3
ssg75
g2474
sg68
(lp2481
g1086
asbasbasbag61
(g77
g63
NtRp2482
(dp2483
g66
(dp2484
sg75
g2205
sg68
(lp2485
g61
(g82
g63
NtRp2486
(dp2487
g66
(dp2488
g86
g87
ssg75
g2482
sg68
(lp2489
S'REQUEST_METHOD'
p2490
asbag61
(g82
g63
NtRp2491
(dp2492
g66
(dp2493
g93
g94
ssg75
g2482
sg68
(lp2494
S':'
asbag61
(g82
g63
NtRp2495
(dp2496
g66
(dp2497
sg75
g2482
sg68
(lp2498
g61
(g62
g63
NtRp2499
(dp2500
g66
(dp2501
g74
I3
ssg75
g2495
sg68
(lp2502
g1108
asbasbasbag61
(g77
g63
NtRp2503
(dp2504
g66
(dp2505
sg75
g2205
sg68
(lp2506
g61
(g82
g63
NtRp2507
(dp2508
g66
(dp2509
g86
g87
ssg75
g2503
sg68
(lp2510
S'SCRIPT_NAME'
p2511
asbag61
(g82
g63
NtRp2512
(dp2513
g66
(dp2514
g93
g94
ssg75
g2503
sg68
(lp2515
S':'
asbag61
(g82
g63
NtRp2516
(dp2517
g66
(dp2518
sg75
g2503
sg68
(lp2519
g61
(g62
g63
NtRp2520
(dp2521
g66
(dp2522
g74
I3
ssg75
g2516
sg68
(lp2523
S''
asbasbasbag61
(g77
g63
NtRp2524
(dp2525
g66
(dp2526
sg75
g2205
sg68
(lp2527
g61
(g82
g63
NtRp2528
(dp2529
g66
(dp2530
g86
g87
ssg75
g2524
sg68
(lp2531
S'SERVER_NAME'
p2532
asbag61
(g82
g63
NtRp2533
(dp2534
g66
(dp2535
g93
g94
ssg75
g2524
sg68
(lp2536
S':'
asbag61
(g82
g63
NtRp2537
(dp2538
g66
(dp2539
sg75
g2524
sg68
(lp2540
g61
(g62
g63
NtRp2541
(dp2542
g66
(dp2543
g74
I3
ssg75
g2537
sg68
(lp2544
g1151
asbasbasbag61
(g77
g63
NtRp2545
(dp2546
g66
(dp2547
sg75
g2205
sg68
(lp2548
g61
(g82
g63
NtRp2549
(dp2550
g66
(dp2551
g86
g87
ssg75
g2545
sg68
(lp2552
S'SERVER_PORT'
p2553
asbag61
(g82
g63
NtRp2554
(dp2555
g66
(dp2556
g93
g94
ssg75
g2545
sg68
(lp2557
S':'
asbag61
(g82
g63
NtRp2558
(dp2559
g66
(dp2560
sg75
g2545
sg68
(lp2561
g61
(g62
g63
NtRp2562
(dp2563
g66
(dp2564
g74
I3
ssg75
g2558
sg68
(lp2565
g1173
asbasbasbag61
(g77
g63
NtRp2566
(dp2567
g66
(dp2568
sg75
g2205
sg68
(lp2569
g61
(g82
g63
NtRp2570
(dp2571
g66
(dp2572
g86
g87
ssg75
g2566
sg68
(lp2573
S'SERVER_PROTOCOL'
p2574
asbag61
(g82
g63
NtRp2575
(dp2576
g66
(dp2577
g93
g94
ssg75
g2566
sg68
(lp2578
S':'
asbag61
(g82
g63
NtRp2579
(dp2580
g66
(dp2581
sg75
g2566
sg68
(lp2582
g61
(g62
g63
NtRp2583
(dp2584
g66
(dp2585
g74
I3
ssg75
g2579
sg68
(lp2586
g1195
asbasbasbag61
(g77
g63
NtRp2587
(dp2588
g66
(dp2589
sg75
g2205
sg68
(lp2590
g61
(g82
g63
NtRp2591
(dp2592
g66
(dp2593
g86
g87
ssg75
g2587
sg68
(lp2594
S'SERVER_SOFTWARE'
p2595
asbag61
(g82
g63
NtRp2596
(dp2597
g66
(dp2598
g93
g94
ssg75
g2587
sg68
(lp2599
S':'
asbag61
(g82
g63
NtRp2600
(dp2601
g66
(dp2602
sg75
g2587
sg68
(lp2603
g61
(g62
g63
NtRp2604
(dp2605
g66
(dp2606
g74
I3
ssg75
g2600
sg68
(lp2607
g1217
asbasbasbag61
(g77
g63
NtRp2608
(dp2609
g66
(dp2610
sg75
g2205
sg68
(lp2611
g61
(g82
g63
NtRp2612
(dp2613
g66
(dp2614
g86
g87
ssg75
g2608
sg68
(lp2615
S'wsgi.errors'
p2616
asbag61
(g82
g63
NtRp2617
(dp2618
g66
(dp2619
g93
g94
ssg75
g2608
sg68
(lp2620
S':'
asbag61
(g82
g63
NtRp2621
(dp2622
g66
(dp2623
sg75
g2608
sg68
(lp2624
g61
(g62
g63
NtRp2625
(dp2626
g66
(dp2627
g74
I3
ssg75
g2621
sg68
(lp2628
S"<open file '<stderr>', mode 'w' at 0x005300B0>"
p2629
asbasbasbag61
(g77
g63
NtRp2630
(dp2631
g66
(dp2632
sg75
g2205
sg68
(lp2633
g61
(g82
g63
NtRp2634
(dp2635
g66
(dp2636
g86
g87
ssg75
g2630
sg68
(lp2637
S'wsgi.file_wrapper'
p2638
asbag61
(g82
g63
NtRp2639
(dp2640
g66
(dp2641
g93
g94
ssg75
g2630
sg68
(lp2642
S':'
asbag61
(g82
g63
NtRp2643
(dp2644
g66
(dp2645
sg75
g2630
sg68
(lp2646
g61
(g62
g63
NtRp2647
(dp2648
g66
(dp2649
g74
I3
ssg75
g2643
sg68
(lp2650
S'<class wsgiref.util.FileWrapper at 0x02C34900>'
p2651
asbasbasbag61
(g77
g63
NtRp2652
(dp2653
g66
(dp2654
sg75
g2205
sg68
(lp2655
g61
(g82
g63
NtRp2656
(dp2657
g66
(dp2658
g86
g87
ssg75
g2652
sg68
(lp2659
S'wsgi.input'
p2660
asbag61
(g82
g63
NtRp2661
(dp2662
g66
(dp2663
g93
g94
ssg75
g2652
sg68
(lp2664
S':'
asbag61
(g82
g63
NtRp2665
(dp2666
g66
(dp2667
sg75
g2652
sg68
(lp2668
g61
(g62
g63
NtRp2669
(dp2670
g66
(dp2671
g74
I3
ssg75
g2665
sg68
(lp2672
S'<cStringIO.StringO object at 0x083BC480>'
p2673
asbasbasbag61
(g77
g63
NtRp2674
(dp2675
g66
(dp2676
sg75
g2205
sg68
(lp2677
g61
(g82
g63
NtRp2678
(dp2679
g66
(dp2680
g86
g87
ssg75
g2674
sg68
(lp2681
S'wsgi.multiprocess'
p2682
asbag61
(g82
g63
NtRp2683
(dp2684
g66
(dp2685
g93
g94
ssg75
g2674
sg68
(lp2686
S':'
asbag61
(g82
g63
NtRp2687
(dp2688
g66
(dp2689
sg75
g2674
sg68
(lp2690
g61
(g62
g63
NtRp2691
(dp2692
g66
(dp2693
g74
I3
ssg75
g2687
sg68
(lp2694
g104
asbasbasbag61
(g77
g63
NtRp2695
(dp2696
g66
(dp2697
sg75
g2205
sg68
(lp2698
g61
(g82
g63
NtRp2699
(dp2700
g66
(dp2701
g86
g87
ssg75
g2695
sg68
(lp2702
S'wsgi.multithread'
p2703
asbag61
(g82
g63
NtRp2704
(dp2705
g66
(dp2706
g93
g94
ssg75
g2695
sg68
(lp2707
S':'
asbag61
(g82
g63
NtRp2708
(dp2709
g66
(dp2710
sg75
g2695
sg68
(lp2711
g61
(g62
g63
NtRp2712
(dp2713
g66
(dp2714
g74
I3
ssg75
g2708
sg68
(lp2715
g738
asbasbasbag61
(g77
g63
NtRp2716
(dp2717
g66
(dp2718
sg75
g2205
sg68
(lp2719
g61
(g82
g63
NtRp2720
(dp2721
g66
(dp2722
g86
g87
ssg75
g2716
sg68
(lp2723
S'wsgi.run_once'
p2724
asbag61
(g82
g63
NtRp2725
(dp2726
g66
(dp2727
g93
g94
ssg75
g2716
sg68
(lp2728
S':'
asbag61
(g82
g63
NtRp2729
(dp2730
g66
(dp2731
sg75
g2716
sg68
(lp2732
g61
(g62
g63
NtRp2733
(dp2734
g66
(dp2735
g74
I3
ssg75
g2729
sg68
(lp2736
g104
asbasbasbag61
(g77
g63
NtRp2737
(dp2738
g66
(dp2739
sg75
g2205
sg68
(lp2740
g61
(g82
g63
NtRp2741
(dp2742
g66
(dp2743
g86
g87
ssg75
g2737
sg68
(lp2744
S'wsgi.url_scheme'
p2745
asbag61
(g82
g63
NtRp2746
(dp2747
g66
(dp2748
g93
g94
ssg75
g2737
sg68
(lp2749
S':'
asbag61
(g82
g63
NtRp2750
(dp2751
g66
(dp2752
sg75
g2737
sg68
(lp2753
g61
(g62
g63
NtRp2754
(dp2755
g66
(dp2756
g74
I3
ssg75
g2750
sg68
(lp2757
g1499
asbasbasbag61
(g77
g63
NtRp2758
(dp2759
g66
(dp2760
sg75
g2205
sg68
(lp2761
g61
(g82
g63
NtRp2762
(dp2763
g66
(dp2764
g86
g87
ssg75
g2758
sg68
(lp2765
S'wsgi.version'
p2766
asbag61
(g82
g63
NtRp2767
(dp2768
g66
(dp2769
g93
g94
ssg75
g2758
sg68
(lp2770
S':'
asbag61
(g82
g63
NtRp2771
(dp2772
g66
(dp2773
sg75
g2758
sg68
(lp2774
g61
(g62
g63
NtRp2775
(dp2776
g66
(dp2777
g74
I3
ssg75
g2771
sg68
(lp2778
S'1'
asbasbasbasbasbasbasbasbasbasbasbasbasbsS'frames'
p2779
(lp2780
(dp2781
S'file'
p2782
S'C:\\Users\\Bussiere\\Dropbox\\Projets\\jackpoint\\web2py\\gluon\\restricted.py'
p2783
sS'dump'
p2784
(dp2785
sS'lnum'
p2786
I205
sS'lines'
p2787
(dp2788
I200
S'    try:'
p2789
sI201
S'        if type(code) == types.CodeType:'
p2790
sI202
S'            ccode = code'
p2791
sI203
S'        else:'
p2792
sI204
S'            ccode = compile2(code,layer)'
p2793
sI205
S'        exec ccode in environment'
p2794
sI206
S'    except HTTP:'
p2795
sI207
S'        raise'
p2796
sI208
S'    except RestrictedError:'
p2797
sI209
S'        # do not encapsulate (obfuscate) the original RestrictedError'
p2798
ssS'call'
p2799
S"(code='\\xef\\xbb\\xbf# -*- coding: utf-8 -*-\\n# this file is releas...())\\n\\nresponse._vars=response._caller(initdbjack)\\n', environment={'A': <class 'gluon.html.A'>, 'Auth': <class 'gluon.tools.Auth'>, 'AutocompleteWidget': <class 'gluon.sqlhtml.AutocompleteWidget'>, 'B': <class 'gluon.html.B'>, 'BEAUTIFY': <class 'gluon.html.BEAUTIFY'>, 'BODY': <class 'gluon.html.BODY'>, 'BR': <class 'gluon.html.BR'>, 'BUTTON': <class 'gluon.html.BUTTON'>, 'BooleanWidget': <class 'gluon.sqlhtml.BooleanWidget'>, 'CALLABLETYPES': (<type 'function'>, <type 'function'>, <type 'builtin_function_or_method'>, <type 'instancemethod'>, <type 'builtin_function_or_method'>), ...}, layer=r'C:\\Users\\Bussiere\\Dropbox\\Projets\\jackpoint\\web2py\\applications\\init\\controllers/default.py')"
p2800
sS'func'
p2801
S'restricted'
p2802
sa(dp2803
g2782
S'C:\\Users\\Bussiere\\Dropbox\\Projets\\jackpoint\\web2py\\applications\\init\\controllers\\default.py'
p2804
sg2784
(dp2805
sg2786
I448
sg2787
(dp2806
I437
S'    http://..../[app]/default/data/update/[table]/[id]'
p2807
sI438
S'    http://..../[app]/default/data/delete/[table]/[id]'
p2808
sI439
S'    http://..../[app]/default/data/select/[table]'
p2809
sI440
S'    http://..../[app]/default/data/search/[table]'
p2810
sI441
S'    but URLs must be signed, i.e. linked with'
p2811
sI442
S"      A('table',_href=URL('data/tables',user_signature=True))"
p2812
sI443
S'    or with the signed load operator'
p2813
sI444
S"      LOAD('default','data.load',args='tables',ajax=True,user_signature=True)"
p2814
sI445
S'    """'
p2815
sI446
S'    return dict(form=crud())'
p2816
ssg2799
S'()'
p2817
sg2801
S'<module>'
p2818
sa(dp2819
g2782
S'C:\\Users\\Bussiere\\Dropbox\\Projets\\jackpoint\\web2py\\gluon\\globals.py'
p2820
sg2784
(dp2821
sg2786
I173
sg2787
(dp2822
I168
S'        self.menu = []             # used by the default view layout'
p2823
sI169
S'        self.files = []            # used by web2py_ajax.html'
p2824
sI170
S'        self.generic_patterns = [] # patterns to allow generic views'
p2825
sI171
S"        self.delimiters = ('{{','}}')"
p2826
sI172
S'        self._vars = None'
p2827
sI173
S'        self._caller = lambda f: f()'
p2828
sI174
S'        self._view_environment = None'
p2829
sI175
S'        self._custom_commit = None'
p2830
sI176
S'        self._custom_rollback = None'
p2831
sI177
S''
ssg2799
S'(f=<function initdbjack at 0x03D13D30>)'
p2832
sg2801
S'<lambda>'
p2833
sa(dp2834
g2782
S'C:\\Users\\Bussiere\\Dropbox\\Projets\\jackpoint\\web2py\\applications\\init\\controllers\\default.py'
p2835
sg2784
(dp2836
sg2786
I322
sg2787
(dp2837
I320
S'                i = 1'
p2838
sI321
S'                if db(db.Skill.Nom == level2).count() == 0:'
p2839
sI322
S'                    Skill2 = db.SkillLevel.insert(Skill = (db.Skill.insert(Nom=level2)),Level = i,parent = db(db.Skill.Nom==level1).select())'
p2840
sI323
S'                    for level3 in skills[level1][level2].keys() :'
p2841
sI324
S'                        i = 2'
p2842
sI325
S'                        if db(db.Skill.Nom == level3).count() == 0:'
p2843
sI326
S'                            Skill3 = db.SkillLevel.insert(Skill = (db.Skill.insert(Nom=level3)),Level = i,parent = db(db.Skill.Nom==level2).select())'
p2844
sI317
S'            Skill1 = db.SkillLevel.insert(Skill = (db.Skill.insert(Nom=level1)),Level = i)'
p2845
sI318
S''
sI319
S'            for level2 in skills[level1].keys() :'
p2846
ssg2799
S'()'
p2847
sg2801
S'initdbjack'
p2848
sa(dp2849
g2782
S'C:\\Users\\Bussiere\\Dropbox\\Projets\\jackpoint\\web2py\\gluon\\dal.py'
p2850
sg2784
(dp2851
sg2786
I6829
sg2787
(dp2852
I6824
S''
sI6825
S'    def _insert(self, **fields):'
p2853
sI6826
S'        return self._db._adapter._insert(self,self._listify(fields))'
p2854
sI6827
S''
sI6828
S'    def insert(self, **fields):'
p2855
sI6829
S'        return self._db._adapter.insert(self,self._listify(fields))'
p2856
sI6830
S''
sI6831
S'    def validate_and_insert(self,**fields):'
p2857
sI6832
S'        response = Row()'
p2858
sI6833
S'        response.errors = Row()'
p2859
ssg2799
S"(self=<Table {'ALL': <gluon.dal.SQLALL object at 0x080...bject at 0x080C8550>, '_singular': 'Skilllevel'}>, **fields={'Level': 1, 'Skill': 2, 'parent': <gluon.dal.Rows object at 0x080B3470>})"
p2860
sg2801
S'insert'
p2861
sa(dp2862
g2782
S'C:\\Users\\Bussiere\\Dropbox\\Projets\\jackpoint\\web2py\\gluon\\dal.py'
p2863
sg2784
(dp2864
sg2786
I6805
sg2787
(dp2865
I6800
S'        new_fields = []'
p2866
sI6801
S'        new_fields_names = []'
p2867
sI6802
S'        for name in fields:'
p2868
sI6803
S'            if not name in self.fields:'
p2869
sI6804
S"                if name != 'id':"
p2870
sI6805
S"                    raise SyntaxError, 'Field %s does not belong to the table' % name"
p2871
sI6806
S'            else:'
p2872
sI6807
S'                new_fields.append((self[name],fields[name]))'
p2873
sI6808
S'                new_fields_names.append(name)'
p2874
sI6809
S'        for ofield in self:'
p2875
ssg2799
S"(self=<Table {'ALL': <gluon.dal.SQLALL object at 0x080...bject at 0x080C8550>, '_singular': 'Skilllevel'}>, fields={'Level': 1, 'Skill': 2, 'parent': <gluon.dal.Rows object at 0x080B3470>}, update=False)"
p2876
sg2801
S'_listify'
p2877
sasS'pyver'
p2878
S'Python 2.5.4: C:\\Users\\Bussiere\\Dropbox\\Projets\\jackpoint\\web2py\\web2py.exe'
p2879
sS'session'
p2880
g61
(g62
g63
NtRp2881
(dp2882
g66
(dp2883
sg68
(lp2884
g61
(g70
g63
NtRp2885
(dp2886
g66
(dp2887
g74
I5
ssg75
Nsg68
(lp2888
sbasbsS'etype'
p2889
S"<type 'exceptions.SyntaxError'>"
p2890
sS'date'
p2891
S'Thu Mar 29 13:11:48 2012'
p2892
sS'response'
p2893
g61
(g62
g63
NtRp2894
(dp2895
g66
(dp2896
sg68
(lp2897
g61
(g70
g63
NtRp2898
(dp2899
g66
(dp2900
g74
I5
ssg75
Nsg68
(lp2901
g61
(g77
g63
NtRp2902
(dp2903
g66
(dp2904
sg75
g2898
sg68
(lp2905
g61
(g82
g63
NtRp2906
(dp2907
g66
(dp2908
g86
g87
ssg75
g2902
sg68
(lp2909
g159
asbag61
(g82
g63
NtRp2910
(dp2911
g66
(dp2912
g93
g94
ssg75
g2902
sg68
(lp2913
S':'
asbag61
(g82
g63
NtRp2914
(dp2915
g66
(dp2916
sg75
g2902
sg68
(lp2917
g61
(g62
g63
NtRp2918
(dp2919
g66
(dp2920
g74
I5
ssg75
g2914
sg68
(lp2921
S'<cStringIO.StringO object at 0x083B8A00>'
p2922
asbasbasbag61
(g77
g63
NtRp2923
(dp2924
g66
(dp2925
sg75
g2898
sg68
(lp2926
g61
(g82
g63
NtRp2927
(dp2928
g66
(dp2929
g86
g87
ssg75
g2923
sg68
(lp2930
g225
asbag61
(g82
g63
NtRp2931
(dp2932
g66
(dp2933
g93
g94
ssg75
g2923
sg68
(lp2934
S':'
asbag61
(g82
g63
NtRp2935
(dp2936
g66
(dp2937
sg75
g2923
sg68
(lp2938
g61
(g62
g63
NtRp2939
(dp2940
g66
(dp2941
g74
I5
ssg75
g2935
sg68
(lp2942
g61
(g70
g63
NtRp2943
(dp2944
g66
(dp2945
g74
I4
ssg75
Nsg68
(lp2946
g61
(g77
g63
NtRp2947
(dp2948
g66
(dp2949
sg75
g2943
sg68
(lp2950
g61
(g82
g63
NtRp2951
(dp2952
g66
(dp2953
g86
g87
ssg75
g2947
sg68
(lp2954
S'session_id_init'
p2955
asbag61
(g82
g63
NtRp2956
(dp2957
g66
(dp2958
g93
g94
ssg75
g2947
sg68
(lp2959
S':'
asbag61
(g82
g63
NtRp2960
(dp2961
g66
(dp2962
sg75
g2947
sg68
(lp2963
g61
(g62
g63
NtRp2964
(dp2965
g66
(dp2966
g74
I4
ssg75
g2960
sg68
(lp2967
g61
(g70
g63
NtRp2968
(dp2969
g66
(dp2970
g74
I3
ssg75
Nsg68
(lp2971
g61
(g77
g63
NtRp2972
(dp2973
g66
(dp2974
sg75
g2968
sg68
(lp2975
g61
(g82
g63
NtRp2976
(dp2977
g66
(dp2978
g86
g87
ssg75
g2972
sg68
(lp2979
g275
asbag61
(g82
g63
NtRp2980
(dp2981
g66
(dp2982
g93
g94
ssg75
g2972
sg68
(lp2983
S':'
asbag61
(g82
g63
NtRp2984
(dp2985
g66
(dp2986
sg75
g2972
sg68
(lp2987
g61
(g62
g63
NtRp2988
(dp2989
g66
(dp2990
g74
I3
ssg75
g2984
sg68
(lp2991
S''
asbasbasbag61
(g77
g63
NtRp2992
(dp2993
g66
(dp2994
sg75
g2968
sg68
(lp2995
g61
(g82
g63
NtRp2996
(dp2997
g66
(dp2998
g86
g87
ssg75
g2992
sg68
(lp2999
g296
asbag61
(g82
g63
NtRp3000
(dp3001
g66
(dp3002
g93
g94
ssg75
g2992
sg68
(lp3003
S':'
asbag61
(g82
g63
NtRp3004
(dp3005
g66
(dp3006
sg75
g2992
sg68
(lp3007
g61
(g62
g63
NtRp3008
(dp3009
g66
(dp3010
g74
I3
ssg75
g3004
sg68
(lp3011
S''
asbasbasbag61
(g77
g63
NtRp3012
(dp3013
g66
(dp3014
sg75
g2968
sg68
(lp3015
g61
(g82
g63
NtRp3016
(dp3017
g66
(dp3018
g86
g87
ssg75
g3012
sg68
(lp3019
g317
asbag61
(g82
g63
NtRp3020
(dp3021
g66
(dp3022
g93
g94
ssg75
g3012
sg68
(lp3023
S':'
asbag61
(g82
g63
NtRp3024
(dp3025
g66
(dp3026
sg75
g3012
sg68
(lp3027
g61
(g62
g63
NtRp3028
(dp3029
g66
(dp3030
g74
I3
ssg75
g3024
sg68
(lp3031
S''
asbasbasbag61
(g77
g63
NtRp3032
(dp3033
g66
(dp3034
sg75
g2968
sg68
(lp3035
g61
(g82
g63
NtRp3036
(dp3037
g66
(dp3038
g86
g87
ssg75
g3032
sg68
(lp3039
g338
asbag61
(g82
g63
NtRp3040
(dp3041
g66
(dp3042
g93
g94
ssg75
g3032
sg68
(lp3043
S':'
asbag61
(g82
g63
NtRp3044
(dp3045
g66
(dp3046
sg75
g3032
sg68
(lp3047
g61
(g62
g63
NtRp3048
(dp3049
g66
(dp3050
g74
I3
ssg75
g3044
sg68
(lp3051
S''
asbasbasbag61
(g77
g63
NtRp3052
(dp3053
g66
(dp3054
sg75
g2968
sg68
(lp3055
g61
(g82
g63
NtRp3056
(dp3057
g66
(dp3058
g86
g87
ssg75
g3052
sg68
(lp3059
g359
asbag61
(g82
g63
NtRp3060
(dp3061
g66
(dp3062
g93
g94
ssg75
g3052
sg68
(lp3063
S':'
asbag61
(g82
g63
NtRp3064
(dp3065
g66
(dp3066
sg75
g3052
sg68
(lp3067
g61
(g62
g63
NtRp3068
(dp3069
g66
(dp3070
g74
I3
ssg75
g3064
sg68
(lp3071
S'/'
asbasbasbag61
(g77
g63
NtRp3072
(dp3073
g66
(dp3074
sg75
g2968
sg68
(lp3075
g61
(g82
g63
NtRp3076
(dp3077
g66
(dp3078
g86
g87
ssg75
g3072
sg68
(lp3079
g380
asbag61
(g82
g63
NtRp3080
(dp3081
g66
(dp3082
g93
g94
ssg75
g3072
sg68
(lp3083
S':'
asbag61
(g82
g63
NtRp3084
(dp3085
g66
(dp3086
sg75
g3072
sg68
(lp3087
g61
(g62
g63
NtRp3088
(dp3089
g66
(dp3090
g74
I3
ssg75
g3084
sg68
(lp3091
S''
asbasbasbag61
(g77
g63
NtRp3092
(dp3093
g66
(dp3094
sg75
g2968
sg68
(lp3095
g61
(g82
g63
NtRp3096
(dp3097
g66
(dp3098
g86
g87
ssg75
g3092
sg68
(lp3099
g401
asbag61
(g82
g63
NtRp3100
(dp3101
g66
(dp3102
g93
g94
ssg75
g3092
sg68
(lp3103
S':'
asbag61
(g82
g63
NtRp3104
(dp3105
g66
(dp3106
sg75
g3092
sg68
(lp3107
g61
(g62
g63
NtRp3108
(dp3109
g66
(dp3110
g74
I3
ssg75
g3104
sg68
(lp3111
S''
asbasbasbasbasbasbasbasbasbasbasbag61
(g77
g63
NtRp3112
(dp3113
g66
(dp3114
sg75
g2898
sg68
(lp3115
g61
(g82
g63
NtRp3116
(dp3117
g66
(dp3118
g86
g87
ssg75
g3112
sg68
(lp3119
S'delimiters'
p3120
asbag61
(g82
g63
NtRp3121
(dp3122
g66
(dp3123
g93
g94
ssg75
g3112
sg68
(lp3124
S':'
asbag61
(g82
g63
NtRp3125
(dp3126
g66
(dp3127
sg75
g3112
sg68
(lp3128
g61
(g62
g63
NtRp3129
(dp3130
g66
(dp3131
g74
I5
ssg75
g3125
sg68
(lp3132
g61
(g70
g63
NtRp3133
(dp3134
g66
(dp3135
g74
I4
ssg75
Nsg68
(lp3136
g61
(g77
g63
NtRp3137
(dp3138
g66
(dp3139
sg75
g3133
sg68
(lp3140
g61
(g82
g63
NtRp3141
(dp3142
g66
(dp3143
sg75
g3137
sg68
(lp3144
g61
(g62
g63
NtRp3145
(dp3146
g66
(dp3147
g74
I4
ssg75
g3141
sg68
(lp3148
S'{{'
p3149
asbasbasbag61
(g77
g63
NtRp3150
(dp3151
g66
(dp3152
sg75
g3133
sg68
(lp3153
g61
(g82
g63
NtRp3154
(dp3155
g66
(dp3156
sg75
g3150
sg68
(lp3157
g61
(g62
g63
NtRp3158
(dp3159
g66
(dp3160
g74
I4
ssg75
g3154
sg68
(lp3161
S'}}'
p3162
asbasbasbasbasbasbasbag61
(g77
g63
NtRp3163
(dp3164
g66
(dp3165
sg75
g2898
sg68
(lp3166
g61
(g82
g63
NtRp3167
(dp3168
g66
(dp3169
g86
g87
ssg75
g3163
sg68
(lp3170
S'files'
p3171
asbag61
(g82
g63
NtRp3172
(dp3173
g66
(dp3174
g93
g94
ssg75
g3163
sg68
(lp3175
S':'
asbag61
(g82
g63
NtRp3176
(dp3177
g66
(dp3178
sg75
g3163
sg68
(lp3179
g61
(g62
g63
NtRp3180
(dp3181
g66
(dp3182
g74
I5
ssg75
g3176
sg68
(lp3183
g61
(g70
g63
NtRp3184
(dp3185
g66
(dp3186
g74
I4
ssg75
Nsg68
(lp3187
sbasbasbasbag61
(g77
g63
NtRp3188
(dp3189
g66
(dp3190
sg75
g2898
sg68
(lp3191
g61
(g82
g63
NtRp3192
(dp3193
g66
(dp3194
g86
g87
ssg75
g3188
sg68
(lp3195
S'flash'
p3196
asbag61
(g82
g63
NtRp3197
(dp3198
g66
(dp3199
g93
g94
ssg75
g3188
sg68
(lp3200
S':'
asbag61
(g82
g63
NtRp3201
(dp3202
g66
(dp3203
sg75
g3188
sg68
(lp3204
g61
(g62
g63
NtRp3205
(dp3206
g66
(dp3207
g74
I5
ssg75
g3201
sg68
(lp3208
S''
asbasbasbag61
(g77
g63
NtRp3209
(dp3210
g66
(dp3211
sg75
g2898
sg68
(lp3212
g61
(g82
g63
NtRp3213
(dp3214
g66
(dp3215
g86
g87
ssg75
g3209
sg68
(lp3216
S'generic_patterns'
p3217
asbag61
(g82
g63
NtRp3218
(dp3219
g66
(dp3220
g93
g94
ssg75
g3209
sg68
(lp3221
S':'
asbag61
(g82
g63
NtRp3222
(dp3223
g66
(dp3224
sg75
g3209
sg68
(lp3225
g61
(g62
g63
NtRp3226
(dp3227
g66
(dp3228
g74
I5
ssg75
g3222
sg68
(lp3229
g61
(g70
g63
NtRp3230
(dp3231
g66
(dp3232
g74
I4
ssg75
Nsg68
(lp3233
g61
(g77
g63
NtRp3234
(dp3235
g66
(dp3236
sg75
g3230
sg68
(lp3237
g61
(g82
g63
NtRp3238
(dp3239
g66
(dp3240
sg75
g3234
sg68
(lp3241
g61
(g62
g63
NtRp3242
(dp3243
g66
(dp3244
g74
I4
ssg75
g3238
sg68
(lp3245
S'*'
asbasbasbasbasbasbasbag61
(g77
g63
NtRp3246
(dp3247
g66
(dp3248
sg75
g2898
sg68
(lp3249
g61
(g82
g63
NtRp3250
(dp3251
g66
(dp3252
g86
g87
ssg75
g3246
sg68
(lp3253
S'headers'
p3254
asbag61
(g82
g63
NtRp3255
(dp3256
g66
(dp3257
g93
g94
ssg75
g3246
sg68
(lp3258
S':'
asbag61
(g82
g63
NtRp3259
(dp3260
g66
(dp3261
sg75
g3246
sg68
(lp3262
g61
(g62
g63
NtRp3263
(dp3264
g66
(dp3265
g74
I5
ssg75
g3259
sg68
(lp3266
g61
(g70
g63
NtRp3267
(dp3268
g66
(dp3269
g74
I4
ssg75
Nsg68
(lp3270
g61
(g77
g63
NtRp3271
(dp3272
g66
(dp3273
sg75
g3267
sg68
(lp3274
g61
(g82
g63
NtRp3275
(dp3276
g66
(dp3277
g86
g87
ssg75
g3271
sg68
(lp3278
S'Cache-Control'
p3279
asbag61
(g82
g63
NtRp3280
(dp3281
g66
(dp3282
g93
g94
ssg75
g3271
sg68
(lp3283
S':'
asbag61
(g82
g63
NtRp3284
(dp3285
g66
(dp3286
sg75
g3271
sg68
(lp3287
g61
(g62
g63
NtRp3288
(dp3289
g66
(dp3290
g74
I4
ssg75
g3284
sg68
(lp3291
S'no-store, no-cache, must-revalidate, post-check=0, pre-check=0'
p3292
asbasbasbag61
(g77
g63
NtRp3293
(dp3294
g66
(dp3295
sg75
g3267
sg68
(lp3296
g61
(g82
g63
NtRp3297
(dp3298
g66
(dp3299
g86
g87
ssg75
g3293
sg68
(lp3300
S'Content-Type'
p3301
asbag61
(g82
g63
NtRp3302
(dp3303
g66
(dp3304
g93
g94
ssg75
g3293
sg68
(lp3305
S':'
asbag61
(g82
g63
NtRp3306
(dp3307
g66
(dp3308
sg75
g3293
sg68
(lp3309
g61
(g62
g63
NtRp3310
(dp3311
g66
(dp3312
g74
I4
ssg75
g3306
sg68
(lp3313
S'text/html; charset=utf-8'
p3314
asbasbasbag61
(g77
g63
NtRp3315
(dp3316
g66
(dp3317
sg75
g3267
sg68
(lp3318
g61
(g82
g63
NtRp3319
(dp3320
g66
(dp3321
g86
g87
ssg75
g3315
sg68
(lp3322
S'Expires'
p3323
asbag61
(g82
g63
NtRp3324
(dp3325
g66
(dp3326
g93
g94
ssg75
g3315
sg68
(lp3327
S':'
asbag61
(g82
g63
NtRp3328
(dp3329
g66
(dp3330
sg75
g3315
sg68
(lp3331
g61
(g62
g63
NtRp3332
(dp3333
g66
(dp3334
g74
I4
ssg75
g3328
sg68
(lp3335
S'Thu, 29 Mar 2012 11:11:47 GMT'
p3336
asbasbasbag61
(g77
g63
NtRp3337
(dp3338
g66
(dp3339
sg75
g3267
sg68
(lp3340
g61
(g82
g63
NtRp3341
(dp3342
g66
(dp3343
g86
g87
ssg75
g3337
sg68
(lp3344
S'Pragma'
p3345
asbag61
(g82
g63
NtRp3346
(dp3347
g66
(dp3348
g93
g94
ssg75
g3337
sg68
(lp3349
S':'
asbag61
(g82
g63
NtRp3350
(dp3351
g66
(dp3352
sg75
g3337
sg68
(lp3353
g61
(g62
g63
NtRp3354
(dp3355
g66
(dp3356
g74
I4
ssg75
g3350
sg68
(lp3357
S'no-cache'
p3358
asbasbasbag61
(g77
g63
NtRp3359
(dp3360
g66
(dp3361
sg75
g3267
sg68
(lp3362
g61
(g82
g63
NtRp3363
(dp3364
g66
(dp3365
g86
g87
ssg75
g3359
sg68
(lp3366
S'X-Powered-By'
p3367
asbag61
(g82
g63
NtRp3368
(dp3369
g66
(dp3370
g93
g94
ssg75
g3359
sg68
(lp3371
S':'
asbag61
(g82
g63
NtRp3372
(dp3373
g66
(dp3374
sg75
g3359
sg68
(lp3375
g61
(g62
g63
NtRp3376
(dp3377
g66
(dp3378
g74
I4
ssg75
g3372
sg68
(lp3379
S'web2py'
p3380
asbasbasbasbasbasbasbag61
(g77
g63
NtRp3381
(dp3382
g66
(dp3383
sg75
g2898
sg68
(lp3384
g61
(g82
g63
NtRp3385
(dp3386
g66
(dp3387
g86
g87
ssg75
g3381
sg68
(lp3388
S'menu'
p3389
asbag61
(g82
g63
NtRp3390
(dp3391
g66
(dp3392
g93
g94
ssg75
g3381
sg68
(lp3393
S':'
asbag61
(g82
g63
NtRp3394
(dp3395
g66
(dp3396
sg75
g3381
sg68
(lp3397
g61
(g62
g63
NtRp3398
(dp3399
g66
(dp3400
g74
I5
ssg75
g3394
sg68
(lp3401
g61
(g70
g63
NtRp3402
(dp3403
g66
(dp3404
g74
I4
ssg75
Nsg68
(lp3405
g61
(g77
g63
NtRp3406
(dp3407
g66
(dp3408
sg75
g3402
sg68
(lp3409
g61
(g82
g63
NtRp3410
(dp3411
g66
(dp3412
sg75
g3406
sg68
(lp3413
g61
(g62
g63
NtRp3414
(dp3415
g66
(dp3416
g74
I4
ssg75
g3410
sg68
(lp3417
g61
(g70
g63
NtRp3418
(dp3419
g66
(dp3420
g74
I3
ssg75
Nsg68
(lp3421
g61
(g77
g63
NtRp3422
(dp3423
g66
(dp3424
sg75
g3418
sg68
(lp3425
g61
(g82
g63
NtRp3426
(dp3427
g66
(dp3428
sg75
g3422
sg68
(lp3429
g61
(g62
g63
NtRp3430
(dp3431
g66
(dp3432
g74
I3
ssg75
g3426
sg68
(lp3433
cgluon.languages
lazyT_unpickle
p3434
(S't\x07\x00\x00\x00Accueil'
tRp3435
asbasbasbag61
(g77
g63
NtRp3436
(dp3437
g66
(dp3438
sg75
g3418
sg68
(lp3439
g61
(g82
g63
NtRp3440
(dp3441
g66
(dp3442
sg75
g3436
sg68
(lp3443
g61
(g62
g63
NtRp3444
(dp3445
g66
(dp3446
g74
I3
ssg75
g3440
sg68
(lp3447
g104
asbasbasbag61
(g77
g63
NtRp3448
(dp3449
g66
(dp3450
sg75
g3418
sg68
(lp3451
g61
(g82
g63
NtRp3452
(dp3453
g66
(dp3454
sg75
g3448
sg68
(lp3455
g61
(g62
g63
NtRp3456
(dp3457
g66
(dp3458
g74
I3
ssg75
g3452
sg68
(lp3459
S'/init/default/index'
p3460
asbasbasbag61
(g77
g63
NtRp3461
(dp3462
g66
(dp3463
sg75
g3418
sg68
(lp3464
g61
(g82
g63
NtRp3465
(dp3466
g66
(dp3467
sg75
g3461
sg68
(lp3468
g61
(g62
g63
NtRp3469
(dp3470
g66
(dp3471
g74
I3
ssg75
g3465
sg68
(lp3472
g61
(g70
g63
NtRp3473
(dp3474
g66
(dp3475
g74
I2
ssg75
Nsg68
(lp3476
sbasbasbasbasbasbasbasbag61
(g77
g63
NtRp3477
(dp3478
g66
(dp3479
sg75
g3402
sg68
(lp3480
g61
(g82
g63
NtRp3481
(dp3482
g66
(dp3483
sg75
g3477
sg68
(lp3484
g61
(g62
g63
NtRp3485
(dp3486
g66
(dp3487
g74
I4
ssg75
g3481
sg68
(lp3488
g61
(g70
g63
NtRp3489
(dp3490
g66
(dp3491
g74
I3
ssg75
Nsg68
(lp3492
g61
(g77
g63
NtRp3493
(dp3494
g66
(dp3495
sg75
g3489
sg68
(lp3496
g61
(g82
g63
NtRp3497
(dp3498
g66
(dp3499
sg75
g3493
sg68
(lp3500
g61
(g62
g63
NtRp3501
(dp3502
g66
(dp3503
g74
I3
ssg75
g3497
sg68
(lp3504
g61
(cgluon.html
SPAN
p3505
g63
NtRp3506
(dp3507
g66
(dp3508
g86
S'color:yellow'
p3509
ssg75
Nsg68
(lp3510
g3380
asbasbasbasbag61
(g77
g63
NtRp3511
(dp3512
g66
(dp3513
sg75
g3489
sg68
(lp3514
g61
(g82
g63
NtRp3515
(dp3516
g66
(dp3517
sg75
g3511
sg68
(lp3518
g61
(g62
g63
NtRp3519
(dp3520
g66
(dp3521
g74
I3
ssg75
g3515
sg68
(lp3522
g104
asbasbasbag61
(g77
g63
NtRp3523
(dp3524
g66
(dp3525
sg75
g3489
sg68
(lp3526
g61
(g82
g63
NtRp3527
(dp3528
g66
(dp3529
sg75
g3523
sg68
(lp3530
g61
(g62
g63
NtRp3531
(dp3532
g66
(dp3533
g74
I3
ssg75
g3527
sg68
(lp3534
S'None'
p3535
asbasbasbag61
(g77
g63
NtRp3536
(dp3537
g66
(dp3538
sg75
g3489
sg68
(lp3539
g61
(g82
g63
NtRp3540
(dp3541
g66
(dp3542
sg75
g3536
sg68
(lp3543
g61
(g62
g63
NtRp3544
(dp3545
g66
(dp3546
g74
I3
ssg75
g3540
sg68
(lp3547
g61
(g70
g63
NtRp3548
(dp3549
g66
(dp3550
g74
I2
ssg75
Nsg68
(lp3551
g61
(g77
g63
NtRp3552
(dp3553
g66
(dp3554
sg75
g3548
sg68
(lp3555
g61
(g82
g63
NtRp3556
(dp3557
g66
(dp3558
sg75
g3552
sg68
(lp3559
g61
(g62
g63
NtRp3560
(dp3561
g66
(dp3562
g74
I2
ssg75
g3556
sg68
(lp3563
g61
(g70
g63
NtRp3564
(dp3565
g66
(dp3566
g74
I1
ssg75
Nsg68
(lp3567
g61
(g77
g63
NtRp3568
(dp3569
g66
(dp3570
sg75
g3564
sg68
(lp3571
g61
(g82
g63
NtRp3572
(dp3573
g66
(dp3574
sg75
g3568
sg68
(lp3575
g61
(g62
g63
NtRp3576
(dp3577
g66
(dp3578
g74
I1
ssg75
g3572
sg68
(lp3579
g3434
(S's\x08\x00\x00\x00My Sites'
tRp3580
asbasbasbag61
(g77
g63
NtRp3581
(dp3582
g66
(dp3583
sg75
g3564
sg68
(lp3584
g61
(g82
g63
NtRp3585
(dp3586
g66
(dp3587
sg75
g3581
sg68
(lp3588
g61
(g62
g63
NtRp3589
(dp3590
g66
(dp3591
g74
I1
ssg75
g3585
sg68
(lp3592
I00
asbasbasbag61
(g77
g63
NtRp3593
(dp3594
g66
(dp3595
sg75
g3564
sg68
(lp3596
g61
(g82
g63
NtRp3597
(dp3598
g66
(dp3599
sg75
g3593
sg68
(lp3600
g61
(g62
g63
NtRp3601
(dp3602
g66
(dp3603
g74
I1
ssg75
g3597
sg68
(lp3604
S'/admin/default/site'
p3605
asbasbasbasbasbasbasbag61
(g77
g63
NtRp3606
(dp3607
g66
(dp3608
sg75
g3548
sg68
(lp3609
g61
(g82
g63
NtRp3610
(dp3611
g66
(dp3612
sg75
g3606
sg68
(lp3613
g61
(g62
g63
NtRp3614
(dp3615
g66
(dp3616
g74
I2
ssg75
g3610
sg68
(lp3617
g61
(g70
g63
NtRp3618
(dp3619
g66
(dp3620
g74
I1
ssg75
Nsg68
(lp3621
g61
(g77
g63
NtRp3622
(dp3623
g66
(dp3624
sg75
g3618
sg68
(lp3625
g61
(g82
g63
NtRp3626
(dp3627
g66
(dp3628
sg75
g3622
sg68
(lp3629
g61
(g62
g63
NtRp3630
(dp3631
g66
(dp3632
g74
I1
ssg75
g3626
sg68
(lp3633
g3434
(S's\x0b\x00\x00\x00Cette Appli'
tRp3634
asbasbasbag61
(g77
g63
NtRp3635
(dp3636
g66
(dp3637
sg75
g3618
sg68
(lp3638
g61
(g82
g63
NtRp3639
(dp3640
g66
(dp3641
sg75
g3635
sg68
(lp3642
g61
(g62
g63
NtRp3643
(dp3644
g66
(dp3645
g74
I1
ssg75
g3639
sg68
(lp3646
I00
asbasbasbag61
(g77
g63
NtRp3647
(dp3648
g66
(dp3649
sg75
g3618
sg68
(lp3650
g61
(g82
g63
NtRp3651
(dp3652
g66
(dp3653
sg75
g3647
sg68
(lp3654
g61
(g62
g63
NtRp3655
(dp3656
g66
(dp3657
g74
I1
ssg75
g3651
sg68
(lp3658
S'/admin/default/design/init'
p3659
asbasbasbag61
(g77
g63
NtRp3660
(dp3661
g66
(dp3662
sg75
g3618
sg68
(lp3663
g61
(g82
g63
NtRp3664
(dp3665
g66
(dp3666
sg75
g3660
sg68
(lp3667
g61
(g62
g63
NtRp3668
(dp3669
g66
(dp3670
g74
I1
ssg75
g3664
sg68
(lp3671
(lp3672
(g3434
(S's\x0b\x00\x00\x00Contr\xc3\xb4leur'
tRp3673
I00
S'/admin/default/edit/init/controllers/default.py'
tp3674
a(g3434
(S's\r\x00\x00\x00Pr\xc3\xa9sentation'
tRp3675
I00
S'/admin/default/edit/init/views/default/initdbjack.html'
tp3676
a(g3434
(S's\x0c\x00\x00\x00Mise en page'
tRp3677
I00
S'/admin/default/edit/init/views/layout.html'
tp3678
a(g3434
(S's\x10\x00\x00\x00Feuille de style'
tRp3679
I00
S'/admin/default/edit/init/static/css/web2py.css'
tp3680
a(g3434
(S's\n\x00\x00\x00Mod\xc3\xa8le DB'
tRp3681
I00
S'/admin/default/edit/init/models/db.py'
tp3682
a(g3434
(S's\x0c\x00\x00\x00Menu mod\xc3\xa8le'
tRp3683
I00
S'/admin/default/edit/init/models/menu.py'
tp3684
a(g3434
(S's\x10\x00\x00\x00Base de donn\xc3\xa9es'
tRp3685
I00
S'/init/appadmin/index'
tp3686
a(g3434
(S't\x07\x00\x00\x00Erreurs'
tRp3687
I00
S'/admin/default/errors/init'
tp3688
a(g3434
(S's\t\x00\x00\x00\xc3\x80 propos'
tRp3689
I00
S'/admin/default/about/init'
tp3690
aasbasbasbasbasbasbasbag61
(g77
g63
NtRp3691
(dp3692
g66
(dp3693
sg75
g3548
sg68
(lp3694
g61
(g82
g63
NtRp3695
(dp3696
g66
(dp3697
sg75
g3691
sg68
(lp3698
g61
(g62
g63
NtRp3699
(dp3700
g66
(dp3701
g74
I2
ssg75
g3695
sg68
(lp3702
g61
(g70
g63
NtRp3703
(dp3704
g66
(dp3705
g74
I1
ssg75
Nsg68
(lp3706
g61
(g77
g63
NtRp3707
(dp3708
g66
(dp3709
sg75
g3703
sg68
(lp3710
g61
(g82
g63
NtRp3711
(dp3712
g66
(dp3713
sg75
g3707
sg68
(lp3714
g61
(g62
g63
NtRp3715
(dp3716
g66
(dp3717
g74
I1
ssg75
g3711
sg68
(lp3718
S'web2py.com'
p3719
asbasbasbag61
(g77
g63
NtRp3720
(dp3721
g66
(dp3722
sg75
g3703
sg68
(lp3723
g61
(g82
g63
NtRp3724
(dp3725
g66
(dp3726
sg75
g3720
sg68
(lp3727
g61
(g62
g63
NtRp3728
(dp3729
g66
(dp3730
g74
I1
ssg75
g3724
sg68
(lp3731
I00
asbasbasbag61
(g77
g63
NtRp3732
(dp3733
g66
(dp3734
sg75
g3703
sg68
(lp3735
g61
(g82
g63
NtRp3736
(dp3737
g66
(dp3738
sg75
g3732
sg68
(lp3739
g61
(g62
g63
NtRp3740
(dp3741
g66
(dp3742
g74
I1
ssg75
g3736
sg68
(lp3743
S'http://www.web2py.com'
p3744
asbasbasbag61
(g77
g63
NtRp3745
(dp3746
g66
(dp3747
sg75
g3703
sg68
(lp3748
g61
(g82
g63
NtRp3749
(dp3750
g66
(dp3751
sg75
g3745
sg68
(lp3752
g61
(g62
g63
NtRp3753
(dp3754
g66
(dp3755
g74
I1
ssg75
g3749
sg68
(lp3756
(lp3757
(g3434
(S's\x10\x00\x00\x00T\xc3\xa9l\xc3\xa9chargement'
tRp3758
I00
S'http://www.web2py.com/examples/default/download'
p3759
tp3760
a(g3434
(S't\x07\x00\x00\x00Support'
tRp3761
I00
S'http://www.web2py.com/examples/default/support'
p3762
tp3763
a(g3434
(S's\x05\x00\x00\x00D\xc3\xa9mo'
tRp3764
I00
S'http://web2py.com/demo_admin'
p3765
tp3766
a(g3434
(S's\x10\x00\x00\x00Examples Rapides'
tRp3767
I00
S'http://web2py.com/examples/default/examples'
p3768
tp3769
a(g3434
(S't\x03\x00\x00\x00FAQ'
tRp3770
I00
S'http://web2py.com/AlterEgo'
p3771
tp3772
a(g3434
(S's\x07\x00\x00\x00Vid\xc3\xa9os'
tRp3773
I00
S'http://www.web2py.com/examples/default/videos/'
p3774
tp3775
a(g3434
(S's\x16\x00\x00\x00Applications gratuites'
tRp3776
I00
S'http://web2py.com/appliances'
p3777
tp3778
a(g3434
(S't\n\x00\x00\x00Plugiciels'
tRp3779
I00
S'http://web2py.com/plugins'
p3780
tp3781
a(g3434
(S't\x07\x00\x00\x00Layouts'
tRp3782
I00
S'http://web2py.com/layouts'
p3783
tp3784
a(g3434
(S't\x08\x00\x00\x00Recettes'
tRp3785
I00
S'http://web2pyslices.com/'
p3786
tp3787
a(g3434
(S's\x0b\x00\x00\x00S\xc3\xa9mantique'
tRp3788
I00
S'http://web2py.com/semantic'
p3789
tp3790
aasbasbasbasbasbasbasbag61
(g77
g63
NtRp3791
(dp3792
g66
(dp3793
sg75
g3548
sg68
(lp3794
g61
(g82
g63
NtRp3795
(dp3796
g66
(dp3797
sg75
g3791
sg68
(lp3798
g61
(g62
g63
NtRp3799
(dp3800
g66
(dp3801
g74
I2
ssg75
g3795
sg68
(lp3802
g61
(g70
g63
NtRp3803
(dp3804
g66
(dp3805
g74
I1
ssg75
Nsg68
(lp3806
g61
(g77
g63
NtRp3807
(dp3808
g66
(dp3809
sg75
g3803
sg68
(lp3810
g61
(g82
g63
NtRp3811
(dp3812
g66
(dp3813
sg75
g3807
sg68
(lp3814
g61
(g62
g63
NtRp3815
(dp3816
g66
(dp3817
g74
I1
ssg75
g3811
sg68
(lp3818
g3434
(S't\r\x00\x00\x00Documentation'
tRp3819
asbasbasbag61
(g77
g63
NtRp3820
(dp3821
g66
(dp3822
sg75
g3803
sg68
(lp3823
g61
(g82
g63
NtRp3824
(dp3825
g66
(dp3826
sg75
g3820
sg68
(lp3827
g61
(g62
g63
NtRp3828
(dp3829
g66
(dp3830
g74
I1
ssg75
g3824
sg68
(lp3831
I00
asbasbasbag61
(g77
g63
NtRp3832
(dp3833
g66
(dp3834
sg75
g3803
sg68
(lp3835
g61
(g82
g63
NtRp3836
(dp3837
g66
(dp3838
sg75
g3832
sg68
(lp3839
g61
(g62
g63
NtRp3840
(dp3841
g66
(dp3842
g74
I1
ssg75
g3836
sg68
(lp3843
S'http://www.web2py.com/book'
p3844
asbasbasbag61
(g77
g63
NtRp3845
(dp3846
g66
(dp3847
sg75
g3803
sg68
(lp3848
g61
(g82
g63
NtRp3849
(dp3850
g66
(dp3851
sg75
g3845
sg68
(lp3852
g61
(g62
g63
NtRp3853
(dp3854
g66
(dp3855
g74
I1
ssg75
g3849
sg68
(lp3856
(lp3857
(g3434
(S's\x08\x00\x00\x00Pr\xc3\xa9face'
tRp3858
I00
S'http://www.web2py.com/book/default/chapter/00'
p3859
tp3860
a(g3434
(S't\x0c\x00\x00\x00Introduction'
tRp3861
I00
S'http://www.web2py.com/book/default/chapter/01'
p3862
tp3863
a(g3434
(S't\x06\x00\x00\x00Python'
tRp3864
I00
S'http://www.web2py.com/book/default/chapter/02'
p3865
tp3866
a(g3434
(S's\r\x00\x00\x00Pr\xc3\xa9sentation'
tRp3867
I00
S'http://www.web2py.com/book/default/chapter/03'
p3868
tp3869
a(g3434
(S's\x08\x00\x00\x00Le noyau'
tRp3870
I00
S'http://www.web2py.com/book/default/chapter/04'
p3871
tp3872
a(g3434
(S's\x08\x00\x00\x00Les Vues'
tRp3873
I00
S'http://www.web2py.com/book/default/chapter/05'
p3874
tp3875
a(g3434
(S's\x10\x00\x00\x00Base de donn\xc3\xa9es'
tRp3876
I00
S'http://www.web2py.com/book/default/chapter/06'
p3877
tp3878
a(g3434
(S's\x1a\x00\x00\x00Formulaires et Validateurs'
tRp3879
I00
S'http://www.web2py.com/book/default/chapter/07'
p3880
tp3881
a(g3434
(S's\r\x00\x00\x00Email and SMS'
tRp3882
I00
S'http://www.web2py.com/book/default/chapter/08'
p3883
tp3884
a(g3434
(S"s\x12\x00\x00\x00Contr\xc3\xb4le d'acc\xc3\xa8s"
tRp3885
I00
S'http://www.web2py.com/book/default/chapter/09'
p3886
tp3887
a(g3434
(S't\x08\x00\x00\x00Services'
tRp3888
I00
S'http://www.web2py.com/book/default/chapter/10'
p3889
tp3890
a(g3434
(S's\r\x00\x00\x00Recettes Ajax'
tRp3891
I00
S'http://www.web2py.com/book/default/chapter/11'
p3892
tp3893
a(g3434
(S's\x16\x00\x00\x00Components and Plugins'
tRp3894
I00
S'http://www.web2py.com/book/default/chapter/12'
p3895
tp3896
a(g3434
(S's\x18\x00\x00\x00Recettes de d\xc3\xa9ploiement'
tRp3897
I00
S'http://www.web2py.com/book/default/chapter/13'
p3898
tp3899
a(g3434
(S's\x0f\x00\x00\x00Autres recettes'
tRp3900
I00
S'http://www.web2py.com/book/default/chapter/14'
p3901
tp3902
a(g3434
(S's\x10\x00\x00\x00Acheter ce livre'
tRp3903
I00
S'http://stores.lulu.com/web2py'
p3904
tp3905
aasbasbasbasbasbasbasbag61
(g77
g63
NtRp3906
(dp3907
g66
(dp3908
sg75
g3548
sg68
(lp3909
g61
(g82
g63
NtRp3910
(dp3911
g66
(dp3912
sg75
g3906
sg68
(lp3913
g61
(g62
g63
NtRp3914
(dp3915
g66
(dp3916
g74
I2
ssg75
g3910
sg68
(lp3917
g61
(g70
g63
NtRp3918
(dp3919
g66
(dp3920
g74
I1
ssg75
Nsg68
(lp3921
g61
(g77
g63
NtRp3922
(dp3923
g66
(dp3924
sg75
g3918
sg68
(lp3925
g61
(g82
g63
NtRp3926
(dp3927
g66
(dp3928
sg75
g3922
sg68
(lp3929
g61
(g62
g63
NtRp3930
(dp3931
g66
(dp3932
g74
I1
ssg75
g3926
sg68
(lp3933
g3434
(S's\x0b\x00\x00\x00Communaut\xc3\xa9'
tRp3934
asbasbasbag61
(g77
g63
NtRp3935
(dp3936
g66
(dp3937
sg75
g3918
sg68
(lp3938
g61
(g82
g63
NtRp3939
(dp3940
g66
(dp3941
sg75
g3935
sg68
(lp3942
g61
(g62
g63
NtRp3943
(dp3944
g66
(dp3945
g74
I1
ssg75
g3939
sg68
(lp3946
I00
asbasbasbag61
(g77
g63
NtRp3947
(dp3948
g66
(dp3949
sg75
g3918
sg68
(lp3950
g61
(g82
g63
NtRp3951
(dp3952
g66
(dp3953
sg75
g3947
sg68
(lp3954
g61
(g62
g63
NtRp3955
(dp3956
g66
(dp3957
g74
I1
ssg75
g3951
sg68
(lp3958
Nasbasbasbag61
(g77
g63
NtRp3959
(dp3960
g66
(dp3961
sg75
g3918
sg68
(lp3962
g61
(g82
g63
NtRp3963
(dp3964
g66
(dp3965
sg75
g3959
sg68
(lp3966
g61
(g62
g63
NtRp3967
(dp3968
g66
(dp3969
g74
I1
ssg75
g3963
sg68
(lp3970
(lp3971
(g3434
(S't\x06\x00\x00\x00Groups'
tRp3972
I00
S'http://www.web2py.com/examples/default/usergroups'
p3973
tp3974
a(g3434
(S't\x07\x00\x00\x00Twitter'
tRp3975
I00
S'http://twitter.com/web2py'
p3976
tp3977
a(g3434
(S's\t\x00\x00\x00Live Chat'
tRp3978
I00
S'http://webchat.freenode.net/?channels=web2py'
p3979
tp3980
aasbasbasbasbasbasbasbag61
(g77
g63
NtRp3981
(dp3982
g66
(dp3983
sg75
g3548
sg68
(lp3984
g61
(g82
g63
NtRp3985
(dp3986
g66
(dp3987
sg75
g3981
sg68
(lp3988
g61
(g62
g63
NtRp3989
(dp3990
g66
(dp3991
g74
I2
ssg75
g3985
sg68
(lp3992
g61
(g70
g63
NtRp3993
(dp3994
g66
(dp3995
g74
I1
ssg75
Nsg68
(lp3996
g61
(g77
g63
NtRp3997
(dp3998
g66
(dp3999
sg75
g3993
sg68
(lp4000
g61
(g82
g63
NtRp4001
(dp4002
g66
(dp4003
sg75
g3997
sg68
(lp4004
g61
(g62
g63
NtRp4005
(dp4006
g66
(dp4007
g74
I1
ssg75
g4001
sg68
(lp4008
g3434
(S't\n\x00\x00\x00Plugiciels'
tRp4009
asbasbasbag61
(g77
g63
NtRp4010
(dp4011
g66
(dp4012
sg75
g3993
sg68
(lp4013
g61
(g82
g63
NtRp4014
(dp4015
g66
(dp4016
sg75
g4010
sg68
(lp4017
g61
(g62
g63
NtRp4018
(dp4019
g66
(dp4020
g74
I1
ssg75
g4014
sg68
(lp4021
I00
asbasbasbag61
(g77
g63
NtRp4022
(dp4023
g66
(dp4024
sg75
g3993
sg68
(lp4025
g61
(g82
g63
NtRp4026
(dp4027
g66
(dp4028
sg75
g4022
sg68
(lp4029
g61
(g62
g63
NtRp4030
(dp4031
g66
(dp4032
g74
I1
ssg75
g4026
sg68
(lp4033
Nasbasbasbag61
(g77
g63
NtRp4034
(dp4035
g66
(dp4036
sg75
g3993
sg68
(lp4037
g61
(g82
g63
NtRp4038
(dp4039
g66
(dp4040
sg75
g4034
sg68
(lp4041
g61
(g62
g63
NtRp4042
(dp4043
g66
(dp4044
g74
I1
ssg75
g4038
sg68
(lp4045
(lp4046
(S'plugin_wiki'
p4047
I00
S'http://web2py.com/examples/default/download'
p4048
tp4049
a(g3434
(S's\r\x00\x00\x00Other Plugins'
tRp4050
I00
g3780
tp4051
a(g3434
(S's\x0e\x00\x00\x00Layout Plugins'
tRp4052
I00
g3783
tp4053
aasbasbasbasbasbasbasbasbasbasbasbasbasbasbasbasbasbasbasbag61
(g77
g63
NtRp4054
(dp4055
g66
(dp4056
sg75
g2898
sg68
(lp4057
g61
(g82
g63
NtRp4058
(dp4059
g66
(dp4060
g86
g87
ssg75
g4054
sg68
(lp4061
S'meta'
p4062
asbag61
(g82
g63
NtRp4063
(dp4064
g66
(dp4065
g93
g94
ssg75
g4054
sg68
(lp4066
S':'
asbag61
(g82
g63
NtRp4067
(dp4068
g66
(dp4069
sg75
g4054
sg68
(lp4070
g61
(g62
g63
NtRp4071
(dp4072
g66
(dp4073
g74
I5
ssg75
g4067
sg68
(lp4074
g61
(g70
g63
NtRp4075
(dp4076
g66
(dp4077
g74
I4
ssg75
Nsg68
(lp4078
g61
(g77
g63
NtRp4079
(dp4080
g66
(dp4081
sg75
g4075
sg68
(lp4082
g61
(g82
g63
NtRp4083
(dp4084
g66
(dp4085
g86
g87
ssg75
g4079
sg68
(lp4086
S'author'
p4087
asbag61
(g82
g63
NtRp4088
(dp4089
g66
(dp4090
g93
g94
ssg75
g4079
sg68
(lp4091
S':'
asbag61
(g82
g63
NtRp4092
(dp4093
g66
(dp4094
sg75
g4079
sg68
(lp4095
g61
(g62
g63
NtRp4096
(dp4097
g66
(dp4098
g74
I4
ssg75
g4092
sg68
(lp4099
S'Your Name <you@example.com>'
p4100
asbasbasbag61
(g77
g63
NtRp4101
(dp4102
g66
(dp4103
sg75
g4075
sg68
(lp4104
g61
(g82
g63
NtRp4105
(dp4106
g66
(dp4107
g86
g87
ssg75
g4101
sg68
(lp4108
S'copyright'
p4109
asbag61
(g82
g63
NtRp4110
(dp4111
g66
(dp4112
g93
g94
ssg75
g4101
sg68
(lp4113
S':'
asbag61
(g82
g63
NtRp4114
(dp4115
g66
(dp4116
sg75
g4101
sg68
(lp4117
g61
(g62
g63
NtRp4118
(dp4119
g66
(dp4120
g74
I4
ssg75
g4114
sg68
(lp4121
S'Copyright 2011'
p4122
asbasbasbag61
(g77
g63
NtRp4123
(dp4124
g66
(dp4125
sg75
g4075
sg68
(lp4126
g61
(g82
g63
NtRp4127
(dp4128
g66
(dp4129
g86
g87
ssg75
g4123
sg68
(lp4130
S'description'
p4131
asbag61
(g82
g63
NtRp4132
(dp4133
g66
(dp4134
g93
g94
ssg75
g4123
sg68
(lp4135
S':'
asbag61
(g82
g63
NtRp4136
(dp4137
g66
(dp4138
sg75
g4123
sg68
(lp4139
g61
(g62
g63
NtRp4140
(dp4141
g66
(dp4142
g74
I4
ssg75
g4136
sg68
(lp4143
S'a cool new app'
p4144
asbasbasbag61
(g77
g63
NtRp4145
(dp4146
g66
(dp4147
sg75
g4075
sg68
(lp4148
g61
(g82
g63
NtRp4149
(dp4150
g66
(dp4151
g86
g87
ssg75
g4145
sg68
(lp4152
S'generator'
p4153
asbag61
(g82
g63
NtRp4154
(dp4155
g66
(dp4156
g93
g94
ssg75
g4145
sg68
(lp4157
S':'
asbag61
(g82
g63
NtRp4158
(dp4159
g66
(dp4160
sg75
g4145
sg68
(lp4161
g61
(g62
g63
NtRp4162
(dp4163
g66
(dp4164
g74
I4
ssg75
g4158
sg68
(lp4165
S'Web2py Web Framework'
p4166
asbasbasbag61
(g77
g63
NtRp4167
(dp4168
g66
(dp4169
sg75
g4075
sg68
(lp4170
g61
(g82
g63
NtRp4171
(dp4172
g66
(dp4173
g86
g87
ssg75
g4167
sg68
(lp4174
S'keywords'
p4175
asbag61
(g82
g63
NtRp4176
(dp4177
g66
(dp4178
g93
g94
ssg75
g4167
sg68
(lp4179
S':'
asbag61
(g82
g63
NtRp4180
(dp4181
g66
(dp4182
sg75
g4167
sg68
(lp4183
g61
(g62
g63
NtRp4184
(dp4185
g66
(dp4186
g74
I4
ssg75
g4180
sg68
(lp4187
S'web2py, python, framework'
p4188
asbasbasbasbasbasbasbag61
(g77
g63
NtRp4189
(dp4190
g66
(dp4191
sg75
g2898
sg68
(lp4192
g61
(g82
g63
NtRp4193
(dp4194
g66
(dp4195
g86
g87
ssg75
g4189
sg68
(lp4196
S'postprocessing'
p4197
asbag61
(g82
g63
NtRp4198
(dp4199
g66
(dp4200
g93
g94
ssg75
g4189
sg68
(lp4201
S':'
asbag61
(g82
g63
NtRp4202
(dp4203
g66
(dp4204
sg75
g4189
sg68
(lp4205
g61
(g62
g63
NtRp4206
(dp4207
g66
(dp4208
g74
I5
ssg75
g4202
sg68
(lp4209
g61
(g70
g63
NtRp4210
(dp4211
g66
(dp4212
g74
I4
ssg75
Nsg68
(lp4213
sbasbasbasbag61
(g77
g63
NtRp4214
(dp4215
g66
(dp4216
sg75
g2898
sg68
(lp4217
g61
(g82
g63
NtRp4218
(dp4219
g66
(dp4220
g86
g87
ssg75
g4214
sg68
(lp4221
S'session_db'
p4222
asbag61
(g82
g63
NtRp4223
(dp4224
g66
(dp4225
g93
g94
ssg75
g4214
sg68
(lp4226
S':'
asbag61
(g82
g63
NtRp4227
(dp4228
g66
(dp4229
sg75
g4214
sg68
(lp4230
g61
(g62
g63
NtRp4231
(dp4232
g66
(dp4233
g74
I5
ssg75
g4227
sg68
(lp4234
g738
asbasbasbag61
(g77
g63
NtRp4235
(dp4236
g66
(dp4237
sg75
g2898
sg68
(lp4238
g61
(g82
g63
NtRp4239
(dp4240
g66
(dp4241
g86
g87
ssg75
g4235
sg68
(lp4242
S'session_id'
p4243
asbag61
(g82
g63
NtRp4244
(dp4245
g66
(dp4246
g93
g94
ssg75
g4235
sg68
(lp4247
S':'
asbag61
(g82
g63
NtRp4248
(dp4249
g66
(dp4250
sg75
g4235
sg68
(lp4251
g61
(g62
g63
NtRp4252
(dp4253
g66
(dp4254
g74
I5
ssg75
g4248
sg68
(lp4255
S'19:a8687721-5787-4713-9329-1674aeb3f1bb'
p4256
asbasbasbag61
(g77
g63
NtRp4257
(dp4258
g66
(dp4259
sg75
g2898
sg68
(lp4260
g61
(g82
g63
NtRp4261
(dp4262
g66
(dp4263
g86
g87
ssg75
g4257
sg68
(lp4264
S'session_id_name'
p4265
asbag61
(g82
g63
NtRp4266
(dp4267
g66
(dp4268
g93
g94
ssg75
g4257
sg68
(lp4269
S':'
asbag61
(g82
g63
NtRp4270
(dp4271
g66
(dp4272
sg75
g4257
sg68
(lp4273
g61
(g62
g63
NtRp4274
(dp4275
g66
(dp4276
g74
I5
ssg75
g4270
sg68
(lp4277
S'session_id_init'
p4278
asbasbasbag61
(g77
g63
NtRp4279
(dp4280
g66
(dp4281
sg75
g2898
sg68
(lp4282
g61
(g82
g63
NtRp4283
(dp4284
g66
(dp4285
g86
g87
ssg75
g4279
sg68
(lp4286
S'status'
p4287
asbag61
(g82
g63
NtRp4288
(dp4289
g66
(dp4290
g93
g94
ssg75
g4279
sg68
(lp4291
S':'
asbag61
(g82
g63
NtRp4292
(dp4293
g66
(dp4294
sg75
g4279
sg68
(lp4295
g61
(g62
g63
NtRp4296
(dp4297
g66
(dp4298
g74
I5
ssg75
g4292
sg68
(lp4299
S'200'
p4300
asbasbasbag61
(g77
g63
NtRp4301
(dp4302
g66
(dp4303
sg75
g2898
sg68
(lp4304
g61
(g82
g63
NtRp4305
(dp4306
g66
(dp4307
g86
g87
ssg75
g4301
sg68
(lp4308
S'subtitle'
p4309
asbag61
(g82
g63
NtRp4310
(dp4311
g66
(dp4312
g93
g94
ssg75
g4301
sg68
(lp4313
S':'
asbag61
(g82
g63
NtRp4314
(dp4315
g66
(dp4316
sg75
g4301
sg68
(lp4317
g61
(g62
g63
NtRp4318
(dp4319
g66
(dp4320
g74
I5
ssg75
g4314
sg68
(lp4321
g3434
(S's\x12\x00\x00\x00personnalisez-moi!'
tRp4322
asbasbasbag61
(g77
g63
NtRp4323
(dp4324
g66
(dp4325
sg75
g2898
sg68
(lp4326
g61
(g82
g63
NtRp4327
(dp4328
g66
(dp4329
g86
g87
ssg75
g4323
sg68
(lp4330
S'title'
p4331
asbag61
(g82
g63
NtRp4332
(dp4333
g66
(dp4334
g93
g94
ssg75
g4323
sg68
(lp4335
S':'
asbag61
(g82
g63
NtRp4336
(dp4337
g66
(dp4338
sg75
g4323
sg68
(lp4339
g61
(g62
g63
NtRp4340
(dp4341
g66
(dp4342
g74
I5
ssg75
g4336
sg68
(lp4343
S'Init'
p4344
asbasbasbag61
(g77
g63
NtRp4345
(dp4346
g66
(dp4347
sg75
g2898
sg68
(lp4348
g61
(g82
g63
NtRp4349
(dp4350
g66
(dp4351
g86
g87
ssg75
g4345
sg68
(lp4352
g2120
asbag61
(g82
g63
NtRp4353
(dp4354
g66
(dp4355
g93
g94
ssg75
g4345
sg68
(lp4356
S':'
asbag61
(g82
g63
NtRp4357
(dp4358
g66
(dp4359
sg75
g4345
sg68
(lp4360
g61
(g62
g63
NtRp4361
(dp4362
g66
(dp4363
g74
I5
ssg75
g4357
sg68
(lp4364
g2133
asbasbasbag61
(g77
g63
NtRp4365
(dp4366
g66
(dp4367
sg75
g2898
sg68
(lp4368
g61
(g82
g63
NtRp4369
(dp4370
g66
(dp4371
g86
g87
ssg75
g4365
sg68
(lp4372
S'view'
p4373
asbag61
(g82
g63
NtRp4374
(dp4375
g66
(dp4376
g93
g94
ssg75
g4365
sg68
(lp4377
S':'
asbag61
(g82
g63
NtRp4378
(dp4379
g66
(dp4380
sg75
g4365
sg68
(lp4381
g61
(g62
g63
NtRp4382
(dp4383
g66
(dp4384
g74
I5
ssg75
g4378
sg68
(lp4385
S'default/initdbjack.html'
p4386
asbasbasbasbasbsS'locals'
p4387
(dp4388
S'name'
p4389
S"'parent'"
p4390
sS'fields'
p4391
S"{'Level': 1, 'Skill': 2, 'parent': <gluon.dal.Rows object at 0x080B3470>}"
p4392
sS'self'
p4393
S"<Table {'ALL': <gluon.dal.SQLALL object at 0x080...bject at 0x080C8550>, '_singular': 'Skilllevel'}>"
p4394
sS'update'
p4395
g104
sS'new_fields_names'
p4396
S"['Skill']"
p4397
sS'new_fields'
p4398
S'[(<gluon.dal.Field object at 0x080C80D0>, 2)]'
p4399
sssS'traceback'
p4400
S'Traceback (most recent call last):\n  File "gluon/restricted.py", line 205, in restricted\n  File "C:\\Users\\Bussiere\\Dropbox\\Projets\\jackpoint\\web2py\\applications\\init\\controllers/default.py", line 448, in <module>\n  File "gluon/globals.py", line 173, in <lambda>\n  File "C:\\Users\\Bussiere\\Dropbox\\Projets\\jackpoint\\web2py\\applications\\init\\controllers/default.py", line 322, in initdbjack\n  File "gluon/dal.py", line 6829, in insert\n  File "gluon/dal.py", line 6805, in _listify\nSyntaxError: Field parent does not belong to the table\n'
p4401
s.