(dp1
S'output'
p2
S"<type 'exceptions.IndentationError'> unexpected indent (controllers/default.py, line 138)"
p3
sS'layer'
p4
S'C:\\Users\\Bussiere\\Dropbox\\Projets\\jackpoint\\web2py\\applications\\init\\controllers/default.py'
p5
sS'code'
p6
S'# -*- coding: utf-8 -*-\n# this file is released under public domain and you can use without limitations\n\n#########################################################################\n## This is a samples controller\n## - index is the default action of any application\n## - user is required for authentication and authorization\n## - download is for downloading files uploaded in the db (does streaming)\n## - call exposes all registered services (none by default)\n#########################################################################\n# Static analyzer import helpers: (STATIC_IMPORT_MARK)\nif 0: \n    import gluon\n    global cache; cache = gluon.cache.Cache()\n    global LOAD; LOAD  = gluon.compileapp.LoadFactory()\n    import gluon.compileapp.local_import_aux as local_import #@UnusedImport\n    from gluon.contrib.gql import GQLDB #@UnusedImport\n    from gluon.dal import Field #@UnusedImport\n    global request; request = gluon.globals.Request()\n    global response; response = gluon.globals.Response()\n    global session; session = gluon.globals.Session()\n    from gluon.html import A #@UnusedImport\n    from gluon.html import B #@UnusedImport\n    from gluon.html import BEAUTIFY #@UnusedImport\n    from gluon.html import BODY #@UnusedImport\n    from gluon.html import BR #@UnusedImport\n    from gluon.html import CENTER #@UnusedImport\n    from gluon.html import CODE #@UnusedImport\n    from gluon.html import DIV #@UnusedImport\n    from gluon.html import EM #@UnusedImport\n    from gluon.html import EMBED #@UnusedImport\n    from gluon.html import embed64 #@UnusedImport\n    from gluon.html import FIELDSET #@UnusedImport\n    from gluon.html import FORM #@UnusedImport\n    from gluon.html import H1 #@UnusedImport\n    from gluon.html import H2 #@UnusedImport\n    from gluon.html import H3 #@UnusedImport\n    from gluon.html import H4 #@UnusedImport\n    from gluon.html import H5 #@UnusedImport\n    from gluon.html import H6 #@UnusedImport\n    from gluon.html import HEAD #@UnusedImport\n    from gluon.html import HR #@UnusedImport\n    from gluon.html import HTML #@UnusedImport\n    from gluon.html import I #@UnusedImport\n    from gluon.html import IFRAME #@UnusedImport\n    from gluon.html import IMG #@UnusedImport\n    from gluon.html import INPUT #@UnusedImport\n    from gluon.html import LABEL #@UnusedImport\n    from gluon.html import LEGEND #@UnusedImport\n    from gluon.html import LI #@UnusedImport\n    from gluon.html import LINK #@UnusedImport\n    from gluon.html import MARKMIN #@UnusedImport\n    from gluon.html import MENU #@UnusedImport\n    from gluon.html import META #@UnusedImport\n    from gluon.html import OBJECT #@UnusedImport\n    from gluon.html import OL #@UnusedImport\n    from gluon.html import ON #@UnusedImport\n    from gluon.html import OPTGROUP #@UnusedImport\n    from gluon.html import OPTION #@UnusedImport\n    from gluon.html import P #@UnusedImport\n    from gluon.html import PRE #@UnusedImport\n    from gluon.html import STYLE #@UnusedImport\n    from gluon.html import SCRIPT #@UnusedImport\n    from gluon.html import SELECT #@UnusedImport\n    from gluon.html import SPAN #@UnusedImport\n    from gluon.html import TABLE #@UnusedImport\n    from gluon.html import TAG #@UnusedImport\n    from gluon.html import TBODY #@UnusedImport\n    from gluon.html import TD #@UnusedImport\n    from gluon.html import TEXTAREA #@UnusedImport\n    from gluon.html import TFOOT #@UnusedImport\n    from gluon.html import TH  #@UnusedImport\n    from gluon.html import THEAD #@UnusedImport\n    from gluon.html import TITLE #@UnusedImport\n    from gluon.html import TR #@UnusedImport\n    from gluon.html import TT #@UnusedImport\n    from gluon.html import UL #@UnusedImport\n    from gluon.html import URL #@UnusedImport\n    from gluon.html import XHTML #@UnusedImport\n    from gluon.html import XML #@UnusedImport\n    from gluon.html import xmlescape #@UnusedImport\n    from gluon.http import HTTP #@UnusedImport\n    from gluon.http import redirect #@UnusedImport\n    import gluon.languages.translator as T #@UnusedImport\n    from gluon.sql import DAL\n    global db; db = DAL()\n    from gluon.sql import SQLDB #@UnusedImport\n    from gluon.sql import SQLField #@UnusedImport\n    from gluon.sqlhtml import SQLFORM #@UnusedImport\n    from gluon.sqlhtml import SQLTABLE #@UnusedImport\n    from gluon.tools import  Auth\n    global auth; auth = Auth()\n    from gluon.tools import Crud\n    global crud; crud = Crud()\n    from gluon.tools import fetch #@UnusedImport\n    from gluon.tools import geocode #@UnusedImport\n    from gluon.tools import Mail\n    global mail; mail = Mail()\n    from gluon.tools import PluginManager\n    global plugins; plugins = PluginManager()\n    from gluon.tools import prettydate #@UnusedImport\n    from gluon.tools import Recaptcha #@UnusedImport\n    from gluon.tools import Service\n    global service; service = Service()\n    from gluon.validators import CLEANUP  #@UnusedImport\n    from gluon.validators import CRYPT #@UnusedImport\n    from gluon.validators import IS_ALPHANUMERIC #@UnusedImport\n    from gluon.validators import IS_DATE #@UnusedImport\n    from gluon.validators import IS_DATE_IN_RANGE #@UnusedImport\n    from gluon.validators import IS_DATETIME #@UnusedImport\n    from gluon.validators import IS_DATETIME_IN_RANGE #@UnusedImport\n    from gluon.validators import IS_DECIMAL_IN_RANGE #@UnusedImport\n    from gluon.validators import IS_EMAIL #@UnusedImport\n    from gluon.validators import IS_EMPTY_OR #@UnusedImport\n    from gluon.validators import IS_EQUAL_TO #@UnusedImport\n    from gluon.validators import IS_EXPR #@UnusedImport\n    from gluon.validators import IS_FLOAT_IN_RANGE #@UnusedImport\n    from gluon.validators import IS_IMAGE #@UnusedImport\n    from gluon.validators import IS_IN_DB #@UnusedImport\n    from gluon.validators import IS_IN_SET #@UnusedImport\n    from gluon.validators import IS_INT_IN_RANGE #@UnusedImport\n    from gluon.validators import IS_IPV4 #@UnusedImport\n    from gluon.validators import IS_LENGTH #@UnusedImport\n    from gluon.validators import IS_LIST_OF #@UnusedImport\n    from gluon.validators import IS_LOWER #@UnusedImport\n    from gluon.validators import IS_MATCH #@UnusedImport\n    from gluon.validators import IS_NOT_EMPTY #@UnusedImport\n    from gluon.validators import IS_NOT_IN_DB #@UnusedImport\n    from gluon.validators import IS_NULL_OR #@UnusedImport\n    from gluon.validators import IS_SLUG #@UnusedImport\n    from gluon.validators import IS_STRONG  #@UnusedImport\n    from gluon.validators import IS_TIME #@UnusedImport\n    from gluon.validators import IS_UPLOAD_FILENAME #@UnusedImport\n    from gluon.validators import IS_UPPER #@UnusedImpor\n\n\nimport random\n coding: utf8\nfrom gluon.storage import Storage\nsettings = Storage()\n...\n\n##############################\xe2\x80\x8b####\n# debug user group and membership\n#\nsettings.debug_ensure_first_\xe2\x80\x8buser                = False\nsettings.debug_ensure_users   \xe2\x80\x8b                  = False\nsettings.debug_ensure_group_\xe2\x80\x8brole                = False\nsettings.debug_ensure_\xe2\x80\x8bmembership                = False\nsettings.debug_ensure_\xe2\x80\x8bpermissions               = False\n\ndef __ensure_first_user(first_\xe2\x80\x8bname,last_name,email,password)\xe2\x80\x8b:\n\n    users = db(db.auth_user.email==email).\xe2\x80\x8bselect()\n    if users:\n        user_id = users[0].id\n        created = False\n        if settings.debug_ensure_first_\xe2\x80\x8buser == True:\n            print (\'found user_id so created equals %s\') % created\n        return (user_id,created)\n\n    else:\n        my_crypt = CRYPT(key=auth.settings.hmac_\xe2\x80\x8bkey)\n        crypt_pass = my_crypt(password)[0]        \n        id_user= db.auth_user.insert(\n                              \xe2\x80\x8b     first_name=first_name,\n                              \xe2\x80\x8b     last_name=last_name,\n                              \xe2\x80\x8b     email = email,\n                              \xe2\x80\x8b     password = crypt_pass\n                              \xe2\x80\x8b     )\n        created = True\n        if settings.debug_ensure_first_\xe2\x80\x8buser == True:\n            print (\'creating user_id\')\n        return (id_user,created)\n        \ndef __ensure_users():\n    user_id, created = _ensure_user(\'first\',\'last\',\'e\xe2\x80\x8bmail@address.com\',\'\xe2\x80\x8bUserPassword12345\')\n    if settings.debug_ensure_users == True:\n        print (\'user id %i\') % user_id\n        print (\'created %s\') % created\n\ndef __ensure_group_role(role,\xe2\x80\x8bdescription):\n    if not auth.id_group(role=role):    \n        auth.add_group(role=role,\xe2\x80\x8bdescription=description)    \n        if settings.debug_ensure_group_\xe2\x80\x8brole == True:\n            print (\'created role %s\') %(role)\n\ndef __ensure_membership(group_id, user_id):\n    return_group_id = auth.add_membership(role=role, user_id=user_id)\n    if settings.debug_ensure_\xe2\x80\x8bmembership == True:\n        print (\'made user_id member of %s\') %(role)\n    return return_group_id\n \ndef __ensure_permissions(role, description, user_id):\n    __ensure_group_role(role,\xe2\x80\x8bdescription)\n    return_group_id = __ensure_membership(group_id, user_id)\n    if settings.debug_ensure_\xe2\x80\x8bpermissions == True:\n        print return_group_id\n\n\ndef index():\n    if auth.is_logged_in() :\n        return "You get the blue pills"\n    else :\n        return dict(form=auth.login(),faq=URL(\'faq\'))\n\n\n\ndef generate_invitation(number,word=4,num=1,numdigit=5):\n    code = [\n[\'BELCHER\', \'FIX\', \'EEL\', \'PANZERBOY\', \'DESK_JOCKEY\', \'CHILLED\', \'ENFORCER\', \'CHERRY_PICKING\', \'COUNTRY_CLUB\', \'BOMBSHELL\', \'PLUGGED_IN\', \'FINI\', \'LEGIT\', \'JAM\', \'BONED_OUT\', \'BLADE\', \'ROUST\', \'SAMURAI\', \'DISK\', \'INPUT\', \'POST_TIME\', \'SOUNDS\', \'SKIP\', \'FLATBACKER\', \'WILSON\', \'SHOEMAKER\', \'DELTA_SIERRA\', \'HEART\', \'CROAK\', \'HEAD_HUNTER\', \'HOSHO_KAISHA\', "DELTA\'D", "\'FACE_(also,_FACE,_EYE-FACE,_I-FACE)", \'WEEFLE\', \'DIRTGIRL\', \'KEYBOARD\', \'BRAIN_BUCKET\', \'DRYING_OUT\', \'OVERCOOK\', \'PIG\', \'COLD_TEA\', \'RECONFIG\', \'PAD\', \'LIT_UP\', \'WRAITH\', \'HANDLE\', \'L.P.\', \'PINCH\', \'TAKE_A_CAB\', \'SPILL\', \'ACE_KOOL\', \'DO\', \'BIZ\', \'BROWNIE\', \'CANDLE_AND_BLOOD\', \'BLUEBOY\', \'UP_ON_IT\', \'BURN\', \'USER_INTERFACE\', \'HOB\', \'GYRO\', \'STUFFIT\', \'THATCH\', \'ICEBREAKER\', \'ZIP_GUN\', \'PETERMAN\', \'PLAY_DOUGH\', \'TREY-EIGHT\', \'SETTLE\', "CHIPPIN\'_IN", \'MEATBALL\', \'RAFFLES\', \'YUBITSUME\', \'CROAKER\', \'SUCKER_POCKETS\', \'L.A.M.A.\', \'GEEK\', \'BUTTONHEAD\'],\n[\'TAKE\', \'TEKIYA\', \'KURUMAKU\', \'BLOC\', \'GAT\', \'JOHATSU\', \'CRYSTAL\', \'A.I.\', \'ZEROED\', \'OVER_THE_SHOULDER\', \'GRAB_GEE\', \'PANZER\', \'GO_LEO\', \'WASHED\', \'I.C.E.\', \'COPSHOP\', \'COLLATERAL_DAMAGE\', \'BIG_DARK\', \'DOUBLE-DEUCE\', \'ZONEDANCE\', \'MARK\', \'COBBERS\', \'CHIMPIRA\', \'TRIADS\', \'SHANK\', \'FRAG\', \'BREATH_VAC\', "CHARLIE\'S_ANGEL", \'MULE\', \'BURNER\', "PACKIN\'", \'HOTDOGGER\', \'BOSOZOKU\', \'RIPPERDOC\', \'THIRDMAN\', \'MAXIMUM,_MAX\', \'CHOOH2_("CHOO")\', \'CRYO_MAX\', \'HEATER\', \'SHARK\', \'JOYGIRL\', \'GURENTAI\', \'BANDIT\', \'VENICE\', \'MIZU_SHOBAI\', \'PASTA_BOYS\', \'SQUID\', \'CYBERED_UP\', \'DEAD_RECKONING\', \'POPSICLE\', \'FAUST\', \'COLLARBOY\', \'SHOES\', \'TORCH\', \'DELTAJOCK\', \'BUTTERFLY_MAN\', \'WISE_GUYS\', \'BOOST\', \'CAIN\', \'FOUR-FIVE\', \'BREAK-DOWN\', \'POLYMER_ONE-SHOT\', \'FLAG\', \'CALL_GIRL\', \'IN_THE_HUNT\', \'HYDRO\', \'DOCK\', \'FENCE\', \'SHAIKUJIN\', \'GOMI\', \'FILTER\', \'SAINT_NICK\', \'LINEFOOT\', \'CAVALRY\', \'PUKE\', \'CONVERSION\', \'FINGER\', \'CONTRACT\'],\n[\'PLASTIC\', \'CRYSTALJOCKEY,_CRYSTALJOCK\', \'SCREW\', \'TOYSTORE\', \'DREAM_TIME\', \'EXOTIC\', \'WALKABOUT\', \'DIAMOND_SEASON\', \'SARAKIN\', \'CHRISTMAS_BUNDLES\', \'SHADES\', \'BUTTON_MAN\', \'FOXTROT_UNIFORM\', \'KAI\', \'UNDER_THE_PAINT\', \'MINIMUM\', \'TRIPLE_A\', \'PIG_ON_A_WHEEL\', \'BAG_MAN\', \'DIP\', \'PIGEONS\', \'MAN\', \'ADAM_HENRY\', \'HIGH\', \'HEAT\', \'NINJO\', \'KNIFE_FIGHT\', \'MOUTHPIECE\', \'AGRIPLEX\', \'DATA_TERM\', \'LIZ\', \'CHROMER\', \'OUTPUT\', \'N.O.E.\', \'CLOSE_A_CONTRACT\', \'LASSIE\', \'FLATLINE\', \'CHIV\', \'SING\', \'AMMO\', \'RAT\', \'MATCHBOX\', \'PULL_AN_ASH\', \'BORYOKUDAN\', \'SQUEEZE\', \'RONIN\', \'HIT\', \'RAGS\', \'TAKE_OUT\', \'BEAT_THE_RAP\', \'GIRI\', \'RUNNING_THE_LINE\', \'HARNESS\', \'GRAVEROBBER\', \'DROP_A_DIME\', \'BADGE_ON_A_BEAVER\', \'FLETCHER\', \'AMPED-OUT\', \'NEUTRALIZE\', \'PETER\', \'CONFIG\', \'HARDFIRE\', \'B.A.M.A.\', \'CHROMATIC_ROCK\', \'MOLDED\', \'RAD\', \'CREASED\', \'CHATTER_BOX\', \'HAND_CANNON\', \'NIPPERS\', \'SIERRA_HOTEL\', \'HOOK_UP\', \'-JOCKEY,_-JOCK\', \'BUG\', \'BATMAN_AND_ROBIN\', \'BLACK_OPERATIONS\', "D.C.\'S", \'SO_KA\'],\n[\'_A.A.A.\', \'HOME_PLATE\', \'LITEJACK\', \'PINEAPPLE\', \'MAKE\', \'THE_STREET\', \'SITREP\', \'HANGING_PAPER\', \'PAINT_BOYS\', \'WETWORK\', \'NINER\', \'BOOKIE\', \'WHIPLASH\', \'TORPEDO\', \'HEATWAVE\', \'SOLAR_WIND\', \'QUIFF\', \'BIKE\', \'TRAFFIC\', \'WIRE_ROOM\', \'OYABUN\', \'COWBOY\', \'KOBUN\', \'MUDBOY\', \'COP_OUT\', \'SOKAIYA\', "\'DORPH", \'JOYBOY\', \'DIRTY\', \'BOAT\', \'DROP\', \'GRAV_or_GEE\', \'APOGEE\', \'BOOSTER\', \'BOOK\', \'FRY\', \'PULLING_TEETH\', \'ONE_LARGE\', \'COMBAT_DRUGS\', \'THRASH\', \'DO_A_GHOST\', \'DELTA\', \'RIN_TIN_TIN\', \'DROP_OUT\', \'GUMI\', \'ROCKERBOY/GIRL\', \'BULLET\', \'DEB\', \'THREADING_THE_NEEDLE\', \'MOTOR\', \'BLEEDER\', \'ARC\', \'BOPPER\', \'WASTE\', \'_______DEMUKAI\', \'BREAK\', \'HOLDING_DOWN\', \'FEDS\', \'GAP\', \'RABBI\', \'BAKUTO\', \'CHOMBATTA_(CHOOMBA)\', \'BIG_HATS\', \'MR._JOHNSON\', \'EXEC\', \'BULL\', \'BULLSEYE\', \'POSERGANG\', \'CHAOL\', \'GEISHA\', \'SLAMMIT_ON\', \'POP_CAPS\', \'HARD_TIME\', \'BENJI\', \'MAKING_BANK\', \'PAPERHANGER\', \'NETRUN\', \'BOGEY\'],\n]     \n    i = 0\n    invits = []\n    print number\n    while (i < number):\n        invit = ""\n        j = 0\n        while (j < word):\n            debut = random.randint(0,len(code)-1)\n            codepick = code[debut][random.randint(0,len(code[debut])-1)]\n            j += 1\n            invit += codepick+"-"\n        j = 0\n        while (j < num):\n            invit += randomdig(numdigit)+"-"\n            j += 1\n        i+= 1\n        invit = invit[:-1]\n        if invit not in invits :\n            invits.append(invit[:-1])\n            print invit\n    return invits\n        \ndef randomdig(number):\n    max = "9"*number\n    max = int(max)\n    rand =  random.randint(0,max)\n    rand = str(rand)\n    rand = "0"*(number-len(rand))+rand\n    return rand\n\n@auth.requires_login()\ndef inscription():\n    form = SQLFORM(db[auth.settings.table_user_name])\n    return dict(form=form)\n\ndef liste_invitations():\n    return dict(rows = db().select(db.Invitation.ALL))\n\n#@auth.requires_membership(\'manager\')\ndef generate_invitationpage():\n   form=FORM("Nombre d\'invit a g\xc3\xa9n\xc3\xa9rer:", INPUT(_name=\'nmbreinvit\'), INPUT(_type=\'submit\'))\n   if form.process().accepted:\n       i = form.vars.nmbreinvit\n       invitsgenere = generate_invitation(int(i))\n       for invit in invitsgenere :\n           db.Invitation.insert(Code=invit)\n           db.commit()\n       session.flash = \'invitation inserted\'\n       form=FORM("Nombre d\'invit a g\xc3\xa9n\xc3\xa9rer:", INPUT(_name=\'nmbreinvit\'), INPUT(_type=\'submit\'))\n       #db.Invitation.insert(Code="Toto-5542")\n       db.commit()\n   return dict(form=form)\n\ndef verif_invitation(form):\n    if len(db(db.Invitation.Code==form.vars.invitation).select()) != 1 :\n        form.errors(\'code invitation incorrect\')\n\n\ndef invitation():\n    form=FORM("Code Invitation :", INPUT(_name=\'invitation\'),INPUT(_name=\'email\'),  INPUT(_type=\'submit\'))\n    if form.process(onvalidation=verif_invitation) :\n        user = __ensure_first_user("john","doe",form.vars.email,form.vars.invitation)\xe2\x80\x8b:\n        auth.user = Storage(auth.settings.table_user._filter_fields(user, id=True))\n        auth.environment.session.auth = Storage(user=user, last_visit=request.now,\n                                            expiration=auth.settings.expiration)\n        redirect(URL(\'inscription\'))\n    return dict(form=form)\n\ndef faq():\n\n    return dict()\ndef user():\n    """\n    exposes:\n    http://..../[app]/default/user/login\n    http://..../[app]/default/user/logout\n    http://..../[app]/default/user/register\n    http://..../[app]/default/user/profile\n    http://..../[app]/default/user/retrieve_password\n    http://..../[app]/default/user/change_password\n    use @auth.requires_login()\n        @auth.requires_membership(\'group name\')\n        @auth.requires_permission(\'read\',\'table name\',record_id)\n    to decorate functions that need access control\n    """\n    return dict(form=auth())\n\n\ndef download():\n    """\n    allows downloading of uploaded files\n    http://..../[app]/default/download/[filename]\n    """\n    return response.download(request,db)\n\n\ndef call():\n    """\n    exposes services. for example:\n    http://..../[app]/default/call/jsonrpc\n    decorate with @services.jsonrpc the functions to expose\n    supports xml, json, xmlrpc, jsonrpc, amfrpc, rss, csv\n    """\n    return service()\n\n\n@auth.requires_signature()\ndef data():\n    """\n    http://..../[app]/default/data/tables\n    http://..../[app]/default/data/create/[table]\n    http://..../[app]/default/data/read/[table]/[id]\n    http://..../[app]/default/data/update/[table]/[id]\n    http://..../[app]/default/data/delete/[table]/[id]\n    http://..../[app]/default/data/select/[table]\n    http://..../[app]/default/data/search/[table]\n    but URLs must be signed, i.e. linked with\n      A(\'table\',_href=URL(\'data/tables\',user_signature=True))\n    or with the signed load operator\n      LOAD(\'default\',\'data.load\',args=\'tables\',ajax=True,user_signature=True)\n    """\n    return dict(form=crud())\n\nresponse._vars=response._caller(index)\n'
p7
sS'snapshot'
p8
(dp9
S'exception'
p10
(dp11
S'__getslice__'
p12
S"<method-wrapper '__getslice__' of exceptions.IndentationError object at 0x040A8430>"
p13
sS'text'
p14
S"' coding: utf8\\n'"
p15
sS'__str__'
p16
S"<method-wrapper '__str__' of exceptions.IndentationError object at 0x040A8430>"
p17
sS'__reduce__'
p18
S'<built-in method __reduce__ of exceptions.IndentationError object at 0x040A8430>'
p19
sS'__dict__'
p20
S'{}'
p21
sS'__init__'
p22
S"<method-wrapper '__init__' of exceptions.IndentationError object at 0x040A8430>"
p23
sS'__setattr__'
p24
S"<method-wrapper '__setattr__' of exceptions.IndentationError object at 0x040A8430>"
p25
sS'__reduce_ex__'
p26
S'<built-in method __reduce_ex__ of exceptions.IndentationError object at 0x040A8430>'
p27
sS'__new__'
p28
S'<built-in method __new__ of type object at 0x1E1CDC98>'
p29
sS'__class__'
p30
S"<type 'exceptions.IndentationError'>"
p31
sS'filename'
p32
S"r'C:\\Users\\Bussiere\\Dropbox\\Projets\\jackpoint\\web2py\\applications\\init\\controllers/default.py'"
p33
sS'lineno'
p34
S'138'
p35
sS'msg'
p36
S"'unexpected indent'"
p37
sS'__doc__'
p38
S"'Improper indentation.'"
p39
sS'__getitem__'
p40
S"<method-wrapper '__getitem__' of exceptions.IndentationError object at 0x040A8430>"
p41
sS'__setstate__'
p42
S'<built-in method __setstate__ of exceptions.IndentationError object at 0x040A8430>'
p43
sS'__getattribute__'
p44
S"<method-wrapper '__getattribute__' of exceptions.IndentationError object at 0x040A8430>"
p45
sS'print_file_and_line'
p46
S'None'
p47
sS'args'
p48
S"('unexpected indent', (r'C:\\Users\\Bussiere\\Dropbox\\Projets\\jackpoint\\web2py\\applications\\init\\controllers/default.py', 138, 1, ' coding: utf8\\n'))"
p49
sS'offset'
p50
S'1'
sS'__delattr__'
p51
S"<method-wrapper '__delattr__' of exceptions.IndentationError object at 0x040A8430>"
p52
sS'__repr__'
p53
S"<method-wrapper '__repr__' of exceptions.IndentationError object at 0x040A8430>"
p54
sS'__hash__'
p55
S"<method-wrapper '__hash__' of exceptions.IndentationError object at 0x040A8430>"
p56
ssS'evalue'
p57
S'unexpected indent (controllers/default.py, line 138)'
p58
sS'request'
p59
ccopy_reg
_reconstructor
p60
(cgluon.html
BEAUTIFY
p61
c__builtin__
object
p62
NtRp63
(dp64
S'attributes'
p65
(dp66
sS'components'
p67
(lp68
g60
(cgluon.html
TABLE
p69
g62
NtRp70
(dp71
g65
(dp72
S'level'
p73
I5
ssS'parent'
p74
Nsg67
(lp75
g60
(cgluon.html
TR
p76
g62
NtRp77
(dp78
g65
(dp79
sg74
g70
sg67
(lp80
g60
(cgluon.html
TD
p81
g62
NtRp82
(dp83
g65
(dp84
S'_style'
p85
S'font-weight:bold;vertical-align:top'
p86
ssg74
g77
sg67
(lp87
S'ajax'
p88
asbag60
(g81
g62
NtRp89
(dp90
g65
(dp91
S'_valign'
p92
S'top'
p93
ssg74
g77
sg67
(lp94
S':'
asbag60
(g81
g62
NtRp95
(dp96
g65
(dp97
sg74
g77
sg67
(lp98
g60
(g61
g62
NtRp99
(dp100
g65
(dp101
g73
I5
ssg74
g95
sg67
(lp102
S'False'
p103
asbasbasbag60
(g76
g62
NtRp104
(dp105
g65
(dp106
sg74
g70
sg67
(lp107
g60
(g81
g62
NtRp108
(dp109
g65
(dp110
g85
g86
ssg74
g104
sg67
(lp111
S'application'
p112
asbag60
(g81
g62
NtRp113
(dp114
g65
(dp115
g92
g93
ssg74
g104
sg67
(lp116
S':'
asbag60
(g81
g62
NtRp117
(dp118
g65
(dp119
sg74
g104
sg67
(lp120
g60
(g61
g62
NtRp121
(dp122
g65
(dp123
g73
I5
ssg74
g117
sg67
(lp124
S'init'
p125
asbasbasbag60
(g76
g62
NtRp126
(dp127
g65
(dp128
sg74
g70
sg67
(lp129
g60
(g81
g62
NtRp130
(dp131
g65
(dp132
g85
g86
ssg74
g126
sg67
(lp133
g48
asbag60
(g81
g62
NtRp134
(dp135
g65
(dp136
g92
g93
ssg74
g126
sg67
(lp137
S':'
asbag60
(g81
g62
NtRp138
(dp139
g65
(dp140
sg74
g126
sg67
(lp141
g60
(g61
g62
NtRp142
(dp143
g65
(dp144
g73
I5
ssg74
g138
sg67
(lp145
g60
(g69
g62
NtRp146
(dp147
g65
(dp148
g73
I4
ssg74
Nsg67
(lp149
sbasbasbasbag60
(g76
g62
NtRp150
(dp151
g65
(dp152
sg74
g70
sg67
(lp153
g60
(g81
g62
NtRp154
(dp155
g65
(dp156
g85
g86
ssg74
g150
sg67
(lp157
S'body'
p158
asbag60
(g81
g62
NtRp159
(dp160
g65
(dp161
g92
g93
ssg74
g150
sg67
(lp162
S':'
asbag60
(g81
g62
NtRp163
(dp164
g65
(dp165
sg74
g150
sg67
(lp166
g60
(g61
g62
NtRp167
(dp168
g65
(dp169
g73
I5
ssg74
g163
sg67
(lp170
S'<cStringIO.StringO object at 0x042B65C0>'
p171
asbasbasbag60
(g76
g62
NtRp172
(dp173
g65
(dp174
sg74
g70
sg67
(lp175
g60
(g81
g62
NtRp176
(dp177
g65
(dp178
g85
g86
ssg74
g172
sg67
(lp179
S'client'
p180
asbag60
(g81
g62
NtRp181
(dp182
g65
(dp183
g92
g93
ssg74
g172
sg67
(lp184
S':'
asbag60
(g81
g62
NtRp185
(dp186
g65
(dp187
sg74
g172
sg67
(lp188
g60
(g61
g62
NtRp189
(dp190
g65
(dp191
g73
I5
ssg74
g185
sg67
(lp192
S'127.0.0.1'
p193
asbasbasbag60
(g76
g62
NtRp194
(dp195
g65
(dp196
sg74
g70
sg67
(lp197
g60
(g81
g62
NtRp198
(dp199
g65
(dp200
g85
g86
ssg74
g194
sg67
(lp201
S'controller'
p202
asbag60
(g81
g62
NtRp203
(dp204
g65
(dp205
g92
g93
ssg74
g194
sg67
(lp206
S':'
asbag60
(g81
g62
NtRp207
(dp208
g65
(dp209
sg74
g194
sg67
(lp210
g60
(g61
g62
NtRp211
(dp212
g65
(dp213
g73
I5
ssg74
g207
sg67
(lp214
S'default'
p215
asbasbasbag60
(g76
g62
NtRp216
(dp217
g65
(dp218
sg74
g70
sg67
(lp219
g60
(g81
g62
NtRp220
(dp221
g65
(dp222
g85
g86
ssg74
g216
sg67
(lp223
S'cookies'
p224
asbag60
(g81
g62
NtRp225
(dp226
g65
(dp227
g92
g93
ssg74
g216
sg67
(lp228
S':'
asbag60
(g81
g62
NtRp229
(dp230
g65
(dp231
sg74
g216
sg67
(lp232
g60
(g61
g62
NtRp233
(dp234
g65
(dp235
g73
I5
ssg74
g229
sg67
(lp236
g60
(g69
g62
NtRp237
(dp238
g65
(dp239
g73
I4
ssg74
Nsg67
(lp240
g60
(g76
g62
NtRp241
(dp242
g65
(dp243
sg74
g237
sg67
(lp244
g60
(g81
g62
NtRp245
(dp246
g65
(dp247
g85
g86
ssg74
g241
sg67
(lp248
S'session_id_admin'
p249
asbag60
(g81
g62
NtRp250
(dp251
g65
(dp252
g92
g93
ssg74
g241
sg67
(lp253
S':'
asbag60
(g81
g62
NtRp254
(dp255
g65
(dp256
sg74
g241
sg67
(lp257
g60
(g61
g62
NtRp258
(dp259
g65
(dp260
g73
I4
ssg74
g254
sg67
(lp261
g60
(g69
g62
NtRp262
(dp263
g65
(dp264
g73
I3
ssg74
Nsg67
(lp265
g60
(g76
g62
NtRp266
(dp267
g65
(dp268
sg74
g262
sg67
(lp269
g60
(g81
g62
NtRp270
(dp271
g65
(dp272
g85
g86
ssg74
g266
sg67
(lp273
S'comment'
p274
asbag60
(g81
g62
NtRp275
(dp276
g65
(dp277
g92
g93
ssg74
g266
sg67
(lp278
S':'
asbag60
(g81
g62
NtRp279
(dp280
g65
(dp281
sg74
g266
sg67
(lp282
g60
(g61
g62
NtRp283
(dp284
g65
(dp285
g73
I3
ssg74
g279
sg67
(lp286
S''
asbasbasbag60
(g76
g62
NtRp287
(dp288
g65
(dp289
sg74
g262
sg67
(lp290
g60
(g81
g62
NtRp291
(dp292
g65
(dp293
g85
g86
ssg74
g287
sg67
(lp294
S'domain'
p295
asbag60
(g81
g62
NtRp296
(dp297
g65
(dp298
g92
g93
ssg74
g287
sg67
(lp299
S':'
asbag60
(g81
g62
NtRp300
(dp301
g65
(dp302
sg74
g287
sg67
(lp303
g60
(g61
g62
NtRp304
(dp305
g65
(dp306
g73
I3
ssg74
g300
sg67
(lp307
S''
asbasbasbag60
(g76
g62
NtRp308
(dp309
g65
(dp310
sg74
g262
sg67
(lp311
g60
(g81
g62
NtRp312
(dp313
g65
(dp314
g85
g86
ssg74
g308
sg67
(lp315
S'expires'
p316
asbag60
(g81
g62
NtRp317
(dp318
g65
(dp319
g92
g93
ssg74
g308
sg67
(lp320
S':'
asbag60
(g81
g62
NtRp321
(dp322
g65
(dp323
sg74
g308
sg67
(lp324
g60
(g61
g62
NtRp325
(dp326
g65
(dp327
g73
I3
ssg74
g321
sg67
(lp328
S''
asbasbasbag60
(g76
g62
NtRp329
(dp330
g65
(dp331
sg74
g262
sg67
(lp332
g60
(g81
g62
NtRp333
(dp334
g65
(dp335
g85
g86
ssg74
g329
sg67
(lp336
S'max-age'
p337
asbag60
(g81
g62
NtRp338
(dp339
g65
(dp340
g92
g93
ssg74
g329
sg67
(lp341
S':'
asbag60
(g81
g62
NtRp342
(dp343
g65
(dp344
sg74
g329
sg67
(lp345
g60
(g61
g62
NtRp346
(dp347
g65
(dp348
g73
I3
ssg74
g342
sg67
(lp349
S''
asbasbasbag60
(g76
g62
NtRp350
(dp351
g65
(dp352
sg74
g262
sg67
(lp353
g60
(g81
g62
NtRp354
(dp355
g65
(dp356
g85
g86
ssg74
g350
sg67
(lp357
S'path'
p358
asbag60
(g81
g62
NtRp359
(dp360
g65
(dp361
g92
g93
ssg74
g350
sg67
(lp362
S':'
asbag60
(g81
g62
NtRp363
(dp364
g65
(dp365
sg74
g350
sg67
(lp366
g60
(g61
g62
NtRp367
(dp368
g65
(dp369
g73
I3
ssg74
g363
sg67
(lp370
S''
asbasbasbag60
(g76
g62
NtRp371
(dp372
g65
(dp373
sg74
g262
sg67
(lp374
g60
(g81
g62
NtRp375
(dp376
g65
(dp377
g85
g86
ssg74
g371
sg67
(lp378
S'secure'
p379
asbag60
(g81
g62
NtRp380
(dp381
g65
(dp382
g92
g93
ssg74
g371
sg67
(lp383
S':'
asbag60
(g81
g62
NtRp384
(dp385
g65
(dp386
sg74
g371
sg67
(lp387
g60
(g61
g62
NtRp388
(dp389
g65
(dp390
g73
I3
ssg74
g384
sg67
(lp391
S''
asbasbasbag60
(g76
g62
NtRp392
(dp393
g65
(dp394
sg74
g262
sg67
(lp395
g60
(g81
g62
NtRp396
(dp397
g65
(dp398
g85
g86
ssg74
g392
sg67
(lp399
S'version'
p400
asbag60
(g81
g62
NtRp401
(dp402
g65
(dp403
g92
g93
ssg74
g392
sg67
(lp404
S':'
asbag60
(g81
g62
NtRp405
(dp406
g65
(dp407
sg74
g392
sg67
(lp408
g60
(g61
g62
NtRp409
(dp410
g65
(dp411
g73
I3
ssg74
g405
sg67
(lp412
S''
asbasbasbasbasbasbasbasbasbasbasbag60
(g76
g62
NtRp413
(dp414
g65
(dp415
sg74
g70
sg67
(lp416
g60
(g81
g62
NtRp417
(dp418
g65
(dp419
g85
g86
ssg74
g413
sg67
(lp420
S'env'
p421
asbag60
(g81
g62
NtRp422
(dp423
g65
(dp424
g92
g93
ssg74
g413
sg67
(lp425
S':'
asbag60
(g81
g62
NtRp426
(dp427
g65
(dp428
sg74
g413
sg67
(lp429
g60
(g61
g62
NtRp430
(dp431
g65
(dp432
g73
I5
ssg74
g426
sg67
(lp433
g60
(g69
g62
NtRp434
(dp435
g65
(dp436
g73
I4
ssg74
Nsg67
(lp437
g60
(g76
g62
NtRp438
(dp439
g65
(dp440
sg74
g434
sg67
(lp441
g60
(g81
g62
NtRp442
(dp443
g65
(dp444
g85
g86
ssg74
g438
sg67
(lp445
S'app_folders'
p446
asbag60
(g81
g62
NtRp447
(dp448
g65
(dp449
g92
g93
ssg74
g438
sg67
(lp450
S':'
asbag60
(g81
g62
NtRp451
(dp452
g65
(dp453
sg74
g438
sg67
(lp454
g60
(g61
g62
NtRp455
(dp456
g65
(dp457
g73
I4
ssg74
g451
sg67
(lp458
S"set(['C:\\\\Users\\\\Bussiere\\\\Dropbox\\\\Projets\\\\jackpoint\\\\web2py\\\\applications\\\\init\\\\', 'C:\\\\Users\\\\Bussiere\\\\Dropbox\\\\Projets\\\\jackpoint\\\\web2py\\\\applications\\\\admin\\\\'])"
p459
asbasbasbag60
(g76
g62
NtRp460
(dp461
g65
(dp462
sg74
g434
sg67
(lp463
g60
(g81
g62
NtRp464
(dp465
g65
(dp466
g85
g86
ssg74
g460
sg67
(lp467
S'applications_parent'
p468
asbag60
(g81
g62
NtRp469
(dp470
g65
(dp471
g92
g93
ssg74
g460
sg67
(lp472
S':'
asbag60
(g81
g62
NtRp473
(dp474
g65
(dp475
sg74
g460
sg67
(lp476
g60
(g61
g62
NtRp477
(dp478
g65
(dp479
g73
I4
ssg74
g473
sg67
(lp480
S'C:\\Users\\Bussiere\\Dropbox\\Projets\\jackpoint\\web2py'
p481
asbasbasbag60
(g76
g62
NtRp482
(dp483
g65
(dp484
sg74
g434
sg67
(lp485
g60
(g81
g62
NtRp486
(dp487
g65
(dp488
g85
g86
ssg74
g482
sg67
(lp489
S'cmd_args'
p490
asbag60
(g81
g62
NtRp491
(dp492
g65
(dp493
g92
g93
ssg74
g482
sg67
(lp494
S':'
asbag60
(g81
g62
NtRp495
(dp496
g65
(dp497
sg74
g482
sg67
(lp498
g60
(g61
g62
NtRp499
(dp500
g65
(dp501
g73
I4
ssg74
g495
sg67
(lp502
g60
(g69
g62
NtRp503
(dp504
g65
(dp505
g73
I3
ssg74
Nsg67
(lp506
sbasbasbasbag60
(g76
g62
NtRp507
(dp508
g65
(dp509
sg74
g434
sg67
(lp510
g60
(g81
g62
NtRp511
(dp512
g65
(dp513
g85
g86
ssg74
g507
sg67
(lp514
S'cmd_options'
p515
asbag60
(g81
g62
NtRp516
(dp517
g65
(dp518
g92
g93
ssg74
g507
sg67
(lp519
S':'
asbag60
(g81
g62
NtRp520
(dp521
g65
(dp522
sg74
g507
sg67
(lp523
g60
(g61
g62
NtRp524
(dp525
g65
(dp526
g73
I4
ssg74
g520
sg67
(lp527
S"<Values at 0x3e15fa8: {'verbose': False, 'ip': '127.0.0.1', 'shutdown_timeout': 5, 'taskbar': False, 'nocron': False, 'pid_filename': 'httpserver.pid', 'maxthreads': None, 'softcron': False, 'server_name': 'Batou', 'bpython': False, 'nogui': False, 'port': 8000, 'extcron': False, 'debuglevel': 30, 'test': None, 'folder': 'C:\\\\Users\\\\Bussiere\\\\Dropbox\\\\Projets\\\\jackpoint\\\\web2py', 'config': '', 'import_models': False, 'winservice': '', 'shell': None, 'run': '', 'log_filename': 'httpserver.log', 'args': [''], 'socket_timeout': 5, 'ssl_ca_certificate': None, 'scheduler': None, 'profiler_filename': None, 'ssl_private_key': '', 'password': '<ask>', 'request_queue_size': 5, 'ssl_certificate': '', 'cronjob': False, 'numthreads': None, 'quiet': False, 'interfaces': None, 'minthreads': None, 'timeout': 10, 'plain': False, 'nobanner': False}>"
p528
asbasbasbag60
(g76
g62
NtRp529
(dp530
g65
(dp531
sg74
g434
sg67
(lp532
g60
(g81
g62
NtRp533
(dp534
g65
(dp535
g85
g86
ssg74
g529
sg67
(lp536
S'db_sessions'
p537
asbag60
(g81
g62
NtRp538
(dp539
g65
(dp540
g92
g93
ssg74
g529
sg67
(lp541
S':'
asbag60
(g81
g62
NtRp542
(dp543
g65
(dp544
sg74
g529
sg67
(lp545
g60
(g61
g62
NtRp546
(dp547
g65
(dp548
g73
I4
ssg74
g542
sg67
(lp549
S"set(['init'])"
p550
asbasbasbag60
(g76
g62
NtRp551
(dp552
g65
(dp553
sg74
g434
sg67
(lp554
g60
(g81
g62
NtRp555
(dp556
g65
(dp557
g85
g86
ssg74
g551
sg67
(lp558
S'debugging'
p559
asbag60
(g81
g62
NtRp560
(dp561
g65
(dp562
g92
g93
ssg74
g551
sg67
(lp563
S':'
asbag60
(g81
g62
NtRp564
(dp565
g65
(dp566
sg74
g551
sg67
(lp567
g60
(g61
g62
NtRp568
(dp569
g65
(dp570
g73
I4
ssg74
g564
sg67
(lp571
S'True'
p572
asbasbasbag60
(g76
g62
NtRp573
(dp574
g65
(dp575
sg74
g434
sg67
(lp576
g60
(g81
g62
NtRp577
(dp578
g65
(dp579
g85
g86
ssg74
g573
sg67
(lp580
S'gluon_parent'
p581
asbag60
(g81
g62
NtRp582
(dp583
g65
(dp584
g92
g93
ssg74
g573
sg67
(lp585
S':'
asbag60
(g81
g62
NtRp586
(dp587
g65
(dp588
sg74
g573
sg67
(lp589
g60
(g61
g62
NtRp590
(dp591
g65
(dp592
g73
I4
ssg74
g586
sg67
(lp593
S'C:\\Users\\Bussiere\\Dropbox\\Projets\\jackpoint\\web2py'
p594
asbasbasbag60
(g76
g62
NtRp595
(dp596
g65
(dp597
sg74
g434
sg67
(lp598
g60
(g81
g62
NtRp599
(dp600
g65
(dp601
g85
g86
ssg74
g595
sg67
(lp602
S'http_accept'
p603
asbag60
(g81
g62
NtRp604
(dp605
g65
(dp606
g92
g93
ssg74
g595
sg67
(lp607
S':'
asbag60
(g81
g62
NtRp608
(dp609
g65
(dp610
sg74
g595
sg67
(lp611
g60
(g61
g62
NtRp612
(dp613
g65
(dp614
g73
I4
ssg74
g608
sg67
(lp615
S'text/html,application/xhtml+xml,application/xml;q=0.9,*/*;q=0.8'
p616
asbasbasbag60
(g76
g62
NtRp617
(dp618
g65
(dp619
sg74
g434
sg67
(lp620
g60
(g81
g62
NtRp621
(dp622
g65
(dp623
g85
g86
ssg74
g617
sg67
(lp624
S'http_accept_charset'
p625
asbag60
(g81
g62
NtRp626
(dp627
g65
(dp628
g92
g93
ssg74
g617
sg67
(lp629
S':'
asbag60
(g81
g62
NtRp630
(dp631
g65
(dp632
sg74
g617
sg67
(lp633
g60
(g61
g62
NtRp634
(dp635
g65
(dp636
g73
I4
ssg74
g630
sg67
(lp637
S'ISO-8859-1,utf-8;q=0.7,*;q=0.3'
p638
asbasbasbag60
(g76
g62
NtRp639
(dp640
g65
(dp641
sg74
g434
sg67
(lp642
g60
(g81
g62
NtRp643
(dp644
g65
(dp645
g85
g86
ssg74
g639
sg67
(lp646
S'http_accept_encoding'
p647
asbag60
(g81
g62
NtRp648
(dp649
g65
(dp650
g92
g93
ssg74
g639
sg67
(lp651
S':'
asbag60
(g81
g62
NtRp652
(dp653
g65
(dp654
sg74
g639
sg67
(lp655
g60
(g61
g62
NtRp656
(dp657
g65
(dp658
g73
I4
ssg74
g652
sg67
(lp659
S'gzip,deflate,sdch'
p660
asbasbasbag60
(g76
g62
NtRp661
(dp662
g65
(dp663
sg74
g434
sg67
(lp664
g60
(g81
g62
NtRp665
(dp666
g65
(dp667
g85
g86
ssg74
g661
sg67
(lp668
S'http_accept_language'
p669
asbag60
(g81
g62
NtRp670
(dp671
g65
(dp672
g92
g93
ssg74
g661
sg67
(lp673
S':'
asbag60
(g81
g62
NtRp674
(dp675
g65
(dp676
sg74
g661
sg67
(lp677
g60
(g61
g62
NtRp678
(dp679
g65
(dp680
g73
I4
ssg74
g674
sg67
(lp681
S'en-US,en;q=0.8'
p682
asbasbasbag60
(g76
g62
NtRp683
(dp684
g65
(dp685
sg74
g434
sg67
(lp686
g60
(g81
g62
NtRp687
(dp688
g65
(dp689
g85
g86
ssg74
g683
sg67
(lp690
S'http_cache_control'
p691
asbag60
(g81
g62
NtRp692
(dp693
g65
(dp694
g92
g93
ssg74
g683
sg67
(lp695
S':'
asbag60
(g81
g62
NtRp696
(dp697
g65
(dp698
sg74
g683
sg67
(lp699
g60
(g61
g62
NtRp700
(dp701
g65
(dp702
g73
I4
ssg74
g696
sg67
(lp703
S'max-age=0'
p704
asbasbasbag60
(g76
g62
NtRp705
(dp706
g65
(dp707
sg74
g434
sg67
(lp708
g60
(g81
g62
NtRp709
(dp710
g65
(dp711
g85
g86
ssg74
g705
sg67
(lp712
S'http_connection'
p713
asbag60
(g81
g62
NtRp714
(dp715
g65
(dp716
g92
g93
ssg74
g705
sg67
(lp717
S':'
asbag60
(g81
g62
NtRp718
(dp719
g65
(dp720
sg74
g705
sg67
(lp721
g60
(g61
g62
NtRp722
(dp723
g65
(dp724
g73
I4
ssg74
g718
sg67
(lp725
S'keep-alive'
p726
asbasbasbag60
(g76
g62
NtRp727
(dp728
g65
(dp729
sg74
g434
sg67
(lp730
g60
(g81
g62
NtRp731
(dp732
g65
(dp733
g85
g86
ssg74
g727
sg67
(lp734
S'http_cookie'
p735
asbag60
(g81
g62
NtRp736
(dp737
g65
(dp738
g92
g93
ssg74
g727
sg67
(lp739
S':'
asbag60
(g81
g62
NtRp740
(dp741
g65
(dp742
sg74
g727
sg67
(lp743
g60
(g61
g62
NtRp744
(dp745
g65
(dp746
g73
I4
ssg74
g740
sg67
(lp747
S'session_id_admin=127.0.0.1-db007dd4-37a9-47de-82ee-e97fe9e58b5c'
p748
asbasbasbag60
(g76
g62
NtRp749
(dp750
g65
(dp751
sg74
g434
sg67
(lp752
g60
(g81
g62
NtRp753
(dp754
g65
(dp755
g85
g86
ssg74
g749
sg67
(lp756
S'http_host'
p757
asbag60
(g81
g62
NtRp758
(dp759
g65
(dp760
g92
g93
ssg74
g749
sg67
(lp761
S':'
asbag60
(g81
g62
NtRp762
(dp763
g65
(dp764
sg74
g749
sg67
(lp765
g60
(g61
g62
NtRp766
(dp767
g65
(dp768
g73
I4
ssg74
g762
sg67
(lp769
S'127.0.0.1:8000'
p770
asbasbasbag60
(g76
g62
NtRp771
(dp772
g65
(dp773
sg74
g434
sg67
(lp774
g60
(g81
g62
NtRp775
(dp776
g65
(dp777
g85
g86
ssg74
g771
sg67
(lp778
S'http_user_agent'
p779
asbag60
(g81
g62
NtRp780
(dp781
g65
(dp782
g92
g93
ssg74
g771
sg67
(lp783
S':'
asbag60
(g81
g62
NtRp784
(dp785
g65
(dp786
sg74
g771
sg67
(lp787
g60
(g61
g62
NtRp788
(dp789
g65
(dp790
g73
I4
ssg74
g784
sg67
(lp791
S'Mozilla/5.0 (Windows NT 6.1; WOW64) AppleWebKit/535.18 (KHTML, like Gecko) Chrome/18.0.1011.0 Safari/535.18'
p792
asbasbasbag60
(g76
g62
NtRp793
(dp794
g65
(dp795
sg74
g434
sg67
(lp796
g60
(g81
g62
NtRp797
(dp798
g65
(dp799
g85
g86
ssg74
g793
sg67
(lp800
S'is_jython'
p801
asbag60
(g81
g62
NtRp802
(dp803
g65
(dp804
g92
g93
ssg74
g793
sg67
(lp805
S':'
asbag60
(g81
g62
NtRp806
(dp807
g65
(dp808
sg74
g793
sg67
(lp809
g60
(g61
g62
NtRp810
(dp811
g65
(dp812
g73
I4
ssg74
g806
sg67
(lp813
g103
asbasbasbag60
(g76
g62
NtRp814
(dp815
g65
(dp816
sg74
g434
sg67
(lp817
g60
(g81
g62
NtRp818
(dp819
g65
(dp820
g85
g86
ssg74
g814
sg67
(lp821
S'is_pypy'
p822
asbag60
(g81
g62
NtRp823
(dp824
g65
(dp825
g92
g93
ssg74
g814
sg67
(lp826
S':'
asbag60
(g81
g62
NtRp827
(dp828
g65
(dp829
sg74
g814
sg67
(lp830
g60
(g61
g62
NtRp831
(dp832
g65
(dp833
g73
I4
ssg74
g827
sg67
(lp834
g103
asbasbasbag60
(g76
g62
NtRp835
(dp836
g65
(dp837
sg74
g434
sg67
(lp838
g60
(g81
g62
NtRp839
(dp840
g65
(dp841
g85
g86
ssg74
g835
sg67
(lp842
S'path_info'
p843
asbag60
(g81
g62
NtRp844
(dp845
g65
(dp846
g92
g93
ssg74
g835
sg67
(lp847
S':'
asbag60
(g81
g62
NtRp848
(dp849
g65
(dp850
sg74
g835
sg67
(lp851
g60
(g61
g62
NtRp852
(dp853
g65
(dp854
g73
I4
ssg74
g848
sg67
(lp855
S'/'
asbasbasbag60
(g76
g62
NtRp856
(dp857
g65
(dp858
sg74
g434
sg67
(lp859
g60
(g81
g62
NtRp860
(dp861
g65
(dp862
g85
g86
ssg74
g856
sg67
(lp863
S'query_string'
p864
asbag60
(g81
g62
NtRp865
(dp866
g65
(dp867
g92
g93
ssg74
g856
sg67
(lp868
S':'
asbag60
(g81
g62
NtRp869
(dp870
g65
(dp871
sg74
g856
sg67
(lp872
g60
(g61
g62
NtRp873
(dp874
g65
(dp875
g73
I4
ssg74
g869
sg67
(lp876
S''
asbasbasbag60
(g76
g62
NtRp877
(dp878
g65
(dp879
sg74
g434
sg67
(lp880
g60
(g81
g62
NtRp881
(dp882
g65
(dp883
g85
g86
ssg74
g877
sg67
(lp884
S'remote_addr'
p885
asbag60
(g81
g62
NtRp886
(dp887
g65
(dp888
g92
g93
ssg74
g877
sg67
(lp889
S':'
asbag60
(g81
g62
NtRp890
(dp891
g65
(dp892
sg74
g877
sg67
(lp893
g60
(g61
g62
NtRp894
(dp895
g65
(dp896
g73
I4
ssg74
g890
sg67
(lp897
g193
asbasbasbag60
(g76
g62
NtRp898
(dp899
g65
(dp900
sg74
g434
sg67
(lp901
g60
(g81
g62
NtRp902
(dp903
g65
(dp904
g85
g86
ssg74
g898
sg67
(lp905
S'remote_port'
p906
asbag60
(g81
g62
NtRp907
(dp908
g65
(dp909
g92
g93
ssg74
g898
sg67
(lp910
S':'
asbag60
(g81
g62
NtRp911
(dp912
g65
(dp913
sg74
g898
sg67
(lp914
g60
(g61
g62
NtRp915
(dp916
g65
(dp917
g73
I4
ssg74
g911
sg67
(lp918
S'53755'
p919
asbasbasbag60
(g76
g62
NtRp920
(dp921
g65
(dp922
sg74
g434
sg67
(lp923
g60
(g81
g62
NtRp924
(dp925
g65
(dp926
g85
g86
ssg74
g920
sg67
(lp927
S'request_method'
p928
asbag60
(g81
g62
NtRp929
(dp930
g65
(dp931
g92
g93
ssg74
g920
sg67
(lp932
S':'
asbag60
(g81
g62
NtRp933
(dp934
g65
(dp935
sg74
g920
sg67
(lp936
g60
(g61
g62
NtRp937
(dp938
g65
(dp939
g73
I4
ssg74
g933
sg67
(lp940
S'GET'
p941
asbasbasbag60
(g76
g62
NtRp942
(dp943
g65
(dp944
sg74
g434
sg67
(lp945
g60
(g81
g62
NtRp946
(dp947
g65
(dp948
g85
g86
ssg74
g942
sg67
(lp949
S'script_name'
p950
asbag60
(g81
g62
NtRp951
(dp952
g65
(dp953
g92
g93
ssg74
g942
sg67
(lp954
S':'
asbag60
(g81
g62
NtRp955
(dp956
g65
(dp957
sg74
g942
sg67
(lp958
g60
(g61
g62
NtRp959
(dp960
g65
(dp961
g73
I4
ssg74
g955
sg67
(lp962
S''
asbasbasbag60
(g76
g62
NtRp963
(dp964
g65
(dp965
sg74
g434
sg67
(lp966
g60
(g81
g62
NtRp967
(dp968
g65
(dp969
g85
g86
ssg74
g963
sg67
(lp970
S'server_name'
p971
asbag60
(g81
g62
NtRp972
(dp973
g65
(dp974
g92
g93
ssg74
g963
sg67
(lp975
S':'
asbag60
(g81
g62
NtRp976
(dp977
g65
(dp978
sg74
g963
sg67
(lp979
g60
(g61
g62
NtRp980
(dp981
g65
(dp982
g73
I4
ssg74
g976
sg67
(lp983
S'Batou'
p984
asbasbasbag60
(g76
g62
NtRp985
(dp986
g65
(dp987
sg74
g434
sg67
(lp988
g60
(g81
g62
NtRp989
(dp990
g65
(dp991
g85
g86
ssg74
g985
sg67
(lp992
S'server_port'
p993
asbag60
(g81
g62
NtRp994
(dp995
g65
(dp996
g92
g93
ssg74
g985
sg67
(lp997
S':'
asbag60
(g81
g62
NtRp998
(dp999
g65
(dp1000
sg74
g985
sg67
(lp1001
g60
(g61
g62
NtRp1002
(dp1003
g65
(dp1004
g73
I4
ssg74
g998
sg67
(lp1005
S'8000'
p1006
asbasbasbag60
(g76
g62
NtRp1007
(dp1008
g65
(dp1009
sg74
g434
sg67
(lp1010
g60
(g81
g62
NtRp1011
(dp1012
g65
(dp1013
g85
g86
ssg74
g1007
sg67
(lp1014
S'server_protocol'
p1015
asbag60
(g81
g62
NtRp1016
(dp1017
g65
(dp1018
g92
g93
ssg74
g1007
sg67
(lp1019
S':'
asbag60
(g81
g62
NtRp1020
(dp1021
g65
(dp1022
sg74
g1007
sg67
(lp1023
g60
(g61
g62
NtRp1024
(dp1025
g65
(dp1026
g73
I4
ssg74
g1020
sg67
(lp1027
S'HTTP/1.1'
p1028
asbasbasbag60
(g76
g62
NtRp1029
(dp1030
g65
(dp1031
sg74
g434
sg67
(lp1032
g60
(g81
g62
NtRp1033
(dp1034
g65
(dp1035
g85
g86
ssg74
g1029
sg67
(lp1036
S'server_software'
p1037
asbag60
(g81
g62
NtRp1038
(dp1039
g65
(dp1040
g92
g93
ssg74
g1029
sg67
(lp1041
S':'
asbag60
(g81
g62
NtRp1042
(dp1043
g65
(dp1044
sg74
g1029
sg67
(lp1045
g60
(g61
g62
NtRp1046
(dp1047
g65
(dp1048
g73
I4
ssg74
g1042
sg67
(lp1049
S'Rocket 1.2.4'
p1050
asbasbasbag60
(g76
g62
NtRp1051
(dp1052
g65
(dp1053
sg74
g434
sg67
(lp1054
g60
(g81
g62
NtRp1055
(dp1056
g65
(dp1057
g85
g86
ssg74
g1051
sg67
(lp1058
S'web2py_crontype'
p1059
asbag60
(g81
g62
NtRp1060
(dp1061
g65
(dp1062
g92
g93
ssg74
g1051
sg67
(lp1063
S':'
asbag60
(g81
g62
NtRp1064
(dp1065
g65
(dp1066
sg74
g1051
sg67
(lp1067
g60
(g61
g62
NtRp1068
(dp1069
g65
(dp1070
g73
I4
ssg74
g1064
sg67
(lp1071
S'hard'
p1072
asbasbasbag60
(g76
g62
NtRp1073
(dp1074
g65
(dp1075
sg74
g434
sg67
(lp1076
g60
(g81
g62
NtRp1077
(dp1078
g65
(dp1079
g85
g86
ssg74
g1073
sg67
(lp1080
S'web2py_path'
p1081
asbag60
(g81
g62
NtRp1082
(dp1083
g65
(dp1084
g92
g93
ssg74
g1073
sg67
(lp1085
S':'
asbag60
(g81
g62
NtRp1086
(dp1087
g65
(dp1088
sg74
g1073
sg67
(lp1089
g60
(g61
g62
NtRp1090
(dp1091
g65
(dp1092
g73
I4
ssg74
g1086
sg67
(lp1093
g481
asbasbasbag60
(g76
g62
NtRp1094
(dp1095
g65
(dp1096
sg74
g434
sg67
(lp1097
g60
(g81
g62
NtRp1098
(dp1099
g65
(dp1100
g85
g86
ssg74
g1094
sg67
(lp1101
S'web2py_version'
p1102
asbag60
(g81
g62
NtRp1103
(dp1104
g65
(dp1105
g92
g93
ssg74
g1094
sg67
(lp1106
S':'
asbag60
(g81
g62
NtRp1107
(dp1108
g65
(dp1109
sg74
g1094
sg67
(lp1110
g60
(g61
g62
NtRp1111
(dp1112
g65
(dp1113
g73
I4
ssg74
g1107
sg67
(lp1114
g60
(g69
g62
NtRp1115
(dp1116
g65
(dp1117
g73
I3
ssg74
Nsg67
(lp1118
g60
(g76
g62
NtRp1119
(dp1120
g65
(dp1121
sg74
g1115
sg67
(lp1122
g60
(g81
g62
NtRp1123
(dp1124
g65
(dp1125
sg74
g1119
sg67
(lp1126
g60
(g61
g62
NtRp1127
(dp1128
g65
(dp1129
g73
I3
ssg74
g1123
sg67
(lp1130
S'1'
asbasbasbag60
(g76
g62
NtRp1131
(dp1132
g65
(dp1133
sg74
g1115
sg67
(lp1134
g60
(g81
g62
NtRp1135
(dp1136
g65
(dp1137
sg74
g1131
sg67
(lp1138
g60
(g61
g62
NtRp1139
(dp1140
g65
(dp1141
g73
I3
ssg74
g1135
sg67
(lp1142
S'99'
p1143
asbasbasbag60
(g76
g62
NtRp1144
(dp1145
g65
(dp1146
sg74
g1115
sg67
(lp1147
g60
(g81
g62
NtRp1148
(dp1149
g65
(dp1150
sg74
g1144
sg67
(lp1151
g60
(g61
g62
NtRp1152
(dp1153
g65
(dp1154
g73
I3
ssg74
g1148
sg67
(lp1155
S'7'
asbasbasbag60
(g76
g62
NtRp1156
(dp1157
g65
(dp1158
sg74
g1115
sg67
(lp1159
g60
(g81
g62
NtRp1160
(dp1161
g65
(dp1162
sg74
g1156
sg67
(lp1163
g60
(g61
g62
NtRp1164
(dp1165
g65
(dp1166
g73
I3
ssg74
g1160
sg67
(lp1167
S'datetime.datetime(2012, 3, 4, 22, 12, 8)'
p1168
asbasbasbag60
(g76
g62
NtRp1169
(dp1170
g65
(dp1171
sg74
g1115
sg67
(lp1172
g60
(g81
g62
NtRp1173
(dp1174
g65
(dp1175
sg74
g1169
sg67
(lp1176
g60
(g61
g62
NtRp1177
(dp1178
g65
(dp1179
g73
I3
ssg74
g1173
sg67
(lp1180
S'stable'
p1181
asbasbasbasbasbasbasbag60
(g76
g62
NtRp1182
(dp1183
g65
(dp1184
sg74
g434
sg67
(lp1185
g60
(g81
g62
NtRp1186
(dp1187
g65
(dp1188
g85
g86
ssg74
g1182
sg67
(lp1189
S'wsgi_errors'
p1190
asbag60
(g81
g62
NtRp1191
(dp1192
g65
(dp1193
g92
g93
ssg74
g1182
sg67
(lp1194
S':'
asbag60
(g81
g62
NtRp1195
(dp1196
g65
(dp1197
sg74
g1182
sg67
(lp1198
g60
(g61
g62
NtRp1199
(dp1200
g65
(dp1201
g73
I4
ssg74
g1195
sg67
(lp1202
S"<open file '<stderr>', mode 'w' at 0x01D300B0>"
p1203
asbasbasbag60
(g76
g62
NtRp1204
(dp1205
g65
(dp1206
sg74
g434
sg67
(lp1207
g60
(g81
g62
NtRp1208
(dp1209
g65
(dp1210
g85
g86
ssg74
g1204
sg67
(lp1211
S'wsgi_file_wrapper'
p1212
asbag60
(g81
g62
NtRp1213
(dp1214
g65
(dp1215
g92
g93
ssg74
g1204
sg67
(lp1216
S':'
asbag60
(g81
g62
NtRp1217
(dp1218
g65
(dp1219
sg74
g1204
sg67
(lp1220
g60
(g61
g62
NtRp1221
(dp1222
g65
(dp1223
g73
I4
ssg74
g1217
sg67
(lp1224
S'<class wsgiref.util.FileWrapper at 0x02CD6900>'
p1225
asbasbasbag60
(g76
g62
NtRp1226
(dp1227
g65
(dp1228
sg74
g434
sg67
(lp1229
g60
(g81
g62
NtRp1230
(dp1231
g65
(dp1232
g85
g86
ssg74
g1226
sg67
(lp1233
S'wsgi_input'
p1234
asbag60
(g81
g62
NtRp1235
(dp1236
g65
(dp1237
g92
g93
ssg74
g1226
sg67
(lp1238
S':'
asbag60
(g81
g62
NtRp1239
(dp1240
g65
(dp1241
sg74
g1226
sg67
(lp1242
g60
(g61
g62
NtRp1243
(dp1244
g65
(dp1245
g73
I4
ssg74
g1239
sg67
(lp1246
S'<socket._fileobject object at 0x03E13AF0>'
p1247
asbasbasbag60
(g76
g62
NtRp1248
(dp1249
g65
(dp1250
sg74
g434
sg67
(lp1251
g60
(g81
g62
NtRp1252
(dp1253
g65
(dp1254
g85
g86
ssg74
g1248
sg67
(lp1255
S'wsgi_multiprocess'
p1256
asbag60
(g81
g62
NtRp1257
(dp1258
g65
(dp1259
g92
g93
ssg74
g1248
sg67
(lp1260
S':'
asbag60
(g81
g62
NtRp1261
(dp1262
g65
(dp1263
sg74
g1248
sg67
(lp1264
g60
(g61
g62
NtRp1265
(dp1266
g65
(dp1267
g73
I4
ssg74
g1261
sg67
(lp1268
g103
asbasbasbag60
(g76
g62
NtRp1269
(dp1270
g65
(dp1271
sg74
g434
sg67
(lp1272
g60
(g81
g62
NtRp1273
(dp1274
g65
(dp1275
g85
g86
ssg74
g1269
sg67
(lp1276
S'wsgi_multithread'
p1277
asbag60
(g81
g62
NtRp1278
(dp1279
g65
(dp1280
g92
g93
ssg74
g1269
sg67
(lp1281
S':'
asbag60
(g81
g62
NtRp1282
(dp1283
g65
(dp1284
sg74
g1269
sg67
(lp1285
g60
(g61
g62
NtRp1286
(dp1287
g65
(dp1288
g73
I4
ssg74
g1282
sg67
(lp1289
g572
asbasbasbag60
(g76
g62
NtRp1290
(dp1291
g65
(dp1292
sg74
g434
sg67
(lp1293
g60
(g81
g62
NtRp1294
(dp1295
g65
(dp1296
g85
g86
ssg74
g1290
sg67
(lp1297
S'wsgi_run_once'
p1298
asbag60
(g81
g62
NtRp1299
(dp1300
g65
(dp1301
g92
g93
ssg74
g1290
sg67
(lp1302
S':'
asbag60
(g81
g62
NtRp1303
(dp1304
g65
(dp1305
sg74
g1290
sg67
(lp1306
g60
(g61
g62
NtRp1307
(dp1308
g65
(dp1309
g73
I4
ssg74
g1303
sg67
(lp1310
g103
asbasbasbag60
(g76
g62
NtRp1311
(dp1312
g65
(dp1313
sg74
g434
sg67
(lp1314
g60
(g81
g62
NtRp1315
(dp1316
g65
(dp1317
g85
g86
ssg74
g1311
sg67
(lp1318
S'wsgi_url_scheme'
p1319
asbag60
(g81
g62
NtRp1320
(dp1321
g65
(dp1322
g92
g93
ssg74
g1311
sg67
(lp1323
S':'
asbag60
(g81
g62
NtRp1324
(dp1325
g65
(dp1326
sg74
g1311
sg67
(lp1327
g60
(g61
g62
NtRp1328
(dp1329
g65
(dp1330
g73
I4
ssg74
g1324
sg67
(lp1331
S'http'
p1332
asbasbasbag60
(g76
g62
NtRp1333
(dp1334
g65
(dp1335
sg74
g434
sg67
(lp1336
g60
(g81
g62
NtRp1337
(dp1338
g65
(dp1339
g85
g86
ssg74
g1333
sg67
(lp1340
S'wsgi_version'
p1341
asbag60
(g81
g62
NtRp1342
(dp1343
g65
(dp1344
g92
g93
ssg74
g1333
sg67
(lp1345
S':'
asbag60
(g81
g62
NtRp1346
(dp1347
g65
(dp1348
sg74
g1333
sg67
(lp1349
g60
(g61
g62
NtRp1350
(dp1351
g65
(dp1352
g73
I4
ssg74
g1346
sg67
(lp1353
g60
(g69
g62
NtRp1354
(dp1355
g65
(dp1356
g73
I3
ssg74
Nsg67
(lp1357
g60
(g76
g62
NtRp1358
(dp1359
g65
(dp1360
sg74
g1354
sg67
(lp1361
g60
(g81
g62
NtRp1362
(dp1363
g65
(dp1364
sg74
g1358
sg67
(lp1365
g60
(g61
g62
NtRp1366
(dp1367
g65
(dp1368
g73
I3
ssg74
g1362
sg67
(lp1369
S'1'
asbasbasbag60
(g76
g62
NtRp1370
(dp1371
g65
(dp1372
sg74
g1354
sg67
(lp1373
g60
(g81
g62
NtRp1374
(dp1375
g65
(dp1376
sg74
g1370
sg67
(lp1377
g60
(g61
g62
NtRp1378
(dp1379
g65
(dp1380
g73
I3
ssg74
g1374
sg67
(lp1381
S'0'
asbasbasbasbasbasbasbasbasbasbasbag60
(g76
g62
NtRp1382
(dp1383
g65
(dp1384
sg74
g70
sg67
(lp1385
g60
(g81
g62
NtRp1386
(dp1387
g65
(dp1388
g85
g86
ssg74
g1382
sg67
(lp1389
S'extension'
p1390
asbag60
(g81
g62
NtRp1391
(dp1392
g65
(dp1393
g92
g93
ssg74
g1382
sg67
(lp1394
S':'
asbag60
(g81
g62
NtRp1395
(dp1396
g65
(dp1397
sg74
g1382
sg67
(lp1398
g60
(g61
g62
NtRp1399
(dp1400
g65
(dp1401
g73
I5
ssg74
g1395
sg67
(lp1402
S'html'
p1403
asbasbasbag60
(g76
g62
NtRp1404
(dp1405
g65
(dp1406
sg74
g70
sg67
(lp1407
g60
(g81
g62
NtRp1408
(dp1409
g65
(dp1410
g85
g86
ssg74
g1404
sg67
(lp1411
S'folder'
p1412
asbag60
(g81
g62
NtRp1413
(dp1414
g65
(dp1415
g92
g93
ssg74
g1404
sg67
(lp1416
S':'
asbag60
(g81
g62
NtRp1417
(dp1418
g65
(dp1419
sg74
g1404
sg67
(lp1420
g60
(g61
g62
NtRp1421
(dp1422
g65
(dp1423
g73
I5
ssg74
g1417
sg67
(lp1424
S'C:\\Users\\Bussiere\\Dropbox\\Projets\\jackpoint\\web2py\\applications\\init\\'
p1425
asbasbasbag60
(g76
g62
NtRp1426
(dp1427
g65
(dp1428
sg74
g70
sg67
(lp1429
g60
(g81
g62
NtRp1430
(dp1431
g65
(dp1432
g85
g86
ssg74
g1426
sg67
(lp1433
S'function'
p1434
asbag60
(g81
g62
NtRp1435
(dp1436
g65
(dp1437
g92
g93
ssg74
g1426
sg67
(lp1438
S':'
asbag60
(g81
g62
NtRp1439
(dp1440
g65
(dp1441
sg74
g1426
sg67
(lp1442
g60
(g61
g62
NtRp1443
(dp1444
g65
(dp1445
g73
I5
ssg74
g1439
sg67
(lp1446
S'index'
p1447
asbasbasbag60
(g76
g62
NtRp1448
(dp1449
g65
(dp1450
sg74
g70
sg67
(lp1451
g60
(g81
g62
NtRp1452
(dp1453
g65
(dp1454
g85
g86
ssg74
g1448
sg67
(lp1455
S'get_vars'
p1456
asbag60
(g81
g62
NtRp1457
(dp1458
g65
(dp1459
g92
g93
ssg74
g1448
sg67
(lp1460
S':'
asbag60
(g81
g62
NtRp1461
(dp1462
g65
(dp1463
sg74
g1448
sg67
(lp1464
g60
(g61
g62
NtRp1465
(dp1466
g65
(dp1467
g73
I5
ssg74
g1461
sg67
(lp1468
g60
(g69
g62
NtRp1469
(dp1470
g65
(dp1471
g73
I4
ssg74
Nsg67
(lp1472
sbasbasbasbag60
(g76
g62
NtRp1473
(dp1474
g65
(dp1475
sg74
g70
sg67
(lp1476
g60
(g81
g62
NtRp1477
(dp1478
g65
(dp1479
g85
g86
ssg74
g1473
sg67
(lp1480
S'global_settings'
p1481
asbag60
(g81
g62
NtRp1482
(dp1483
g65
(dp1484
g92
g93
ssg74
g1473
sg67
(lp1485
S':'
asbag60
(g81
g62
NtRp1486
(dp1487
g65
(dp1488
sg74
g1473
sg67
(lp1489
g60
(g61
g62
NtRp1490
(dp1491
g65
(dp1492
g73
I5
ssg74
g1486
sg67
(lp1493
g60
(g69
g62
NtRp1494
(dp1495
g65
(dp1496
g73
I4
ssg74
Nsg67
(lp1497
g60
(g76
g62
NtRp1498
(dp1499
g65
(dp1500
sg74
g1494
sg67
(lp1501
g60
(g81
g62
NtRp1502
(dp1503
g65
(dp1504
g85
g86
ssg74
g1498
sg67
(lp1505
g446
asbag60
(g81
g62
NtRp1506
(dp1507
g65
(dp1508
g92
g93
ssg74
g1498
sg67
(lp1509
S':'
asbag60
(g81
g62
NtRp1510
(dp1511
g65
(dp1512
sg74
g1498
sg67
(lp1513
g60
(g61
g62
NtRp1514
(dp1515
g65
(dp1516
g73
I4
ssg74
g1510
sg67
(lp1517
S"set(['C:\\\\Users\\\\Bussiere\\\\Dropbox\\\\Projets\\\\jackpoint\\\\web2py\\\\applications\\\\init\\\\', 'C:\\\\Users\\\\Bussiere\\\\Dropbox\\\\Projets\\\\jackpoint\\\\web2py\\\\applications\\\\admin\\\\'])"
p1518
asbasbasbag60
(g76
g62
NtRp1519
(dp1520
g65
(dp1521
sg74
g1494
sg67
(lp1522
g60
(g81
g62
NtRp1523
(dp1524
g65
(dp1525
g85
g86
ssg74
g1519
sg67
(lp1526
g468
asbag60
(g81
g62
NtRp1527
(dp1528
g65
(dp1529
g92
g93
ssg74
g1519
sg67
(lp1530
S':'
asbag60
(g81
g62
NtRp1531
(dp1532
g65
(dp1533
sg74
g1519
sg67
(lp1534
g60
(g61
g62
NtRp1535
(dp1536
g65
(dp1537
g73
I4
ssg74
g1531
sg67
(lp1538
g481
asbasbasbag60
(g76
g62
NtRp1539
(dp1540
g65
(dp1541
sg74
g1494
sg67
(lp1542
g60
(g81
g62
NtRp1543
(dp1544
g65
(dp1545
g85
g86
ssg74
g1539
sg67
(lp1546
g490
asbag60
(g81
g62
NtRp1547
(dp1548
g65
(dp1549
g92
g93
ssg74
g1539
sg67
(lp1550
S':'
asbag60
(g81
g62
NtRp1551
(dp1552
g65
(dp1553
sg74
g1539
sg67
(lp1554
g60
(g61
g62
NtRp1555
(dp1556
g65
(dp1557
g73
I4
ssg74
g1551
sg67
(lp1558
g60
(g69
g62
NtRp1559
(dp1560
g65
(dp1561
g73
I3
ssg74
Nsg67
(lp1562
sbasbasbasbag60
(g76
g62
NtRp1563
(dp1564
g65
(dp1565
sg74
g1494
sg67
(lp1566
g60
(g81
g62
NtRp1567
(dp1568
g65
(dp1569
g85
g86
ssg74
g1563
sg67
(lp1570
g515
asbag60
(g81
g62
NtRp1571
(dp1572
g65
(dp1573
g92
g93
ssg74
g1563
sg67
(lp1574
S':'
asbag60
(g81
g62
NtRp1575
(dp1576
g65
(dp1577
sg74
g1563
sg67
(lp1578
g60
(g61
g62
NtRp1579
(dp1580
g65
(dp1581
g73
I4
ssg74
g1575
sg67
(lp1582
S"<Values at 0x3e15fa8: {'verbose': False, 'ip': '127.0.0.1', 'shutdown_timeout': 5, 'taskbar': False, 'nocron': False, 'pid_filename': 'httpserver.pid', 'maxthreads': None, 'softcron': False, 'server_name': 'Batou', 'bpython': False, 'nogui': False, 'port': 8000, 'extcron': False, 'debuglevel': 30, 'test': None, 'folder': 'C:\\\\Users\\\\Bussiere\\\\Dropbox\\\\Projets\\\\jackpoint\\\\web2py', 'config': '', 'import_models': False, 'winservice': '', 'shell': None, 'run': '', 'log_filename': 'httpserver.log', 'args': [''], 'socket_timeout': 5, 'ssl_ca_certificate': None, 'scheduler': None, 'profiler_filename': None, 'ssl_private_key': '', 'password': '<ask>', 'request_queue_size': 5, 'ssl_certificate': '', 'cronjob': False, 'numthreads': None, 'quiet': False, 'interfaces': None, 'minthreads': None, 'timeout': 10, 'plain': False, 'nobanner': False}>"
p1583
asbasbasbag60
(g76
g62
NtRp1584
(dp1585
g65
(dp1586
sg74
g1494
sg67
(lp1587
g60
(g81
g62
NtRp1588
(dp1589
g65
(dp1590
g85
g86
ssg74
g1584
sg67
(lp1591
g537
asbag60
(g81
g62
NtRp1592
(dp1593
g65
(dp1594
g92
g93
ssg74
g1584
sg67
(lp1595
S':'
asbag60
(g81
g62
NtRp1596
(dp1597
g65
(dp1598
sg74
g1584
sg67
(lp1599
g60
(g61
g62
NtRp1600
(dp1601
g65
(dp1602
g73
I4
ssg74
g1596
sg67
(lp1603
S"set(['init'])"
p1604
asbasbasbag60
(g76
g62
NtRp1605
(dp1606
g65
(dp1607
sg74
g1494
sg67
(lp1608
g60
(g81
g62
NtRp1609
(dp1610
g65
(dp1611
g85
g86
ssg74
g1605
sg67
(lp1612
g559
asbag60
(g81
g62
NtRp1613
(dp1614
g65
(dp1615
g92
g93
ssg74
g1605
sg67
(lp1616
S':'
asbag60
(g81
g62
NtRp1617
(dp1618
g65
(dp1619
sg74
g1605
sg67
(lp1620
g60
(g61
g62
NtRp1621
(dp1622
g65
(dp1623
g73
I4
ssg74
g1617
sg67
(lp1624
g572
asbasbasbag60
(g76
g62
NtRp1625
(dp1626
g65
(dp1627
sg74
g1494
sg67
(lp1628
g60
(g81
g62
NtRp1629
(dp1630
g65
(dp1631
g85
g86
ssg74
g1625
sg67
(lp1632
g581
asbag60
(g81
g62
NtRp1633
(dp1634
g65
(dp1635
g92
g93
ssg74
g1625
sg67
(lp1636
S':'
asbag60
(g81
g62
NtRp1637
(dp1638
g65
(dp1639
sg74
g1625
sg67
(lp1640
g60
(g61
g62
NtRp1641
(dp1642
g65
(dp1643
g73
I4
ssg74
g1637
sg67
(lp1644
g594
asbasbasbag60
(g76
g62
NtRp1645
(dp1646
g65
(dp1647
sg74
g1494
sg67
(lp1648
g60
(g81
g62
NtRp1649
(dp1650
g65
(dp1651
g85
g86
ssg74
g1645
sg67
(lp1652
g801
asbag60
(g81
g62
NtRp1653
(dp1654
g65
(dp1655
g92
g93
ssg74
g1645
sg67
(lp1656
S':'
asbag60
(g81
g62
NtRp1657
(dp1658
g65
(dp1659
sg74
g1645
sg67
(lp1660
g60
(g61
g62
NtRp1661
(dp1662
g65
(dp1663
g73
I4
ssg74
g1657
sg67
(lp1664
g103
asbasbasbag60
(g76
g62
NtRp1665
(dp1666
g65
(dp1667
sg74
g1494
sg67
(lp1668
g60
(g81
g62
NtRp1669
(dp1670
g65
(dp1671
g85
g86
ssg74
g1665
sg67
(lp1672
g822
asbag60
(g81
g62
NtRp1673
(dp1674
g65
(dp1675
g92
g93
ssg74
g1665
sg67
(lp1676
S':'
asbag60
(g81
g62
NtRp1677
(dp1678
g65
(dp1679
sg74
g1665
sg67
(lp1680
g60
(g61
g62
NtRp1681
(dp1682
g65
(dp1683
g73
I4
ssg74
g1677
sg67
(lp1684
g103
asbasbasbag60
(g76
g62
NtRp1685
(dp1686
g65
(dp1687
sg74
g1494
sg67
(lp1688
g60
(g81
g62
NtRp1689
(dp1690
g65
(dp1691
g85
g86
ssg74
g1685
sg67
(lp1692
g1059
asbag60
(g81
g62
NtRp1693
(dp1694
g65
(dp1695
g92
g93
ssg74
g1685
sg67
(lp1696
S':'
asbag60
(g81
g62
NtRp1697
(dp1698
g65
(dp1699
sg74
g1685
sg67
(lp1700
g60
(g61
g62
NtRp1701
(dp1702
g65
(dp1703
g73
I4
ssg74
g1697
sg67
(lp1704
g1072
asbasbasbag60
(g76
g62
NtRp1705
(dp1706
g65
(dp1707
sg74
g1494
sg67
(lp1708
g60
(g81
g62
NtRp1709
(dp1710
g65
(dp1711
g85
g86
ssg74
g1705
sg67
(lp1712
g1102
asbag60
(g81
g62
NtRp1713
(dp1714
g65
(dp1715
g92
g93
ssg74
g1705
sg67
(lp1716
S':'
asbag60
(g81
g62
NtRp1717
(dp1718
g65
(dp1719
sg74
g1705
sg67
(lp1720
g60
(g61
g62
NtRp1721
(dp1722
g65
(dp1723
g73
I4
ssg74
g1717
sg67
(lp1724
g60
(g69
g62
NtRp1725
(dp1726
g65
(dp1727
g73
I3
ssg74
Nsg67
(lp1728
g60
(g76
g62
NtRp1729
(dp1730
g65
(dp1731
sg74
g1725
sg67
(lp1732
g60
(g81
g62
NtRp1733
(dp1734
g65
(dp1735
sg74
g1729
sg67
(lp1736
g60
(g61
g62
NtRp1737
(dp1738
g65
(dp1739
g73
I3
ssg74
g1733
sg67
(lp1740
S'1'
asbasbasbag60
(g76
g62
NtRp1741
(dp1742
g65
(dp1743
sg74
g1725
sg67
(lp1744
g60
(g81
g62
NtRp1745
(dp1746
g65
(dp1747
sg74
g1741
sg67
(lp1748
g60
(g61
g62
NtRp1749
(dp1750
g65
(dp1751
g73
I3
ssg74
g1745
sg67
(lp1752
S'99'
p1753
asbasbasbag60
(g76
g62
NtRp1754
(dp1755
g65
(dp1756
sg74
g1725
sg67
(lp1757
g60
(g81
g62
NtRp1758
(dp1759
g65
(dp1760
sg74
g1754
sg67
(lp1761
g60
(g61
g62
NtRp1762
(dp1763
g65
(dp1764
g73
I3
ssg74
g1758
sg67
(lp1765
S'7'
asbasbasbag60
(g76
g62
NtRp1766
(dp1767
g65
(dp1768
sg74
g1725
sg67
(lp1769
g60
(g81
g62
NtRp1770
(dp1771
g65
(dp1772
sg74
g1766
sg67
(lp1773
g60
(g61
g62
NtRp1774
(dp1775
g65
(dp1776
g73
I3
ssg74
g1770
sg67
(lp1777
S'datetime.datetime(2012, 3, 4, 22, 12, 8)'
p1778
asbasbasbag60
(g76
g62
NtRp1779
(dp1780
g65
(dp1781
sg74
g1725
sg67
(lp1782
g60
(g81
g62
NtRp1783
(dp1784
g65
(dp1785
sg74
g1779
sg67
(lp1786
g60
(g61
g62
NtRp1787
(dp1788
g65
(dp1789
g73
I3
ssg74
g1783
sg67
(lp1790
g1181
asbasbasbasbasbasbasbasbasbasbasbag60
(g76
g62
NtRp1791
(dp1792
g65
(dp1793
sg74
g70
sg67
(lp1794
g60
(g81
g62
NtRp1795
(dp1796
g65
(dp1797
g85
g86
ssg74
g1791
sg67
(lp1798
S'is_https'
p1799
asbag60
(g81
g62
NtRp1800
(dp1801
g65
(dp1802
g92
g93
ssg74
g1791
sg67
(lp1803
S':'
asbag60
(g81
g62
NtRp1804
(dp1805
g65
(dp1806
sg74
g1791
sg67
(lp1807
g60
(g61
g62
NtRp1808
(dp1809
g65
(dp1810
g73
I5
ssg74
g1804
sg67
(lp1811
g103
asbasbasbag60
(g76
g62
NtRp1812
(dp1813
g65
(dp1814
sg74
g70
sg67
(lp1815
g60
(g81
g62
NtRp1816
(dp1817
g65
(dp1818
g85
g86
ssg74
g1812
sg67
(lp1819
S'is_local'
p1820
asbag60
(g81
g62
NtRp1821
(dp1822
g65
(dp1823
g92
g93
ssg74
g1812
sg67
(lp1824
S':'
asbag60
(g81
g62
NtRp1825
(dp1826
g65
(dp1827
sg74
g1812
sg67
(lp1828
g60
(g61
g62
NtRp1829
(dp1830
g65
(dp1831
g73
I5
ssg74
g1825
sg67
(lp1832
g572
asbasbasbag60
(g76
g62
NtRp1833
(dp1834
g65
(dp1835
sg74
g70
sg67
(lp1836
g60
(g81
g62
NtRp1837
(dp1838
g65
(dp1839
g85
g86
ssg74
g1833
sg67
(lp1840
S'is_restful'
p1841
asbag60
(g81
g62
NtRp1842
(dp1843
g65
(dp1844
g92
g93
ssg74
g1833
sg67
(lp1845
S':'
asbag60
(g81
g62
NtRp1846
(dp1847
g65
(dp1848
sg74
g1833
sg67
(lp1849
g60
(g61
g62
NtRp1850
(dp1851
g65
(dp1852
g73
I5
ssg74
g1846
sg67
(lp1853
g103
asbasbasbag60
(g76
g62
NtRp1854
(dp1855
g65
(dp1856
sg74
g70
sg67
(lp1857
g60
(g81
g62
NtRp1858
(dp1859
g65
(dp1860
g85
g86
ssg74
g1854
sg67
(lp1861
S'now'
p1862
asbag60
(g81
g62
NtRp1863
(dp1864
g65
(dp1865
g92
g93
ssg74
g1854
sg67
(lp1866
S':'
asbag60
(g81
g62
NtRp1867
(dp1868
g65
(dp1869
sg74
g1854
sg67
(lp1870
g60
(g61
g62
NtRp1871
(dp1872
g65
(dp1873
g73
I5
ssg74
g1867
sg67
(lp1874
S'datetime.datetime(2012, 3, 23, 10, 26, 50, 519000)'
p1875
asbasbasbag60
(g76
g62
NtRp1876
(dp1877
g65
(dp1878
sg74
g70
sg67
(lp1879
g60
(g81
g62
NtRp1880
(dp1881
g65
(dp1882
g85
g86
ssg74
g1876
sg67
(lp1883
S'post_vars'
p1884
asbag60
(g81
g62
NtRp1885
(dp1886
g65
(dp1887
g92
g93
ssg74
g1876
sg67
(lp1888
S':'
asbag60
(g81
g62
NtRp1889
(dp1890
g65
(dp1891
sg74
g1876
sg67
(lp1892
g60
(g61
g62
NtRp1893
(dp1894
g65
(dp1895
g73
I5
ssg74
g1889
sg67
(lp1896
g60
(g69
g62
NtRp1897
(dp1898
g65
(dp1899
g73
I4
ssg74
Nsg67
(lp1900
sbasbasbasbag60
(g76
g62
NtRp1901
(dp1902
g65
(dp1903
sg74
g70
sg67
(lp1904
g60
(g81
g62
NtRp1905
(dp1906
g65
(dp1907
g85
g86
ssg74
g1901
sg67
(lp1908
S'url'
p1909
asbag60
(g81
g62
NtRp1910
(dp1911
g65
(dp1912
g92
g93
ssg74
g1901
sg67
(lp1913
S':'
asbag60
(g81
g62
NtRp1914
(dp1915
g65
(dp1916
sg74
g1901
sg67
(lp1917
g60
(g61
g62
NtRp1918
(dp1919
g65
(dp1920
g73
I5
ssg74
g1914
sg67
(lp1921
S'/init/default/index'
p1922
asbasbasbag60
(g76
g62
NtRp1923
(dp1924
g65
(dp1925
sg74
g70
sg67
(lp1926
g60
(g81
g62
NtRp1927
(dp1928
g65
(dp1929
g85
g86
ssg74
g1923
sg67
(lp1930
S'utcnow'
p1931
asbag60
(g81
g62
NtRp1932
(dp1933
g65
(dp1934
g92
g93
ssg74
g1923
sg67
(lp1935
S':'
asbag60
(g81
g62
NtRp1936
(dp1937
g65
(dp1938
sg74
g1923
sg67
(lp1939
g60
(g61
g62
NtRp1940
(dp1941
g65
(dp1942
g73
I5
ssg74
g1936
sg67
(lp1943
S'datetime.datetime(2012, 3, 23, 9, 26, 50, 519000)'
p1944
asbasbasbag60
(g76
g62
NtRp1945
(dp1946
g65
(dp1947
sg74
g70
sg67
(lp1948
g60
(g81
g62
NtRp1949
(dp1950
g65
(dp1951
g85
g86
ssg74
g1945
sg67
(lp1952
S'uuid'
p1953
asbag60
(g81
g62
NtRp1954
(dp1955
g65
(dp1956
g92
g93
ssg74
g1945
sg67
(lp1957
S':'
asbag60
(g81
g62
NtRp1958
(dp1959
g65
(dp1960
sg74
g1945
sg67
(lp1961
g60
(g61
g62
NtRp1962
(dp1963
g65
(dp1964
g73
I5
ssg74
g1958
sg67
(lp1965
S'init/127.0.0.1.2012-03-23.10-26-50.72baefb8-6a49-4b1d-ba16-56bb709fceac'
p1966
asbasbasbag60
(g76
g62
NtRp1967
(dp1968
g65
(dp1969
sg74
g70
sg67
(lp1970
g60
(g81
g62
NtRp1971
(dp1972
g65
(dp1973
g85
g86
ssg74
g1967
sg67
(lp1974
S'vars'
p1975
asbag60
(g81
g62
NtRp1976
(dp1977
g65
(dp1978
g92
g93
ssg74
g1967
sg67
(lp1979
S':'
asbag60
(g81
g62
NtRp1980
(dp1981
g65
(dp1982
sg74
g1967
sg67
(lp1983
g60
(g61
g62
NtRp1984
(dp1985
g65
(dp1986
g73
I5
ssg74
g1980
sg67
(lp1987
g60
(g69
g62
NtRp1988
(dp1989
g65
(dp1990
g73
I4
ssg74
Nsg67
(lp1991
sbasbasbasbag60
(g76
g62
NtRp1992
(dp1993
g65
(dp1994
sg74
g70
sg67
(lp1995
g60
(g81
g62
NtRp1996
(dp1997
g65
(dp1998
g85
g86
ssg74
g1992
sg67
(lp1999
S'wsgi'
p2000
asbag60
(g81
g62
NtRp2001
(dp2002
g65
(dp2003
g92
g93
ssg74
g1992
sg67
(lp2004
S':'
asbag60
(g81
g62
NtRp2005
(dp2006
g65
(dp2007
sg74
g1992
sg67
(lp2008
g60
(g61
g62
NtRp2009
(dp2010
g65
(dp2011
g73
I5
ssg74
g2005
sg67
(lp2012
g60
(g69
g62
NtRp2013
(dp2014
g65
(dp2015
g73
I4
ssg74
Nsg67
(lp2016
g60
(g76
g62
NtRp2017
(dp2018
g65
(dp2019
sg74
g2013
sg67
(lp2020
g60
(g81
g62
NtRp2021
(dp2022
g65
(dp2023
g85
g86
ssg74
g2017
sg67
(lp2024
S'environ'
p2025
asbag60
(g81
g62
NtRp2026
(dp2027
g65
(dp2028
g92
g93
ssg74
g2017
sg67
(lp2029
S':'
asbag60
(g81
g62
NtRp2030
(dp2031
g65
(dp2032
sg74
g2017
sg67
(lp2033
g60
(g61
g62
NtRp2034
(dp2035
g65
(dp2036
g73
I4
ssg74
g2030
sg67
(lp2037
g60
(g69
g62
NtRp2038
(dp2039
g65
(dp2040
g73
I3
ssg74
Nsg67
(lp2041
g60
(g76
g62
NtRp2042
(dp2043
g65
(dp2044
sg74
g2038
sg67
(lp2045
g60
(g81
g62
NtRp2046
(dp2047
g65
(dp2048
g85
g86
ssg74
g2042
sg67
(lp2049
S'HTTP_ACCEPT'
p2050
asbag60
(g81
g62
NtRp2051
(dp2052
g65
(dp2053
g92
g93
ssg74
g2042
sg67
(lp2054
S':'
asbag60
(g81
g62
NtRp2055
(dp2056
g65
(dp2057
sg74
g2042
sg67
(lp2058
g60
(g61
g62
NtRp2059
(dp2060
g65
(dp2061
g73
I3
ssg74
g2055
sg67
(lp2062
g616
asbasbasbag60
(g76
g62
NtRp2063
(dp2064
g65
(dp2065
sg74
g2038
sg67
(lp2066
g60
(g81
g62
NtRp2067
(dp2068
g65
(dp2069
g85
g86
ssg74
g2063
sg67
(lp2070
S'HTTP_ACCEPT_CHARSET'
p2071
asbag60
(g81
g62
NtRp2072
(dp2073
g65
(dp2074
g92
g93
ssg74
g2063
sg67
(lp2075
S':'
asbag60
(g81
g62
NtRp2076
(dp2077
g65
(dp2078
sg74
g2063
sg67
(lp2079
g60
(g61
g62
NtRp2080
(dp2081
g65
(dp2082
g73
I3
ssg74
g2076
sg67
(lp2083
g638
asbasbasbag60
(g76
g62
NtRp2084
(dp2085
g65
(dp2086
sg74
g2038
sg67
(lp2087
g60
(g81
g62
NtRp2088
(dp2089
g65
(dp2090
g85
g86
ssg74
g2084
sg67
(lp2091
S'HTTP_ACCEPT_ENCODING'
p2092
asbag60
(g81
g62
NtRp2093
(dp2094
g65
(dp2095
g92
g93
ssg74
g2084
sg67
(lp2096
S':'
asbag60
(g81
g62
NtRp2097
(dp2098
g65
(dp2099
sg74
g2084
sg67
(lp2100
g60
(g61
g62
NtRp2101
(dp2102
g65
(dp2103
g73
I3
ssg74
g2097
sg67
(lp2104
g660
asbasbasbag60
(g76
g62
NtRp2105
(dp2106
g65
(dp2107
sg74
g2038
sg67
(lp2108
g60
(g81
g62
NtRp2109
(dp2110
g65
(dp2111
g85
g86
ssg74
g2105
sg67
(lp2112
S'HTTP_ACCEPT_LANGUAGE'
p2113
asbag60
(g81
g62
NtRp2114
(dp2115
g65
(dp2116
g92
g93
ssg74
g2105
sg67
(lp2117
S':'
asbag60
(g81
g62
NtRp2118
(dp2119
g65
(dp2120
sg74
g2105
sg67
(lp2121
g60
(g61
g62
NtRp2122
(dp2123
g65
(dp2124
g73
I3
ssg74
g2118
sg67
(lp2125
g682
asbasbasbag60
(g76
g62
NtRp2126
(dp2127
g65
(dp2128
sg74
g2038
sg67
(lp2129
g60
(g81
g62
NtRp2130
(dp2131
g65
(dp2132
g85
g86
ssg74
g2126
sg67
(lp2133
S'HTTP_CACHE_CONTROL'
p2134
asbag60
(g81
g62
NtRp2135
(dp2136
g65
(dp2137
g92
g93
ssg74
g2126
sg67
(lp2138
S':'
asbag60
(g81
g62
NtRp2139
(dp2140
g65
(dp2141
sg74
g2126
sg67
(lp2142
g60
(g61
g62
NtRp2143
(dp2144
g65
(dp2145
g73
I3
ssg74
g2139
sg67
(lp2146
g704
asbasbasbag60
(g76
g62
NtRp2147
(dp2148
g65
(dp2149
sg74
g2038
sg67
(lp2150
g60
(g81
g62
NtRp2151
(dp2152
g65
(dp2153
g85
g86
ssg74
g2147
sg67
(lp2154
S'HTTP_CONNECTION'
p2155
asbag60
(g81
g62
NtRp2156
(dp2157
g65
(dp2158
g92
g93
ssg74
g2147
sg67
(lp2159
S':'
asbag60
(g81
g62
NtRp2160
(dp2161
g65
(dp2162
sg74
g2147
sg67
(lp2163
g60
(g61
g62
NtRp2164
(dp2165
g65
(dp2166
g73
I3
ssg74
g2160
sg67
(lp2167
g726
asbasbasbag60
(g76
g62
NtRp2168
(dp2169
g65
(dp2170
sg74
g2038
sg67
(lp2171
g60
(g81
g62
NtRp2172
(dp2173
g65
(dp2174
g85
g86
ssg74
g2168
sg67
(lp2175
S'HTTP_COOKIE'
p2176
asbag60
(g81
g62
NtRp2177
(dp2178
g65
(dp2179
g92
g93
ssg74
g2168
sg67
(lp2180
S':'
asbag60
(g81
g62
NtRp2181
(dp2182
g65
(dp2183
sg74
g2168
sg67
(lp2184
g60
(g61
g62
NtRp2185
(dp2186
g65
(dp2187
g73
I3
ssg74
g2181
sg67
(lp2188
g748
asbasbasbag60
(g76
g62
NtRp2189
(dp2190
g65
(dp2191
sg74
g2038
sg67
(lp2192
g60
(g81
g62
NtRp2193
(dp2194
g65
(dp2195
g85
g86
ssg74
g2189
sg67
(lp2196
S'HTTP_HOST'
p2197
asbag60
(g81
g62
NtRp2198
(dp2199
g65
(dp2200
g92
g93
ssg74
g2189
sg67
(lp2201
S':'
asbag60
(g81
g62
NtRp2202
(dp2203
g65
(dp2204
sg74
g2189
sg67
(lp2205
g60
(g61
g62
NtRp2206
(dp2207
g65
(dp2208
g73
I3
ssg74
g2202
sg67
(lp2209
g770
asbasbasbag60
(g76
g62
NtRp2210
(dp2211
g65
(dp2212
sg74
g2038
sg67
(lp2213
g60
(g81
g62
NtRp2214
(dp2215
g65
(dp2216
g85
g86
ssg74
g2210
sg67
(lp2217
S'HTTP_USER_AGENT'
p2218
asbag60
(g81
g62
NtRp2219
(dp2220
g65
(dp2221
g92
g93
ssg74
g2210
sg67
(lp2222
S':'
asbag60
(g81
g62
NtRp2223
(dp2224
g65
(dp2225
sg74
g2210
sg67
(lp2226
g60
(g61
g62
NtRp2227
(dp2228
g65
(dp2229
g73
I3
ssg74
g2223
sg67
(lp2230
g792
asbasbasbag60
(g76
g62
NtRp2231
(dp2232
g65
(dp2233
sg74
g2038
sg67
(lp2234
g60
(g81
g62
NtRp2235
(dp2236
g65
(dp2237
g85
g86
ssg74
g2231
sg67
(lp2238
S'PATH_INFO'
p2239
asbag60
(g81
g62
NtRp2240
(dp2241
g65
(dp2242
g92
g93
ssg74
g2231
sg67
(lp2243
S':'
asbag60
(g81
g62
NtRp2244
(dp2245
g65
(dp2246
sg74
g2231
sg67
(lp2247
g60
(g61
g62
NtRp2248
(dp2249
g65
(dp2250
g73
I3
ssg74
g2244
sg67
(lp2251
S'/'
asbasbasbag60
(g76
g62
NtRp2252
(dp2253
g65
(dp2254
sg74
g2038
sg67
(lp2255
g60
(g81
g62
NtRp2256
(dp2257
g65
(dp2258
g85
g86
ssg74
g2252
sg67
(lp2259
S'QUERY_STRING'
p2260
asbag60
(g81
g62
NtRp2261
(dp2262
g65
(dp2263
g92
g93
ssg74
g2252
sg67
(lp2264
S':'
asbag60
(g81
g62
NtRp2265
(dp2266
g65
(dp2267
sg74
g2252
sg67
(lp2268
g60
(g61
g62
NtRp2269
(dp2270
g65
(dp2271
g73
I3
ssg74
g2265
sg67
(lp2272
S''
asbasbasbag60
(g76
g62
NtRp2273
(dp2274
g65
(dp2275
sg74
g2038
sg67
(lp2276
g60
(g81
g62
NtRp2277
(dp2278
g65
(dp2279
g85
g86
ssg74
g2273
sg67
(lp2280
S'REMOTE_ADDR'
p2281
asbag60
(g81
g62
NtRp2282
(dp2283
g65
(dp2284
g92
g93
ssg74
g2273
sg67
(lp2285
S':'
asbag60
(g81
g62
NtRp2286
(dp2287
g65
(dp2288
sg74
g2273
sg67
(lp2289
g60
(g61
g62
NtRp2290
(dp2291
g65
(dp2292
g73
I3
ssg74
g2286
sg67
(lp2293
g193
asbasbasbag60
(g76
g62
NtRp2294
(dp2295
g65
(dp2296
sg74
g2038
sg67
(lp2297
g60
(g81
g62
NtRp2298
(dp2299
g65
(dp2300
g85
g86
ssg74
g2294
sg67
(lp2301
S'REMOTE_PORT'
p2302
asbag60
(g81
g62
NtRp2303
(dp2304
g65
(dp2305
g92
g93
ssg74
g2294
sg67
(lp2306
S':'
asbag60
(g81
g62
NtRp2307
(dp2308
g65
(dp2309
sg74
g2294
sg67
(lp2310
g60
(g61
g62
NtRp2311
(dp2312
g65
(dp2313
g73
I3
ssg74
g2307
sg67
(lp2314
g919
asbasbasbag60
(g76
g62
NtRp2315
(dp2316
g65
(dp2317
sg74
g2038
sg67
(lp2318
g60
(g81
g62
NtRp2319
(dp2320
g65
(dp2321
g85
g86
ssg74
g2315
sg67
(lp2322
S'REQUEST_METHOD'
p2323
asbag60
(g81
g62
NtRp2324
(dp2325
g65
(dp2326
g92
g93
ssg74
g2315
sg67
(lp2327
S':'
asbag60
(g81
g62
NtRp2328
(dp2329
g65
(dp2330
sg74
g2315
sg67
(lp2331
g60
(g61
g62
NtRp2332
(dp2333
g65
(dp2334
g73
I3
ssg74
g2328
sg67
(lp2335
g941
asbasbasbag60
(g76
g62
NtRp2336
(dp2337
g65
(dp2338
sg74
g2038
sg67
(lp2339
g60
(g81
g62
NtRp2340
(dp2341
g65
(dp2342
g85
g86
ssg74
g2336
sg67
(lp2343
S'SCRIPT_NAME'
p2344
asbag60
(g81
g62
NtRp2345
(dp2346
g65
(dp2347
g92
g93
ssg74
g2336
sg67
(lp2348
S':'
asbag60
(g81
g62
NtRp2349
(dp2350
g65
(dp2351
sg74
g2336
sg67
(lp2352
g60
(g61
g62
NtRp2353
(dp2354
g65
(dp2355
g73
I3
ssg74
g2349
sg67
(lp2356
S''
asbasbasbag60
(g76
g62
NtRp2357
(dp2358
g65
(dp2359
sg74
g2038
sg67
(lp2360
g60
(g81
g62
NtRp2361
(dp2362
g65
(dp2363
g85
g86
ssg74
g2357
sg67
(lp2364
S'SERVER_NAME'
p2365
asbag60
(g81
g62
NtRp2366
(dp2367
g65
(dp2368
g92
g93
ssg74
g2357
sg67
(lp2369
S':'
asbag60
(g81
g62
NtRp2370
(dp2371
g65
(dp2372
sg74
g2357
sg67
(lp2373
g60
(g61
g62
NtRp2374
(dp2375
g65
(dp2376
g73
I3
ssg74
g2370
sg67
(lp2377
g984
asbasbasbag60
(g76
g62
NtRp2378
(dp2379
g65
(dp2380
sg74
g2038
sg67
(lp2381
g60
(g81
g62
NtRp2382
(dp2383
g65
(dp2384
g85
g86
ssg74
g2378
sg67
(lp2385
S'SERVER_PORT'
p2386
asbag60
(g81
g62
NtRp2387
(dp2388
g65
(dp2389
g92
g93
ssg74
g2378
sg67
(lp2390
S':'
asbag60
(g81
g62
NtRp2391
(dp2392
g65
(dp2393
sg74
g2378
sg67
(lp2394
g60
(g61
g62
NtRp2395
(dp2396
g65
(dp2397
g73
I3
ssg74
g2391
sg67
(lp2398
g1006
asbasbasbag60
(g76
g62
NtRp2399
(dp2400
g65
(dp2401
sg74
g2038
sg67
(lp2402
g60
(g81
g62
NtRp2403
(dp2404
g65
(dp2405
g85
g86
ssg74
g2399
sg67
(lp2406
S'SERVER_PROTOCOL'
p2407
asbag60
(g81
g62
NtRp2408
(dp2409
g65
(dp2410
g92
g93
ssg74
g2399
sg67
(lp2411
S':'
asbag60
(g81
g62
NtRp2412
(dp2413
g65
(dp2414
sg74
g2399
sg67
(lp2415
g60
(g61
g62
NtRp2416
(dp2417
g65
(dp2418
g73
I3
ssg74
g2412
sg67
(lp2419
g1028
asbasbasbag60
(g76
g62
NtRp2420
(dp2421
g65
(dp2422
sg74
g2038
sg67
(lp2423
g60
(g81
g62
NtRp2424
(dp2425
g65
(dp2426
g85
g86
ssg74
g2420
sg67
(lp2427
S'SERVER_SOFTWARE'
p2428
asbag60
(g81
g62
NtRp2429
(dp2430
g65
(dp2431
g92
g93
ssg74
g2420
sg67
(lp2432
S':'
asbag60
(g81
g62
NtRp2433
(dp2434
g65
(dp2435
sg74
g2420
sg67
(lp2436
g60
(g61
g62
NtRp2437
(dp2438
g65
(dp2439
g73
I3
ssg74
g2433
sg67
(lp2440
g1050
asbasbasbag60
(g76
g62
NtRp2441
(dp2442
g65
(dp2443
sg74
g2038
sg67
(lp2444
g60
(g81
g62
NtRp2445
(dp2446
g65
(dp2447
g85
g86
ssg74
g2441
sg67
(lp2448
S'wsgi.errors'
p2449
asbag60
(g81
g62
NtRp2450
(dp2451
g65
(dp2452
g92
g93
ssg74
g2441
sg67
(lp2453
S':'
asbag60
(g81
g62
NtRp2454
(dp2455
g65
(dp2456
sg74
g2441
sg67
(lp2457
g60
(g61
g62
NtRp2458
(dp2459
g65
(dp2460
g73
I3
ssg74
g2454
sg67
(lp2461
S"<open file '<stderr>', mode 'w' at 0x01D300B0>"
p2462
asbasbasbag60
(g76
g62
NtRp2463
(dp2464
g65
(dp2465
sg74
g2038
sg67
(lp2466
g60
(g81
g62
NtRp2467
(dp2468
g65
(dp2469
g85
g86
ssg74
g2463
sg67
(lp2470
S'wsgi.file_wrapper'
p2471
asbag60
(g81
g62
NtRp2472
(dp2473
g65
(dp2474
g92
g93
ssg74
g2463
sg67
(lp2475
S':'
asbag60
(g81
g62
NtRp2476
(dp2477
g65
(dp2478
sg74
g2463
sg67
(lp2479
g60
(g61
g62
NtRp2480
(dp2481
g65
(dp2482
g73
I3
ssg74
g2476
sg67
(lp2483
S'<class wsgiref.util.FileWrapper at 0x02CD6900>'
p2484
asbasbasbag60
(g76
g62
NtRp2485
(dp2486
g65
(dp2487
sg74
g2038
sg67
(lp2488
g60
(g81
g62
NtRp2489
(dp2490
g65
(dp2491
g85
g86
ssg74
g2485
sg67
(lp2492
S'wsgi.input'
p2493
asbag60
(g81
g62
NtRp2494
(dp2495
g65
(dp2496
g92
g93
ssg74
g2485
sg67
(lp2497
S':'
asbag60
(g81
g62
NtRp2498
(dp2499
g65
(dp2500
sg74
g2485
sg67
(lp2501
g60
(g61
g62
NtRp2502
(dp2503
g65
(dp2504
g73
I3
ssg74
g2498
sg67
(lp2505
S'<cStringIO.StringO object at 0x042B65C0>'
p2506
asbasbasbag60
(g76
g62
NtRp2507
(dp2508
g65
(dp2509
sg74
g2038
sg67
(lp2510
g60
(g81
g62
NtRp2511
(dp2512
g65
(dp2513
g85
g86
ssg74
g2507
sg67
(lp2514
S'wsgi.multiprocess'
p2515
asbag60
(g81
g62
NtRp2516
(dp2517
g65
(dp2518
g92
g93
ssg74
g2507
sg67
(lp2519
S':'
asbag60
(g81
g62
NtRp2520
(dp2521
g65
(dp2522
sg74
g2507
sg67
(lp2523
g60
(g61
g62
NtRp2524
(dp2525
g65
(dp2526
g73
I3
ssg74
g2520
sg67
(lp2527
g103
asbasbasbag60
(g76
g62
NtRp2528
(dp2529
g65
(dp2530
sg74
g2038
sg67
(lp2531
g60
(g81
g62
NtRp2532
(dp2533
g65
(dp2534
g85
g86
ssg74
g2528
sg67
(lp2535
S'wsgi.multithread'
p2536
asbag60
(g81
g62
NtRp2537
(dp2538
g65
(dp2539
g92
g93
ssg74
g2528
sg67
(lp2540
S':'
asbag60
(g81
g62
NtRp2541
(dp2542
g65
(dp2543
sg74
g2528
sg67
(lp2544
g60
(g61
g62
NtRp2545
(dp2546
g65
(dp2547
g73
I3
ssg74
g2541
sg67
(lp2548
g572
asbasbasbag60
(g76
g62
NtRp2549
(dp2550
g65
(dp2551
sg74
g2038
sg67
(lp2552
g60
(g81
g62
NtRp2553
(dp2554
g65
(dp2555
g85
g86
ssg74
g2549
sg67
(lp2556
S'wsgi.run_once'
p2557
asbag60
(g81
g62
NtRp2558
(dp2559
g65
(dp2560
g92
g93
ssg74
g2549
sg67
(lp2561
S':'
asbag60
(g81
g62
NtRp2562
(dp2563
g65
(dp2564
sg74
g2549
sg67
(lp2565
g60
(g61
g62
NtRp2566
(dp2567
g65
(dp2568
g73
I3
ssg74
g2562
sg67
(lp2569
g103
asbasbasbag60
(g76
g62
NtRp2570
(dp2571
g65
(dp2572
sg74
g2038
sg67
(lp2573
g60
(g81
g62
NtRp2574
(dp2575
g65
(dp2576
g85
g86
ssg74
g2570
sg67
(lp2577
S'wsgi.url_scheme'
p2578
asbag60
(g81
g62
NtRp2579
(dp2580
g65
(dp2581
g92
g93
ssg74
g2570
sg67
(lp2582
S':'
asbag60
(g81
g62
NtRp2583
(dp2584
g65
(dp2585
sg74
g2570
sg67
(lp2586
g60
(g61
g62
NtRp2587
(dp2588
g65
(dp2589
g73
I3
ssg74
g2583
sg67
(lp2590
g1332
asbasbasbag60
(g76
g62
NtRp2591
(dp2592
g65
(dp2593
sg74
g2038
sg67
(lp2594
g60
(g81
g62
NtRp2595
(dp2596
g65
(dp2597
g85
g86
ssg74
g2591
sg67
(lp2598
S'wsgi.version'
p2599
asbag60
(g81
g62
NtRp2600
(dp2601
g65
(dp2602
g92
g93
ssg74
g2591
sg67
(lp2603
S':'
asbag60
(g81
g62
NtRp2604
(dp2605
g65
(dp2606
sg74
g2591
sg67
(lp2607
g60
(g61
g62
NtRp2608
(dp2609
g65
(dp2610
g73
I3
ssg74
g2604
sg67
(lp2611
S'1'
asbasbasbasbasbasbasbasbasbasbasbasbasbsS'frames'
p2612
(lp2613
(dp2614
S'file'
p2615
S'C:\\Users\\Bussiere\\Dropbox\\Projets\\jackpoint\\web2py\\gluon\\restricted.py'
p2616
sS'dump'
p2617
(dp2618
sS'lnum'
p2619
I204
sS'lines'
p2620
(dp2621
I199
S"    environment['__name__'] = '__restricted__'"
p2622
sI200
S'    try:'
p2623
sI201
S'        if type(code) == types.CodeType:'
p2624
sI202
S'            ccode = code'
p2625
sI203
S'        else:'
p2626
sI204
S'            ccode = compile2(code,layer)'
p2627
sI205
S'        exec ccode in environment'
p2628
sI206
S'    except HTTP:'
p2629
sI207
S'        raise'
p2630
sI208
S'    except RestrictedError:'
p2631
ssS'call'
p2632
S"(code='# -*- coding: utf-8 -*-\\n# this file is released ...=crud())\\n\\nresponse._vars=response._caller(index)\\n', environment={'A': <class 'gluon.html.A'>, 'Auth': <class 'gluon.tools.Auth'>, 'AutocompleteWidget': <class 'gluon.sqlhtml.AutocompleteWidget'>, 'B': <class 'gluon.html.B'>, 'BEAUTIFY': <class 'gluon.html.BEAUTIFY'>, 'BODY': <class 'gluon.html.BODY'>, 'BR': <class 'gluon.html.BR'>, 'BUTTON': <class 'gluon.html.BUTTON'>, 'BooleanWidget': <class 'gluon.sqlhtml.BooleanWidget'>, 'CALLABLETYPES': (<type 'function'>, <type 'function'>, <type 'builtin_function_or_method'>, <type 'instancemethod'>, <type 'builtin_function_or_method'>), ...}, layer=r'C:\\Users\\Bussiere\\Dropbox\\Projets\\jackpoint\\web2py\\applications\\init\\controllers/default.py')"
p2633
sS'func'
p2634
S'restricted'
p2635
sa(dp2636
g2615
S'C:\\Users\\Bussiere\\Dropbox\\Projets\\jackpoint\\web2py\\gluon\\restricted.py'
p2637
sg2617
(dp2638
sg2619
I189
sg2620
(dp2639
I192
S'    """'
p2640
sI193
S'    runs code in environment and returns the output. if an exception occurs'
p2641
sI184
S''
sI185
S'def compile2(code,layer):'
p2642
sI186
S'    """'
p2643
sI187
S"    The +'\\n' is necessary else compile fails when code ends in a comment."
p2644
sI188
S'    """'
p2645
sI189
S"    return compile(code.rstrip().replace('\\r\\n','\\n')+'\\n', layer, 'exec')"
p2646
sI190
S''
sI191
S"def restricted(code, environment=None, layer='Unknown'):"
p2647
ssg2632
S"(code='# -*- coding: utf-8 -*-\\n# this file is released ...=crud())\\n\\nresponse._vars=response._caller(index)\\n', layer=r'C:\\Users\\Bussiere\\Dropbox\\Projets\\jackpoint\\web2py\\applications\\init\\controllers/default.py')"
p2648
sg2634
S'compile2'
p2649
sasS'pyver'
p2650
S'Python 2.5.4: C:\\Users\\Bussiere\\Dropbox\\Projets\\jackpoint\\web2py\\web2py.exe'
p2651
sS'session'
p2652
g60
(g61
g62
NtRp2653
(dp2654
g65
(dp2655
sg67
(lp2656
g60
(g69
g62
NtRp2657
(dp2658
g65
(dp2659
g73
I5
ssg74
Nsg67
(lp2660
sbasbsS'etype'
p2661
S"<type 'exceptions.IndentationError'>"
p2662
sS'date'
p2663
S'Fri Mar 23 10:26:51 2012'
p2664
sS'response'
p2665
g60
(g61
g62
NtRp2666
(dp2667
g65
(dp2668
sg67
(lp2669
g60
(g69
g62
NtRp2670
(dp2671
g65
(dp2672
g73
I5
ssg74
Nsg67
(lp2673
g60
(g76
g62
NtRp2674
(dp2675
g65
(dp2676
sg74
g2670
sg67
(lp2677
g60
(g81
g62
NtRp2678
(dp2679
g65
(dp2680
g85
g86
ssg74
g2674
sg67
(lp2681
g158
asbag60
(g81
g62
NtRp2682
(dp2683
g65
(dp2684
g92
g93
ssg74
g2674
sg67
(lp2685
S':'
asbag60
(g81
g62
NtRp2686
(dp2687
g65
(dp2688
sg74
g2674
sg67
(lp2689
g60
(g61
g62
NtRp2690
(dp2691
g65
(dp2692
g73
I5
ssg74
g2686
sg67
(lp2693
S'<cStringIO.StringO object at 0x042B6660>'
p2694
asbasbasbag60
(g76
g62
NtRp2695
(dp2696
g65
(dp2697
sg74
g2670
sg67
(lp2698
g60
(g81
g62
NtRp2699
(dp2700
g65
(dp2701
g85
g86
ssg74
g2695
sg67
(lp2702
g224
asbag60
(g81
g62
NtRp2703
(dp2704
g65
(dp2705
g92
g93
ssg74
g2695
sg67
(lp2706
S':'
asbag60
(g81
g62
NtRp2707
(dp2708
g65
(dp2709
sg74
g2695
sg67
(lp2710
g60
(g61
g62
NtRp2711
(dp2712
g65
(dp2713
g73
I5
ssg74
g2707
sg67
(lp2714
g60
(g69
g62
NtRp2715
(dp2716
g65
(dp2717
g73
I4
ssg74
Nsg67
(lp2718
g60
(g76
g62
NtRp2719
(dp2720
g65
(dp2721
sg74
g2715
sg67
(lp2722
g60
(g81
g62
NtRp2723
(dp2724
g65
(dp2725
g85
g86
ssg74
g2719
sg67
(lp2726
S'session_id_init'
p2727
asbag60
(g81
g62
NtRp2728
(dp2729
g65
(dp2730
g92
g93
ssg74
g2719
sg67
(lp2731
S':'
asbag60
(g81
g62
NtRp2732
(dp2733
g65
(dp2734
sg74
g2719
sg67
(lp2735
g60
(g61
g62
NtRp2736
(dp2737
g65
(dp2738
g73
I4
ssg74
g2732
sg67
(lp2739
g60
(g69
g62
NtRp2740
(dp2741
g65
(dp2742
g73
I3
ssg74
Nsg67
(lp2743
g60
(g76
g62
NtRp2744
(dp2745
g65
(dp2746
sg74
g2740
sg67
(lp2747
g60
(g81
g62
NtRp2748
(dp2749
g65
(dp2750
g85
g86
ssg74
g2744
sg67
(lp2751
g274
asbag60
(g81
g62
NtRp2752
(dp2753
g65
(dp2754
g92
g93
ssg74
g2744
sg67
(lp2755
S':'
asbag60
(g81
g62
NtRp2756
(dp2757
g65
(dp2758
sg74
g2744
sg67
(lp2759
g60
(g61
g62
NtRp2760
(dp2761
g65
(dp2762
g73
I3
ssg74
g2756
sg67
(lp2763
S''
asbasbasbag60
(g76
g62
NtRp2764
(dp2765
g65
(dp2766
sg74
g2740
sg67
(lp2767
g60
(g81
g62
NtRp2768
(dp2769
g65
(dp2770
g85
g86
ssg74
g2764
sg67
(lp2771
g295
asbag60
(g81
g62
NtRp2772
(dp2773
g65
(dp2774
g92
g93
ssg74
g2764
sg67
(lp2775
S':'
asbag60
(g81
g62
NtRp2776
(dp2777
g65
(dp2778
sg74
g2764
sg67
(lp2779
g60
(g61
g62
NtRp2780
(dp2781
g65
(dp2782
g73
I3
ssg74
g2776
sg67
(lp2783
S''
asbasbasbag60
(g76
g62
NtRp2784
(dp2785
g65
(dp2786
sg74
g2740
sg67
(lp2787
g60
(g81
g62
NtRp2788
(dp2789
g65
(dp2790
g85
g86
ssg74
g2784
sg67
(lp2791
g316
asbag60
(g81
g62
NtRp2792
(dp2793
g65
(dp2794
g92
g93
ssg74
g2784
sg67
(lp2795
S':'
asbag60
(g81
g62
NtRp2796
(dp2797
g65
(dp2798
sg74
g2784
sg67
(lp2799
g60
(g61
g62
NtRp2800
(dp2801
g65
(dp2802
g73
I3
ssg74
g2796
sg67
(lp2803
S''
asbasbasbag60
(g76
g62
NtRp2804
(dp2805
g65
(dp2806
sg74
g2740
sg67
(lp2807
g60
(g81
g62
NtRp2808
(dp2809
g65
(dp2810
g85
g86
ssg74
g2804
sg67
(lp2811
g337
asbag60
(g81
g62
NtRp2812
(dp2813
g65
(dp2814
g92
g93
ssg74
g2804
sg67
(lp2815
S':'
asbag60
(g81
g62
NtRp2816
(dp2817
g65
(dp2818
sg74
g2804
sg67
(lp2819
g60
(g61
g62
NtRp2820
(dp2821
g65
(dp2822
g73
I3
ssg74
g2816
sg67
(lp2823
S''
asbasbasbag60
(g76
g62
NtRp2824
(dp2825
g65
(dp2826
sg74
g2740
sg67
(lp2827
g60
(g81
g62
NtRp2828
(dp2829
g65
(dp2830
g85
g86
ssg74
g2824
sg67
(lp2831
g358
asbag60
(g81
g62
NtRp2832
(dp2833
g65
(dp2834
g92
g93
ssg74
g2824
sg67
(lp2835
S':'
asbag60
(g81
g62
NtRp2836
(dp2837
g65
(dp2838
sg74
g2824
sg67
(lp2839
g60
(g61
g62
NtRp2840
(dp2841
g65
(dp2842
g73
I3
ssg74
g2836
sg67
(lp2843
S'/'
asbasbasbag60
(g76
g62
NtRp2844
(dp2845
g65
(dp2846
sg74
g2740
sg67
(lp2847
g60
(g81
g62
NtRp2848
(dp2849
g65
(dp2850
g85
g86
ssg74
g2844
sg67
(lp2851
g379
asbag60
(g81
g62
NtRp2852
(dp2853
g65
(dp2854
g92
g93
ssg74
g2844
sg67
(lp2855
S':'
asbag60
(g81
g62
NtRp2856
(dp2857
g65
(dp2858
sg74
g2844
sg67
(lp2859
g60
(g61
g62
NtRp2860
(dp2861
g65
(dp2862
g73
I3
ssg74
g2856
sg67
(lp2863
S''
asbasbasbag60
(g76
g62
NtRp2864
(dp2865
g65
(dp2866
sg74
g2740
sg67
(lp2867
g60
(g81
g62
NtRp2868
(dp2869
g65
(dp2870
g85
g86
ssg74
g2864
sg67
(lp2871
g400
asbag60
(g81
g62
NtRp2872
(dp2873
g65
(dp2874
g92
g93
ssg74
g2864
sg67
(lp2875
S':'
asbag60
(g81
g62
NtRp2876
(dp2877
g65
(dp2878
sg74
g2864
sg67
(lp2879
g60
(g61
g62
NtRp2880
(dp2881
g65
(dp2882
g73
I3
ssg74
g2876
sg67
(lp2883
S''
asbasbasbasbasbasbasbasbasbasbasbag60
(g76
g62
NtRp2884
(dp2885
g65
(dp2886
sg74
g2670
sg67
(lp2887
g60
(g81
g62
NtRp2888
(dp2889
g65
(dp2890
g85
g86
ssg74
g2884
sg67
(lp2891
S'delimiters'
p2892
asbag60
(g81
g62
NtRp2893
(dp2894
g65
(dp2895
g92
g93
ssg74
g2884
sg67
(lp2896
S':'
asbag60
(g81
g62
NtRp2897
(dp2898
g65
(dp2899
sg74
g2884
sg67
(lp2900
g60
(g61
g62
NtRp2901
(dp2902
g65
(dp2903
g73
I5
ssg74
g2897
sg67
(lp2904
g60
(g69
g62
NtRp2905
(dp2906
g65
(dp2907
g73
I4
ssg74
Nsg67
(lp2908
g60
(g76
g62
NtRp2909
(dp2910
g65
(dp2911
sg74
g2905
sg67
(lp2912
g60
(g81
g62
NtRp2913
(dp2914
g65
(dp2915
sg74
g2909
sg67
(lp2916
g60
(g61
g62
NtRp2917
(dp2918
g65
(dp2919
g73
I4
ssg74
g2913
sg67
(lp2920
S'{{'
p2921
asbasbasbag60
(g76
g62
NtRp2922
(dp2923
g65
(dp2924
sg74
g2905
sg67
(lp2925
g60
(g81
g62
NtRp2926
(dp2927
g65
(dp2928
sg74
g2922
sg67
(lp2929
g60
(g61
g62
NtRp2930
(dp2931
g65
(dp2932
g73
I4
ssg74
g2926
sg67
(lp2933
S'}}'
p2934
asbasbasbasbasbasbasbag60
(g76
g62
NtRp2935
(dp2936
g65
(dp2937
sg74
g2670
sg67
(lp2938
g60
(g81
g62
NtRp2939
(dp2940
g65
(dp2941
g85
g86
ssg74
g2935
sg67
(lp2942
S'files'
p2943
asbag60
(g81
g62
NtRp2944
(dp2945
g65
(dp2946
g92
g93
ssg74
g2935
sg67
(lp2947
S':'
asbag60
(g81
g62
NtRp2948
(dp2949
g65
(dp2950
sg74
g2935
sg67
(lp2951
g60
(g61
g62
NtRp2952
(dp2953
g65
(dp2954
g73
I5
ssg74
g2948
sg67
(lp2955
g60
(g69
g62
NtRp2956
(dp2957
g65
(dp2958
g73
I4
ssg74
Nsg67
(lp2959
sbasbasbasbag60
(g76
g62
NtRp2960
(dp2961
g65
(dp2962
sg74
g2670
sg67
(lp2963
g60
(g81
g62
NtRp2964
(dp2965
g65
(dp2966
g85
g86
ssg74
g2960
sg67
(lp2967
S'flash'
p2968
asbag60
(g81
g62
NtRp2969
(dp2970
g65
(dp2971
g92
g93
ssg74
g2960
sg67
(lp2972
S':'
asbag60
(g81
g62
NtRp2973
(dp2974
g65
(dp2975
sg74
g2960
sg67
(lp2976
g60
(g61
g62
NtRp2977
(dp2978
g65
(dp2979
g73
I5
ssg74
g2973
sg67
(lp2980
S''
asbasbasbag60
(g76
g62
NtRp2981
(dp2982
g65
(dp2983
sg74
g2670
sg67
(lp2984
g60
(g81
g62
NtRp2985
(dp2986
g65
(dp2987
g85
g86
ssg74
g2981
sg67
(lp2988
S'generic_patterns'
p2989
asbag60
(g81
g62
NtRp2990
(dp2991
g65
(dp2992
g92
g93
ssg74
g2981
sg67
(lp2993
S':'
asbag60
(g81
g62
NtRp2994
(dp2995
g65
(dp2996
sg74
g2981
sg67
(lp2997
g60
(g61
g62
NtRp2998
(dp2999
g65
(dp3000
g73
I5
ssg74
g2994
sg67
(lp3001
g60
(g69
g62
NtRp3002
(dp3003
g65
(dp3004
g73
I4
ssg74
Nsg67
(lp3005
g60
(g76
g62
NtRp3006
(dp3007
g65
(dp3008
sg74
g3002
sg67
(lp3009
g60
(g81
g62
NtRp3010
(dp3011
g65
(dp3012
sg74
g3006
sg67
(lp3013
g60
(g61
g62
NtRp3014
(dp3015
g65
(dp3016
g73
I4
ssg74
g3010
sg67
(lp3017
S'*'
asbasbasbasbasbasbasbag60
(g76
g62
NtRp3018
(dp3019
g65
(dp3020
sg74
g2670
sg67
(lp3021
g60
(g81
g62
NtRp3022
(dp3023
g65
(dp3024
g85
g86
ssg74
g3018
sg67
(lp3025
S'headers'
p3026
asbag60
(g81
g62
NtRp3027
(dp3028
g65
(dp3029
g92
g93
ssg74
g3018
sg67
(lp3030
S':'
asbag60
(g81
g62
NtRp3031
(dp3032
g65
(dp3033
sg74
g3018
sg67
(lp3034
g60
(g61
g62
NtRp3035
(dp3036
g65
(dp3037
g73
I5
ssg74
g3031
sg67
(lp3038
g60
(g69
g62
NtRp3039
(dp3040
g65
(dp3041
g73
I4
ssg74
Nsg67
(lp3042
g60
(g76
g62
NtRp3043
(dp3044
g65
(dp3045
sg74
g3039
sg67
(lp3046
g60
(g81
g62
NtRp3047
(dp3048
g65
(dp3049
g85
g86
ssg74
g3043
sg67
(lp3050
S'Cache-Control'
p3051
asbag60
(g81
g62
NtRp3052
(dp3053
g65
(dp3054
g92
g93
ssg74
g3043
sg67
(lp3055
S':'
asbag60
(g81
g62
NtRp3056
(dp3057
g65
(dp3058
sg74
g3043
sg67
(lp3059
g60
(g61
g62
NtRp3060
(dp3061
g65
(dp3062
g73
I4
ssg74
g3056
sg67
(lp3063
S'no-store, no-cache, must-revalidate, post-check=0, pre-check=0'
p3064
asbasbasbag60
(g76
g62
NtRp3065
(dp3066
g65
(dp3067
sg74
g3039
sg67
(lp3068
g60
(g81
g62
NtRp3069
(dp3070
g65
(dp3071
g85
g86
ssg74
g3065
sg67
(lp3072
S'Content-Type'
p3073
asbag60
(g81
g62
NtRp3074
(dp3075
g65
(dp3076
g92
g93
ssg74
g3065
sg67
(lp3077
S':'
asbag60
(g81
g62
NtRp3078
(dp3079
g65
(dp3080
sg74
g3065
sg67
(lp3081
g60
(g61
g62
NtRp3082
(dp3083
g65
(dp3084
g73
I4
ssg74
g3078
sg67
(lp3085
S'text/html; charset=utf-8'
p3086
asbasbasbag60
(g76
g62
NtRp3087
(dp3088
g65
(dp3089
sg74
g3039
sg67
(lp3090
g60
(g81
g62
NtRp3091
(dp3092
g65
(dp3093
g85
g86
ssg74
g3087
sg67
(lp3094
S'Expires'
p3095
asbag60
(g81
g62
NtRp3096
(dp3097
g65
(dp3098
g92
g93
ssg74
g3087
sg67
(lp3099
S':'
asbag60
(g81
g62
NtRp3100
(dp3101
g65
(dp3102
sg74
g3087
sg67
(lp3103
g60
(g61
g62
NtRp3104
(dp3105
g65
(dp3106
g73
I4
ssg74
g3100
sg67
(lp3107
S'Fri, 23 Mar 2012 09:26:50 GMT'
p3108
asbasbasbag60
(g76
g62
NtRp3109
(dp3110
g65
(dp3111
sg74
g3039
sg67
(lp3112
g60
(g81
g62
NtRp3113
(dp3114
g65
(dp3115
g85
g86
ssg74
g3109
sg67
(lp3116
S'Pragma'
p3117
asbag60
(g81
g62
NtRp3118
(dp3119
g65
(dp3120
g92
g93
ssg74
g3109
sg67
(lp3121
S':'
asbag60
(g81
g62
NtRp3122
(dp3123
g65
(dp3124
sg74
g3109
sg67
(lp3125
g60
(g61
g62
NtRp3126
(dp3127
g65
(dp3128
g73
I4
ssg74
g3122
sg67
(lp3129
S'no-cache'
p3130
asbasbasbag60
(g76
g62
NtRp3131
(dp3132
g65
(dp3133
sg74
g3039
sg67
(lp3134
g60
(g81
g62
NtRp3135
(dp3136
g65
(dp3137
g85
g86
ssg74
g3131
sg67
(lp3138
S'X-Powered-By'
p3139
asbag60
(g81
g62
NtRp3140
(dp3141
g65
(dp3142
g92
g93
ssg74
g3131
sg67
(lp3143
S':'
asbag60
(g81
g62
NtRp3144
(dp3145
g65
(dp3146
sg74
g3131
sg67
(lp3147
g60
(g61
g62
NtRp3148
(dp3149
g65
(dp3150
g73
I4
ssg74
g3144
sg67
(lp3151
S'web2py'
p3152
asbasbasbasbasbasbasbag60
(g76
g62
NtRp3153
(dp3154
g65
(dp3155
sg74
g2670
sg67
(lp3156
g60
(g81
g62
NtRp3157
(dp3158
g65
(dp3159
g85
g86
ssg74
g3153
sg67
(lp3160
S'menu'
p3161
asbag60
(g81
g62
NtRp3162
(dp3163
g65
(dp3164
g92
g93
ssg74
g3153
sg67
(lp3165
S':'
asbag60
(g81
g62
NtRp3166
(dp3167
g65
(dp3168
sg74
g3153
sg67
(lp3169
g60
(g61
g62
NtRp3170
(dp3171
g65
(dp3172
g73
I5
ssg74
g3166
sg67
(lp3173
g60
(g69
g62
NtRp3174
(dp3175
g65
(dp3176
g73
I4
ssg74
Nsg67
(lp3177
g60
(g76
g62
NtRp3178
(dp3179
g65
(dp3180
sg74
g3174
sg67
(lp3181
g60
(g81
g62
NtRp3182
(dp3183
g65
(dp3184
sg74
g3178
sg67
(lp3185
g60
(g61
g62
NtRp3186
(dp3187
g65
(dp3188
g73
I4
ssg74
g3182
sg67
(lp3189
g60
(g69
g62
NtRp3190
(dp3191
g65
(dp3192
g73
I3
ssg74
Nsg67
(lp3193
g60
(g76
g62
NtRp3194
(dp3195
g65
(dp3196
sg74
g3190
sg67
(lp3197
g60
(g81
g62
NtRp3198
(dp3199
g65
(dp3200
sg74
g3194
sg67
(lp3201
g60
(g61
g62
NtRp3202
(dp3203
g65
(dp3204
g73
I3
ssg74
g3198
sg67
(lp3205
cgluon.languages
lazyT_unpickle
p3206
(S's\x04\x00\x00\x00Home'
tRp3207
asbasbasbag60
(g76
g62
NtRp3208
(dp3209
g65
(dp3210
sg74
g3190
sg67
(lp3211
g60
(g81
g62
NtRp3212
(dp3213
g65
(dp3214
sg74
g3208
sg67
(lp3215
g60
(g61
g62
NtRp3216
(dp3217
g65
(dp3218
g73
I3
ssg74
g3212
sg67
(lp3219
g103
asbasbasbag60
(g76
g62
NtRp3220
(dp3221
g65
(dp3222
sg74
g3190
sg67
(lp3223
g60
(g81
g62
NtRp3224
(dp3225
g65
(dp3226
sg74
g3220
sg67
(lp3227
g60
(g61
g62
NtRp3228
(dp3229
g65
(dp3230
g73
I3
ssg74
g3224
sg67
(lp3231
S'/init/default/index'
p3232
asbasbasbag60
(g76
g62
NtRp3233
(dp3234
g65
(dp3235
sg74
g3190
sg67
(lp3236
g60
(g81
g62
NtRp3237
(dp3238
g65
(dp3239
sg74
g3233
sg67
(lp3240
g60
(g61
g62
NtRp3241
(dp3242
g65
(dp3243
g73
I3
ssg74
g3237
sg67
(lp3244
g60
(g69
g62
NtRp3245
(dp3246
g65
(dp3247
g73
I2
ssg74
Nsg67
(lp3248
sbasbasbasbasbasbasbasbag60
(g76
g62
NtRp3249
(dp3250
g65
(dp3251
sg74
g3174
sg67
(lp3252
g60
(g81
g62
NtRp3253
(dp3254
g65
(dp3255
sg74
g3249
sg67
(lp3256
g60
(g61
g62
NtRp3257
(dp3258
g65
(dp3259
g73
I4
ssg74
g3253
sg67
(lp3260
g60
(g69
g62
NtRp3261
(dp3262
g65
(dp3263
g73
I3
ssg74
Nsg67
(lp3264
g60
(g76
g62
NtRp3265
(dp3266
g65
(dp3267
sg74
g3261
sg67
(lp3268
g60
(g81
g62
NtRp3269
(dp3270
g65
(dp3271
sg74
g3265
sg67
(lp3272
g60
(g61
g62
NtRp3273
(dp3274
g65
(dp3275
g73
I3
ssg74
g3269
sg67
(lp3276
g60
(cgluon.html
SPAN
p3277
g62
NtRp3278
(dp3279
g65
(dp3280
g85
S'color:yellow'
p3281
ssg74
Nsg67
(lp3282
g3152
asbasbasbasbag60
(g76
g62
NtRp3283
(dp3284
g65
(dp3285
sg74
g3261
sg67
(lp3286
g60
(g81
g62
NtRp3287
(dp3288
g65
(dp3289
sg74
g3283
sg67
(lp3290
g60
(g61
g62
NtRp3291
(dp3292
g65
(dp3293
g73
I3
ssg74
g3287
sg67
(lp3294
g103
asbasbasbag60
(g76
g62
NtRp3295
(dp3296
g65
(dp3297
sg74
g3261
sg67
(lp3298
g60
(g81
g62
NtRp3299
(dp3300
g65
(dp3301
sg74
g3295
sg67
(lp3302
g60
(g61
g62
NtRp3303
(dp3304
g65
(dp3305
g73
I3
ssg74
g3299
sg67
(lp3306
S'None'
p3307
asbasbasbag60
(g76
g62
NtRp3308
(dp3309
g65
(dp3310
sg74
g3261
sg67
(lp3311
g60
(g81
g62
NtRp3312
(dp3313
g65
(dp3314
sg74
g3308
sg67
(lp3315
g60
(g61
g62
NtRp3316
(dp3317
g65
(dp3318
g73
I3
ssg74
g3312
sg67
(lp3319
g60
(g69
g62
NtRp3320
(dp3321
g65
(dp3322
g73
I2
ssg74
Nsg67
(lp3323
g60
(g76
g62
NtRp3324
(dp3325
g65
(dp3326
sg74
g3320
sg67
(lp3327
g60
(g81
g62
NtRp3328
(dp3329
g65
(dp3330
sg74
g3324
sg67
(lp3331
g60
(g61
g62
NtRp3332
(dp3333
g65
(dp3334
g73
I2
ssg74
g3328
sg67
(lp3335
g60
(g69
g62
NtRp3336
(dp3337
g65
(dp3338
g73
I1
ssg74
Nsg67
(lp3339
g60
(g76
g62
NtRp3340
(dp3341
g65
(dp3342
sg74
g3336
sg67
(lp3343
g60
(g81
g62
NtRp3344
(dp3345
g65
(dp3346
sg74
g3340
sg67
(lp3347
g60
(g61
g62
NtRp3348
(dp3349
g65
(dp3350
g73
I1
ssg74
g3344
sg67
(lp3351
g3206
(S's\x08\x00\x00\x00My Sites'
tRp3352
asbasbasbag60
(g76
g62
NtRp3353
(dp3354
g65
(dp3355
sg74
g3336
sg67
(lp3356
g60
(g81
g62
NtRp3357
(dp3358
g65
(dp3359
sg74
g3353
sg67
(lp3360
g60
(g61
g62
NtRp3361
(dp3362
g65
(dp3363
g73
I1
ssg74
g3357
sg67
(lp3364
I00
asbasbasbag60
(g76
g62
NtRp3365
(dp3366
g65
(dp3367
sg74
g3336
sg67
(lp3368
g60
(g81
g62
NtRp3369
(dp3370
g65
(dp3371
sg74
g3365
sg67
(lp3372
g60
(g61
g62
NtRp3373
(dp3374
g65
(dp3375
g73
I1
ssg74
g3369
sg67
(lp3376
S'/admin/default/site'
p3377
asbasbasbasbasbasbasbag60
(g76
g62
NtRp3378
(dp3379
g65
(dp3380
sg74
g3320
sg67
(lp3381
g60
(g81
g62
NtRp3382
(dp3383
g65
(dp3384
sg74
g3378
sg67
(lp3385
g60
(g61
g62
NtRp3386
(dp3387
g65
(dp3388
g73
I2
ssg74
g3382
sg67
(lp3389
g60
(g69
g62
NtRp3390
(dp3391
g65
(dp3392
g73
I1
ssg74
Nsg67
(lp3393
g60
(g76
g62
NtRp3394
(dp3395
g65
(dp3396
sg74
g3390
sg67
(lp3397
g60
(g81
g62
NtRp3398
(dp3399
g65
(dp3400
sg74
g3394
sg67
(lp3401
g60
(g61
g62
NtRp3402
(dp3403
g65
(dp3404
g73
I1
ssg74
g3398
sg67
(lp3405
g3206
(S's\x08\x00\x00\x00This App'
tRp3406
asbasbasbag60
(g76
g62
NtRp3407
(dp3408
g65
(dp3409
sg74
g3390
sg67
(lp3410
g60
(g81
g62
NtRp3411
(dp3412
g65
(dp3413
sg74
g3407
sg67
(lp3414
g60
(g61
g62
NtRp3415
(dp3416
g65
(dp3417
g73
I1
ssg74
g3411
sg67
(lp3418
I00
asbasbasbag60
(g76
g62
NtRp3419
(dp3420
g65
(dp3421
sg74
g3390
sg67
(lp3422
g60
(g81
g62
NtRp3423
(dp3424
g65
(dp3425
sg74
g3419
sg67
(lp3426
g60
(g61
g62
NtRp3427
(dp3428
g65
(dp3429
g73
I1
ssg74
g3423
sg67
(lp3430
S'/admin/default/design/init'
p3431
asbasbasbag60
(g76
g62
NtRp3432
(dp3433
g65
(dp3434
sg74
g3390
sg67
(lp3435
g60
(g81
g62
NtRp3436
(dp3437
g65
(dp3438
sg74
g3432
sg67
(lp3439
g60
(g61
g62
NtRp3440
(dp3441
g65
(dp3442
g73
I1
ssg74
g3436
sg67
(lp3443
(lp3444
(g3206
(S's\n\x00\x00\x00Controller'
tRp3445
I00
S'/admin/default/edit/init/controllers/default.py'
tp3446
a(g3206
(S's\x04\x00\x00\x00View'
tRp3447
I00
S'/admin/default/edit/init/views/default/index.html'
tp3448
a(g3206
(S's\x06\x00\x00\x00Layout'
tRp3449
I00
S'/admin/default/edit/init/views/layout.html'
tp3450
a(g3206
(S's\n\x00\x00\x00Stylesheet'
tRp3451
I00
S'/admin/default/edit/init/static/css/web2py.css'
tp3452
a(g3206
(S's\x08\x00\x00\x00DB Model'
tRp3453
I00
S'/admin/default/edit/init/models/db.py'
tp3454
a(g3206
(S's\n\x00\x00\x00Menu Model'
tRp3455
I00
S'/admin/default/edit/init/models/menu.py'
tp3456
a(g3206
(S's\x08\x00\x00\x00Database'
tRp3457
I00
S'/init/appadmin/index'
tp3458
a(g3206
(S's\x06\x00\x00\x00Errors'
tRp3459
I00
S'/admin/default/errors/init'
tp3460
a(g3206
(S's\x05\x00\x00\x00About'
tRp3461
I00
S'/admin/default/about/init'
tp3462
aasbasbasbasbasbasbasbag60
(g76
g62
NtRp3463
(dp3464
g65
(dp3465
sg74
g3320
sg67
(lp3466
g60
(g81
g62
NtRp3467
(dp3468
g65
(dp3469
sg74
g3463
sg67
(lp3470
g60
(g61
g62
NtRp3471
(dp3472
g65
(dp3473
g73
I2
ssg74
g3467
sg67
(lp3474
g60
(g69
g62
NtRp3475
(dp3476
g65
(dp3477
g73
I1
ssg74
Nsg67
(lp3478
g60
(g76
g62
NtRp3479
(dp3480
g65
(dp3481
sg74
g3475
sg67
(lp3482
g60
(g81
g62
NtRp3483
(dp3484
g65
(dp3485
sg74
g3479
sg67
(lp3486
g60
(g61
g62
NtRp3487
(dp3488
g65
(dp3489
g73
I1
ssg74
g3483
sg67
(lp3490
S'web2py.com'
p3491
asbasbasbag60
(g76
g62
NtRp3492
(dp3493
g65
(dp3494
sg74
g3475
sg67
(lp3495
g60
(g81
g62
NtRp3496
(dp3497
g65
(dp3498
sg74
g3492
sg67
(lp3499
g60
(g61
g62
NtRp3500
(dp3501
g65
(dp3502
g73
I1
ssg74
g3496
sg67
(lp3503
I00
asbasbasbag60
(g76
g62
NtRp3504
(dp3505
g65
(dp3506
sg74
g3475
sg67
(lp3507
g60
(g81
g62
NtRp3508
(dp3509
g65
(dp3510
sg74
g3504
sg67
(lp3511
g60
(g61
g62
NtRp3512
(dp3513
g65
(dp3514
g73
I1
ssg74
g3508
sg67
(lp3515
S'http://www.web2py.com'
p3516
asbasbasbag60
(g76
g62
NtRp3517
(dp3518
g65
(dp3519
sg74
g3475
sg67
(lp3520
g60
(g81
g62
NtRp3521
(dp3522
g65
(dp3523
sg74
g3517
sg67
(lp3524
g60
(g61
g62
NtRp3525
(dp3526
g65
(dp3527
g73
I1
ssg74
g3521
sg67
(lp3528
(lp3529
(g3206
(S's\x08\x00\x00\x00Download'
tRp3530
I00
S'http://www.web2py.com/examples/default/download'
p3531
tp3532
a(g3206
(S's\x07\x00\x00\x00Support'
tRp3533
I00
S'http://www.web2py.com/examples/default/support'
p3534
tp3535
a(g3206
(S's\x04\x00\x00\x00Demo'
tRp3536
I00
S'http://web2py.com/demo_admin'
p3537
tp3538
a(g3206
(S's\x0e\x00\x00\x00Quick Examples'
tRp3539
I00
S'http://web2py.com/examples/default/examples'
p3540
tp3541
a(g3206
(S's\x03\x00\x00\x00FAQ'
tRp3542
I00
S'http://web2py.com/AlterEgo'
p3543
tp3544
a(g3206
(S's\x06\x00\x00\x00Videos'
tRp3545
I00
S'http://www.web2py.com/examples/default/videos/'
p3546
tp3547
a(g3206
(S's\x11\x00\x00\x00Free Applications'
tRp3548
I00
S'http://web2py.com/appliances'
p3549
tp3550
a(g3206
(S's\x07\x00\x00\x00Plugins'
tRp3551
I00
S'http://web2py.com/plugins'
p3552
tp3553
a(g3206
(S's\x07\x00\x00\x00Layouts'
tRp3554
I00
S'http://web2py.com/layouts'
p3555
tp3556
a(g3206
(S's\x07\x00\x00\x00Recipes'
tRp3557
I00
S'http://web2pyslices.com/'
p3558
tp3559
a(g3206
(S's\x08\x00\x00\x00Semantic'
tRp3560
I00
S'http://web2py.com/semantic'
p3561
tp3562
aasbasbasbasbasbasbasbag60
(g76
g62
NtRp3563
(dp3564
g65
(dp3565
sg74
g3320
sg67
(lp3566
g60
(g81
g62
NtRp3567
(dp3568
g65
(dp3569
sg74
g3563
sg67
(lp3570
g60
(g61
g62
NtRp3571
(dp3572
g65
(dp3573
g73
I2
ssg74
g3567
sg67
(lp3574
g60
(g69
g62
NtRp3575
(dp3576
g65
(dp3577
g73
I1
ssg74
Nsg67
(lp3578
g60
(g76
g62
NtRp3579
(dp3580
g65
(dp3581
sg74
g3575
sg67
(lp3582
g60
(g81
g62
NtRp3583
(dp3584
g65
(dp3585
sg74
g3579
sg67
(lp3586
g60
(g61
g62
NtRp3587
(dp3588
g65
(dp3589
g73
I1
ssg74
g3583
sg67
(lp3590
g3206
(S's\r\x00\x00\x00Documentation'
tRp3591
asbasbasbag60
(g76
g62
NtRp3592
(dp3593
g65
(dp3594
sg74
g3575
sg67
(lp3595
g60
(g81
g62
NtRp3596
(dp3597
g65
(dp3598
sg74
g3592
sg67
(lp3599
g60
(g61
g62
NtRp3600
(dp3601
g65
(dp3602
g73
I1
ssg74
g3596
sg67
(lp3603
I00
asbasbasbag60
(g76
g62
NtRp3604
(dp3605
g65
(dp3606
sg74
g3575
sg67
(lp3607
g60
(g81
g62
NtRp3608
(dp3609
g65
(dp3610
sg74
g3604
sg67
(lp3611
g60
(g61
g62
NtRp3612
(dp3613
g65
(dp3614
g73
I1
ssg74
g3608
sg67
(lp3615
S'http://www.web2py.com/book'
p3616
asbasbasbag60
(g76
g62
NtRp3617
(dp3618
g65
(dp3619
sg74
g3575
sg67
(lp3620
g60
(g81
g62
NtRp3621
(dp3622
g65
(dp3623
sg74
g3617
sg67
(lp3624
g60
(g61
g62
NtRp3625
(dp3626
g65
(dp3627
g73
I1
ssg74
g3621
sg67
(lp3628
(lp3629
(g3206
(S's\x07\x00\x00\x00Preface'
tRp3630
I00
S'http://www.web2py.com/book/default/chapter/00'
p3631
tp3632
a(g3206
(S's\x0c\x00\x00\x00Introduction'
tRp3633
I00
S'http://www.web2py.com/book/default/chapter/01'
p3634
tp3635
a(g3206
(S's\x06\x00\x00\x00Python'
tRp3636
I00
S'http://www.web2py.com/book/default/chapter/02'
p3637
tp3638
a(g3206
(S's\x08\x00\x00\x00Overview'
tRp3639
I00
S'http://www.web2py.com/book/default/chapter/03'
p3640
tp3641
a(g3206
(S's\x08\x00\x00\x00The Core'
tRp3642
I00
S'http://www.web2py.com/book/default/chapter/04'
p3643
tp3644
a(g3206
(S's\t\x00\x00\x00The Views'
tRp3645
I00
S'http://www.web2py.com/book/default/chapter/05'
p3646
tp3647
a(g3206
(S's\x08\x00\x00\x00Database'
tRp3648
I00
S'http://www.web2py.com/book/default/chapter/06'
p3649
tp3650
a(g3206
(S's\x14\x00\x00\x00Forms and Validators'
tRp3651
I00
S'http://www.web2py.com/book/default/chapter/07'
p3652
tp3653
a(g3206
(S's\r\x00\x00\x00Email and SMS'
tRp3654
I00
S'http://www.web2py.com/book/default/chapter/08'
p3655
tp3656
a(g3206
(S's\x0e\x00\x00\x00Access Control'
tRp3657
I00
S'http://www.web2py.com/book/default/chapter/09'
p3658
tp3659
a(g3206
(S's\x08\x00\x00\x00Services'
tRp3660
I00
S'http://www.web2py.com/book/default/chapter/10'
p3661
tp3662
a(g3206
(S's\x0c\x00\x00\x00Ajax Recipes'
tRp3663
I00
S'http://www.web2py.com/book/default/chapter/11'
p3664
tp3665
a(g3206
(S's\x16\x00\x00\x00Components and Plugins'
tRp3666
I00
S'http://www.web2py.com/book/default/chapter/12'
p3667
tp3668
a(g3206
(S's\x12\x00\x00\x00Deployment Recipes'
tRp3669
I00
S'http://www.web2py.com/book/default/chapter/13'
p3670
tp3671
a(g3206
(S's\r\x00\x00\x00Other Recipes'
tRp3672
I00
S'http://www.web2py.com/book/default/chapter/14'
p3673
tp3674
a(g3206
(S's\r\x00\x00\x00Buy this book'
tRp3675
I00
S'http://stores.lulu.com/web2py'
p3676
tp3677
aasbasbasbasbasbasbasbag60
(g76
g62
NtRp3678
(dp3679
g65
(dp3680
sg74
g3320
sg67
(lp3681
g60
(g81
g62
NtRp3682
(dp3683
g65
(dp3684
sg74
g3678
sg67
(lp3685
g60
(g61
g62
NtRp3686
(dp3687
g65
(dp3688
g73
I2
ssg74
g3682
sg67
(lp3689
g60
(g69
g62
NtRp3690
(dp3691
g65
(dp3692
g73
I1
ssg74
Nsg67
(lp3693
g60
(g76
g62
NtRp3694
(dp3695
g65
(dp3696
sg74
g3690
sg67
(lp3697
g60
(g81
g62
NtRp3698
(dp3699
g65
(dp3700
sg74
g3694
sg67
(lp3701
g60
(g61
g62
NtRp3702
(dp3703
g65
(dp3704
g73
I1
ssg74
g3698
sg67
(lp3705
g3206
(S's\t\x00\x00\x00Community'
tRp3706
asbasbasbag60
(g76
g62
NtRp3707
(dp3708
g65
(dp3709
sg74
g3690
sg67
(lp3710
g60
(g81
g62
NtRp3711
(dp3712
g65
(dp3713
sg74
g3707
sg67
(lp3714
g60
(g61
g62
NtRp3715
(dp3716
g65
(dp3717
g73
I1
ssg74
g3711
sg67
(lp3718
I00
asbasbasbag60
(g76
g62
NtRp3719
(dp3720
g65
(dp3721
sg74
g3690
sg67
(lp3722
g60
(g81
g62
NtRp3723
(dp3724
g65
(dp3725
sg74
g3719
sg67
(lp3726
g60
(g61
g62
NtRp3727
(dp3728
g65
(dp3729
g73
I1
ssg74
g3723
sg67
(lp3730
Nasbasbasbag60
(g76
g62
NtRp3731
(dp3732
g65
(dp3733
sg74
g3690
sg67
(lp3734
g60
(g81
g62
NtRp3735
(dp3736
g65
(dp3737
sg74
g3731
sg67
(lp3738
g60
(g61
g62
NtRp3739
(dp3740
g65
(dp3741
g73
I1
ssg74
g3735
sg67
(lp3742
(lp3743
(g3206
(S's\x06\x00\x00\x00Groups'
tRp3744
I00
S'http://www.web2py.com/examples/default/usergroups'
p3745
tp3746
a(g3206
(S's\x07\x00\x00\x00Twitter'
tRp3747
I00
S'http://twitter.com/web2py'
p3748
tp3749
a(g3206
(S's\t\x00\x00\x00Live Chat'
tRp3750
I00
S'http://webchat.freenode.net/?channels=web2py'
p3751
tp3752
aasbasbasbasbasbasbasbag60
(g76
g62
NtRp3753
(dp3754
g65
(dp3755
sg74
g3320
sg67
(lp3756
g60
(g81
g62
NtRp3757
(dp3758
g65
(dp3759
sg74
g3753
sg67
(lp3760
g60
(g61
g62
NtRp3761
(dp3762
g65
(dp3763
g73
I2
ssg74
g3757
sg67
(lp3764
g60
(g69
g62
NtRp3765
(dp3766
g65
(dp3767
g73
I1
ssg74
Nsg67
(lp3768
g60
(g76
g62
NtRp3769
(dp3770
g65
(dp3771
sg74
g3765
sg67
(lp3772
g60
(g81
g62
NtRp3773
(dp3774
g65
(dp3775
sg74
g3769
sg67
(lp3776
g60
(g61
g62
NtRp3777
(dp3778
g65
(dp3779
g73
I1
ssg74
g3773
sg67
(lp3780
g3206
(S's\x07\x00\x00\x00Plugins'
tRp3781
asbasbasbag60
(g76
g62
NtRp3782
(dp3783
g65
(dp3784
sg74
g3765
sg67
(lp3785
g60
(g81
g62
NtRp3786
(dp3787
g65
(dp3788
sg74
g3782
sg67
(lp3789
g60
(g61
g62
NtRp3790
(dp3791
g65
(dp3792
g73
I1
ssg74
g3786
sg67
(lp3793
I00
asbasbasbag60
(g76
g62
NtRp3794
(dp3795
g65
(dp3796
sg74
g3765
sg67
(lp3797
g60
(g81
g62
NtRp3798
(dp3799
g65
(dp3800
sg74
g3794
sg67
(lp3801
g60
(g61
g62
NtRp3802
(dp3803
g65
(dp3804
g73
I1
ssg74
g3798
sg67
(lp3805
Nasbasbasbag60
(g76
g62
NtRp3806
(dp3807
g65
(dp3808
sg74
g3765
sg67
(lp3809
g60
(g81
g62
NtRp3810
(dp3811
g65
(dp3812
sg74
g3806
sg67
(lp3813
g60
(g61
g62
NtRp3814
(dp3815
g65
(dp3816
g73
I1
ssg74
g3810
sg67
(lp3817
(lp3818
(S'plugin_wiki'
p3819
I00
S'http://web2py.com/examples/default/download'
p3820
tp3821
a(g3206
(S's\r\x00\x00\x00Other Plugins'
tRp3822
I00
g3552
tp3823
a(g3206
(S's\x0e\x00\x00\x00Layout Plugins'
tRp3824
I00
g3555
tp3825
aasbasbasbasbasbasbasbasbasbasbasbasbasbasbasbasbasbasbasbag60
(g76
g62
NtRp3826
(dp3827
g65
(dp3828
sg74
g2670
sg67
(lp3829
g60
(g81
g62
NtRp3830
(dp3831
g65
(dp3832
g85
g86
ssg74
g3826
sg67
(lp3833
S'meta'
p3834
asbag60
(g81
g62
NtRp3835
(dp3836
g65
(dp3837
g92
g93
ssg74
g3826
sg67
(lp3838
S':'
asbag60
(g81
g62
NtRp3839
(dp3840
g65
(dp3841
sg74
g3826
sg67
(lp3842
g60
(g61
g62
NtRp3843
(dp3844
g65
(dp3845
g73
I5
ssg74
g3839
sg67
(lp3846
g60
(g69
g62
NtRp3847
(dp3848
g65
(dp3849
g73
I4
ssg74
Nsg67
(lp3850
g60
(g76
g62
NtRp3851
(dp3852
g65
(dp3853
sg74
g3847
sg67
(lp3854
g60
(g81
g62
NtRp3855
(dp3856
g65
(dp3857
g85
g86
ssg74
g3851
sg67
(lp3858
S'author'
p3859
asbag60
(g81
g62
NtRp3860
(dp3861
g65
(dp3862
g92
g93
ssg74
g3851
sg67
(lp3863
S':'
asbag60
(g81
g62
NtRp3864
(dp3865
g65
(dp3866
sg74
g3851
sg67
(lp3867
g60
(g61
g62
NtRp3868
(dp3869
g65
(dp3870
g73
I4
ssg74
g3864
sg67
(lp3871
S'Your Name <you@example.com>'
p3872
asbasbasbag60
(g76
g62
NtRp3873
(dp3874
g65
(dp3875
sg74
g3847
sg67
(lp3876
g60
(g81
g62
NtRp3877
(dp3878
g65
(dp3879
g85
g86
ssg74
g3873
sg67
(lp3880
S'copyright'
p3881
asbag60
(g81
g62
NtRp3882
(dp3883
g65
(dp3884
g92
g93
ssg74
g3873
sg67
(lp3885
S':'
asbag60
(g81
g62
NtRp3886
(dp3887
g65
(dp3888
sg74
g3873
sg67
(lp3889
g60
(g61
g62
NtRp3890
(dp3891
g65
(dp3892
g73
I4
ssg74
g3886
sg67
(lp3893
S'Copyright 2011'
p3894
asbasbasbag60
(g76
g62
NtRp3895
(dp3896
g65
(dp3897
sg74
g3847
sg67
(lp3898
g60
(g81
g62
NtRp3899
(dp3900
g65
(dp3901
g85
g86
ssg74
g3895
sg67
(lp3902
S'description'
p3903
asbag60
(g81
g62
NtRp3904
(dp3905
g65
(dp3906
g92
g93
ssg74
g3895
sg67
(lp3907
S':'
asbag60
(g81
g62
NtRp3908
(dp3909
g65
(dp3910
sg74
g3895
sg67
(lp3911
g60
(g61
g62
NtRp3912
(dp3913
g65
(dp3914
g73
I4
ssg74
g3908
sg67
(lp3915
S'a cool new app'
p3916
asbasbasbag60
(g76
g62
NtRp3917
(dp3918
g65
(dp3919
sg74
g3847
sg67
(lp3920
g60
(g81
g62
NtRp3921
(dp3922
g65
(dp3923
g85
g86
ssg74
g3917
sg67
(lp3924
S'generator'
p3925
asbag60
(g81
g62
NtRp3926
(dp3927
g65
(dp3928
g92
g93
ssg74
g3917
sg67
(lp3929
S':'
asbag60
(g81
g62
NtRp3930
(dp3931
g65
(dp3932
sg74
g3917
sg67
(lp3933
g60
(g61
g62
NtRp3934
(dp3935
g65
(dp3936
g73
I4
ssg74
g3930
sg67
(lp3937
S'Web2py Web Framework'
p3938
asbasbasbag60
(g76
g62
NtRp3939
(dp3940
g65
(dp3941
sg74
g3847
sg67
(lp3942
g60
(g81
g62
NtRp3943
(dp3944
g65
(dp3945
g85
g86
ssg74
g3939
sg67
(lp3946
S'keywords'
p3947
asbag60
(g81
g62
NtRp3948
(dp3949
g65
(dp3950
g92
g93
ssg74
g3939
sg67
(lp3951
S':'
asbag60
(g81
g62
NtRp3952
(dp3953
g65
(dp3954
sg74
g3939
sg67
(lp3955
g60
(g61
g62
NtRp3956
(dp3957
g65
(dp3958
g73
I4
ssg74
g3952
sg67
(lp3959
S'web2py, python, framework'
p3960
asbasbasbasbasbasbasbag60
(g76
g62
NtRp3961
(dp3962
g65
(dp3963
sg74
g2670
sg67
(lp3964
g60
(g81
g62
NtRp3965
(dp3966
g65
(dp3967
g85
g86
ssg74
g3961
sg67
(lp3968
S'postprocessing'
p3969
asbag60
(g81
g62
NtRp3970
(dp3971
g65
(dp3972
g92
g93
ssg74
g3961
sg67
(lp3973
S':'
asbag60
(g81
g62
NtRp3974
(dp3975
g65
(dp3976
sg74
g3961
sg67
(lp3977
g60
(g61
g62
NtRp3978
(dp3979
g65
(dp3980
g73
I5
ssg74
g3974
sg67
(lp3981
g60
(g69
g62
NtRp3982
(dp3983
g65
(dp3984
g73
I4
ssg74
Nsg67
(lp3985
sbasbasbasbag60
(g76
g62
NtRp3986
(dp3987
g65
(dp3988
sg74
g2670
sg67
(lp3989
g60
(g81
g62
NtRp3990
(dp3991
g65
(dp3992
g85
g86
ssg74
g3986
sg67
(lp3993
S'session_db'
p3994
asbag60
(g81
g62
NtRp3995
(dp3996
g65
(dp3997
g92
g93
ssg74
g3986
sg67
(lp3998
S':'
asbag60
(g81
g62
NtRp3999
(dp4000
g65
(dp4001
sg74
g3986
sg67
(lp4002
g60
(g61
g62
NtRp4003
(dp4004
g65
(dp4005
g73
I5
ssg74
g3999
sg67
(lp4006
g572
asbasbasbag60
(g76
g62
NtRp4007
(dp4008
g65
(dp4009
sg74
g2670
sg67
(lp4010
g60
(g81
g62
NtRp4011
(dp4012
g65
(dp4013
g85
g86
ssg74
g4007
sg67
(lp4014
S'session_id'
p4015
asbag60
(g81
g62
NtRp4016
(dp4017
g65
(dp4018
g92
g93
ssg74
g4007
sg67
(lp4019
S':'
asbag60
(g81
g62
NtRp4020
(dp4021
g65
(dp4022
sg74
g4007
sg67
(lp4023
g60
(g61
g62
NtRp4024
(dp4025
g65
(dp4026
g73
I5
ssg74
g4020
sg67
(lp4027
S'None:f2e17208-2d0e-4bf5-9355-ba7556dfcc5e'
p4028
asbasbasbag60
(g76
g62
NtRp4029
(dp4030
g65
(dp4031
sg74
g2670
sg67
(lp4032
g60
(g81
g62
NtRp4033
(dp4034
g65
(dp4035
g85
g86
ssg74
g4029
sg67
(lp4036
S'session_id_name'
p4037
asbag60
(g81
g62
NtRp4038
(dp4039
g65
(dp4040
g92
g93
ssg74
g4029
sg67
(lp4041
S':'
asbag60
(g81
g62
NtRp4042
(dp4043
g65
(dp4044
sg74
g4029
sg67
(lp4045
g60
(g61
g62
NtRp4046
(dp4047
g65
(dp4048
g73
I5
ssg74
g4042
sg67
(lp4049
S'session_id_init'
p4050
asbasbasbag60
(g76
g62
NtRp4051
(dp4052
g65
(dp4053
sg74
g2670
sg67
(lp4054
g60
(g81
g62
NtRp4055
(dp4056
g65
(dp4057
g85
g86
ssg74
g4051
sg67
(lp4058
S'status'
p4059
asbag60
(g81
g62
NtRp4060
(dp4061
g65
(dp4062
g92
g93
ssg74
g4051
sg67
(lp4063
S':'
asbag60
(g81
g62
NtRp4064
(dp4065
g65
(dp4066
sg74
g4051
sg67
(lp4067
g60
(g61
g62
NtRp4068
(dp4069
g65
(dp4070
g73
I5
ssg74
g4064
sg67
(lp4071
S'200'
p4072
asbasbasbag60
(g76
g62
NtRp4073
(dp4074
g65
(dp4075
sg74
g2670
sg67
(lp4076
g60
(g81
g62
NtRp4077
(dp4078
g65
(dp4079
g85
g86
ssg74
g4073
sg67
(lp4080
S'subtitle'
p4081
asbag60
(g81
g62
NtRp4082
(dp4083
g65
(dp4084
g92
g93
ssg74
g4073
sg67
(lp4085
S':'
asbag60
(g81
g62
NtRp4086
(dp4087
g65
(dp4088
sg74
g4073
sg67
(lp4089
g60
(g61
g62
NtRp4090
(dp4091
g65
(dp4092
g73
I5
ssg74
g4086
sg67
(lp4093
g3206
(S's\r\x00\x00\x00customize me!'
tRp4094
asbasbasbag60
(g76
g62
NtRp4095
(dp4096
g65
(dp4097
sg74
g2670
sg67
(lp4098
g60
(g81
g62
NtRp4099
(dp4100
g65
(dp4101
g85
g86
ssg74
g4095
sg67
(lp4102
S'title'
p4103
asbag60
(g81
g62
NtRp4104
(dp4105
g65
(dp4106
g92
g93
ssg74
g4095
sg67
(lp4107
S':'
asbag60
(g81
g62
NtRp4108
(dp4109
g65
(dp4110
sg74
g4095
sg67
(lp4111
g60
(g61
g62
NtRp4112
(dp4113
g65
(dp4114
g73
I5
ssg74
g4108
sg67
(lp4115
S'Init'
p4116
asbasbasbag60
(g76
g62
NtRp4117
(dp4118
g65
(dp4119
sg74
g2670
sg67
(lp4120
g60
(g81
g62
NtRp4121
(dp4122
g65
(dp4123
g85
g86
ssg74
g4117
sg67
(lp4124
g1953
asbag60
(g81
g62
NtRp4125
(dp4126
g65
(dp4127
g92
g93
ssg74
g4117
sg67
(lp4128
S':'
asbag60
(g81
g62
NtRp4129
(dp4130
g65
(dp4131
sg74
g4117
sg67
(lp4132
g60
(g61
g62
NtRp4133
(dp4134
g65
(dp4135
g73
I5
ssg74
g4129
sg67
(lp4136
g1966
asbasbasbag60
(g76
g62
NtRp4137
(dp4138
g65
(dp4139
sg74
g2670
sg67
(lp4140
g60
(g81
g62
NtRp4141
(dp4142
g65
(dp4143
g85
g86
ssg74
g4137
sg67
(lp4144
S'view'
p4145
asbag60
(g81
g62
NtRp4146
(dp4147
g65
(dp4148
g92
g93
ssg74
g4137
sg67
(lp4149
S':'
asbag60
(g81
g62
NtRp4150
(dp4151
g65
(dp4152
sg74
g4137
sg67
(lp4153
g60
(g61
g62
NtRp4154
(dp4155
g65
(dp4156
g73
I5
ssg74
g4150
sg67
(lp4157
S'default/index.html'
p4158
asbasbasbasbasbsS'locals'
p4159
(dp4160
g4
S"r'C:\\Users\\Bussiere\\Dropbox\\Projets\\jackpoint\\web2py\\applications\\init\\controllers/default.py'"
p4161
sg6
S"'# -*- coding: utf-8 -*-\\n# this file is released ...=crud())\\n\\nresponse._vars=response._caller(index)\\n'"
p4162
sssS'traceback'
p4163
S'Traceback (most recent call last):\n  File "gluon/restricted.py", line 204, in restricted\n  File "gluon/restricted.py", line 189, in compile2\n  File "C:\\Users\\Bussiere\\Dropbox\\Projets\\jackpoint\\web2py\\applications\\init\\controllers/default.py", line 138\n    coding: utf8\n   ^\nIndentationError: unexpected indent\n'
p4164
s.