(dp1
S'output'
p2
S"<type 'exceptions.AttributeError'> 'str' object has no attribute 'items'"
p3
sS'layer'
p4
S'C:\\Users\\Bussiere\\Dropbox\\Projets\\jackpoint\\web2py\\applications\\init\\controllers/default.py'
p5
sS'code'
p6
S'# -*- coding: utf-8 -*-\n# this file is released under public domain and you can use without limitations\n\n#########################################################################\n## This is a samples controller\n## - index is the default action of any application\n## - user is required for authentication and authorization\n## - download is for downloading files uploaded in the db (does streaming)\n## - call exposes all registered services (none by default)\n#########################################################################\n# Static analyzer import helpers: (STATIC_IMPORT_MARK)\nif 0: \n    import gluon\n    global cache; cache = gluon.cache.Cache()\n    global LOAD; LOAD  = gluon.compileapp.LoadFactory()\n    import gluon.compileapp.local_import_aux as local_import #@UnusedImport\n    from gluon.contrib.gql import GQLDB #@UnusedImport\n    from gluon.dal import Field #@UnusedImport\n    global request; request = gluon.globals.Request()\n    global response; response = gluon.globals.Response()\n    global session; session = gluon.globals.Session()\n    from gluon.html import A #@UnusedImport\n    from gluon.html import B #@UnusedImport\n    from gluon.html import BEAUTIFY #@UnusedImport\n    from gluon.html import BODY #@UnusedImport\n    from gluon.html import BR #@UnusedImport\n    from gluon.html import CENTER #@UnusedImport\n    from gluon.html import CODE #@UnusedImport\n    from gluon.html import DIV #@UnusedImport\n    from gluon.html import EM #@UnusedImport\n    from gluon.html import EMBED #@UnusedImport\n    from gluon.html import embed64 #@UnusedImport\n    from gluon.html import FIELDSET #@UnusedImport\n    from gluon.html import FORM #@UnusedImport\n    from gluon.html import H1 #@UnusedImport\n    from gluon.html import H2 #@UnusedImport\n    from gluon.html import H3 #@UnusedImport\n    from gluon.html import H4 #@UnusedImport\n    from gluon.html import H5 #@UnusedImport\n    from gluon.html import H6 #@UnusedImport\n    from gluon.html import HEAD #@UnusedImport\n    from gluon.html import HR #@UnusedImport\n    from gluon.html import HTML #@UnusedImport\n    from gluon.html import I #@UnusedImport\n    from gluon.html import IFRAME #@UnusedImport\n    from gluon.html import IMG #@UnusedImport\n    from gluon.html import INPUT #@UnusedImport\n    from gluon.html import LABEL #@UnusedImport\n    from gluon.html import LEGEND #@UnusedImport\n    from gluon.html import LI #@UnusedImport\n    from gluon.html import LINK #@UnusedImport\n    from gluon.html import MARKMIN #@UnusedImport\n    from gluon.html import MENU #@UnusedImport\n    from gluon.html import META #@UnusedImport\n    from gluon.html import OBJECT #@UnusedImport\n    from gluon.html import OL #@UnusedImport\n    from gluon.html import ON #@UnusedImport\n    from gluon.html import OPTGROUP #@UnusedImport\n    from gluon.html import OPTION #@UnusedImport\n    from gluon.html import P #@UnusedImport\n    from gluon.html import PRE #@UnusedImport\n    from gluon.html import STYLE #@UnusedImport\n    from gluon.html import SCRIPT #@UnusedImport\n    from gluon.html import SELECT #@UnusedImport\n    from gluon.html import SPAN #@UnusedImport\n    from gluon.html import TABLE #@UnusedImport\n    from gluon.html import TAG #@UnusedImport\n    from gluon.html import TBODY #@UnusedImport\n    from gluon.html import TD #@UnusedImport\n    from gluon.html import TEXTAREA #@UnusedImport\n    from gluon.html import TFOOT #@UnusedImport\n    from gluon.html import TH  #@UnusedImport\n    from gluon.html import THEAD #@UnusedImport\n    from gluon.html import TITLE #@UnusedImport\n    from gluon.html import TR #@UnusedImport\n    from gluon.html import TT #@UnusedImport\n    from gluon.html import UL #@UnusedImport\n    from gluon.html import URL #@UnusedImport\n    from gluon.html import XHTML #@UnusedImport\n    from gluon.html import XML #@UnusedImport\n    from gluon.html import xmlescape #@UnusedImport\n    from gluon.http import HTTP #@UnusedImport\n    from gluon.http import redirect #@UnusedImport\n    import gluon.languages.translator as T #@UnusedImport\n    from gluon.sql import DAL\n    global db; db = DAL()\n    from gluon.sql import SQLDB #@UnusedImport\n    from gluon.sql import SQLField #@UnusedImport\n    from gluon.sqlhtml import SQLFORM #@UnusedImport\n    from gluon.sqlhtml import SQLTABLE #@UnusedImport\n    from gluon.tools import  Auth\n    global auth; auth = Auth()\n    from gluon.tools import Crud\n    global crud; crud = Crud()\n    from gluon.tools import fetch #@UnusedImport\n    from gluon.tools import geocode #@UnusedImport\n    from gluon.tools import Mail\n    global mail; mail = Mail()\n    from gluon.tools import PluginManager\n    global plugins; plugins = PluginManager()\n    from gluon.tools import prettydate #@UnusedImport\n    from gluon.tools import Recaptcha #@UnusedImport\n    from gluon.tools import Service\n    global service; service = Service()\n    from gluon.validators import CLEANUP  #@UnusedImport\n    from gluon.validators import CRYPT #@UnusedImport\n    from gluon.validators import IS_ALPHANUMERIC #@UnusedImport\n    from gluon.validators import IS_DATE #@UnusedImport\n    from gluon.validators import IS_DATE_IN_RANGE #@UnusedImport\n    from gluon.validators import IS_DATETIME #@UnusedImport\n    from gluon.validators import IS_DATETIME_IN_RANGE #@UnusedImport\n    from gluon.validators import IS_DECIMAL_IN_RANGE #@UnusedImport\n    from gluon.validators import IS_EMAIL #@UnusedImport\n    from gluon.validators import IS_EMPTY_OR #@UnusedImport\n    from gluon.validators import IS_EQUAL_TO #@UnusedImport\n    from gluon.validators import IS_EXPR #@UnusedImport\n    from gluon.validators import IS_FLOAT_IN_RANGE #@UnusedImport\n    from gluon.validators import IS_IMAGE #@UnusedImport\n    from gluon.validators import IS_IN_DB #@UnusedImport\n    from gluon.validators import IS_IN_SET #@UnusedImport\n    from gluon.validators import IS_INT_IN_RANGE #@UnusedImport\n    from gluon.validators import IS_IPV4 #@UnusedImport\n    from gluon.validators import IS_LENGTH #@UnusedImport\n    from gluon.validators import IS_LIST_OF #@UnusedImport\n    from gluon.validators import IS_LOWER #@UnusedImport\n    from gluon.validators import IS_MATCH #@UnusedImport\n    from gluon.validators import IS_NOT_EMPTY #@UnusedImport\n    from gluon.validators import IS_NOT_IN_DB #@UnusedImport\n    from gluon.validators import IS_NULL_OR #@UnusedImport\n    from gluon.validators import IS_SLUG #@UnusedImport\n    from gluon.validators import IS_STRONG  #@UnusedImport\n    from gluon.validators import IS_TIME #@UnusedImport\n    from gluon.validators import IS_UPLOAD_FILENAME #@UnusedImport\n    from gluon.validators import IS_UPPER #@UnusedImpor\n\n\nimport random\n\nfrom gluon.storage import Storage\nsettings = Storage()\n\n\n\ndef index():\n    if auth.is_logged_in() :\n        return "You get the blue pills"\n    else :\n        return dict(form=auth.login(),faq=URL(\'faq\'))\n\n\n\ndef ensurefirstuser(firstname, lastname, email, password):\n  users = db(db.auth_user.email == email).select()\n  if users:\n    user_id = users[0].id\n    created = False\n    if settings.debug_ensure_first_user == True:\n      print (\'found user_id so created equals %s\') % created\n    return (user_id, created)\n\n  else:\n    my_crypt = CRYPT(key=auth.settings.hmac_key)\n    crypt_pass = my_crypt(password)[0]    \n    id_user = db.auth_user.insert(\n                   first_name=firstname,\n                   last_name=lastname,\n                   email=email,\n                   password=crypt_pass\n                                   )\n    created = True\n    if settings.debug_ensure_first_user == True:\n      print (\'creating user_id\')\n    return (id_user, created)\n\n    \n\n\ndef ensure_users():\n  user_id, created = _ensure_user(\'first\', \'last\', \'email@address.com\', \'UserPassword12345\')\n  if settings.debug_ensure_users == True:\n    print (\'user id %i\') % user_id\n    print (\'created %s\') % created\n\ndef ensure_group_role(role, description):\n  if not auth.id_group(role=role):  \n    auth.add_group(role=role, description=description)  \n    if settings.debug_ensure_group_role == True:\n      print (\'created role %s\') % (role)\n\ndef ensure_membership(group_id, user_id):\n  return_group_id = auth.add_membership(role=role, user_id=user_id)\n  if settings.debug_ensure_membership == True:\n    print (\'made user_id member of %s\') % (role)\n  return return_group_id\n \ndef ensure_permissions(role, description, user_id):\n  ensure_group_role(role, description)\n  return_group_id = ensure_membership(group_id, user_id)\n  if settings.debug_ensure_permissions == True:\n    print return_group_id\n\ndef generate_invitation(number,word=4,num=1,numdigit=5):\n    code = [\n[\'BELCHER\', \'FIX\', \'EEL\', \'PANZERBOY\', \'DESK_JOCKEY\', \'CHILLED\', \'ENFORCER\', \'CHERRY_PICKING\', \'COUNTRY_CLUB\', \'BOMBSHELL\', \'PLUGGED_IN\', \'FINI\', \'LEGIT\', \'JAM\', \'BONED_OUT\', \'BLADE\', \'ROUST\', \'SAMURAI\', \'DISK\', \'INPUT\', \'POST_TIME\', \'SOUNDS\', \'SKIP\', \'FLATBACKER\', \'WILSON\', \'SHOEMAKER\', \'DELTA_SIERRA\', \'HEART\', \'CROAK\', \'HEAD_HUNTER\', \'HOSHO_KAISHA\', "DELTA\'D", "\'FACE_(also,_FACE,_EYE-FACE,_I-FACE)", \'WEEFLE\', \'DIRTGIRL\', \'KEYBOARD\', \'BRAIN_BUCKET\', \'DRYING_OUT\', \'OVERCOOK\', \'PIG\', \'COLD_TEA\', \'RECONFIG\', \'PAD\', \'LIT_UP\', \'WRAITH\', \'HANDLE\', \'L.P.\', \'PINCH\', \'TAKE_A_CAB\', \'SPILL\', \'ACE_KOOL\', \'DO\', \'BIZ\', \'BROWNIE\', \'CANDLE_AND_BLOOD\', \'BLUEBOY\', \'UP_ON_IT\', \'BURN\', \'USER_INTERFACE\', \'HOB\', \'GYRO\', \'STUFFIT\', \'THATCH\', \'ICEBREAKER\', \'ZIP_GUN\', \'PETERMAN\', \'PLAY_DOUGH\', \'TREY-EIGHT\', \'SETTLE\', "CHIPPIN\'_IN", \'MEATBALL\', \'RAFFLES\', \'YUBITSUME\', \'CROAKER\', \'SUCKER_POCKETS\', \'L.A.M.A.\', \'GEEK\', \'BUTTONHEAD\'],\n[\'TAKE\', \'TEKIYA\', \'KURUMAKU\', \'BLOC\', \'GAT\', \'JOHATSU\', \'CRYSTAL\', \'A.I.\', \'ZEROED\', \'OVER_THE_SHOULDER\', \'GRAB_GEE\', \'PANZER\', \'GO_LEO\', \'WASHED\', \'I.C.E.\', \'COPSHOP\', \'COLLATERAL_DAMAGE\', \'BIG_DARK\', \'DOUBLE-DEUCE\', \'ZONEDANCE\', \'MARK\', \'COBBERS\', \'CHIMPIRA\', \'TRIADS\', \'SHANK\', \'FRAG\', \'BREATH_VAC\', "CHARLIE\'S_ANGEL", \'MULE\', \'BURNER\', "PACKIN\'", \'HOTDOGGER\', \'BOSOZOKU\', \'RIPPERDOC\', \'THIRDMAN\', \'MAXIMUM,_MAX\', \'CHOOH2_("CHOO")\', \'CRYO_MAX\', \'HEATER\', \'SHARK\', \'JOYGIRL\', \'GURENTAI\', \'BANDIT\', \'VENICE\', \'MIZU_SHOBAI\', \'PASTA_BOYS\', \'SQUID\', \'CYBERED_UP\', \'DEAD_RECKONING\', \'POPSICLE\', \'FAUST\', \'COLLARBOY\', \'SHOES\', \'TORCH\', \'DELTAJOCK\', \'BUTTERFLY_MAN\', \'WISE_GUYS\', \'BOOST\', \'CAIN\', \'FOUR-FIVE\', \'BREAK-DOWN\', \'POLYMER_ONE-SHOT\', \'FLAG\', \'CALL_GIRL\', \'IN_THE_HUNT\', \'HYDRO\', \'DOCK\', \'FENCE\', \'SHAIKUJIN\', \'GOMI\', \'FILTER\', \'SAINT_NICK\', \'LINEFOOT\', \'CAVALRY\', \'PUKE\', \'CONVERSION\', \'FINGER\', \'CONTRACT\'],\n[\'PLASTIC\', \'CRYSTALJOCKEY,_CRYSTALJOCK\', \'SCREW\', \'TOYSTORE\', \'DREAM_TIME\', \'EXOTIC\', \'WALKABOUT\', \'DIAMOND_SEASON\', \'SARAKIN\', \'CHRISTMAS_BUNDLES\', \'SHADES\', \'BUTTON_MAN\', \'FOXTROT_UNIFORM\', \'KAI\', \'UNDER_THE_PAINT\', \'MINIMUM\', \'TRIPLE_A\', \'PIG_ON_A_WHEEL\', \'BAG_MAN\', \'DIP\', \'PIGEONS\', \'MAN\', \'ADAM_HENRY\', \'HIGH\', \'HEAT\', \'NINJO\', \'KNIFE_FIGHT\', \'MOUTHPIECE\', \'AGRIPLEX\', \'DATA_TERM\', \'LIZ\', \'CHROMER\', \'OUTPUT\', \'N.O.E.\', \'CLOSE_A_CONTRACT\', \'LASSIE\', \'FLATLINE\', \'CHIV\', \'SING\', \'AMMO\', \'RAT\', \'MATCHBOX\', \'PULL_AN_ASH\', \'BORYOKUDAN\', \'SQUEEZE\', \'RONIN\', \'HIT\', \'RAGS\', \'TAKE_OUT\', \'BEAT_THE_RAP\', \'GIRI\', \'RUNNING_THE_LINE\', \'HARNESS\', \'GRAVEROBBER\', \'DROP_A_DIME\', \'BADGE_ON_A_BEAVER\', \'FLETCHER\', \'AMPED-OUT\', \'NEUTRALIZE\', \'PETER\', \'CONFIG\', \'HARDFIRE\', \'B.A.M.A.\', \'CHROMATIC_ROCK\', \'MOLDED\', \'RAD\', \'CREASED\', \'CHATTER_BOX\', \'HAND_CANNON\', \'NIPPERS\', \'SIERRA_HOTEL\', \'HOOK_UP\', \'-JOCKEY,_-JOCK\', \'BUG\', \'BATMAN_AND_ROBIN\', \'BLACK_OPERATIONS\', "D.C.\'S", \'SO_KA\'],\n[\'_A.A.A.\', \'HOME_PLATE\', \'LITEJACK\', \'PINEAPPLE\', \'MAKE\', \'THE_STREET\', \'SITREP\', \'HANGING_PAPER\', \'PAINT_BOYS\', \'WETWORK\', \'NINER\', \'BOOKIE\', \'WHIPLASH\', \'TORPEDO\', \'HEATWAVE\', \'SOLAR_WIND\', \'QUIFF\', \'BIKE\', \'TRAFFIC\', \'WIRE_ROOM\', \'OYABUN\', \'COWBOY\', \'KOBUN\', \'MUDBOY\', \'COP_OUT\', \'SOKAIYA\', "\'DORPH", \'JOYBOY\', \'DIRTY\', \'BOAT\', \'DROP\', \'GRAV_or_GEE\', \'APOGEE\', \'BOOSTER\', \'BOOK\', \'FRY\', \'PULLING_TEETH\', \'ONE_LARGE\', \'COMBAT_DRUGS\', \'THRASH\', \'DO_A_GHOST\', \'DELTA\', \'RIN_TIN_TIN\', \'DROP_OUT\', \'GUMI\', \'ROCKERBOY/GIRL\', \'BULLET\', \'DEB\', \'THREADING_THE_NEEDLE\', \'MOTOR\', \'BLEEDER\', \'ARC\', \'BOPPER\', \'WASTE\', \'_DEMUKAI\', \'BREAK\', \'HOLDING_DOWN\', \'FEDS\', \'GAP\', \'RABBI\', \'BAKUTO\', \'CHOMBATTA_(CHOOMBA)\', \'BIG_HATS\', \'MR._JOHNSON\', \'EXEC\', \'BULL\', \'BULLSEYE\', \'POSERGANG\', \'CHAOL\', \'GEISHA\', \'SLAMMIT_ON\', \'POP_CAPS\', \'HARD_TIME\', \'BENJI\', \'MAKING_BANK\', \'PAPERHANGER\', \'NETRUN\', \'BOGEY\'],\n]     \n    i = 0\n    invits = []\n    print number\n    while (i < number):\n        invit = ""\n        j = 0\n        while (j < word):\n            debut = random.randint(0,len(code)-1)\n            codepick = code[debut][random.randint(0,len(code[debut])-1)]\n            j += 1\n            invit += codepick+"-"\n        j = 0\n        while (j < num):\n            invit += randomdig(numdigit)+"-"\n            j += 1\n        i+= 1\n        invit = invit[:-1]\n        if invit not in invits :\n            invits.append(invit[:-1])\n            print invit\n    return invits\n        \ndef randomdig(number):\n    max = "9"*number\n    max = int(max)\n    rand =  random.randint(0,max)\n    rand = str(rand)\n    rand = "0"*(number-len(rand))+rand\n    return rand\n\n@auth.requires_login()\ndef inscription():\n    form = SQLFORM(db[auth.settings.table_user_name])\n    return dict(form=form)\n\ndef liste_invitations():\n    return dict(rows = db().select(db.Invitation.ALL))\n\n#@auth.requires_membership(\'manager\')\ndef generate_invitationpage():\n   form=FORM("Nombre d\'invit a g\xc3\xa9n\xc3\xa9rer:", INPUT(_name=\'nmbreinvit\'), INPUT(_type=\'submit\'))\n   if form.process().accepted:\n       i = form.vars.nmbreinvit\n       invitsgenere = generate_invitation(int(i))\n       for invit in invitsgenere :\n           db.Invitation.insert(Code=invit)\n           db.commit()\n       session.flash = \'invitation inserted\'\n       form=FORM("Nombre d\'invit a g\xc3\xa9n\xc3\xa9rer:", INPUT(_name=\'nmbreinvit\'), INPUT(_type=\'submit\'))\n       #db.Invitation.insert(Code="Toto-5542")\n       db.commit()\n   return dict(form=form)\n\ndef verif_invitation(form):\n    if len(db(db.Invitation.Code==form.vars.invitation).select()) != 1 :\n        form.errors(\'code invitation incorrect\')\n\n\ndef invitation():\n    form=FORM("Code Invitation :", INPUT(_name=\'invitation\'),INPUT(_name=\'email\'),  INPUT(_type=\'submit\'))\n    if form.process(onvalidation=verif_invitation) :\n        user = "" #ensure_first_user("john","doe",form.vars.email,form.vars.invitation)\xe2\x80\x8b\n        auth.user = Storage(auth.settings.table_user._filter_fields(user, id=True))\n        auth.environment.session.auth = Storage(user=user, last_visit=request.now,\n                                            expiration=auth.settings.expiration)\n        redirect(URL(\'inscription\'))\n    return dict(form=form)\n\ndef faq():\n\n    return dict()\ndef user():\n    """\n    exposes:\n    http://..../[app]/default/user/login\n    http://..../[app]/default/user/logout\n    http://..../[app]/default/user/register\n    http://..../[app]/default/user/profile\n    http://..../[app]/default/user/retrieve_password\n    http://..../[app]/default/user/change_password\n    use @auth.requires_login()\n        @auth.requires_membership(\'group name\')\n        @auth.requires_permission(\'read\',\'table name\',record_id)\n    to decorate functions that need access control\n    """\n    return dict(form=auth())\n\n\ndef download():\n    """\n    allows downloading of uploaded files\n    http://..../[app]/default/download/[filename]\n    """\n    return response.download(request,db)\n\n\ndef call():\n    """\n    exposes services. for example:\n    http://..../[app]/default/call/jsonrpc\n    decorate with @services.jsonrpc the functions to expose\n    supports xml, json, xmlrpc, jsonrpc, amfrpc, rss, csv\n    """\n    return service()\n\n\n@auth.requires_signature()\ndef data():\n    """\n    http://..../[app]/default/data/tables\n    http://..../[app]/default/data/create/[table]\n    http://..../[app]/default/data/read/[table]/[id]\n    http://..../[app]/default/data/update/[table]/[id]\n    http://..../[app]/default/data/delete/[table]/[id]\n    http://..../[app]/default/data/select/[table]\n    http://..../[app]/default/data/search/[table]\n    but URLs must be signed, i.e. linked with\n      A(\'table\',_href=URL(\'data/tables\',user_signature=True))\n    or with the signed load operator\n      LOAD(\'default\',\'data.load\',args=\'tables\',ajax=True,user_signature=True)\n    """\n    return dict(form=crud())\n\nresponse._vars=response._caller(invitation)\n'
p7
sS'snapshot'
p8
(dp9
S'exception'
p10
(dp11
S'__hash__'
p12
S"<method-wrapper '__hash__' of exceptions.AttributeError object at 0x0413F940>"
p13
sS'__setattr__'
p14
S"<method-wrapper '__setattr__' of exceptions.AttributeError object at 0x0413F940>"
p15
sS'__reduce_ex__'
p16
S'<built-in method __reduce_ex__ of exceptions.AttributeError object at 0x0413F940>'
p17
sS'__getslice__'
p18
S"<method-wrapper '__getslice__' of exceptions.AttributeError object at 0x0413F940>"
p19
sS'__getitem__'
p20
S"<method-wrapper '__getitem__' of exceptions.AttributeError object at 0x0413F940>"
p21
sS'__setstate__'
p22
S'<built-in method __setstate__ of exceptions.AttributeError object at 0x0413F940>'
p23
sS'__reduce__'
p24
S'<built-in method __reduce__ of exceptions.AttributeError object at 0x0413F940>'
p25
sS'__str__'
p26
S"<method-wrapper '__str__' of exceptions.AttributeError object at 0x0413F940>"
p27
sS'args'
p28
S'("\'str\' object has no attribute \'items\'",)'
p29
sS'__getattribute__'
p30
S"<method-wrapper '__getattribute__' of exceptions.AttributeError object at 0x0413F940>"
p31
sS'__class__'
p32
S"<type 'exceptions.AttributeError'>"
p33
sS'__delattr__'
p34
S"<method-wrapper '__delattr__' of exceptions.AttributeError object at 0x0413F940>"
p35
sS'__repr__'
p36
S"<method-wrapper '__repr__' of exceptions.AttributeError object at 0x0413F940>"
p37
sS'__dict__'
p38
S'{}'
p39
sS'__doc__'
p40
S"'Attribute not found.'"
p41
sS'__init__'
p42
S"<method-wrapper '__init__' of exceptions.AttributeError object at 0x0413F940>"
p43
sS'__new__'
p44
S'<built-in method __new__ of type object at 0x1E1CDA68>'
p45
ssS'evalue'
p46
S"'str' object has no attribute 'items'"
p47
sS'request'
p48
ccopy_reg
_reconstructor
p49
(cgluon.html
BEAUTIFY
p50
c__builtin__
object
p51
NtRp52
(dp53
S'attributes'
p54
(dp55
sS'components'
p56
(lp57
g49
(cgluon.html
TABLE
p58
g51
NtRp59
(dp60
g54
(dp61
S'level'
p62
I5
ssS'parent'
p63
Nsg56
(lp64
g49
(cgluon.html
TR
p65
g51
NtRp66
(dp67
g54
(dp68
sg63
g59
sg56
(lp69
g49
(cgluon.html
TD
p70
g51
NtRp71
(dp72
g54
(dp73
S'_style'
p74
S'font-weight:bold;vertical-align:top'
p75
ssg63
g66
sg56
(lp76
S'ajax'
p77
asbag49
(g70
g51
NtRp78
(dp79
g54
(dp80
S'_valign'
p81
S'top'
p82
ssg63
g66
sg56
(lp83
S':'
asbag49
(g70
g51
NtRp84
(dp85
g54
(dp86
sg63
g66
sg56
(lp87
g49
(g50
g51
NtRp88
(dp89
g54
(dp90
g62
I5
ssg63
g84
sg56
(lp91
S'False'
p92
asbasbasbag49
(g65
g51
NtRp93
(dp94
g54
(dp95
sg63
g59
sg56
(lp96
g49
(g70
g51
NtRp97
(dp98
g54
(dp99
g74
g75
ssg63
g93
sg56
(lp100
S'application'
p101
asbag49
(g70
g51
NtRp102
(dp103
g54
(dp104
g81
g82
ssg63
g93
sg56
(lp105
S':'
asbag49
(g70
g51
NtRp106
(dp107
g54
(dp108
sg63
g93
sg56
(lp109
g49
(g50
g51
NtRp110
(dp111
g54
(dp112
g62
I5
ssg63
g106
sg56
(lp113
S'init'
p114
asbasbasbag49
(g65
g51
NtRp115
(dp116
g54
(dp117
sg63
g59
sg56
(lp118
g49
(g70
g51
NtRp119
(dp120
g54
(dp121
g74
g75
ssg63
g115
sg56
(lp122
g28
asbag49
(g70
g51
NtRp123
(dp124
g54
(dp125
g81
g82
ssg63
g115
sg56
(lp126
S':'
asbag49
(g70
g51
NtRp127
(dp128
g54
(dp129
sg63
g115
sg56
(lp130
g49
(g50
g51
NtRp131
(dp132
g54
(dp133
g62
I5
ssg63
g127
sg56
(lp134
g49
(g58
g51
NtRp135
(dp136
g54
(dp137
g62
I4
ssg63
Nsg56
(lp138
sbasbasbasbag49
(g65
g51
NtRp139
(dp140
g54
(dp141
sg63
g59
sg56
(lp142
g49
(g70
g51
NtRp143
(dp144
g54
(dp145
g74
g75
ssg63
g139
sg56
(lp146
S'body'
p147
asbag49
(g70
g51
NtRp148
(dp149
g54
(dp150
g81
g82
ssg63
g139
sg56
(lp151
S':'
asbag49
(g70
g51
NtRp152
(dp153
g54
(dp154
sg63
g139
sg56
(lp155
g49
(g50
g51
NtRp156
(dp157
g54
(dp158
g62
I5
ssg63
g152
sg56
(lp159
S'<cStringIO.StringO object at 0x0468E5A0>'
p160
asbasbasbag49
(g65
g51
NtRp161
(dp162
g54
(dp163
sg63
g59
sg56
(lp164
g49
(g70
g51
NtRp165
(dp166
g54
(dp167
g74
g75
ssg63
g161
sg56
(lp168
S'client'
p169
asbag49
(g70
g51
NtRp170
(dp171
g54
(dp172
g81
g82
ssg63
g161
sg56
(lp173
S':'
asbag49
(g70
g51
NtRp174
(dp175
g54
(dp176
sg63
g161
sg56
(lp177
g49
(g50
g51
NtRp178
(dp179
g54
(dp180
g62
I5
ssg63
g174
sg56
(lp181
S'127.0.0.1'
p182
asbasbasbag49
(g65
g51
NtRp183
(dp184
g54
(dp185
sg63
g59
sg56
(lp186
g49
(g70
g51
NtRp187
(dp188
g54
(dp189
g74
g75
ssg63
g183
sg56
(lp190
S'controller'
p191
asbag49
(g70
g51
NtRp192
(dp193
g54
(dp194
g81
g82
ssg63
g183
sg56
(lp195
S':'
asbag49
(g70
g51
NtRp196
(dp197
g54
(dp198
sg63
g183
sg56
(lp199
g49
(g50
g51
NtRp200
(dp201
g54
(dp202
g62
I5
ssg63
g196
sg56
(lp203
S'default'
p204
asbasbasbag49
(g65
g51
NtRp205
(dp206
g54
(dp207
sg63
g59
sg56
(lp208
g49
(g70
g51
NtRp209
(dp210
g54
(dp211
g74
g75
ssg63
g205
sg56
(lp212
S'cookies'
p213
asbag49
(g70
g51
NtRp214
(dp215
g54
(dp216
g81
g82
ssg63
g205
sg56
(lp217
S':'
asbag49
(g70
g51
NtRp218
(dp219
g54
(dp220
sg63
g205
sg56
(lp221
g49
(g50
g51
NtRp222
(dp223
g54
(dp224
g62
I5
ssg63
g218
sg56
(lp225
g49
(g58
g51
NtRp226
(dp227
g54
(dp228
g62
I4
ssg63
Nsg56
(lp229
g49
(g65
g51
NtRp230
(dp231
g54
(dp232
sg63
g226
sg56
(lp233
g49
(g70
g51
NtRp234
(dp235
g54
(dp236
g74
g75
ssg63
g230
sg56
(lp237
S'session_id_init'
p238
asbag49
(g70
g51
NtRp239
(dp240
g54
(dp241
g81
g82
ssg63
g230
sg56
(lp242
S':'
asbag49
(g70
g51
NtRp243
(dp244
g54
(dp245
sg63
g230
sg56
(lp246
g49
(g50
g51
NtRp247
(dp248
g54
(dp249
g62
I4
ssg63
g243
sg56
(lp250
g49
(g58
g51
NtRp251
(dp252
g54
(dp253
g62
I3
ssg63
Nsg56
(lp254
g49
(g65
g51
NtRp255
(dp256
g54
(dp257
sg63
g251
sg56
(lp258
g49
(g70
g51
NtRp259
(dp260
g54
(dp261
g74
g75
ssg63
g255
sg56
(lp262
S'comment'
p263
asbag49
(g70
g51
NtRp264
(dp265
g54
(dp266
g81
g82
ssg63
g255
sg56
(lp267
S':'
asbag49
(g70
g51
NtRp268
(dp269
g54
(dp270
sg63
g255
sg56
(lp271
g49
(g50
g51
NtRp272
(dp273
g54
(dp274
g62
I3
ssg63
g268
sg56
(lp275
S''
asbasbasbag49
(g65
g51
NtRp276
(dp277
g54
(dp278
sg63
g251
sg56
(lp279
g49
(g70
g51
NtRp280
(dp281
g54
(dp282
g74
g75
ssg63
g276
sg56
(lp283
S'domain'
p284
asbag49
(g70
g51
NtRp285
(dp286
g54
(dp287
g81
g82
ssg63
g276
sg56
(lp288
S':'
asbag49
(g70
g51
NtRp289
(dp290
g54
(dp291
sg63
g276
sg56
(lp292
g49
(g50
g51
NtRp293
(dp294
g54
(dp295
g62
I3
ssg63
g289
sg56
(lp296
S''
asbasbasbag49
(g65
g51
NtRp297
(dp298
g54
(dp299
sg63
g251
sg56
(lp300
g49
(g70
g51
NtRp301
(dp302
g54
(dp303
g74
g75
ssg63
g297
sg56
(lp304
S'expires'
p305
asbag49
(g70
g51
NtRp306
(dp307
g54
(dp308
g81
g82
ssg63
g297
sg56
(lp309
S':'
asbag49
(g70
g51
NtRp310
(dp311
g54
(dp312
sg63
g297
sg56
(lp313
g49
(g50
g51
NtRp314
(dp315
g54
(dp316
g62
I3
ssg63
g310
sg56
(lp317
S''
asbasbasbag49
(g65
g51
NtRp318
(dp319
g54
(dp320
sg63
g251
sg56
(lp321
g49
(g70
g51
NtRp322
(dp323
g54
(dp324
g74
g75
ssg63
g318
sg56
(lp325
S'max-age'
p326
asbag49
(g70
g51
NtRp327
(dp328
g54
(dp329
g81
g82
ssg63
g318
sg56
(lp330
S':'
asbag49
(g70
g51
NtRp331
(dp332
g54
(dp333
sg63
g318
sg56
(lp334
g49
(g50
g51
NtRp335
(dp336
g54
(dp337
g62
I3
ssg63
g331
sg56
(lp338
S''
asbasbasbag49
(g65
g51
NtRp339
(dp340
g54
(dp341
sg63
g251
sg56
(lp342
g49
(g70
g51
NtRp343
(dp344
g54
(dp345
g74
g75
ssg63
g339
sg56
(lp346
S'path'
p347
asbag49
(g70
g51
NtRp348
(dp349
g54
(dp350
g81
g82
ssg63
g339
sg56
(lp351
S':'
asbag49
(g70
g51
NtRp352
(dp353
g54
(dp354
sg63
g339
sg56
(lp355
g49
(g50
g51
NtRp356
(dp357
g54
(dp358
g62
I3
ssg63
g352
sg56
(lp359
S''
asbasbasbag49
(g65
g51
NtRp360
(dp361
g54
(dp362
sg63
g251
sg56
(lp363
g49
(g70
g51
NtRp364
(dp365
g54
(dp366
g74
g75
ssg63
g360
sg56
(lp367
S'secure'
p368
asbag49
(g70
g51
NtRp369
(dp370
g54
(dp371
g81
g82
ssg63
g360
sg56
(lp372
S':'
asbag49
(g70
g51
NtRp373
(dp374
g54
(dp375
sg63
g360
sg56
(lp376
g49
(g50
g51
NtRp377
(dp378
g54
(dp379
g62
I3
ssg63
g373
sg56
(lp380
S''
asbasbasbag49
(g65
g51
NtRp381
(dp382
g54
(dp383
sg63
g251
sg56
(lp384
g49
(g70
g51
NtRp385
(dp386
g54
(dp387
g74
g75
ssg63
g381
sg56
(lp388
S'version'
p389
asbag49
(g70
g51
NtRp390
(dp391
g54
(dp392
g81
g82
ssg63
g381
sg56
(lp393
S':'
asbag49
(g70
g51
NtRp394
(dp395
g54
(dp396
sg63
g381
sg56
(lp397
g49
(g50
g51
NtRp398
(dp399
g54
(dp400
g62
I3
ssg63
g394
sg56
(lp401
S''
asbasbasbasbasbasbasbasbasbasbasbag49
(g65
g51
NtRp402
(dp403
g54
(dp404
sg63
g59
sg56
(lp405
g49
(g70
g51
NtRp406
(dp407
g54
(dp408
g74
g75
ssg63
g402
sg56
(lp409
S'env'
p410
asbag49
(g70
g51
NtRp411
(dp412
g54
(dp413
g81
g82
ssg63
g402
sg56
(lp414
S':'
asbag49
(g70
g51
NtRp415
(dp416
g54
(dp417
sg63
g402
sg56
(lp418
g49
(g50
g51
NtRp419
(dp420
g54
(dp421
g62
I5
ssg63
g415
sg56
(lp422
g49
(g58
g51
NtRp423
(dp424
g54
(dp425
g62
I4
ssg63
Nsg56
(lp426
g49
(g65
g51
NtRp427
(dp428
g54
(dp429
sg63
g423
sg56
(lp430
g49
(g70
g51
NtRp431
(dp432
g54
(dp433
g74
g75
ssg63
g427
sg56
(lp434
S'app_folders'
p435
asbag49
(g70
g51
NtRp436
(dp437
g54
(dp438
g81
g82
ssg63
g427
sg56
(lp439
S':'
asbag49
(g70
g51
NtRp440
(dp441
g54
(dp442
sg63
g427
sg56
(lp443
g49
(g50
g51
NtRp444
(dp445
g54
(dp446
g62
I4
ssg63
g440
sg56
(lp447
S"set(['C:\\\\Users\\\\Bussiere\\\\Dropbox\\\\Projets\\\\jackpoint\\\\web2py\\\\applications\\\\init\\\\', 'C:\\\\Users\\\\Bussiere\\\\Dropbox\\\\Projets\\\\jackpoint\\\\web2py\\\\applications\\\\admin\\\\'])"
p448
asbasbasbag49
(g65
g51
NtRp449
(dp450
g54
(dp451
sg63
g423
sg56
(lp452
g49
(g70
g51
NtRp453
(dp454
g54
(dp455
g74
g75
ssg63
g449
sg56
(lp456
S'applications_parent'
p457
asbag49
(g70
g51
NtRp458
(dp459
g54
(dp460
g81
g82
ssg63
g449
sg56
(lp461
S':'
asbag49
(g70
g51
NtRp462
(dp463
g54
(dp464
sg63
g449
sg56
(lp465
g49
(g50
g51
NtRp466
(dp467
g54
(dp468
g62
I4
ssg63
g462
sg56
(lp469
S'C:\\Users\\Bussiere\\Dropbox\\Projets\\jackpoint\\web2py'
p470
asbasbasbag49
(g65
g51
NtRp471
(dp472
g54
(dp473
sg63
g423
sg56
(lp474
g49
(g70
g51
NtRp475
(dp476
g54
(dp477
g74
g75
ssg63
g471
sg56
(lp478
S'cmd_args'
p479
asbag49
(g70
g51
NtRp480
(dp481
g54
(dp482
g81
g82
ssg63
g471
sg56
(lp483
S':'
asbag49
(g70
g51
NtRp484
(dp485
g54
(dp486
sg63
g471
sg56
(lp487
g49
(g50
g51
NtRp488
(dp489
g54
(dp490
g62
I4
ssg63
g484
sg56
(lp491
g49
(g58
g51
NtRp492
(dp493
g54
(dp494
g62
I3
ssg63
Nsg56
(lp495
sbasbasbasbag49
(g65
g51
NtRp496
(dp497
g54
(dp498
sg63
g423
sg56
(lp499
g49
(g70
g51
NtRp500
(dp501
g54
(dp502
g74
g75
ssg63
g496
sg56
(lp503
S'cmd_options'
p504
asbag49
(g70
g51
NtRp505
(dp506
g54
(dp507
g81
g82
ssg63
g496
sg56
(lp508
S':'
asbag49
(g70
g51
NtRp509
(dp510
g54
(dp511
sg63
g496
sg56
(lp512
g49
(g50
g51
NtRp513
(dp514
g54
(dp515
g62
I4
ssg63
g509
sg56
(lp516
S"<Values at 0x3e15fa8: {'verbose': False, 'ip': '127.0.0.1', 'shutdown_timeout': 5, 'taskbar': False, 'nocron': False, 'pid_filename': 'httpserver.pid', 'maxthreads': None, 'softcron': False, 'server_name': 'Batou', 'bpython': False, 'nogui': False, 'port': 8000, 'extcron': False, 'debuglevel': 30, 'test': None, 'folder': 'C:\\\\Users\\\\Bussiere\\\\Dropbox\\\\Projets\\\\jackpoint\\\\web2py', 'config': '', 'import_models': False, 'winservice': '', 'shell': None, 'run': '', 'log_filename': 'httpserver.log', 'args': [''], 'socket_timeout': 5, 'ssl_ca_certificate': None, 'scheduler': None, 'profiler_filename': None, 'ssl_private_key': '', 'password': '<ask>', 'request_queue_size': 5, 'ssl_certificate': '', 'cronjob': False, 'numthreads': None, 'quiet': False, 'interfaces': None, 'minthreads': None, 'timeout': 10, 'plain': False, 'nobanner': False}>"
p517
asbasbasbag49
(g65
g51
NtRp518
(dp519
g54
(dp520
sg63
g423
sg56
(lp521
g49
(g70
g51
NtRp522
(dp523
g54
(dp524
g74
g75
ssg63
g518
sg56
(lp525
S'db_sessions'
p526
asbag49
(g70
g51
NtRp527
(dp528
g54
(dp529
g81
g82
ssg63
g518
sg56
(lp530
S':'
asbag49
(g70
g51
NtRp531
(dp532
g54
(dp533
sg63
g518
sg56
(lp534
g49
(g50
g51
NtRp535
(dp536
g54
(dp537
g62
I4
ssg63
g531
sg56
(lp538
S"set(['init'])"
p539
asbasbasbag49
(g65
g51
NtRp540
(dp541
g54
(dp542
sg63
g423
sg56
(lp543
g49
(g70
g51
NtRp544
(dp545
g54
(dp546
g74
g75
ssg63
g540
sg56
(lp547
S'debugging'
p548
asbag49
(g70
g51
NtRp549
(dp550
g54
(dp551
g81
g82
ssg63
g540
sg56
(lp552
S':'
asbag49
(g70
g51
NtRp553
(dp554
g54
(dp555
sg63
g540
sg56
(lp556
g49
(g50
g51
NtRp557
(dp558
g54
(dp559
g62
I4
ssg63
g553
sg56
(lp560
S'True'
p561
asbasbasbag49
(g65
g51
NtRp562
(dp563
g54
(dp564
sg63
g423
sg56
(lp565
g49
(g70
g51
NtRp566
(dp567
g54
(dp568
g74
g75
ssg63
g562
sg56
(lp569
S'gluon_parent'
p570
asbag49
(g70
g51
NtRp571
(dp572
g54
(dp573
g81
g82
ssg63
g562
sg56
(lp574
S':'
asbag49
(g70
g51
NtRp575
(dp576
g54
(dp577
sg63
g562
sg56
(lp578
g49
(g50
g51
NtRp579
(dp580
g54
(dp581
g62
I4
ssg63
g575
sg56
(lp582
S'C:\\Users\\Bussiere\\Dropbox\\Projets\\jackpoint\\web2py'
p583
asbasbasbag49
(g65
g51
NtRp584
(dp585
g54
(dp586
sg63
g423
sg56
(lp587
g49
(g70
g51
NtRp588
(dp589
g54
(dp590
g74
g75
ssg63
g584
sg56
(lp591
S'http_accept'
p592
asbag49
(g70
g51
NtRp593
(dp594
g54
(dp595
g81
g82
ssg63
g584
sg56
(lp596
S':'
asbag49
(g70
g51
NtRp597
(dp598
g54
(dp599
sg63
g584
sg56
(lp600
g49
(g50
g51
NtRp601
(dp602
g54
(dp603
g62
I4
ssg63
g597
sg56
(lp604
S'text/html,application/xhtml+xml,application/xml;q=0.9,*/*;q=0.8'
p605
asbasbasbag49
(g65
g51
NtRp606
(dp607
g54
(dp608
sg63
g423
sg56
(lp609
g49
(g70
g51
NtRp610
(dp611
g54
(dp612
g74
g75
ssg63
g606
sg56
(lp613
S'http_accept_charset'
p614
asbag49
(g70
g51
NtRp615
(dp616
g54
(dp617
g81
g82
ssg63
g606
sg56
(lp618
S':'
asbag49
(g70
g51
NtRp619
(dp620
g54
(dp621
sg63
g606
sg56
(lp622
g49
(g50
g51
NtRp623
(dp624
g54
(dp625
g62
I4
ssg63
g619
sg56
(lp626
S'ISO-8859-1,utf-8;q=0.7,*;q=0.3'
p627
asbasbasbag49
(g65
g51
NtRp628
(dp629
g54
(dp630
sg63
g423
sg56
(lp631
g49
(g70
g51
NtRp632
(dp633
g54
(dp634
g74
g75
ssg63
g628
sg56
(lp635
S'http_accept_encoding'
p636
asbag49
(g70
g51
NtRp637
(dp638
g54
(dp639
g81
g82
ssg63
g628
sg56
(lp640
S':'
asbag49
(g70
g51
NtRp641
(dp642
g54
(dp643
sg63
g628
sg56
(lp644
g49
(g50
g51
NtRp645
(dp646
g54
(dp647
g62
I4
ssg63
g641
sg56
(lp648
S'gzip,deflate,sdch'
p649
asbasbasbag49
(g65
g51
NtRp650
(dp651
g54
(dp652
sg63
g423
sg56
(lp653
g49
(g70
g51
NtRp654
(dp655
g54
(dp656
g74
g75
ssg63
g650
sg56
(lp657
S'http_accept_language'
p658
asbag49
(g70
g51
NtRp659
(dp660
g54
(dp661
g81
g82
ssg63
g650
sg56
(lp662
S':'
asbag49
(g70
g51
NtRp663
(dp664
g54
(dp665
sg63
g650
sg56
(lp666
g49
(g50
g51
NtRp667
(dp668
g54
(dp669
g62
I4
ssg63
g663
sg56
(lp670
S'en-US,en;q=0.8'
p671
asbasbasbag49
(g65
g51
NtRp672
(dp673
g54
(dp674
sg63
g423
sg56
(lp675
g49
(g70
g51
NtRp676
(dp677
g54
(dp678
g74
g75
ssg63
g672
sg56
(lp679
S'http_connection'
p680
asbag49
(g70
g51
NtRp681
(dp682
g54
(dp683
g81
g82
ssg63
g672
sg56
(lp684
S':'
asbag49
(g70
g51
NtRp685
(dp686
g54
(dp687
sg63
g672
sg56
(lp688
g49
(g50
g51
NtRp689
(dp690
g54
(dp691
g62
I4
ssg63
g685
sg56
(lp692
S'keep-alive'
p693
asbasbasbag49
(g65
g51
NtRp694
(dp695
g54
(dp696
sg63
g423
sg56
(lp697
g49
(g70
g51
NtRp698
(dp699
g54
(dp700
g74
g75
ssg63
g694
sg56
(lp701
S'http_cookie'
p702
asbag49
(g70
g51
NtRp703
(dp704
g54
(dp705
g81
g82
ssg63
g694
sg56
(lp706
S':'
asbag49
(g70
g51
NtRp707
(dp708
g54
(dp709
sg63
g694
sg56
(lp710
g49
(g50
g51
NtRp711
(dp712
g54
(dp713
g62
I4
ssg63
g707
sg56
(lp714
S'session_id_init="10:e08766fa-dd6e-4a24-8070-d14f4ba5594c"'
p715
asbasbasbag49
(g65
g51
NtRp716
(dp717
g54
(dp718
sg63
g423
sg56
(lp719
g49
(g70
g51
NtRp720
(dp721
g54
(dp722
g74
g75
ssg63
g716
sg56
(lp723
S'http_host'
p724
asbag49
(g70
g51
NtRp725
(dp726
g54
(dp727
g81
g82
ssg63
g716
sg56
(lp728
S':'
asbag49
(g70
g51
NtRp729
(dp730
g54
(dp731
sg63
g716
sg56
(lp732
g49
(g50
g51
NtRp733
(dp734
g54
(dp735
g62
I4
ssg63
g729
sg56
(lp736
S'localhost:8000'
p737
asbasbasbag49
(g65
g51
NtRp738
(dp739
g54
(dp740
sg63
g423
sg56
(lp741
g49
(g70
g51
NtRp742
(dp743
g54
(dp744
g74
g75
ssg63
g738
sg56
(lp745
S'http_referer'
p746
asbag49
(g70
g51
NtRp747
(dp748
g54
(dp749
g81
g82
ssg63
g738
sg56
(lp750
S':'
asbag49
(g70
g51
NtRp751
(dp752
g54
(dp753
sg63
g738
sg56
(lp754
g49
(g50
g51
NtRp755
(dp756
g54
(dp757
g62
I4
ssg63
g751
sg56
(lp758
S'http://localhost:8000/'
p759
asbasbasbag49
(g65
g51
NtRp760
(dp761
g54
(dp762
sg63
g423
sg56
(lp763
g49
(g70
g51
NtRp764
(dp765
g54
(dp766
g74
g75
ssg63
g760
sg56
(lp767
S'http_user_agent'
p768
asbag49
(g70
g51
NtRp769
(dp770
g54
(dp771
g81
g82
ssg63
g760
sg56
(lp772
S':'
asbag49
(g70
g51
NtRp773
(dp774
g54
(dp775
sg63
g760
sg56
(lp776
g49
(g50
g51
NtRp777
(dp778
g54
(dp779
g62
I4
ssg63
g773
sg56
(lp780
S'Mozilla/5.0 (Windows NT 6.1; WOW64) AppleWebKit/535.18 (KHTML, like Gecko) Chrome/18.0.1011.0 Safari/535.18'
p781
asbasbasbag49
(g65
g51
NtRp782
(dp783
g54
(dp784
sg63
g423
sg56
(lp785
g49
(g70
g51
NtRp786
(dp787
g54
(dp788
g74
g75
ssg63
g782
sg56
(lp789
S'is_jython'
p790
asbag49
(g70
g51
NtRp791
(dp792
g54
(dp793
g81
g82
ssg63
g782
sg56
(lp794
S':'
asbag49
(g70
g51
NtRp795
(dp796
g54
(dp797
sg63
g782
sg56
(lp798
g49
(g50
g51
NtRp799
(dp800
g54
(dp801
g62
I4
ssg63
g795
sg56
(lp802
g92
asbasbasbag49
(g65
g51
NtRp803
(dp804
g54
(dp805
sg63
g423
sg56
(lp806
g49
(g70
g51
NtRp807
(dp808
g54
(dp809
g74
g75
ssg63
g803
sg56
(lp810
S'is_pypy'
p811
asbag49
(g70
g51
NtRp812
(dp813
g54
(dp814
g81
g82
ssg63
g803
sg56
(lp815
S':'
asbag49
(g70
g51
NtRp816
(dp817
g54
(dp818
sg63
g803
sg56
(lp819
g49
(g50
g51
NtRp820
(dp821
g54
(dp822
g62
I4
ssg63
g816
sg56
(lp823
g92
asbasbasbag49
(g65
g51
NtRp824
(dp825
g54
(dp826
sg63
g423
sg56
(lp827
g49
(g70
g51
NtRp828
(dp829
g54
(dp830
g74
g75
ssg63
g824
sg56
(lp831
S'path_info'
p832
asbag49
(g70
g51
NtRp833
(dp834
g54
(dp835
g81
g82
ssg63
g824
sg56
(lp836
S':'
asbag49
(g70
g51
NtRp837
(dp838
g54
(dp839
sg63
g824
sg56
(lp840
g49
(g50
g51
NtRp841
(dp842
g54
(dp843
g62
I4
ssg63
g837
sg56
(lp844
S'/init/default/invitation'
p845
asbasbasbag49
(g65
g51
NtRp846
(dp847
g54
(dp848
sg63
g423
sg56
(lp849
g49
(g70
g51
NtRp850
(dp851
g54
(dp852
g74
g75
ssg63
g846
sg56
(lp853
S'query_string'
p854
asbag49
(g70
g51
NtRp855
(dp856
g54
(dp857
g81
g82
ssg63
g846
sg56
(lp858
S':'
asbag49
(g70
g51
NtRp859
(dp860
g54
(dp861
sg63
g846
sg56
(lp862
g49
(g50
g51
NtRp863
(dp864
g54
(dp865
g62
I4
ssg63
g859
sg56
(lp866
S''
asbasbasbag49
(g65
g51
NtRp867
(dp868
g54
(dp869
sg63
g423
sg56
(lp870
g49
(g70
g51
NtRp871
(dp872
g54
(dp873
g74
g75
ssg63
g867
sg56
(lp874
S'remote_addr'
p875
asbag49
(g70
g51
NtRp876
(dp877
g54
(dp878
g81
g82
ssg63
g867
sg56
(lp879
S':'
asbag49
(g70
g51
NtRp880
(dp881
g54
(dp882
sg63
g867
sg56
(lp883
g49
(g50
g51
NtRp884
(dp885
g54
(dp886
g62
I4
ssg63
g880
sg56
(lp887
g182
asbasbasbag49
(g65
g51
NtRp888
(dp889
g54
(dp890
sg63
g423
sg56
(lp891
g49
(g70
g51
NtRp892
(dp893
g54
(dp894
g74
g75
ssg63
g888
sg56
(lp895
S'remote_port'
p896
asbag49
(g70
g51
NtRp897
(dp898
g54
(dp899
g81
g82
ssg63
g888
sg56
(lp900
S':'
asbag49
(g70
g51
NtRp901
(dp902
g54
(dp903
sg63
g888
sg56
(lp904
g49
(g50
g51
NtRp905
(dp906
g54
(dp907
g62
I4
ssg63
g901
sg56
(lp908
S'59865'
p909
asbasbasbag49
(g65
g51
NtRp910
(dp911
g54
(dp912
sg63
g423
sg56
(lp913
g49
(g70
g51
NtRp914
(dp915
g54
(dp916
g74
g75
ssg63
g910
sg56
(lp917
S'request_method'
p918
asbag49
(g70
g51
NtRp919
(dp920
g54
(dp921
g81
g82
ssg63
g910
sg56
(lp922
S':'
asbag49
(g70
g51
NtRp923
(dp924
g54
(dp925
sg63
g910
sg56
(lp926
g49
(g50
g51
NtRp927
(dp928
g54
(dp929
g62
I4
ssg63
g923
sg56
(lp930
S'GET'
p931
asbasbasbag49
(g65
g51
NtRp932
(dp933
g54
(dp934
sg63
g423
sg56
(lp935
g49
(g70
g51
NtRp936
(dp937
g54
(dp938
g74
g75
ssg63
g932
sg56
(lp939
S'script_name'
p940
asbag49
(g70
g51
NtRp941
(dp942
g54
(dp943
g81
g82
ssg63
g932
sg56
(lp944
S':'
asbag49
(g70
g51
NtRp945
(dp946
g54
(dp947
sg63
g932
sg56
(lp948
g49
(g50
g51
NtRp949
(dp950
g54
(dp951
g62
I4
ssg63
g945
sg56
(lp952
S''
asbasbasbag49
(g65
g51
NtRp953
(dp954
g54
(dp955
sg63
g423
sg56
(lp956
g49
(g70
g51
NtRp957
(dp958
g54
(dp959
g74
g75
ssg63
g953
sg56
(lp960
S'server_name'
p961
asbag49
(g70
g51
NtRp962
(dp963
g54
(dp964
g81
g82
ssg63
g953
sg56
(lp965
S':'
asbag49
(g70
g51
NtRp966
(dp967
g54
(dp968
sg63
g953
sg56
(lp969
g49
(g50
g51
NtRp970
(dp971
g54
(dp972
g62
I4
ssg63
g966
sg56
(lp973
S'Batou'
p974
asbasbasbag49
(g65
g51
NtRp975
(dp976
g54
(dp977
sg63
g423
sg56
(lp978
g49
(g70
g51
NtRp979
(dp980
g54
(dp981
g74
g75
ssg63
g975
sg56
(lp982
S'server_port'
p983
asbag49
(g70
g51
NtRp984
(dp985
g54
(dp986
g81
g82
ssg63
g975
sg56
(lp987
S':'
asbag49
(g70
g51
NtRp988
(dp989
g54
(dp990
sg63
g975
sg56
(lp991
g49
(g50
g51
NtRp992
(dp993
g54
(dp994
g62
I4
ssg63
g988
sg56
(lp995
S'8000'
p996
asbasbasbag49
(g65
g51
NtRp997
(dp998
g54
(dp999
sg63
g423
sg56
(lp1000
g49
(g70
g51
NtRp1001
(dp1002
g54
(dp1003
g74
g75
ssg63
g997
sg56
(lp1004
S'server_protocol'
p1005
asbag49
(g70
g51
NtRp1006
(dp1007
g54
(dp1008
g81
g82
ssg63
g997
sg56
(lp1009
S':'
asbag49
(g70
g51
NtRp1010
(dp1011
g54
(dp1012
sg63
g997
sg56
(lp1013
g49
(g50
g51
NtRp1014
(dp1015
g54
(dp1016
g62
I4
ssg63
g1010
sg56
(lp1017
S'HTTP/1.1'
p1018
asbasbasbag49
(g65
g51
NtRp1019
(dp1020
g54
(dp1021
sg63
g423
sg56
(lp1022
g49
(g70
g51
NtRp1023
(dp1024
g54
(dp1025
g74
g75
ssg63
g1019
sg56
(lp1026
S'server_software'
p1027
asbag49
(g70
g51
NtRp1028
(dp1029
g54
(dp1030
g81
g82
ssg63
g1019
sg56
(lp1031
S':'
asbag49
(g70
g51
NtRp1032
(dp1033
g54
(dp1034
sg63
g1019
sg56
(lp1035
g49
(g50
g51
NtRp1036
(dp1037
g54
(dp1038
g62
I4
ssg63
g1032
sg56
(lp1039
S'Rocket 1.2.4'
p1040
asbasbasbag49
(g65
g51
NtRp1041
(dp1042
g54
(dp1043
sg63
g423
sg56
(lp1044
g49
(g70
g51
NtRp1045
(dp1046
g54
(dp1047
g74
g75
ssg63
g1041
sg56
(lp1048
S'web2py_crontype'
p1049
asbag49
(g70
g51
NtRp1050
(dp1051
g54
(dp1052
g81
g82
ssg63
g1041
sg56
(lp1053
S':'
asbag49
(g70
g51
NtRp1054
(dp1055
g54
(dp1056
sg63
g1041
sg56
(lp1057
g49
(g50
g51
NtRp1058
(dp1059
g54
(dp1060
g62
I4
ssg63
g1054
sg56
(lp1061
S'hard'
p1062
asbasbasbag49
(g65
g51
NtRp1063
(dp1064
g54
(dp1065
sg63
g423
sg56
(lp1066
g49
(g70
g51
NtRp1067
(dp1068
g54
(dp1069
g74
g75
ssg63
g1063
sg56
(lp1070
S'web2py_path'
p1071
asbag49
(g70
g51
NtRp1072
(dp1073
g54
(dp1074
g81
g82
ssg63
g1063
sg56
(lp1075
S':'
asbag49
(g70
g51
NtRp1076
(dp1077
g54
(dp1078
sg63
g1063
sg56
(lp1079
g49
(g50
g51
NtRp1080
(dp1081
g54
(dp1082
g62
I4
ssg63
g1076
sg56
(lp1083
g470
asbasbasbag49
(g65
g51
NtRp1084
(dp1085
g54
(dp1086
sg63
g423
sg56
(lp1087
g49
(g70
g51
NtRp1088
(dp1089
g54
(dp1090
g74
g75
ssg63
g1084
sg56
(lp1091
S'web2py_version'
p1092
asbag49
(g70
g51
NtRp1093
(dp1094
g54
(dp1095
g81
g82
ssg63
g1084
sg56
(lp1096
S':'
asbag49
(g70
g51
NtRp1097
(dp1098
g54
(dp1099
sg63
g1084
sg56
(lp1100
g49
(g50
g51
NtRp1101
(dp1102
g54
(dp1103
g62
I4
ssg63
g1097
sg56
(lp1104
g49
(g58
g51
NtRp1105
(dp1106
g54
(dp1107
g62
I3
ssg63
Nsg56
(lp1108
g49
(g65
g51
NtRp1109
(dp1110
g54
(dp1111
sg63
g1105
sg56
(lp1112
g49
(g70
g51
NtRp1113
(dp1114
g54
(dp1115
sg63
g1109
sg56
(lp1116
g49
(g50
g51
NtRp1117
(dp1118
g54
(dp1119
g62
I3
ssg63
g1113
sg56
(lp1120
S'1'
asbasbasbag49
(g65
g51
NtRp1121
(dp1122
g54
(dp1123
sg63
g1105
sg56
(lp1124
g49
(g70
g51
NtRp1125
(dp1126
g54
(dp1127
sg63
g1121
sg56
(lp1128
g49
(g50
g51
NtRp1129
(dp1130
g54
(dp1131
g62
I3
ssg63
g1125
sg56
(lp1132
S'99'
p1133
asbasbasbag49
(g65
g51
NtRp1134
(dp1135
g54
(dp1136
sg63
g1105
sg56
(lp1137
g49
(g70
g51
NtRp1138
(dp1139
g54
(dp1140
sg63
g1134
sg56
(lp1141
g49
(g50
g51
NtRp1142
(dp1143
g54
(dp1144
g62
I3
ssg63
g1138
sg56
(lp1145
S'7'
asbasbasbag49
(g65
g51
NtRp1146
(dp1147
g54
(dp1148
sg63
g1105
sg56
(lp1149
g49
(g70
g51
NtRp1150
(dp1151
g54
(dp1152
sg63
g1146
sg56
(lp1153
g49
(g50
g51
NtRp1154
(dp1155
g54
(dp1156
g62
I3
ssg63
g1150
sg56
(lp1157
S'datetime.datetime(2012, 3, 4, 22, 12, 8)'
p1158
asbasbasbag49
(g65
g51
NtRp1159
(dp1160
g54
(dp1161
sg63
g1105
sg56
(lp1162
g49
(g70
g51
NtRp1163
(dp1164
g54
(dp1165
sg63
g1159
sg56
(lp1166
g49
(g50
g51
NtRp1167
(dp1168
g54
(dp1169
g62
I3
ssg63
g1163
sg56
(lp1170
S'stable'
p1171
asbasbasbasbasbasbasbag49
(g65
g51
NtRp1172
(dp1173
g54
(dp1174
sg63
g423
sg56
(lp1175
g49
(g70
g51
NtRp1176
(dp1177
g54
(dp1178
g74
g75
ssg63
g1172
sg56
(lp1179
S'wsgi_errors'
p1180
asbag49
(g70
g51
NtRp1181
(dp1182
g54
(dp1183
g81
g82
ssg63
g1172
sg56
(lp1184
S':'
asbag49
(g70
g51
NtRp1185
(dp1186
g54
(dp1187
sg63
g1172
sg56
(lp1188
g49
(g50
g51
NtRp1189
(dp1190
g54
(dp1191
g62
I4
ssg63
g1185
sg56
(lp1192
S"<open file '<stderr>', mode 'w' at 0x01D300B0>"
p1193
asbasbasbag49
(g65
g51
NtRp1194
(dp1195
g54
(dp1196
sg63
g423
sg56
(lp1197
g49
(g70
g51
NtRp1198
(dp1199
g54
(dp1200
g74
g75
ssg63
g1194
sg56
(lp1201
S'wsgi_file_wrapper'
p1202
asbag49
(g70
g51
NtRp1203
(dp1204
g54
(dp1205
g81
g82
ssg63
g1194
sg56
(lp1206
S':'
asbag49
(g70
g51
NtRp1207
(dp1208
g54
(dp1209
sg63
g1194
sg56
(lp1210
g49
(g50
g51
NtRp1211
(dp1212
g54
(dp1213
g62
I4
ssg63
g1207
sg56
(lp1214
S'<class wsgiref.util.FileWrapper at 0x02CD6900>'
p1215
asbasbasbag49
(g65
g51
NtRp1216
(dp1217
g54
(dp1218
sg63
g423
sg56
(lp1219
g49
(g70
g51
NtRp1220
(dp1221
g54
(dp1222
g74
g75
ssg63
g1216
sg56
(lp1223
S'wsgi_input'
p1224
asbag49
(g70
g51
NtRp1225
(dp1226
g54
(dp1227
g81
g82
ssg63
g1216
sg56
(lp1228
S':'
asbag49
(g70
g51
NtRp1229
(dp1230
g54
(dp1231
sg63
g1216
sg56
(lp1232
g49
(g50
g51
NtRp1233
(dp1234
g54
(dp1235
g62
I4
ssg63
g1229
sg56
(lp1236
S'<socket._fileobject object at 0x072AEE30>'
p1237
asbasbasbag49
(g65
g51
NtRp1238
(dp1239
g54
(dp1240
sg63
g423
sg56
(lp1241
g49
(g70
g51
NtRp1242
(dp1243
g54
(dp1244
g74
g75
ssg63
g1238
sg56
(lp1245
S'wsgi_multiprocess'
p1246
asbag49
(g70
g51
NtRp1247
(dp1248
g54
(dp1249
g81
g82
ssg63
g1238
sg56
(lp1250
S':'
asbag49
(g70
g51
NtRp1251
(dp1252
g54
(dp1253
sg63
g1238
sg56
(lp1254
g49
(g50
g51
NtRp1255
(dp1256
g54
(dp1257
g62
I4
ssg63
g1251
sg56
(lp1258
g92
asbasbasbag49
(g65
g51
NtRp1259
(dp1260
g54
(dp1261
sg63
g423
sg56
(lp1262
g49
(g70
g51
NtRp1263
(dp1264
g54
(dp1265
g74
g75
ssg63
g1259
sg56
(lp1266
S'wsgi_multithread'
p1267
asbag49
(g70
g51
NtRp1268
(dp1269
g54
(dp1270
g81
g82
ssg63
g1259
sg56
(lp1271
S':'
asbag49
(g70
g51
NtRp1272
(dp1273
g54
(dp1274
sg63
g1259
sg56
(lp1275
g49
(g50
g51
NtRp1276
(dp1277
g54
(dp1278
g62
I4
ssg63
g1272
sg56
(lp1279
g561
asbasbasbag49
(g65
g51
NtRp1280
(dp1281
g54
(dp1282
sg63
g423
sg56
(lp1283
g49
(g70
g51
NtRp1284
(dp1285
g54
(dp1286
g74
g75
ssg63
g1280
sg56
(lp1287
S'wsgi_run_once'
p1288
asbag49
(g70
g51
NtRp1289
(dp1290
g54
(dp1291
g81
g82
ssg63
g1280
sg56
(lp1292
S':'
asbag49
(g70
g51
NtRp1293
(dp1294
g54
(dp1295
sg63
g1280
sg56
(lp1296
g49
(g50
g51
NtRp1297
(dp1298
g54
(dp1299
g62
I4
ssg63
g1293
sg56
(lp1300
g92
asbasbasbag49
(g65
g51
NtRp1301
(dp1302
g54
(dp1303
sg63
g423
sg56
(lp1304
g49
(g70
g51
NtRp1305
(dp1306
g54
(dp1307
g74
g75
ssg63
g1301
sg56
(lp1308
S'wsgi_url_scheme'
p1309
asbag49
(g70
g51
NtRp1310
(dp1311
g54
(dp1312
g81
g82
ssg63
g1301
sg56
(lp1313
S':'
asbag49
(g70
g51
NtRp1314
(dp1315
g54
(dp1316
sg63
g1301
sg56
(lp1317
g49
(g50
g51
NtRp1318
(dp1319
g54
(dp1320
g62
I4
ssg63
g1314
sg56
(lp1321
S'http'
p1322
asbasbasbag49
(g65
g51
NtRp1323
(dp1324
g54
(dp1325
sg63
g423
sg56
(lp1326
g49
(g70
g51
NtRp1327
(dp1328
g54
(dp1329
g74
g75
ssg63
g1323
sg56
(lp1330
S'wsgi_version'
p1331
asbag49
(g70
g51
NtRp1332
(dp1333
g54
(dp1334
g81
g82
ssg63
g1323
sg56
(lp1335
S':'
asbag49
(g70
g51
NtRp1336
(dp1337
g54
(dp1338
sg63
g1323
sg56
(lp1339
g49
(g50
g51
NtRp1340
(dp1341
g54
(dp1342
g62
I4
ssg63
g1336
sg56
(lp1343
g49
(g58
g51
NtRp1344
(dp1345
g54
(dp1346
g62
I3
ssg63
Nsg56
(lp1347
g49
(g65
g51
NtRp1348
(dp1349
g54
(dp1350
sg63
g1344
sg56
(lp1351
g49
(g70
g51
NtRp1352
(dp1353
g54
(dp1354
sg63
g1348
sg56
(lp1355
g49
(g50
g51
NtRp1356
(dp1357
g54
(dp1358
g62
I3
ssg63
g1352
sg56
(lp1359
S'1'
asbasbasbag49
(g65
g51
NtRp1360
(dp1361
g54
(dp1362
sg63
g1344
sg56
(lp1363
g49
(g70
g51
NtRp1364
(dp1365
g54
(dp1366
sg63
g1360
sg56
(lp1367
g49
(g50
g51
NtRp1368
(dp1369
g54
(dp1370
g62
I3
ssg63
g1364
sg56
(lp1371
S'0'
asbasbasbasbasbasbasbasbasbasbasbag49
(g65
g51
NtRp1372
(dp1373
g54
(dp1374
sg63
g59
sg56
(lp1375
g49
(g70
g51
NtRp1376
(dp1377
g54
(dp1378
g74
g75
ssg63
g1372
sg56
(lp1379
S'extension'
p1380
asbag49
(g70
g51
NtRp1381
(dp1382
g54
(dp1383
g81
g82
ssg63
g1372
sg56
(lp1384
S':'
asbag49
(g70
g51
NtRp1385
(dp1386
g54
(dp1387
sg63
g1372
sg56
(lp1388
g49
(g50
g51
NtRp1389
(dp1390
g54
(dp1391
g62
I5
ssg63
g1385
sg56
(lp1392
S'html'
p1393
asbasbasbag49
(g65
g51
NtRp1394
(dp1395
g54
(dp1396
sg63
g59
sg56
(lp1397
g49
(g70
g51
NtRp1398
(dp1399
g54
(dp1400
g74
g75
ssg63
g1394
sg56
(lp1401
S'folder'
p1402
asbag49
(g70
g51
NtRp1403
(dp1404
g54
(dp1405
g81
g82
ssg63
g1394
sg56
(lp1406
S':'
asbag49
(g70
g51
NtRp1407
(dp1408
g54
(dp1409
sg63
g1394
sg56
(lp1410
g49
(g50
g51
NtRp1411
(dp1412
g54
(dp1413
g62
I5
ssg63
g1407
sg56
(lp1414
S'C:\\Users\\Bussiere\\Dropbox\\Projets\\jackpoint\\web2py\\applications\\init\\'
p1415
asbasbasbag49
(g65
g51
NtRp1416
(dp1417
g54
(dp1418
sg63
g59
sg56
(lp1419
g49
(g70
g51
NtRp1420
(dp1421
g54
(dp1422
g74
g75
ssg63
g1416
sg56
(lp1423
S'function'
p1424
asbag49
(g70
g51
NtRp1425
(dp1426
g54
(dp1427
g81
g82
ssg63
g1416
sg56
(lp1428
S':'
asbag49
(g70
g51
NtRp1429
(dp1430
g54
(dp1431
sg63
g1416
sg56
(lp1432
g49
(g50
g51
NtRp1433
(dp1434
g54
(dp1435
g62
I5
ssg63
g1429
sg56
(lp1436
S'invitation'
p1437
asbasbasbag49
(g65
g51
NtRp1438
(dp1439
g54
(dp1440
sg63
g59
sg56
(lp1441
g49
(g70
g51
NtRp1442
(dp1443
g54
(dp1444
g74
g75
ssg63
g1438
sg56
(lp1445
S'get_vars'
p1446
asbag49
(g70
g51
NtRp1447
(dp1448
g54
(dp1449
g81
g82
ssg63
g1438
sg56
(lp1450
S':'
asbag49
(g70
g51
NtRp1451
(dp1452
g54
(dp1453
sg63
g1438
sg56
(lp1454
g49
(g50
g51
NtRp1455
(dp1456
g54
(dp1457
g62
I5
ssg63
g1451
sg56
(lp1458
g49
(g58
g51
NtRp1459
(dp1460
g54
(dp1461
g62
I4
ssg63
Nsg56
(lp1462
sbasbasbasbag49
(g65
g51
NtRp1463
(dp1464
g54
(dp1465
sg63
g59
sg56
(lp1466
g49
(g70
g51
NtRp1467
(dp1468
g54
(dp1469
g74
g75
ssg63
g1463
sg56
(lp1470
S'global_settings'
p1471
asbag49
(g70
g51
NtRp1472
(dp1473
g54
(dp1474
g81
g82
ssg63
g1463
sg56
(lp1475
S':'
asbag49
(g70
g51
NtRp1476
(dp1477
g54
(dp1478
sg63
g1463
sg56
(lp1479
g49
(g50
g51
NtRp1480
(dp1481
g54
(dp1482
g62
I5
ssg63
g1476
sg56
(lp1483
g49
(g58
g51
NtRp1484
(dp1485
g54
(dp1486
g62
I4
ssg63
Nsg56
(lp1487
g49
(g65
g51
NtRp1488
(dp1489
g54
(dp1490
sg63
g1484
sg56
(lp1491
g49
(g70
g51
NtRp1492
(dp1493
g54
(dp1494
g74
g75
ssg63
g1488
sg56
(lp1495
g435
asbag49
(g70
g51
NtRp1496
(dp1497
g54
(dp1498
g81
g82
ssg63
g1488
sg56
(lp1499
S':'
asbag49
(g70
g51
NtRp1500
(dp1501
g54
(dp1502
sg63
g1488
sg56
(lp1503
g49
(g50
g51
NtRp1504
(dp1505
g54
(dp1506
g62
I4
ssg63
g1500
sg56
(lp1507
S"set(['C:\\\\Users\\\\Bussiere\\\\Dropbox\\\\Projets\\\\jackpoint\\\\web2py\\\\applications\\\\init\\\\', 'C:\\\\Users\\\\Bussiere\\\\Dropbox\\\\Projets\\\\jackpoint\\\\web2py\\\\applications\\\\admin\\\\'])"
p1508
asbasbasbag49
(g65
g51
NtRp1509
(dp1510
g54
(dp1511
sg63
g1484
sg56
(lp1512
g49
(g70
g51
NtRp1513
(dp1514
g54
(dp1515
g74
g75
ssg63
g1509
sg56
(lp1516
g457
asbag49
(g70
g51
NtRp1517
(dp1518
g54
(dp1519
g81
g82
ssg63
g1509
sg56
(lp1520
S':'
asbag49
(g70
g51
NtRp1521
(dp1522
g54
(dp1523
sg63
g1509
sg56
(lp1524
g49
(g50
g51
NtRp1525
(dp1526
g54
(dp1527
g62
I4
ssg63
g1521
sg56
(lp1528
g470
asbasbasbag49
(g65
g51
NtRp1529
(dp1530
g54
(dp1531
sg63
g1484
sg56
(lp1532
g49
(g70
g51
NtRp1533
(dp1534
g54
(dp1535
g74
g75
ssg63
g1529
sg56
(lp1536
g479
asbag49
(g70
g51
NtRp1537
(dp1538
g54
(dp1539
g81
g82
ssg63
g1529
sg56
(lp1540
S':'
asbag49
(g70
g51
NtRp1541
(dp1542
g54
(dp1543
sg63
g1529
sg56
(lp1544
g49
(g50
g51
NtRp1545
(dp1546
g54
(dp1547
g62
I4
ssg63
g1541
sg56
(lp1548
g49
(g58
g51
NtRp1549
(dp1550
g54
(dp1551
g62
I3
ssg63
Nsg56
(lp1552
sbasbasbasbag49
(g65
g51
NtRp1553
(dp1554
g54
(dp1555
sg63
g1484
sg56
(lp1556
g49
(g70
g51
NtRp1557
(dp1558
g54
(dp1559
g74
g75
ssg63
g1553
sg56
(lp1560
g504
asbag49
(g70
g51
NtRp1561
(dp1562
g54
(dp1563
g81
g82
ssg63
g1553
sg56
(lp1564
S':'
asbag49
(g70
g51
NtRp1565
(dp1566
g54
(dp1567
sg63
g1553
sg56
(lp1568
g49
(g50
g51
NtRp1569
(dp1570
g54
(dp1571
g62
I4
ssg63
g1565
sg56
(lp1572
S"<Values at 0x3e15fa8: {'verbose': False, 'ip': '127.0.0.1', 'shutdown_timeout': 5, 'taskbar': False, 'nocron': False, 'pid_filename': 'httpserver.pid', 'maxthreads': None, 'softcron': False, 'server_name': 'Batou', 'bpython': False, 'nogui': False, 'port': 8000, 'extcron': False, 'debuglevel': 30, 'test': None, 'folder': 'C:\\\\Users\\\\Bussiere\\\\Dropbox\\\\Projets\\\\jackpoint\\\\web2py', 'config': '', 'import_models': False, 'winservice': '', 'shell': None, 'run': '', 'log_filename': 'httpserver.log', 'args': [''], 'socket_timeout': 5, 'ssl_ca_certificate': None, 'scheduler': None, 'profiler_filename': None, 'ssl_private_key': '', 'password': '<ask>', 'request_queue_size': 5, 'ssl_certificate': '', 'cronjob': False, 'numthreads': None, 'quiet': False, 'interfaces': None, 'minthreads': None, 'timeout': 10, 'plain': False, 'nobanner': False}>"
p1573
asbasbasbag49
(g65
g51
NtRp1574
(dp1575
g54
(dp1576
sg63
g1484
sg56
(lp1577
g49
(g70
g51
NtRp1578
(dp1579
g54
(dp1580
g74
g75
ssg63
g1574
sg56
(lp1581
g526
asbag49
(g70
g51
NtRp1582
(dp1583
g54
(dp1584
g81
g82
ssg63
g1574
sg56
(lp1585
S':'
asbag49
(g70
g51
NtRp1586
(dp1587
g54
(dp1588
sg63
g1574
sg56
(lp1589
g49
(g50
g51
NtRp1590
(dp1591
g54
(dp1592
g62
I4
ssg63
g1586
sg56
(lp1593
S"set(['init'])"
p1594
asbasbasbag49
(g65
g51
NtRp1595
(dp1596
g54
(dp1597
sg63
g1484
sg56
(lp1598
g49
(g70
g51
NtRp1599
(dp1600
g54
(dp1601
g74
g75
ssg63
g1595
sg56
(lp1602
g548
asbag49
(g70
g51
NtRp1603
(dp1604
g54
(dp1605
g81
g82
ssg63
g1595
sg56
(lp1606
S':'
asbag49
(g70
g51
NtRp1607
(dp1608
g54
(dp1609
sg63
g1595
sg56
(lp1610
g49
(g50
g51
NtRp1611
(dp1612
g54
(dp1613
g62
I4
ssg63
g1607
sg56
(lp1614
g561
asbasbasbag49
(g65
g51
NtRp1615
(dp1616
g54
(dp1617
sg63
g1484
sg56
(lp1618
g49
(g70
g51
NtRp1619
(dp1620
g54
(dp1621
g74
g75
ssg63
g1615
sg56
(lp1622
g570
asbag49
(g70
g51
NtRp1623
(dp1624
g54
(dp1625
g81
g82
ssg63
g1615
sg56
(lp1626
S':'
asbag49
(g70
g51
NtRp1627
(dp1628
g54
(dp1629
sg63
g1615
sg56
(lp1630
g49
(g50
g51
NtRp1631
(dp1632
g54
(dp1633
g62
I4
ssg63
g1627
sg56
(lp1634
g583
asbasbasbag49
(g65
g51
NtRp1635
(dp1636
g54
(dp1637
sg63
g1484
sg56
(lp1638
g49
(g70
g51
NtRp1639
(dp1640
g54
(dp1641
g74
g75
ssg63
g1635
sg56
(lp1642
g790
asbag49
(g70
g51
NtRp1643
(dp1644
g54
(dp1645
g81
g82
ssg63
g1635
sg56
(lp1646
S':'
asbag49
(g70
g51
NtRp1647
(dp1648
g54
(dp1649
sg63
g1635
sg56
(lp1650
g49
(g50
g51
NtRp1651
(dp1652
g54
(dp1653
g62
I4
ssg63
g1647
sg56
(lp1654
g92
asbasbasbag49
(g65
g51
NtRp1655
(dp1656
g54
(dp1657
sg63
g1484
sg56
(lp1658
g49
(g70
g51
NtRp1659
(dp1660
g54
(dp1661
g74
g75
ssg63
g1655
sg56
(lp1662
g811
asbag49
(g70
g51
NtRp1663
(dp1664
g54
(dp1665
g81
g82
ssg63
g1655
sg56
(lp1666
S':'
asbag49
(g70
g51
NtRp1667
(dp1668
g54
(dp1669
sg63
g1655
sg56
(lp1670
g49
(g50
g51
NtRp1671
(dp1672
g54
(dp1673
g62
I4
ssg63
g1667
sg56
(lp1674
g92
asbasbasbag49
(g65
g51
NtRp1675
(dp1676
g54
(dp1677
sg63
g1484
sg56
(lp1678
g49
(g70
g51
NtRp1679
(dp1680
g54
(dp1681
g74
g75
ssg63
g1675
sg56
(lp1682
g1049
asbag49
(g70
g51
NtRp1683
(dp1684
g54
(dp1685
g81
g82
ssg63
g1675
sg56
(lp1686
S':'
asbag49
(g70
g51
NtRp1687
(dp1688
g54
(dp1689
sg63
g1675
sg56
(lp1690
g49
(g50
g51
NtRp1691
(dp1692
g54
(dp1693
g62
I4
ssg63
g1687
sg56
(lp1694
g1062
asbasbasbag49
(g65
g51
NtRp1695
(dp1696
g54
(dp1697
sg63
g1484
sg56
(lp1698
g49
(g70
g51
NtRp1699
(dp1700
g54
(dp1701
g74
g75
ssg63
g1695
sg56
(lp1702
g1092
asbag49
(g70
g51
NtRp1703
(dp1704
g54
(dp1705
g81
g82
ssg63
g1695
sg56
(lp1706
S':'
asbag49
(g70
g51
NtRp1707
(dp1708
g54
(dp1709
sg63
g1695
sg56
(lp1710
g49
(g50
g51
NtRp1711
(dp1712
g54
(dp1713
g62
I4
ssg63
g1707
sg56
(lp1714
g49
(g58
g51
NtRp1715
(dp1716
g54
(dp1717
g62
I3
ssg63
Nsg56
(lp1718
g49
(g65
g51
NtRp1719
(dp1720
g54
(dp1721
sg63
g1715
sg56
(lp1722
g49
(g70
g51
NtRp1723
(dp1724
g54
(dp1725
sg63
g1719
sg56
(lp1726
g49
(g50
g51
NtRp1727
(dp1728
g54
(dp1729
g62
I3
ssg63
g1723
sg56
(lp1730
S'1'
asbasbasbag49
(g65
g51
NtRp1731
(dp1732
g54
(dp1733
sg63
g1715
sg56
(lp1734
g49
(g70
g51
NtRp1735
(dp1736
g54
(dp1737
sg63
g1731
sg56
(lp1738
g49
(g50
g51
NtRp1739
(dp1740
g54
(dp1741
g62
I3
ssg63
g1735
sg56
(lp1742
S'99'
p1743
asbasbasbag49
(g65
g51
NtRp1744
(dp1745
g54
(dp1746
sg63
g1715
sg56
(lp1747
g49
(g70
g51
NtRp1748
(dp1749
g54
(dp1750
sg63
g1744
sg56
(lp1751
g49
(g50
g51
NtRp1752
(dp1753
g54
(dp1754
g62
I3
ssg63
g1748
sg56
(lp1755
S'7'
asbasbasbag49
(g65
g51
NtRp1756
(dp1757
g54
(dp1758
sg63
g1715
sg56
(lp1759
g49
(g70
g51
NtRp1760
(dp1761
g54
(dp1762
sg63
g1756
sg56
(lp1763
g49
(g50
g51
NtRp1764
(dp1765
g54
(dp1766
g62
I3
ssg63
g1760
sg56
(lp1767
S'datetime.datetime(2012, 3, 4, 22, 12, 8)'
p1768
asbasbasbag49
(g65
g51
NtRp1769
(dp1770
g54
(dp1771
sg63
g1715
sg56
(lp1772
g49
(g70
g51
NtRp1773
(dp1774
g54
(dp1775
sg63
g1769
sg56
(lp1776
g49
(g50
g51
NtRp1777
(dp1778
g54
(dp1779
g62
I3
ssg63
g1773
sg56
(lp1780
g1171
asbasbasbasbasbasbasbasbasbasbasbag49
(g65
g51
NtRp1781
(dp1782
g54
(dp1783
sg63
g59
sg56
(lp1784
g49
(g70
g51
NtRp1785
(dp1786
g54
(dp1787
g74
g75
ssg63
g1781
sg56
(lp1788
S'is_https'
p1789
asbag49
(g70
g51
NtRp1790
(dp1791
g54
(dp1792
g81
g82
ssg63
g1781
sg56
(lp1793
S':'
asbag49
(g70
g51
NtRp1794
(dp1795
g54
(dp1796
sg63
g1781
sg56
(lp1797
g49
(g50
g51
NtRp1798
(dp1799
g54
(dp1800
g62
I5
ssg63
g1794
sg56
(lp1801
g92
asbasbasbag49
(g65
g51
NtRp1802
(dp1803
g54
(dp1804
sg63
g59
sg56
(lp1805
g49
(g70
g51
NtRp1806
(dp1807
g54
(dp1808
g74
g75
ssg63
g1802
sg56
(lp1809
S'is_local'
p1810
asbag49
(g70
g51
NtRp1811
(dp1812
g54
(dp1813
g81
g82
ssg63
g1802
sg56
(lp1814
S':'
asbag49
(g70
g51
NtRp1815
(dp1816
g54
(dp1817
sg63
g1802
sg56
(lp1818
g49
(g50
g51
NtRp1819
(dp1820
g54
(dp1821
g62
I5
ssg63
g1815
sg56
(lp1822
g561
asbasbasbag49
(g65
g51
NtRp1823
(dp1824
g54
(dp1825
sg63
g59
sg56
(lp1826
g49
(g70
g51
NtRp1827
(dp1828
g54
(dp1829
g74
g75
ssg63
g1823
sg56
(lp1830
S'is_restful'
p1831
asbag49
(g70
g51
NtRp1832
(dp1833
g54
(dp1834
g81
g82
ssg63
g1823
sg56
(lp1835
S':'
asbag49
(g70
g51
NtRp1836
(dp1837
g54
(dp1838
sg63
g1823
sg56
(lp1839
g49
(g50
g51
NtRp1840
(dp1841
g54
(dp1842
g62
I5
ssg63
g1836
sg56
(lp1843
g92
asbasbasbag49
(g65
g51
NtRp1844
(dp1845
g54
(dp1846
sg63
g59
sg56
(lp1847
g49
(g70
g51
NtRp1848
(dp1849
g54
(dp1850
g74
g75
ssg63
g1844
sg56
(lp1851
S'now'
p1852
asbag49
(g70
g51
NtRp1853
(dp1854
g54
(dp1855
g81
g82
ssg63
g1844
sg56
(lp1856
S':'
asbag49
(g70
g51
NtRp1857
(dp1858
g54
(dp1859
sg63
g1844
sg56
(lp1860
g49
(g50
g51
NtRp1861
(dp1862
g54
(dp1863
g62
I5
ssg63
g1857
sg56
(lp1864
S'datetime.datetime(2012, 3, 23, 15, 38, 38, 788000)'
p1865
asbasbasbag49
(g65
g51
NtRp1866
(dp1867
g54
(dp1868
sg63
g59
sg56
(lp1869
g49
(g70
g51
NtRp1870
(dp1871
g54
(dp1872
g74
g75
ssg63
g1866
sg56
(lp1873
S'post_vars'
p1874
asbag49
(g70
g51
NtRp1875
(dp1876
g54
(dp1877
g81
g82
ssg63
g1866
sg56
(lp1878
S':'
asbag49
(g70
g51
NtRp1879
(dp1880
g54
(dp1881
sg63
g1866
sg56
(lp1882
g49
(g50
g51
NtRp1883
(dp1884
g54
(dp1885
g62
I5
ssg63
g1879
sg56
(lp1886
g49
(g58
g51
NtRp1887
(dp1888
g54
(dp1889
g62
I4
ssg63
Nsg56
(lp1890
sbasbasbasbag49
(g65
g51
NtRp1891
(dp1892
g54
(dp1893
sg63
g59
sg56
(lp1894
g49
(g70
g51
NtRp1895
(dp1896
g54
(dp1897
g74
g75
ssg63
g1891
sg56
(lp1898
S'url'
p1899
asbag49
(g70
g51
NtRp1900
(dp1901
g54
(dp1902
g81
g82
ssg63
g1891
sg56
(lp1903
S':'
asbag49
(g70
g51
NtRp1904
(dp1905
g54
(dp1906
sg63
g1891
sg56
(lp1907
g49
(g50
g51
NtRp1908
(dp1909
g54
(dp1910
g62
I5
ssg63
g1904
sg56
(lp1911
S'/init/default/invitation'
p1912
asbasbasbag49
(g65
g51
NtRp1913
(dp1914
g54
(dp1915
sg63
g59
sg56
(lp1916
g49
(g70
g51
NtRp1917
(dp1918
g54
(dp1919
g74
g75
ssg63
g1913
sg56
(lp1920
S'utcnow'
p1921
asbag49
(g70
g51
NtRp1922
(dp1923
g54
(dp1924
g81
g82
ssg63
g1913
sg56
(lp1925
S':'
asbag49
(g70
g51
NtRp1926
(dp1927
g54
(dp1928
sg63
g1913
sg56
(lp1929
g49
(g50
g51
NtRp1930
(dp1931
g54
(dp1932
g62
I5
ssg63
g1926
sg56
(lp1933
S'datetime.datetime(2012, 3, 23, 14, 38, 38, 788000)'
p1934
asbasbasbag49
(g65
g51
NtRp1935
(dp1936
g54
(dp1937
sg63
g59
sg56
(lp1938
g49
(g70
g51
NtRp1939
(dp1940
g54
(dp1941
g74
g75
ssg63
g1935
sg56
(lp1942
S'uuid'
p1943
asbag49
(g70
g51
NtRp1944
(dp1945
g54
(dp1946
g81
g82
ssg63
g1935
sg56
(lp1947
S':'
asbag49
(g70
g51
NtRp1948
(dp1949
g54
(dp1950
sg63
g1935
sg56
(lp1951
g49
(g50
g51
NtRp1952
(dp1953
g54
(dp1954
g62
I5
ssg63
g1948
sg56
(lp1955
S'init/127.0.0.1.2012-03-23.15-38-38.ecb2cfa1-72f5-4636-8f87-a8196d221a6c'
p1956
asbasbasbag49
(g65
g51
NtRp1957
(dp1958
g54
(dp1959
sg63
g59
sg56
(lp1960
g49
(g70
g51
NtRp1961
(dp1962
g54
(dp1963
g74
g75
ssg63
g1957
sg56
(lp1964
S'vars'
p1965
asbag49
(g70
g51
NtRp1966
(dp1967
g54
(dp1968
g81
g82
ssg63
g1957
sg56
(lp1969
S':'
asbag49
(g70
g51
NtRp1970
(dp1971
g54
(dp1972
sg63
g1957
sg56
(lp1973
g49
(g50
g51
NtRp1974
(dp1975
g54
(dp1976
g62
I5
ssg63
g1970
sg56
(lp1977
g49
(g58
g51
NtRp1978
(dp1979
g54
(dp1980
g62
I4
ssg63
Nsg56
(lp1981
sbasbasbasbag49
(g65
g51
NtRp1982
(dp1983
g54
(dp1984
sg63
g59
sg56
(lp1985
g49
(g70
g51
NtRp1986
(dp1987
g54
(dp1988
g74
g75
ssg63
g1982
sg56
(lp1989
S'wsgi'
p1990
asbag49
(g70
g51
NtRp1991
(dp1992
g54
(dp1993
g81
g82
ssg63
g1982
sg56
(lp1994
S':'
asbag49
(g70
g51
NtRp1995
(dp1996
g54
(dp1997
sg63
g1982
sg56
(lp1998
g49
(g50
g51
NtRp1999
(dp2000
g54
(dp2001
g62
I5
ssg63
g1995
sg56
(lp2002
g49
(g58
g51
NtRp2003
(dp2004
g54
(dp2005
g62
I4
ssg63
Nsg56
(lp2006
g49
(g65
g51
NtRp2007
(dp2008
g54
(dp2009
sg63
g2003
sg56
(lp2010
g49
(g70
g51
NtRp2011
(dp2012
g54
(dp2013
g74
g75
ssg63
g2007
sg56
(lp2014
S'environ'
p2015
asbag49
(g70
g51
NtRp2016
(dp2017
g54
(dp2018
g81
g82
ssg63
g2007
sg56
(lp2019
S':'
asbag49
(g70
g51
NtRp2020
(dp2021
g54
(dp2022
sg63
g2007
sg56
(lp2023
g49
(g50
g51
NtRp2024
(dp2025
g54
(dp2026
g62
I4
ssg63
g2020
sg56
(lp2027
g49
(g58
g51
NtRp2028
(dp2029
g54
(dp2030
g62
I3
ssg63
Nsg56
(lp2031
g49
(g65
g51
NtRp2032
(dp2033
g54
(dp2034
sg63
g2028
sg56
(lp2035
g49
(g70
g51
NtRp2036
(dp2037
g54
(dp2038
g74
g75
ssg63
g2032
sg56
(lp2039
S'HTTP_ACCEPT'
p2040
asbag49
(g70
g51
NtRp2041
(dp2042
g54
(dp2043
g81
g82
ssg63
g2032
sg56
(lp2044
S':'
asbag49
(g70
g51
NtRp2045
(dp2046
g54
(dp2047
sg63
g2032
sg56
(lp2048
g49
(g50
g51
NtRp2049
(dp2050
g54
(dp2051
g62
I3
ssg63
g2045
sg56
(lp2052
g605
asbasbasbag49
(g65
g51
NtRp2053
(dp2054
g54
(dp2055
sg63
g2028
sg56
(lp2056
g49
(g70
g51
NtRp2057
(dp2058
g54
(dp2059
g74
g75
ssg63
g2053
sg56
(lp2060
S'HTTP_ACCEPT_CHARSET'
p2061
asbag49
(g70
g51
NtRp2062
(dp2063
g54
(dp2064
g81
g82
ssg63
g2053
sg56
(lp2065
S':'
asbag49
(g70
g51
NtRp2066
(dp2067
g54
(dp2068
sg63
g2053
sg56
(lp2069
g49
(g50
g51
NtRp2070
(dp2071
g54
(dp2072
g62
I3
ssg63
g2066
sg56
(lp2073
g627
asbasbasbag49
(g65
g51
NtRp2074
(dp2075
g54
(dp2076
sg63
g2028
sg56
(lp2077
g49
(g70
g51
NtRp2078
(dp2079
g54
(dp2080
g74
g75
ssg63
g2074
sg56
(lp2081
S'HTTP_ACCEPT_ENCODING'
p2082
asbag49
(g70
g51
NtRp2083
(dp2084
g54
(dp2085
g81
g82
ssg63
g2074
sg56
(lp2086
S':'
asbag49
(g70
g51
NtRp2087
(dp2088
g54
(dp2089
sg63
g2074
sg56
(lp2090
g49
(g50
g51
NtRp2091
(dp2092
g54
(dp2093
g62
I3
ssg63
g2087
sg56
(lp2094
g649
asbasbasbag49
(g65
g51
NtRp2095
(dp2096
g54
(dp2097
sg63
g2028
sg56
(lp2098
g49
(g70
g51
NtRp2099
(dp2100
g54
(dp2101
g74
g75
ssg63
g2095
sg56
(lp2102
S'HTTP_ACCEPT_LANGUAGE'
p2103
asbag49
(g70
g51
NtRp2104
(dp2105
g54
(dp2106
g81
g82
ssg63
g2095
sg56
(lp2107
S':'
asbag49
(g70
g51
NtRp2108
(dp2109
g54
(dp2110
sg63
g2095
sg56
(lp2111
g49
(g50
g51
NtRp2112
(dp2113
g54
(dp2114
g62
I3
ssg63
g2108
sg56
(lp2115
g671
asbasbasbag49
(g65
g51
NtRp2116
(dp2117
g54
(dp2118
sg63
g2028
sg56
(lp2119
g49
(g70
g51
NtRp2120
(dp2121
g54
(dp2122
g74
g75
ssg63
g2116
sg56
(lp2123
S'HTTP_CONNECTION'
p2124
asbag49
(g70
g51
NtRp2125
(dp2126
g54
(dp2127
g81
g82
ssg63
g2116
sg56
(lp2128
S':'
asbag49
(g70
g51
NtRp2129
(dp2130
g54
(dp2131
sg63
g2116
sg56
(lp2132
g49
(g50
g51
NtRp2133
(dp2134
g54
(dp2135
g62
I3
ssg63
g2129
sg56
(lp2136
g693
asbasbasbag49
(g65
g51
NtRp2137
(dp2138
g54
(dp2139
sg63
g2028
sg56
(lp2140
g49
(g70
g51
NtRp2141
(dp2142
g54
(dp2143
g74
g75
ssg63
g2137
sg56
(lp2144
S'HTTP_COOKIE'
p2145
asbag49
(g70
g51
NtRp2146
(dp2147
g54
(dp2148
g81
g82
ssg63
g2137
sg56
(lp2149
S':'
asbag49
(g70
g51
NtRp2150
(dp2151
g54
(dp2152
sg63
g2137
sg56
(lp2153
g49
(g50
g51
NtRp2154
(dp2155
g54
(dp2156
g62
I3
ssg63
g2150
sg56
(lp2157
g715
asbasbasbag49
(g65
g51
NtRp2158
(dp2159
g54
(dp2160
sg63
g2028
sg56
(lp2161
g49
(g70
g51
NtRp2162
(dp2163
g54
(dp2164
g74
g75
ssg63
g2158
sg56
(lp2165
S'HTTP_HOST'
p2166
asbag49
(g70
g51
NtRp2167
(dp2168
g54
(dp2169
g81
g82
ssg63
g2158
sg56
(lp2170
S':'
asbag49
(g70
g51
NtRp2171
(dp2172
g54
(dp2173
sg63
g2158
sg56
(lp2174
g49
(g50
g51
NtRp2175
(dp2176
g54
(dp2177
g62
I3
ssg63
g2171
sg56
(lp2178
g737
asbasbasbag49
(g65
g51
NtRp2179
(dp2180
g54
(dp2181
sg63
g2028
sg56
(lp2182
g49
(g70
g51
NtRp2183
(dp2184
g54
(dp2185
g74
g75
ssg63
g2179
sg56
(lp2186
S'HTTP_REFERER'
p2187
asbag49
(g70
g51
NtRp2188
(dp2189
g54
(dp2190
g81
g82
ssg63
g2179
sg56
(lp2191
S':'
asbag49
(g70
g51
NtRp2192
(dp2193
g54
(dp2194
sg63
g2179
sg56
(lp2195
g49
(g50
g51
NtRp2196
(dp2197
g54
(dp2198
g62
I3
ssg63
g2192
sg56
(lp2199
g759
asbasbasbag49
(g65
g51
NtRp2200
(dp2201
g54
(dp2202
sg63
g2028
sg56
(lp2203
g49
(g70
g51
NtRp2204
(dp2205
g54
(dp2206
g74
g75
ssg63
g2200
sg56
(lp2207
S'HTTP_USER_AGENT'
p2208
asbag49
(g70
g51
NtRp2209
(dp2210
g54
(dp2211
g81
g82
ssg63
g2200
sg56
(lp2212
S':'
asbag49
(g70
g51
NtRp2213
(dp2214
g54
(dp2215
sg63
g2200
sg56
(lp2216
g49
(g50
g51
NtRp2217
(dp2218
g54
(dp2219
g62
I3
ssg63
g2213
sg56
(lp2220
g781
asbasbasbag49
(g65
g51
NtRp2221
(dp2222
g54
(dp2223
sg63
g2028
sg56
(lp2224
g49
(g70
g51
NtRp2225
(dp2226
g54
(dp2227
g74
g75
ssg63
g2221
sg56
(lp2228
S'PATH_INFO'
p2229
asbag49
(g70
g51
NtRp2230
(dp2231
g54
(dp2232
g81
g82
ssg63
g2221
sg56
(lp2233
S':'
asbag49
(g70
g51
NtRp2234
(dp2235
g54
(dp2236
sg63
g2221
sg56
(lp2237
g49
(g50
g51
NtRp2238
(dp2239
g54
(dp2240
g62
I3
ssg63
g2234
sg56
(lp2241
g845
asbasbasbag49
(g65
g51
NtRp2242
(dp2243
g54
(dp2244
sg63
g2028
sg56
(lp2245
g49
(g70
g51
NtRp2246
(dp2247
g54
(dp2248
g74
g75
ssg63
g2242
sg56
(lp2249
S'QUERY_STRING'
p2250
asbag49
(g70
g51
NtRp2251
(dp2252
g54
(dp2253
g81
g82
ssg63
g2242
sg56
(lp2254
S':'
asbag49
(g70
g51
NtRp2255
(dp2256
g54
(dp2257
sg63
g2242
sg56
(lp2258
g49
(g50
g51
NtRp2259
(dp2260
g54
(dp2261
g62
I3
ssg63
g2255
sg56
(lp2262
S''
asbasbasbag49
(g65
g51
NtRp2263
(dp2264
g54
(dp2265
sg63
g2028
sg56
(lp2266
g49
(g70
g51
NtRp2267
(dp2268
g54
(dp2269
g74
g75
ssg63
g2263
sg56
(lp2270
S'REMOTE_ADDR'
p2271
asbag49
(g70
g51
NtRp2272
(dp2273
g54
(dp2274
g81
g82
ssg63
g2263
sg56
(lp2275
S':'
asbag49
(g70
g51
NtRp2276
(dp2277
g54
(dp2278
sg63
g2263
sg56
(lp2279
g49
(g50
g51
NtRp2280
(dp2281
g54
(dp2282
g62
I3
ssg63
g2276
sg56
(lp2283
g182
asbasbasbag49
(g65
g51
NtRp2284
(dp2285
g54
(dp2286
sg63
g2028
sg56
(lp2287
g49
(g70
g51
NtRp2288
(dp2289
g54
(dp2290
g74
g75
ssg63
g2284
sg56
(lp2291
S'REMOTE_PORT'
p2292
asbag49
(g70
g51
NtRp2293
(dp2294
g54
(dp2295
g81
g82
ssg63
g2284
sg56
(lp2296
S':'
asbag49
(g70
g51
NtRp2297
(dp2298
g54
(dp2299
sg63
g2284
sg56
(lp2300
g49
(g50
g51
NtRp2301
(dp2302
g54
(dp2303
g62
I3
ssg63
g2297
sg56
(lp2304
g909
asbasbasbag49
(g65
g51
NtRp2305
(dp2306
g54
(dp2307
sg63
g2028
sg56
(lp2308
g49
(g70
g51
NtRp2309
(dp2310
g54
(dp2311
g74
g75
ssg63
g2305
sg56
(lp2312
S'REQUEST_METHOD'
p2313
asbag49
(g70
g51
NtRp2314
(dp2315
g54
(dp2316
g81
g82
ssg63
g2305
sg56
(lp2317
S':'
asbag49
(g70
g51
NtRp2318
(dp2319
g54
(dp2320
sg63
g2305
sg56
(lp2321
g49
(g50
g51
NtRp2322
(dp2323
g54
(dp2324
g62
I3
ssg63
g2318
sg56
(lp2325
g931
asbasbasbag49
(g65
g51
NtRp2326
(dp2327
g54
(dp2328
sg63
g2028
sg56
(lp2329
g49
(g70
g51
NtRp2330
(dp2331
g54
(dp2332
g74
g75
ssg63
g2326
sg56
(lp2333
S'SCRIPT_NAME'
p2334
asbag49
(g70
g51
NtRp2335
(dp2336
g54
(dp2337
g81
g82
ssg63
g2326
sg56
(lp2338
S':'
asbag49
(g70
g51
NtRp2339
(dp2340
g54
(dp2341
sg63
g2326
sg56
(lp2342
g49
(g50
g51
NtRp2343
(dp2344
g54
(dp2345
g62
I3
ssg63
g2339
sg56
(lp2346
S''
asbasbasbag49
(g65
g51
NtRp2347
(dp2348
g54
(dp2349
sg63
g2028
sg56
(lp2350
g49
(g70
g51
NtRp2351
(dp2352
g54
(dp2353
g74
g75
ssg63
g2347
sg56
(lp2354
S'SERVER_NAME'
p2355
asbag49
(g70
g51
NtRp2356
(dp2357
g54
(dp2358
g81
g82
ssg63
g2347
sg56
(lp2359
S':'
asbag49
(g70
g51
NtRp2360
(dp2361
g54
(dp2362
sg63
g2347
sg56
(lp2363
g49
(g50
g51
NtRp2364
(dp2365
g54
(dp2366
g62
I3
ssg63
g2360
sg56
(lp2367
g974
asbasbasbag49
(g65
g51
NtRp2368
(dp2369
g54
(dp2370
sg63
g2028
sg56
(lp2371
g49
(g70
g51
NtRp2372
(dp2373
g54
(dp2374
g74
g75
ssg63
g2368
sg56
(lp2375
S'SERVER_PORT'
p2376
asbag49
(g70
g51
NtRp2377
(dp2378
g54
(dp2379
g81
g82
ssg63
g2368
sg56
(lp2380
S':'
asbag49
(g70
g51
NtRp2381
(dp2382
g54
(dp2383
sg63
g2368
sg56
(lp2384
g49
(g50
g51
NtRp2385
(dp2386
g54
(dp2387
g62
I3
ssg63
g2381
sg56
(lp2388
g996
asbasbasbag49
(g65
g51
NtRp2389
(dp2390
g54
(dp2391
sg63
g2028
sg56
(lp2392
g49
(g70
g51
NtRp2393
(dp2394
g54
(dp2395
g74
g75
ssg63
g2389
sg56
(lp2396
S'SERVER_PROTOCOL'
p2397
asbag49
(g70
g51
NtRp2398
(dp2399
g54
(dp2400
g81
g82
ssg63
g2389
sg56
(lp2401
S':'
asbag49
(g70
g51
NtRp2402
(dp2403
g54
(dp2404
sg63
g2389
sg56
(lp2405
g49
(g50
g51
NtRp2406
(dp2407
g54
(dp2408
g62
I3
ssg63
g2402
sg56
(lp2409
g1018
asbasbasbag49
(g65
g51
NtRp2410
(dp2411
g54
(dp2412
sg63
g2028
sg56
(lp2413
g49
(g70
g51
NtRp2414
(dp2415
g54
(dp2416
g74
g75
ssg63
g2410
sg56
(lp2417
S'SERVER_SOFTWARE'
p2418
asbag49
(g70
g51
NtRp2419
(dp2420
g54
(dp2421
g81
g82
ssg63
g2410
sg56
(lp2422
S':'
asbag49
(g70
g51
NtRp2423
(dp2424
g54
(dp2425
sg63
g2410
sg56
(lp2426
g49
(g50
g51
NtRp2427
(dp2428
g54
(dp2429
g62
I3
ssg63
g2423
sg56
(lp2430
g1040
asbasbasbag49
(g65
g51
NtRp2431
(dp2432
g54
(dp2433
sg63
g2028
sg56
(lp2434
g49
(g70
g51
NtRp2435
(dp2436
g54
(dp2437
g74
g75
ssg63
g2431
sg56
(lp2438
S'wsgi.errors'
p2439
asbag49
(g70
g51
NtRp2440
(dp2441
g54
(dp2442
g81
g82
ssg63
g2431
sg56
(lp2443
S':'
asbag49
(g70
g51
NtRp2444
(dp2445
g54
(dp2446
sg63
g2431
sg56
(lp2447
g49
(g50
g51
NtRp2448
(dp2449
g54
(dp2450
g62
I3
ssg63
g2444
sg56
(lp2451
S"<open file '<stderr>', mode 'w' at 0x01D300B0>"
p2452
asbasbasbag49
(g65
g51
NtRp2453
(dp2454
g54
(dp2455
sg63
g2028
sg56
(lp2456
g49
(g70
g51
NtRp2457
(dp2458
g54
(dp2459
g74
g75
ssg63
g2453
sg56
(lp2460
S'wsgi.file_wrapper'
p2461
asbag49
(g70
g51
NtRp2462
(dp2463
g54
(dp2464
g81
g82
ssg63
g2453
sg56
(lp2465
S':'
asbag49
(g70
g51
NtRp2466
(dp2467
g54
(dp2468
sg63
g2453
sg56
(lp2469
g49
(g50
g51
NtRp2470
(dp2471
g54
(dp2472
g62
I3
ssg63
g2466
sg56
(lp2473
S'<class wsgiref.util.FileWrapper at 0x02CD6900>'
p2474
asbasbasbag49
(g65
g51
NtRp2475
(dp2476
g54
(dp2477
sg63
g2028
sg56
(lp2478
g49
(g70
g51
NtRp2479
(dp2480
g54
(dp2481
g74
g75
ssg63
g2475
sg56
(lp2482
S'wsgi.input'
p2483
asbag49
(g70
g51
NtRp2484
(dp2485
g54
(dp2486
g81
g82
ssg63
g2475
sg56
(lp2487
S':'
asbag49
(g70
g51
NtRp2488
(dp2489
g54
(dp2490
sg63
g2475
sg56
(lp2491
g49
(g50
g51
NtRp2492
(dp2493
g54
(dp2494
g62
I3
ssg63
g2488
sg56
(lp2495
S'<cStringIO.StringO object at 0x0468E5A0>'
p2496
asbasbasbag49
(g65
g51
NtRp2497
(dp2498
g54
(dp2499
sg63
g2028
sg56
(lp2500
g49
(g70
g51
NtRp2501
(dp2502
g54
(dp2503
g74
g75
ssg63
g2497
sg56
(lp2504
S'wsgi.multiprocess'
p2505
asbag49
(g70
g51
NtRp2506
(dp2507
g54
(dp2508
g81
g82
ssg63
g2497
sg56
(lp2509
S':'
asbag49
(g70
g51
NtRp2510
(dp2511
g54
(dp2512
sg63
g2497
sg56
(lp2513
g49
(g50
g51
NtRp2514
(dp2515
g54
(dp2516
g62
I3
ssg63
g2510
sg56
(lp2517
g92
asbasbasbag49
(g65
g51
NtRp2518
(dp2519
g54
(dp2520
sg63
g2028
sg56
(lp2521
g49
(g70
g51
NtRp2522
(dp2523
g54
(dp2524
g74
g75
ssg63
g2518
sg56
(lp2525
S'wsgi.multithread'
p2526
asbag49
(g70
g51
NtRp2527
(dp2528
g54
(dp2529
g81
g82
ssg63
g2518
sg56
(lp2530
S':'
asbag49
(g70
g51
NtRp2531
(dp2532
g54
(dp2533
sg63
g2518
sg56
(lp2534
g49
(g50
g51
NtRp2535
(dp2536
g54
(dp2537
g62
I3
ssg63
g2531
sg56
(lp2538
g561
asbasbasbag49
(g65
g51
NtRp2539
(dp2540
g54
(dp2541
sg63
g2028
sg56
(lp2542
g49
(g70
g51
NtRp2543
(dp2544
g54
(dp2545
g74
g75
ssg63
g2539
sg56
(lp2546
S'wsgi.run_once'
p2547
asbag49
(g70
g51
NtRp2548
(dp2549
g54
(dp2550
g81
g82
ssg63
g2539
sg56
(lp2551
S':'
asbag49
(g70
g51
NtRp2552
(dp2553
g54
(dp2554
sg63
g2539
sg56
(lp2555
g49
(g50
g51
NtRp2556
(dp2557
g54
(dp2558
g62
I3
ssg63
g2552
sg56
(lp2559
g92
asbasbasbag49
(g65
g51
NtRp2560
(dp2561
g54
(dp2562
sg63
g2028
sg56
(lp2563
g49
(g70
g51
NtRp2564
(dp2565
g54
(dp2566
g74
g75
ssg63
g2560
sg56
(lp2567
S'wsgi.url_scheme'
p2568
asbag49
(g70
g51
NtRp2569
(dp2570
g54
(dp2571
g81
g82
ssg63
g2560
sg56
(lp2572
S':'
asbag49
(g70
g51
NtRp2573
(dp2574
g54
(dp2575
sg63
g2560
sg56
(lp2576
g49
(g50
g51
NtRp2577
(dp2578
g54
(dp2579
g62
I3
ssg63
g2573
sg56
(lp2580
g1322
asbasbasbag49
(g65
g51
NtRp2581
(dp2582
g54
(dp2583
sg63
g2028
sg56
(lp2584
g49
(g70
g51
NtRp2585
(dp2586
g54
(dp2587
g74
g75
ssg63
g2581
sg56
(lp2588
S'wsgi.version'
p2589
asbag49
(g70
g51
NtRp2590
(dp2591
g54
(dp2592
g81
g82
ssg63
g2581
sg56
(lp2593
S':'
asbag49
(g70
g51
NtRp2594
(dp2595
g54
(dp2596
sg63
g2581
sg56
(lp2597
g49
(g50
g51
NtRp2598
(dp2599
g54
(dp2600
g62
I3
ssg63
g2594
sg56
(lp2601
S'1'
asbasbasbasbasbasbasbasbasbasbasbasbasbsS'frames'
p2602
(lp2603
(dp2604
S'file'
p2605
S'C:\\Users\\Bussiere\\Dropbox\\Projets\\jackpoint\\web2py\\gluon\\restricted.py'
p2606
sS'dump'
p2607
(dp2608
sS'lnum'
p2609
I205
sS'lines'
p2610
(dp2611
I200
S'    try:'
p2612
sI201
S'        if type(code) == types.CodeType:'
p2613
sI202
S'            ccode = code'
p2614
sI203
S'        else:'
p2615
sI204
S'            ccode = compile2(code,layer)'
p2616
sI205
S'        exec ccode in environment'
p2617
sI206
S'    except HTTP:'
p2618
sI207
S'        raise'
p2619
sI208
S'    except RestrictedError:'
p2620
sI209
S'        # do not encapsulate (obfuscate) the original RestrictedError'
p2621
ssS'call'
p2622
S"(code='# -*- coding: utf-8 -*-\\n# this file is released ...())\\n\\nresponse._vars=response._caller(invitation)\\n', environment={'A': <class 'gluon.html.A'>, 'Auth': <class 'gluon.tools.Auth'>, 'AutocompleteWidget': <class 'gluon.sqlhtml.AutocompleteWidget'>, 'B': <class 'gluon.html.B'>, 'BEAUTIFY': <class 'gluon.html.BEAUTIFY'>, 'BODY': <class 'gluon.html.BODY'>, 'BR': <class 'gluon.html.BR'>, 'BUTTON': <class 'gluon.html.BUTTON'>, 'BooleanWidget': <class 'gluon.sqlhtml.BooleanWidget'>, 'CALLABLETYPES': (<type 'function'>, <type 'function'>, <type 'builtin_function_or_method'>, <type 'instancemethod'>, <type 'builtin_function_or_method'>), ...}, layer=r'C:\\Users\\Bussiere\\Dropbox\\Projets\\jackpoint\\web2py\\applications\\init\\controllers/default.py')"
p2623
sS'func'
p2624
S'restricted'
p2625
sa(dp2626
g2605
S'C:\\Users\\Bussiere\\Dropbox\\Projets\\jackpoint\\web2py\\applications\\init\\controllers\\default.py'
p2627
sg2607
(dp2628
sg2609
I332
sg2610
(dp2629
I321
S'    http://..../[app]/default/data/update/[table]/[id]'
p2630
sI322
S'    http://..../[app]/default/data/delete/[table]/[id]'
p2631
sI323
S'    http://..../[app]/default/data/select/[table]'
p2632
sI324
S'    http://..../[app]/default/data/search/[table]'
p2633
sI325
S'    but URLs must be signed, i.e. linked with'
p2634
sI326
S"      A('table',_href=URL('data/tables',user_signature=True))"
p2635
sI327
S'    or with the signed load operator'
p2636
sI328
S"      LOAD('default','data.load',args='tables',ajax=True,user_signature=True)"
p2637
sI329
S'    """'
p2638
sI330
S'    return dict(form=crud())'
p2639
ssg2622
S'()'
p2640
sg2624
S'<module>'
p2641
sa(dp2642
g2605
S'C:\\Users\\Bussiere\\Dropbox\\Projets\\jackpoint\\web2py\\gluon\\globals.py'
p2643
sg2607
(dp2644
sg2609
I173
sg2610
(dp2645
I168
S'        self.menu = []             # used by the default view layout'
p2646
sI169
S'        self.files = []            # used by web2py_ajax.html'
p2647
sI170
S'        self.generic_patterns = [] # patterns to allow generic views'
p2648
sI171
S"        self.delimiters = ('{{','}}')"
p2649
sI172
S'        self._vars = None'
p2650
sI173
S'        self._caller = lambda f: f()'
p2651
sI174
S'        self._view_environment = None'
p2652
sI175
S'        self._custom_commit = None'
p2653
sI176
S'        self._custom_rollback = None'
p2654
sI177
S''
ssg2622
S'(f=<function invitation at 0x043BBCB0>)'
p2655
sg2624
S'<lambda>'
p2656
sa(dp2657
g2605
S'C:\\Users\\Bussiere\\Dropbox\\Projets\\jackpoint\\web2py\\applications\\init\\controllers\\default.py'
p2658
sg2607
(dp2659
sg2609
I271
sg2610
(dp2660
I266
S''
sI267
S'def invitation():'
p2661
sI268
S'    form=FORM("Code Invitation :", INPUT(_name=\'invitation\'),INPUT(_name=\'email\'),  INPUT(_type=\'submit\'))'
p2662
sI269
S'    if form.process(onvalidation=verif_invitation) :'
p2663
sI270
S'        user = "" #ensure_first_user("john","doe",form.vars.email,form.vars.invitation)\xe2\x80\x8b'
p2664
sI271
S'        auth.user = Storage(auth.settings.table_user._filter_fields(user, id=True))'
p2665
sI272
S'        auth.environment.session.auth = Storage(user=user, last_visit=request.now,'
p2666
sI273
S'                                            expiration=auth.settings.expiration)'
p2667
sI274
S"        redirect(URL('inscription'))"
p2668
sI275
S'    return dict(form=form)'
p2669
ssg2622
S'()'
p2670
sg2624
S'invitation'
p2671
sa(dp2672
g2605
S'C:\\Users\\Bussiere\\Dropbox\\Projets\\jackpoint\\web2py\\gluon\\dal.py'
p2673
sg2607
(dp2674
sg2609
I6683
sg2610
(dp2675
I6678
S'                rtable._referenced_by.append((self._tablename, field.name))'
p2676
sI6679
S'        for referee in pr.get(self._tablename,[]):'
p2677
sI6680
S'            self._referenced_by.append((referee._tablename,referee.name))'
p2678
sI6681
S''
sI6682
S'    def _filter_fields(self, record, id=False):'
p2679
sI6683
S'        return dict([(k, v) for (k, v) in record.items() if k'
p2680
sI6684
S"                     in self.fields and (self[k].type!='id' or id)])"
p2681
sI6685
S''
sI6686
S'    def _build_query(self,key):'
p2682
sI6687
S'        """ for keyed table only """'
p2683
ssg2622
S"(self=<Table {'_db': <DAL {'auth_event': <Table {'orig...on_key': <gluon.dal.Field object at 0x048457B0>}>, record='', id=True)"
p2684
sg2624
S'_filter_fields'
p2685
sasS'pyver'
p2686
S'Python 2.5.4: C:\\Users\\Bussiere\\Dropbox\\Projets\\jackpoint\\web2py\\web2py.exe'
p2687
sS'session'
p2688
g49
(g50
g51
NtRp2689
(dp2690
g54
(dp2691
sg56
(lp2692
g49
(g58
g51
NtRp2693
(dp2694
g54
(dp2695
g62
I5
ssg63
Nsg56
(lp2696
sbasbsS'etype'
p2697
S"<type 'exceptions.AttributeError'>"
p2698
sS'date'
p2699
S'Fri Mar 23 15:38:39 2012'
p2700
sS'response'
p2701
g49
(g50
g51
NtRp2702
(dp2703
g54
(dp2704
sg56
(lp2705
g49
(g58
g51
NtRp2706
(dp2707
g54
(dp2708
g62
I5
ssg63
Nsg56
(lp2709
g49
(g65
g51
NtRp2710
(dp2711
g54
(dp2712
sg63
g2706
sg56
(lp2713
g49
(g70
g51
NtRp2714
(dp2715
g54
(dp2716
g74
g75
ssg63
g2710
sg56
(lp2717
g147
asbag49
(g70
g51
NtRp2718
(dp2719
g54
(dp2720
g81
g82
ssg63
g2710
sg56
(lp2721
S':'
asbag49
(g70
g51
NtRp2722
(dp2723
g54
(dp2724
sg63
g2710
sg56
(lp2725
g49
(g50
g51
NtRp2726
(dp2727
g54
(dp2728
g62
I5
ssg63
g2722
sg56
(lp2729
S'<cStringIO.StringO object at 0x04989620>'
p2730
asbasbasbag49
(g65
g51
NtRp2731
(dp2732
g54
(dp2733
sg63
g2706
sg56
(lp2734
g49
(g70
g51
NtRp2735
(dp2736
g54
(dp2737
g74
g75
ssg63
g2731
sg56
(lp2738
g213
asbag49
(g70
g51
NtRp2739
(dp2740
g54
(dp2741
g81
g82
ssg63
g2731
sg56
(lp2742
S':'
asbag49
(g70
g51
NtRp2743
(dp2744
g54
(dp2745
sg63
g2731
sg56
(lp2746
g49
(g50
g51
NtRp2747
(dp2748
g54
(dp2749
g62
I5
ssg63
g2743
sg56
(lp2750
g49
(g58
g51
NtRp2751
(dp2752
g54
(dp2753
g62
I4
ssg63
Nsg56
(lp2754
g49
(g65
g51
NtRp2755
(dp2756
g54
(dp2757
sg63
g2751
sg56
(lp2758
g49
(g70
g51
NtRp2759
(dp2760
g54
(dp2761
g74
g75
ssg63
g2755
sg56
(lp2762
S'session_id_init'
p2763
asbag49
(g70
g51
NtRp2764
(dp2765
g54
(dp2766
g81
g82
ssg63
g2755
sg56
(lp2767
S':'
asbag49
(g70
g51
NtRp2768
(dp2769
g54
(dp2770
sg63
g2755
sg56
(lp2771
g49
(g50
g51
NtRp2772
(dp2773
g54
(dp2774
g62
I4
ssg63
g2768
sg56
(lp2775
g49
(g58
g51
NtRp2776
(dp2777
g54
(dp2778
g62
I3
ssg63
Nsg56
(lp2779
g49
(g65
g51
NtRp2780
(dp2781
g54
(dp2782
sg63
g2776
sg56
(lp2783
g49
(g70
g51
NtRp2784
(dp2785
g54
(dp2786
g74
g75
ssg63
g2780
sg56
(lp2787
g263
asbag49
(g70
g51
NtRp2788
(dp2789
g54
(dp2790
g81
g82
ssg63
g2780
sg56
(lp2791
S':'
asbag49
(g70
g51
NtRp2792
(dp2793
g54
(dp2794
sg63
g2780
sg56
(lp2795
g49
(g50
g51
NtRp2796
(dp2797
g54
(dp2798
g62
I3
ssg63
g2792
sg56
(lp2799
S''
asbasbasbag49
(g65
g51
NtRp2800
(dp2801
g54
(dp2802
sg63
g2776
sg56
(lp2803
g49
(g70
g51
NtRp2804
(dp2805
g54
(dp2806
g74
g75
ssg63
g2800
sg56
(lp2807
g284
asbag49
(g70
g51
NtRp2808
(dp2809
g54
(dp2810
g81
g82
ssg63
g2800
sg56
(lp2811
S':'
asbag49
(g70
g51
NtRp2812
(dp2813
g54
(dp2814
sg63
g2800
sg56
(lp2815
g49
(g50
g51
NtRp2816
(dp2817
g54
(dp2818
g62
I3
ssg63
g2812
sg56
(lp2819
S''
asbasbasbag49
(g65
g51
NtRp2820
(dp2821
g54
(dp2822
sg63
g2776
sg56
(lp2823
g49
(g70
g51
NtRp2824
(dp2825
g54
(dp2826
g74
g75
ssg63
g2820
sg56
(lp2827
g305
asbag49
(g70
g51
NtRp2828
(dp2829
g54
(dp2830
g81
g82
ssg63
g2820
sg56
(lp2831
S':'
asbag49
(g70
g51
NtRp2832
(dp2833
g54
(dp2834
sg63
g2820
sg56
(lp2835
g49
(g50
g51
NtRp2836
(dp2837
g54
(dp2838
g62
I3
ssg63
g2832
sg56
(lp2839
S''
asbasbasbag49
(g65
g51
NtRp2840
(dp2841
g54
(dp2842
sg63
g2776
sg56
(lp2843
g49
(g70
g51
NtRp2844
(dp2845
g54
(dp2846
g74
g75
ssg63
g2840
sg56
(lp2847
g326
asbag49
(g70
g51
NtRp2848
(dp2849
g54
(dp2850
g81
g82
ssg63
g2840
sg56
(lp2851
S':'
asbag49
(g70
g51
NtRp2852
(dp2853
g54
(dp2854
sg63
g2840
sg56
(lp2855
g49
(g50
g51
NtRp2856
(dp2857
g54
(dp2858
g62
I3
ssg63
g2852
sg56
(lp2859
S''
asbasbasbag49
(g65
g51
NtRp2860
(dp2861
g54
(dp2862
sg63
g2776
sg56
(lp2863
g49
(g70
g51
NtRp2864
(dp2865
g54
(dp2866
g74
g75
ssg63
g2860
sg56
(lp2867
g347
asbag49
(g70
g51
NtRp2868
(dp2869
g54
(dp2870
g81
g82
ssg63
g2860
sg56
(lp2871
S':'
asbag49
(g70
g51
NtRp2872
(dp2873
g54
(dp2874
sg63
g2860
sg56
(lp2875
g49
(g50
g51
NtRp2876
(dp2877
g54
(dp2878
g62
I3
ssg63
g2872
sg56
(lp2879
S'/'
asbasbasbag49
(g65
g51
NtRp2880
(dp2881
g54
(dp2882
sg63
g2776
sg56
(lp2883
g49
(g70
g51
NtRp2884
(dp2885
g54
(dp2886
g74
g75
ssg63
g2880
sg56
(lp2887
g368
asbag49
(g70
g51
NtRp2888
(dp2889
g54
(dp2890
g81
g82
ssg63
g2880
sg56
(lp2891
S':'
asbag49
(g70
g51
NtRp2892
(dp2893
g54
(dp2894
sg63
g2880
sg56
(lp2895
g49
(g50
g51
NtRp2896
(dp2897
g54
(dp2898
g62
I3
ssg63
g2892
sg56
(lp2899
S''
asbasbasbag49
(g65
g51
NtRp2900
(dp2901
g54
(dp2902
sg63
g2776
sg56
(lp2903
g49
(g70
g51
NtRp2904
(dp2905
g54
(dp2906
g74
g75
ssg63
g2900
sg56
(lp2907
g389
asbag49
(g70
g51
NtRp2908
(dp2909
g54
(dp2910
g81
g82
ssg63
g2900
sg56
(lp2911
S':'
asbag49
(g70
g51
NtRp2912
(dp2913
g54
(dp2914
sg63
g2900
sg56
(lp2915
g49
(g50
g51
NtRp2916
(dp2917
g54
(dp2918
g62
I3
ssg63
g2912
sg56
(lp2919
S''
asbasbasbasbasbasbasbasbasbasbasbag49
(g65
g51
NtRp2920
(dp2921
g54
(dp2922
sg63
g2706
sg56
(lp2923
g49
(g70
g51
NtRp2924
(dp2925
g54
(dp2926
g74
g75
ssg63
g2920
sg56
(lp2927
S'delimiters'
p2928
asbag49
(g70
g51
NtRp2929
(dp2930
g54
(dp2931
g81
g82
ssg63
g2920
sg56
(lp2932
S':'
asbag49
(g70
g51
NtRp2933
(dp2934
g54
(dp2935
sg63
g2920
sg56
(lp2936
g49
(g50
g51
NtRp2937
(dp2938
g54
(dp2939
g62
I5
ssg63
g2933
sg56
(lp2940
g49
(g58
g51
NtRp2941
(dp2942
g54
(dp2943
g62
I4
ssg63
Nsg56
(lp2944
g49
(g65
g51
NtRp2945
(dp2946
g54
(dp2947
sg63
g2941
sg56
(lp2948
g49
(g70
g51
NtRp2949
(dp2950
g54
(dp2951
sg63
g2945
sg56
(lp2952
g49
(g50
g51
NtRp2953
(dp2954
g54
(dp2955
g62
I4
ssg63
g2949
sg56
(lp2956
S'{{'
p2957
asbasbasbag49
(g65
g51
NtRp2958
(dp2959
g54
(dp2960
sg63
g2941
sg56
(lp2961
g49
(g70
g51
NtRp2962
(dp2963
g54
(dp2964
sg63
g2958
sg56
(lp2965
g49
(g50
g51
NtRp2966
(dp2967
g54
(dp2968
g62
I4
ssg63
g2962
sg56
(lp2969
S'}}'
p2970
asbasbasbasbasbasbasbag49
(g65
g51
NtRp2971
(dp2972
g54
(dp2973
sg63
g2706
sg56
(lp2974
g49
(g70
g51
NtRp2975
(dp2976
g54
(dp2977
g74
g75
ssg63
g2971
sg56
(lp2978
S'files'
p2979
asbag49
(g70
g51
NtRp2980
(dp2981
g54
(dp2982
g81
g82
ssg63
g2971
sg56
(lp2983
S':'
asbag49
(g70
g51
NtRp2984
(dp2985
g54
(dp2986
sg63
g2971
sg56
(lp2987
g49
(g50
g51
NtRp2988
(dp2989
g54
(dp2990
g62
I5
ssg63
g2984
sg56
(lp2991
g49
(g58
g51
NtRp2992
(dp2993
g54
(dp2994
g62
I4
ssg63
Nsg56
(lp2995
sbasbasbasbag49
(g65
g51
NtRp2996
(dp2997
g54
(dp2998
sg63
g2706
sg56
(lp2999
g49
(g70
g51
NtRp3000
(dp3001
g54
(dp3002
g74
g75
ssg63
g2996
sg56
(lp3003
S'flash'
p3004
asbag49
(g70
g51
NtRp3005
(dp3006
g54
(dp3007
g81
g82
ssg63
g2996
sg56
(lp3008
S':'
asbag49
(g70
g51
NtRp3009
(dp3010
g54
(dp3011
sg63
g2996
sg56
(lp3012
g49
(g50
g51
NtRp3013
(dp3014
g54
(dp3015
g62
I5
ssg63
g3009
sg56
(lp3016
S''
asbasbasbag49
(g65
g51
NtRp3017
(dp3018
g54
(dp3019
sg63
g2706
sg56
(lp3020
g49
(g70
g51
NtRp3021
(dp3022
g54
(dp3023
g74
g75
ssg63
g3017
sg56
(lp3024
S'generic_patterns'
p3025
asbag49
(g70
g51
NtRp3026
(dp3027
g54
(dp3028
g81
g82
ssg63
g3017
sg56
(lp3029
S':'
asbag49
(g70
g51
NtRp3030
(dp3031
g54
(dp3032
sg63
g3017
sg56
(lp3033
g49
(g50
g51
NtRp3034
(dp3035
g54
(dp3036
g62
I5
ssg63
g3030
sg56
(lp3037
g49
(g58
g51
NtRp3038
(dp3039
g54
(dp3040
g62
I4
ssg63
Nsg56
(lp3041
g49
(g65
g51
NtRp3042
(dp3043
g54
(dp3044
sg63
g3038
sg56
(lp3045
g49
(g70
g51
NtRp3046
(dp3047
g54
(dp3048
sg63
g3042
sg56
(lp3049
g49
(g50
g51
NtRp3050
(dp3051
g54
(dp3052
g62
I4
ssg63
g3046
sg56
(lp3053
S'*'
asbasbasbasbasbasbasbag49
(g65
g51
NtRp3054
(dp3055
g54
(dp3056
sg63
g2706
sg56
(lp3057
g49
(g70
g51
NtRp3058
(dp3059
g54
(dp3060
g74
g75
ssg63
g3054
sg56
(lp3061
S'headers'
p3062
asbag49
(g70
g51
NtRp3063
(dp3064
g54
(dp3065
g81
g82
ssg63
g3054
sg56
(lp3066
S':'
asbag49
(g70
g51
NtRp3067
(dp3068
g54
(dp3069
sg63
g3054
sg56
(lp3070
g49
(g50
g51
NtRp3071
(dp3072
g54
(dp3073
g62
I5
ssg63
g3067
sg56
(lp3074
g49
(g58
g51
NtRp3075
(dp3076
g54
(dp3077
g62
I4
ssg63
Nsg56
(lp3078
g49
(g65
g51
NtRp3079
(dp3080
g54
(dp3081
sg63
g3075
sg56
(lp3082
g49
(g70
g51
NtRp3083
(dp3084
g54
(dp3085
g74
g75
ssg63
g3079
sg56
(lp3086
S'Cache-Control'
p3087
asbag49
(g70
g51
NtRp3088
(dp3089
g54
(dp3090
g81
g82
ssg63
g3079
sg56
(lp3091
S':'
asbag49
(g70
g51
NtRp3092
(dp3093
g54
(dp3094
sg63
g3079
sg56
(lp3095
g49
(g50
g51
NtRp3096
(dp3097
g54
(dp3098
g62
I4
ssg63
g3092
sg56
(lp3099
S'no-store, no-cache, must-revalidate, post-check=0, pre-check=0'
p3100
asbasbasbag49
(g65
g51
NtRp3101
(dp3102
g54
(dp3103
sg63
g3075
sg56
(lp3104
g49
(g70
g51
NtRp3105
(dp3106
g54
(dp3107
g74
g75
ssg63
g3101
sg56
(lp3108
S'Content-Type'
p3109
asbag49
(g70
g51
NtRp3110
(dp3111
g54
(dp3112
g81
g82
ssg63
g3101
sg56
(lp3113
S':'
asbag49
(g70
g51
NtRp3114
(dp3115
g54
(dp3116
sg63
g3101
sg56
(lp3117
g49
(g50
g51
NtRp3118
(dp3119
g54
(dp3120
g62
I4
ssg63
g3114
sg56
(lp3121
S'text/html; charset=utf-8'
p3122
asbasbasbag49
(g65
g51
NtRp3123
(dp3124
g54
(dp3125
sg63
g3075
sg56
(lp3126
g49
(g70
g51
NtRp3127
(dp3128
g54
(dp3129
g74
g75
ssg63
g3123
sg56
(lp3130
S'Expires'
p3131
asbag49
(g70
g51
NtRp3132
(dp3133
g54
(dp3134
g81
g82
ssg63
g3123
sg56
(lp3135
S':'
asbag49
(g70
g51
NtRp3136
(dp3137
g54
(dp3138
sg63
g3123
sg56
(lp3139
g49
(g50
g51
NtRp3140
(dp3141
g54
(dp3142
g62
I4
ssg63
g3136
sg56
(lp3143
S'Fri, 23 Mar 2012 14:38:38 GMT'
p3144
asbasbasbag49
(g65
g51
NtRp3145
(dp3146
g54
(dp3147
sg63
g3075
sg56
(lp3148
g49
(g70
g51
NtRp3149
(dp3150
g54
(dp3151
g74
g75
ssg63
g3145
sg56
(lp3152
S'Pragma'
p3153
asbag49
(g70
g51
NtRp3154
(dp3155
g54
(dp3156
g81
g82
ssg63
g3145
sg56
(lp3157
S':'
asbag49
(g70
g51
NtRp3158
(dp3159
g54
(dp3160
sg63
g3145
sg56
(lp3161
g49
(g50
g51
NtRp3162
(dp3163
g54
(dp3164
g62
I4
ssg63
g3158
sg56
(lp3165
S'no-cache'
p3166
asbasbasbag49
(g65
g51
NtRp3167
(dp3168
g54
(dp3169
sg63
g3075
sg56
(lp3170
g49
(g70
g51
NtRp3171
(dp3172
g54
(dp3173
g74
g75
ssg63
g3167
sg56
(lp3174
S'X-Powered-By'
p3175
asbag49
(g70
g51
NtRp3176
(dp3177
g54
(dp3178
g81
g82
ssg63
g3167
sg56
(lp3179
S':'
asbag49
(g70
g51
NtRp3180
(dp3181
g54
(dp3182
sg63
g3167
sg56
(lp3183
g49
(g50
g51
NtRp3184
(dp3185
g54
(dp3186
g62
I4
ssg63
g3180
sg56
(lp3187
S'web2py'
p3188
asbasbasbasbasbasbasbag49
(g65
g51
NtRp3189
(dp3190
g54
(dp3191
sg63
g2706
sg56
(lp3192
g49
(g70
g51
NtRp3193
(dp3194
g54
(dp3195
g74
g75
ssg63
g3189
sg56
(lp3196
S'menu'
p3197
asbag49
(g70
g51
NtRp3198
(dp3199
g54
(dp3200
g81
g82
ssg63
g3189
sg56
(lp3201
S':'
asbag49
(g70
g51
NtRp3202
(dp3203
g54
(dp3204
sg63
g3189
sg56
(lp3205
g49
(g50
g51
NtRp3206
(dp3207
g54
(dp3208
g62
I5
ssg63
g3202
sg56
(lp3209
g49
(g58
g51
NtRp3210
(dp3211
g54
(dp3212
g62
I4
ssg63
Nsg56
(lp3213
g49
(g65
g51
NtRp3214
(dp3215
g54
(dp3216
sg63
g3210
sg56
(lp3217
g49
(g70
g51
NtRp3218
(dp3219
g54
(dp3220
sg63
g3214
sg56
(lp3221
g49
(g50
g51
NtRp3222
(dp3223
g54
(dp3224
g62
I4
ssg63
g3218
sg56
(lp3225
g49
(g58
g51
NtRp3226
(dp3227
g54
(dp3228
g62
I3
ssg63
Nsg56
(lp3229
g49
(g65
g51
NtRp3230
(dp3231
g54
(dp3232
sg63
g3226
sg56
(lp3233
g49
(g70
g51
NtRp3234
(dp3235
g54
(dp3236
sg63
g3230
sg56
(lp3237
g49
(g50
g51
NtRp3238
(dp3239
g54
(dp3240
g62
I3
ssg63
g3234
sg56
(lp3241
cgluon.languages
lazyT_unpickle
p3242
(S's\x04\x00\x00\x00Home'
tRp3243
asbasbasbag49
(g65
g51
NtRp3244
(dp3245
g54
(dp3246
sg63
g3226
sg56
(lp3247
g49
(g70
g51
NtRp3248
(dp3249
g54
(dp3250
sg63
g3244
sg56
(lp3251
g49
(g50
g51
NtRp3252
(dp3253
g54
(dp3254
g62
I3
ssg63
g3248
sg56
(lp3255
g92
asbasbasbag49
(g65
g51
NtRp3256
(dp3257
g54
(dp3258
sg63
g3226
sg56
(lp3259
g49
(g70
g51
NtRp3260
(dp3261
g54
(dp3262
sg63
g3256
sg56
(lp3263
g49
(g50
g51
NtRp3264
(dp3265
g54
(dp3266
g62
I3
ssg63
g3260
sg56
(lp3267
S'/init/default/index'
p3268
asbasbasbag49
(g65
g51
NtRp3269
(dp3270
g54
(dp3271
sg63
g3226
sg56
(lp3272
g49
(g70
g51
NtRp3273
(dp3274
g54
(dp3275
sg63
g3269
sg56
(lp3276
g49
(g50
g51
NtRp3277
(dp3278
g54
(dp3279
g62
I3
ssg63
g3273
sg56
(lp3280
g49
(g58
g51
NtRp3281
(dp3282
g54
(dp3283
g62
I2
ssg63
Nsg56
(lp3284
sbasbasbasbasbasbasbasbag49
(g65
g51
NtRp3285
(dp3286
g54
(dp3287
sg63
g3210
sg56
(lp3288
g49
(g70
g51
NtRp3289
(dp3290
g54
(dp3291
sg63
g3285
sg56
(lp3292
g49
(g50
g51
NtRp3293
(dp3294
g54
(dp3295
g62
I4
ssg63
g3289
sg56
(lp3296
g49
(g58
g51
NtRp3297
(dp3298
g54
(dp3299
g62
I3
ssg63
Nsg56
(lp3300
g49
(g65
g51
NtRp3301
(dp3302
g54
(dp3303
sg63
g3297
sg56
(lp3304
g49
(g70
g51
NtRp3305
(dp3306
g54
(dp3307
sg63
g3301
sg56
(lp3308
g49
(g50
g51
NtRp3309
(dp3310
g54
(dp3311
g62
I3
ssg63
g3305
sg56
(lp3312
g49
(cgluon.html
SPAN
p3313
g51
NtRp3314
(dp3315
g54
(dp3316
g74
S'color:yellow'
p3317
ssg63
Nsg56
(lp3318
g3188
asbasbasbasbag49
(g65
g51
NtRp3319
(dp3320
g54
(dp3321
sg63
g3297
sg56
(lp3322
g49
(g70
g51
NtRp3323
(dp3324
g54
(dp3325
sg63
g3319
sg56
(lp3326
g49
(g50
g51
NtRp3327
(dp3328
g54
(dp3329
g62
I3
ssg63
g3323
sg56
(lp3330
g92
asbasbasbag49
(g65
g51
NtRp3331
(dp3332
g54
(dp3333
sg63
g3297
sg56
(lp3334
g49
(g70
g51
NtRp3335
(dp3336
g54
(dp3337
sg63
g3331
sg56
(lp3338
g49
(g50
g51
NtRp3339
(dp3340
g54
(dp3341
g62
I3
ssg63
g3335
sg56
(lp3342
S'None'
p3343
asbasbasbag49
(g65
g51
NtRp3344
(dp3345
g54
(dp3346
sg63
g3297
sg56
(lp3347
g49
(g70
g51
NtRp3348
(dp3349
g54
(dp3350
sg63
g3344
sg56
(lp3351
g49
(g50
g51
NtRp3352
(dp3353
g54
(dp3354
g62
I3
ssg63
g3348
sg56
(lp3355
g49
(g58
g51
NtRp3356
(dp3357
g54
(dp3358
g62
I2
ssg63
Nsg56
(lp3359
g49
(g65
g51
NtRp3360
(dp3361
g54
(dp3362
sg63
g3356
sg56
(lp3363
g49
(g70
g51
NtRp3364
(dp3365
g54
(dp3366
sg63
g3360
sg56
(lp3367
g49
(g50
g51
NtRp3368
(dp3369
g54
(dp3370
g62
I2
ssg63
g3364
sg56
(lp3371
g49
(g58
g51
NtRp3372
(dp3373
g54
(dp3374
g62
I1
ssg63
Nsg56
(lp3375
g49
(g65
g51
NtRp3376
(dp3377
g54
(dp3378
sg63
g3372
sg56
(lp3379
g49
(g70
g51
NtRp3380
(dp3381
g54
(dp3382
sg63
g3376
sg56
(lp3383
g49
(g50
g51
NtRp3384
(dp3385
g54
(dp3386
g62
I1
ssg63
g3380
sg56
(lp3387
g3242
(S's\x08\x00\x00\x00My Sites'
tRp3388
asbasbasbag49
(g65
g51
NtRp3389
(dp3390
g54
(dp3391
sg63
g3372
sg56
(lp3392
g49
(g70
g51
NtRp3393
(dp3394
g54
(dp3395
sg63
g3389
sg56
(lp3396
g49
(g50
g51
NtRp3397
(dp3398
g54
(dp3399
g62
I1
ssg63
g3393
sg56
(lp3400
I00
asbasbasbag49
(g65
g51
NtRp3401
(dp3402
g54
(dp3403
sg63
g3372
sg56
(lp3404
g49
(g70
g51
NtRp3405
(dp3406
g54
(dp3407
sg63
g3401
sg56
(lp3408
g49
(g50
g51
NtRp3409
(dp3410
g54
(dp3411
g62
I1
ssg63
g3405
sg56
(lp3412
S'/admin/default/site'
p3413
asbasbasbasbasbasbasbag49
(g65
g51
NtRp3414
(dp3415
g54
(dp3416
sg63
g3356
sg56
(lp3417
g49
(g70
g51
NtRp3418
(dp3419
g54
(dp3420
sg63
g3414
sg56
(lp3421
g49
(g50
g51
NtRp3422
(dp3423
g54
(dp3424
g62
I2
ssg63
g3418
sg56
(lp3425
g49
(g58
g51
NtRp3426
(dp3427
g54
(dp3428
g62
I1
ssg63
Nsg56
(lp3429
g49
(g65
g51
NtRp3430
(dp3431
g54
(dp3432
sg63
g3426
sg56
(lp3433
g49
(g70
g51
NtRp3434
(dp3435
g54
(dp3436
sg63
g3430
sg56
(lp3437
g49
(g50
g51
NtRp3438
(dp3439
g54
(dp3440
g62
I1
ssg63
g3434
sg56
(lp3441
g3242
(S's\x08\x00\x00\x00This App'
tRp3442
asbasbasbag49
(g65
g51
NtRp3443
(dp3444
g54
(dp3445
sg63
g3426
sg56
(lp3446
g49
(g70
g51
NtRp3447
(dp3448
g54
(dp3449
sg63
g3443
sg56
(lp3450
g49
(g50
g51
NtRp3451
(dp3452
g54
(dp3453
g62
I1
ssg63
g3447
sg56
(lp3454
I00
asbasbasbag49
(g65
g51
NtRp3455
(dp3456
g54
(dp3457
sg63
g3426
sg56
(lp3458
g49
(g70
g51
NtRp3459
(dp3460
g54
(dp3461
sg63
g3455
sg56
(lp3462
g49
(g50
g51
NtRp3463
(dp3464
g54
(dp3465
g62
I1
ssg63
g3459
sg56
(lp3466
S'/admin/default/design/init'
p3467
asbasbasbag49
(g65
g51
NtRp3468
(dp3469
g54
(dp3470
sg63
g3426
sg56
(lp3471
g49
(g70
g51
NtRp3472
(dp3473
g54
(dp3474
sg63
g3468
sg56
(lp3475
g49
(g50
g51
NtRp3476
(dp3477
g54
(dp3478
g62
I1
ssg63
g3472
sg56
(lp3479
(lp3480
(g3242
(S's\n\x00\x00\x00Controller'
tRp3481
I00
S'/admin/default/edit/init/controllers/default.py'
tp3482
a(g3242
(S's\x04\x00\x00\x00View'
tRp3483
I00
S'/admin/default/edit/init/views/default/invitation.html'
tp3484
a(g3242
(S's\x06\x00\x00\x00Layout'
tRp3485
I00
S'/admin/default/edit/init/views/layout.html'
tp3486
a(g3242
(S's\n\x00\x00\x00Stylesheet'
tRp3487
I00
S'/admin/default/edit/init/static/css/web2py.css'
tp3488
a(g3242
(S's\x08\x00\x00\x00DB Model'
tRp3489
I00
S'/admin/default/edit/init/models/db.py'
tp3490
a(g3242
(S's\n\x00\x00\x00Menu Model'
tRp3491
I00
S'/admin/default/edit/init/models/menu.py'
tp3492
a(g3242
(S's\x08\x00\x00\x00Database'
tRp3493
I00
S'/init/appadmin/index'
tp3494
a(g3242
(S's\x06\x00\x00\x00Errors'
tRp3495
I00
S'/admin/default/errors/init'
tp3496
a(g3242
(S's\x05\x00\x00\x00About'
tRp3497
I00
S'/admin/default/about/init'
tp3498
aasbasbasbasbasbasbasbag49
(g65
g51
NtRp3499
(dp3500
g54
(dp3501
sg63
g3356
sg56
(lp3502
g49
(g70
g51
NtRp3503
(dp3504
g54
(dp3505
sg63
g3499
sg56
(lp3506
g49
(g50
g51
NtRp3507
(dp3508
g54
(dp3509
g62
I2
ssg63
g3503
sg56
(lp3510
g49
(g58
g51
NtRp3511
(dp3512
g54
(dp3513
g62
I1
ssg63
Nsg56
(lp3514
g49
(g65
g51
NtRp3515
(dp3516
g54
(dp3517
sg63
g3511
sg56
(lp3518
g49
(g70
g51
NtRp3519
(dp3520
g54
(dp3521
sg63
g3515
sg56
(lp3522
g49
(g50
g51
NtRp3523
(dp3524
g54
(dp3525
g62
I1
ssg63
g3519
sg56
(lp3526
S'web2py.com'
p3527
asbasbasbag49
(g65
g51
NtRp3528
(dp3529
g54
(dp3530
sg63
g3511
sg56
(lp3531
g49
(g70
g51
NtRp3532
(dp3533
g54
(dp3534
sg63
g3528
sg56
(lp3535
g49
(g50
g51
NtRp3536
(dp3537
g54
(dp3538
g62
I1
ssg63
g3532
sg56
(lp3539
I00
asbasbasbag49
(g65
g51
NtRp3540
(dp3541
g54
(dp3542
sg63
g3511
sg56
(lp3543
g49
(g70
g51
NtRp3544
(dp3545
g54
(dp3546
sg63
g3540
sg56
(lp3547
g49
(g50
g51
NtRp3548
(dp3549
g54
(dp3550
g62
I1
ssg63
g3544
sg56
(lp3551
S'http://www.web2py.com'
p3552
asbasbasbag49
(g65
g51
NtRp3553
(dp3554
g54
(dp3555
sg63
g3511
sg56
(lp3556
g49
(g70
g51
NtRp3557
(dp3558
g54
(dp3559
sg63
g3553
sg56
(lp3560
g49
(g50
g51
NtRp3561
(dp3562
g54
(dp3563
g62
I1
ssg63
g3557
sg56
(lp3564
(lp3565
(g3242
(S's\x08\x00\x00\x00Download'
tRp3566
I00
S'http://www.web2py.com/examples/default/download'
p3567
tp3568
a(g3242
(S's\x07\x00\x00\x00Support'
tRp3569
I00
S'http://www.web2py.com/examples/default/support'
p3570
tp3571
a(g3242
(S's\x04\x00\x00\x00Demo'
tRp3572
I00
S'http://web2py.com/demo_admin'
p3573
tp3574
a(g3242
(S's\x0e\x00\x00\x00Quick Examples'
tRp3575
I00
S'http://web2py.com/examples/default/examples'
p3576
tp3577
a(g3242
(S's\x03\x00\x00\x00FAQ'
tRp3578
I00
S'http://web2py.com/AlterEgo'
p3579
tp3580
a(g3242
(S's\x06\x00\x00\x00Videos'
tRp3581
I00
S'http://www.web2py.com/examples/default/videos/'
p3582
tp3583
a(g3242
(S's\x11\x00\x00\x00Free Applications'
tRp3584
I00
S'http://web2py.com/appliances'
p3585
tp3586
a(g3242
(S's\x07\x00\x00\x00Plugins'
tRp3587
I00
S'http://web2py.com/plugins'
p3588
tp3589
a(g3242
(S's\x07\x00\x00\x00Layouts'
tRp3590
I00
S'http://web2py.com/layouts'
p3591
tp3592
a(g3242
(S's\x07\x00\x00\x00Recipes'
tRp3593
I00
S'http://web2pyslices.com/'
p3594
tp3595
a(g3242
(S's\x08\x00\x00\x00Semantic'
tRp3596
I00
S'http://web2py.com/semantic'
p3597
tp3598
aasbasbasbasbasbasbasbag49
(g65
g51
NtRp3599
(dp3600
g54
(dp3601
sg63
g3356
sg56
(lp3602
g49
(g70
g51
NtRp3603
(dp3604
g54
(dp3605
sg63
g3599
sg56
(lp3606
g49
(g50
g51
NtRp3607
(dp3608
g54
(dp3609
g62
I2
ssg63
g3603
sg56
(lp3610
g49
(g58
g51
NtRp3611
(dp3612
g54
(dp3613
g62
I1
ssg63
Nsg56
(lp3614
g49
(g65
g51
NtRp3615
(dp3616
g54
(dp3617
sg63
g3611
sg56
(lp3618
g49
(g70
g51
NtRp3619
(dp3620
g54
(dp3621
sg63
g3615
sg56
(lp3622
g49
(g50
g51
NtRp3623
(dp3624
g54
(dp3625
g62
I1
ssg63
g3619
sg56
(lp3626
g3242
(S's\r\x00\x00\x00Documentation'
tRp3627
asbasbasbag49
(g65
g51
NtRp3628
(dp3629
g54
(dp3630
sg63
g3611
sg56
(lp3631
g49
(g70
g51
NtRp3632
(dp3633
g54
(dp3634
sg63
g3628
sg56
(lp3635
g49
(g50
g51
NtRp3636
(dp3637
g54
(dp3638
g62
I1
ssg63
g3632
sg56
(lp3639
I00
asbasbasbag49
(g65
g51
NtRp3640
(dp3641
g54
(dp3642
sg63
g3611
sg56
(lp3643
g49
(g70
g51
NtRp3644
(dp3645
g54
(dp3646
sg63
g3640
sg56
(lp3647
g49
(g50
g51
NtRp3648
(dp3649
g54
(dp3650
g62
I1
ssg63
g3644
sg56
(lp3651
S'http://www.web2py.com/book'
p3652
asbasbasbag49
(g65
g51
NtRp3653
(dp3654
g54
(dp3655
sg63
g3611
sg56
(lp3656
g49
(g70
g51
NtRp3657
(dp3658
g54
(dp3659
sg63
g3653
sg56
(lp3660
g49
(g50
g51
NtRp3661
(dp3662
g54
(dp3663
g62
I1
ssg63
g3657
sg56
(lp3664
(lp3665
(g3242
(S's\x07\x00\x00\x00Preface'
tRp3666
I00
S'http://www.web2py.com/book/default/chapter/00'
p3667
tp3668
a(g3242
(S's\x0c\x00\x00\x00Introduction'
tRp3669
I00
S'http://www.web2py.com/book/default/chapter/01'
p3670
tp3671
a(g3242
(S's\x06\x00\x00\x00Python'
tRp3672
I00
S'http://www.web2py.com/book/default/chapter/02'
p3673
tp3674
a(g3242
(S's\x08\x00\x00\x00Overview'
tRp3675
I00
S'http://www.web2py.com/book/default/chapter/03'
p3676
tp3677
a(g3242
(S's\x08\x00\x00\x00The Core'
tRp3678
I00
S'http://www.web2py.com/book/default/chapter/04'
p3679
tp3680
a(g3242
(S's\t\x00\x00\x00The Views'
tRp3681
I00
S'http://www.web2py.com/book/default/chapter/05'
p3682
tp3683
a(g3242
(S's\x08\x00\x00\x00Database'
tRp3684
I00
S'http://www.web2py.com/book/default/chapter/06'
p3685
tp3686
a(g3242
(S's\x14\x00\x00\x00Forms and Validators'
tRp3687
I00
S'http://www.web2py.com/book/default/chapter/07'
p3688
tp3689
a(g3242
(S's\r\x00\x00\x00Email and SMS'
tRp3690
I00
S'http://www.web2py.com/book/default/chapter/08'
p3691
tp3692
a(g3242
(S's\x0e\x00\x00\x00Access Control'
tRp3693
I00
S'http://www.web2py.com/book/default/chapter/09'
p3694
tp3695
a(g3242
(S's\x08\x00\x00\x00Services'
tRp3696
I00
S'http://www.web2py.com/book/default/chapter/10'
p3697
tp3698
a(g3242
(S's\x0c\x00\x00\x00Ajax Recipes'
tRp3699
I00
S'http://www.web2py.com/book/default/chapter/11'
p3700
tp3701
a(g3242
(S's\x16\x00\x00\x00Components and Plugins'
tRp3702
I00
S'http://www.web2py.com/book/default/chapter/12'
p3703
tp3704
a(g3242
(S's\x12\x00\x00\x00Deployment Recipes'
tRp3705
I00
S'http://www.web2py.com/book/default/chapter/13'
p3706
tp3707
a(g3242
(S's\r\x00\x00\x00Other Recipes'
tRp3708
I00
S'http://www.web2py.com/book/default/chapter/14'
p3709
tp3710
a(g3242
(S's\r\x00\x00\x00Buy this book'
tRp3711
I00
S'http://stores.lulu.com/web2py'
p3712
tp3713
aasbasbasbasbasbasbasbag49
(g65
g51
NtRp3714
(dp3715
g54
(dp3716
sg63
g3356
sg56
(lp3717
g49
(g70
g51
NtRp3718
(dp3719
g54
(dp3720
sg63
g3714
sg56
(lp3721
g49
(g50
g51
NtRp3722
(dp3723
g54
(dp3724
g62
I2
ssg63
g3718
sg56
(lp3725
g49
(g58
g51
NtRp3726
(dp3727
g54
(dp3728
g62
I1
ssg63
Nsg56
(lp3729
g49
(g65
g51
NtRp3730
(dp3731
g54
(dp3732
sg63
g3726
sg56
(lp3733
g49
(g70
g51
NtRp3734
(dp3735
g54
(dp3736
sg63
g3730
sg56
(lp3737
g49
(g50
g51
NtRp3738
(dp3739
g54
(dp3740
g62
I1
ssg63
g3734
sg56
(lp3741
g3242
(S's\t\x00\x00\x00Community'
tRp3742
asbasbasbag49
(g65
g51
NtRp3743
(dp3744
g54
(dp3745
sg63
g3726
sg56
(lp3746
g49
(g70
g51
NtRp3747
(dp3748
g54
(dp3749
sg63
g3743
sg56
(lp3750
g49
(g50
g51
NtRp3751
(dp3752
g54
(dp3753
g62
I1
ssg63
g3747
sg56
(lp3754
I00
asbasbasbag49
(g65
g51
NtRp3755
(dp3756
g54
(dp3757
sg63
g3726
sg56
(lp3758
g49
(g70
g51
NtRp3759
(dp3760
g54
(dp3761
sg63
g3755
sg56
(lp3762
g49
(g50
g51
NtRp3763
(dp3764
g54
(dp3765
g62
I1
ssg63
g3759
sg56
(lp3766
Nasbasbasbag49
(g65
g51
NtRp3767
(dp3768
g54
(dp3769
sg63
g3726
sg56
(lp3770
g49
(g70
g51
NtRp3771
(dp3772
g54
(dp3773
sg63
g3767
sg56
(lp3774
g49
(g50
g51
NtRp3775
(dp3776
g54
(dp3777
g62
I1
ssg63
g3771
sg56
(lp3778
(lp3779
(g3242
(S's\x06\x00\x00\x00Groups'
tRp3780
I00
S'http://www.web2py.com/examples/default/usergroups'
p3781
tp3782
a(g3242
(S's\x07\x00\x00\x00Twitter'
tRp3783
I00
S'http://twitter.com/web2py'
p3784
tp3785
a(g3242
(S's\t\x00\x00\x00Live Chat'
tRp3786
I00
S'http://webchat.freenode.net/?channels=web2py'
p3787
tp3788
aasbasbasbasbasbasbasbag49
(g65
g51
NtRp3789
(dp3790
g54
(dp3791
sg63
g3356
sg56
(lp3792
g49
(g70
g51
NtRp3793
(dp3794
g54
(dp3795
sg63
g3789
sg56
(lp3796
g49
(g50
g51
NtRp3797
(dp3798
g54
(dp3799
g62
I2
ssg63
g3793
sg56
(lp3800
g49
(g58
g51
NtRp3801
(dp3802
g54
(dp3803
g62
I1
ssg63
Nsg56
(lp3804
g49
(g65
g51
NtRp3805
(dp3806
g54
(dp3807
sg63
g3801
sg56
(lp3808
g49
(g70
g51
NtRp3809
(dp3810
g54
(dp3811
sg63
g3805
sg56
(lp3812
g49
(g50
g51
NtRp3813
(dp3814
g54
(dp3815
g62
I1
ssg63
g3809
sg56
(lp3816
g3242
(S's\x07\x00\x00\x00Plugins'
tRp3817
asbasbasbag49
(g65
g51
NtRp3818
(dp3819
g54
(dp3820
sg63
g3801
sg56
(lp3821
g49
(g70
g51
NtRp3822
(dp3823
g54
(dp3824
sg63
g3818
sg56
(lp3825
g49
(g50
g51
NtRp3826
(dp3827
g54
(dp3828
g62
I1
ssg63
g3822
sg56
(lp3829
I00
asbasbasbag49
(g65
g51
NtRp3830
(dp3831
g54
(dp3832
sg63
g3801
sg56
(lp3833
g49
(g70
g51
NtRp3834
(dp3835
g54
(dp3836
sg63
g3830
sg56
(lp3837
g49
(g50
g51
NtRp3838
(dp3839
g54
(dp3840
g62
I1
ssg63
g3834
sg56
(lp3841
Nasbasbasbag49
(g65
g51
NtRp3842
(dp3843
g54
(dp3844
sg63
g3801
sg56
(lp3845
g49
(g70
g51
NtRp3846
(dp3847
g54
(dp3848
sg63
g3842
sg56
(lp3849
g49
(g50
g51
NtRp3850
(dp3851
g54
(dp3852
g62
I1
ssg63
g3846
sg56
(lp3853
(lp3854
(S'plugin_wiki'
p3855
I00
S'http://web2py.com/examples/default/download'
p3856
tp3857
a(g3242
(S's\r\x00\x00\x00Other Plugins'
tRp3858
I00
g3588
tp3859
a(g3242
(S's\x0e\x00\x00\x00Layout Plugins'
tRp3860
I00
g3591
tp3861
aasbasbasbasbasbasbasbasbasbasbasbasbasbasbasbasbasbasbasbag49
(g65
g51
NtRp3862
(dp3863
g54
(dp3864
sg63
g2706
sg56
(lp3865
g49
(g70
g51
NtRp3866
(dp3867
g54
(dp3868
g74
g75
ssg63
g3862
sg56
(lp3869
S'meta'
p3870
asbag49
(g70
g51
NtRp3871
(dp3872
g54
(dp3873
g81
g82
ssg63
g3862
sg56
(lp3874
S':'
asbag49
(g70
g51
NtRp3875
(dp3876
g54
(dp3877
sg63
g3862
sg56
(lp3878
g49
(g50
g51
NtRp3879
(dp3880
g54
(dp3881
g62
I5
ssg63
g3875
sg56
(lp3882
g49
(g58
g51
NtRp3883
(dp3884
g54
(dp3885
g62
I4
ssg63
Nsg56
(lp3886
g49
(g65
g51
NtRp3887
(dp3888
g54
(dp3889
sg63
g3883
sg56
(lp3890
g49
(g70
g51
NtRp3891
(dp3892
g54
(dp3893
g74
g75
ssg63
g3887
sg56
(lp3894
S'author'
p3895
asbag49
(g70
g51
NtRp3896
(dp3897
g54
(dp3898
g81
g82
ssg63
g3887
sg56
(lp3899
S':'
asbag49
(g70
g51
NtRp3900
(dp3901
g54
(dp3902
sg63
g3887
sg56
(lp3903
g49
(g50
g51
NtRp3904
(dp3905
g54
(dp3906
g62
I4
ssg63
g3900
sg56
(lp3907
S'Your Name <you@example.com>'
p3908
asbasbasbag49
(g65
g51
NtRp3909
(dp3910
g54
(dp3911
sg63
g3883
sg56
(lp3912
g49
(g70
g51
NtRp3913
(dp3914
g54
(dp3915
g74
g75
ssg63
g3909
sg56
(lp3916
S'copyright'
p3917
asbag49
(g70
g51
NtRp3918
(dp3919
g54
(dp3920
g81
g82
ssg63
g3909
sg56
(lp3921
S':'
asbag49
(g70
g51
NtRp3922
(dp3923
g54
(dp3924
sg63
g3909
sg56
(lp3925
g49
(g50
g51
NtRp3926
(dp3927
g54
(dp3928
g62
I4
ssg63
g3922
sg56
(lp3929
S'Copyright 2011'
p3930
asbasbasbag49
(g65
g51
NtRp3931
(dp3932
g54
(dp3933
sg63
g3883
sg56
(lp3934
g49
(g70
g51
NtRp3935
(dp3936
g54
(dp3937
g74
g75
ssg63
g3931
sg56
(lp3938
S'description'
p3939
asbag49
(g70
g51
NtRp3940
(dp3941
g54
(dp3942
g81
g82
ssg63
g3931
sg56
(lp3943
S':'
asbag49
(g70
g51
NtRp3944
(dp3945
g54
(dp3946
sg63
g3931
sg56
(lp3947
g49
(g50
g51
NtRp3948
(dp3949
g54
(dp3950
g62
I4
ssg63
g3944
sg56
(lp3951
S'a cool new app'
p3952
asbasbasbag49
(g65
g51
NtRp3953
(dp3954
g54
(dp3955
sg63
g3883
sg56
(lp3956
g49
(g70
g51
NtRp3957
(dp3958
g54
(dp3959
g74
g75
ssg63
g3953
sg56
(lp3960
S'generator'
p3961
asbag49
(g70
g51
NtRp3962
(dp3963
g54
(dp3964
g81
g82
ssg63
g3953
sg56
(lp3965
S':'
asbag49
(g70
g51
NtRp3966
(dp3967
g54
(dp3968
sg63
g3953
sg56
(lp3969
g49
(g50
g51
NtRp3970
(dp3971
g54
(dp3972
g62
I4
ssg63
g3966
sg56
(lp3973
S'Web2py Web Framework'
p3974
asbasbasbag49
(g65
g51
NtRp3975
(dp3976
g54
(dp3977
sg63
g3883
sg56
(lp3978
g49
(g70
g51
NtRp3979
(dp3980
g54
(dp3981
g74
g75
ssg63
g3975
sg56
(lp3982
S'keywords'
p3983
asbag49
(g70
g51
NtRp3984
(dp3985
g54
(dp3986
g81
g82
ssg63
g3975
sg56
(lp3987
S':'
asbag49
(g70
g51
NtRp3988
(dp3989
g54
(dp3990
sg63
g3975
sg56
(lp3991
g49
(g50
g51
NtRp3992
(dp3993
g54
(dp3994
g62
I4
ssg63
g3988
sg56
(lp3995
S'web2py, python, framework'
p3996
asbasbasbasbasbasbasbag49
(g65
g51
NtRp3997
(dp3998
g54
(dp3999
sg63
g2706
sg56
(lp4000
g49
(g70
g51
NtRp4001
(dp4002
g54
(dp4003
g74
g75
ssg63
g3997
sg56
(lp4004
S'postprocessing'
p4005
asbag49
(g70
g51
NtRp4006
(dp4007
g54
(dp4008
g81
g82
ssg63
g3997
sg56
(lp4009
S':'
asbag49
(g70
g51
NtRp4010
(dp4011
g54
(dp4012
sg63
g3997
sg56
(lp4013
g49
(g50
g51
NtRp4014
(dp4015
g54
(dp4016
g62
I5
ssg63
g4010
sg56
(lp4017
g49
(g58
g51
NtRp4018
(dp4019
g54
(dp4020
g62
I4
ssg63
Nsg56
(lp4021
sbasbasbasbag49
(g65
g51
NtRp4022
(dp4023
g54
(dp4024
sg63
g2706
sg56
(lp4025
g49
(g70
g51
NtRp4026
(dp4027
g54
(dp4028
g74
g75
ssg63
g4022
sg56
(lp4029
S'session_db'
p4030
asbag49
(g70
g51
NtRp4031
(dp4032
g54
(dp4033
g81
g82
ssg63
g4022
sg56
(lp4034
S':'
asbag49
(g70
g51
NtRp4035
(dp4036
g54
(dp4037
sg63
g4022
sg56
(lp4038
g49
(g50
g51
NtRp4039
(dp4040
g54
(dp4041
g62
I5
ssg63
g4035
sg56
(lp4042
g561
asbasbasbag49
(g65
g51
NtRp4043
(dp4044
g54
(dp4045
sg63
g2706
sg56
(lp4046
g49
(g70
g51
NtRp4047
(dp4048
g54
(dp4049
g74
g75
ssg63
g4043
sg56
(lp4050
S'session_id'
p4051
asbag49
(g70
g51
NtRp4052
(dp4053
g54
(dp4054
g81
g82
ssg63
g4043
sg56
(lp4055
S':'
asbag49
(g70
g51
NtRp4056
(dp4057
g54
(dp4058
sg63
g4043
sg56
(lp4059
g49
(g50
g51
NtRp4060
(dp4061
g54
(dp4062
g62
I5
ssg63
g4056
sg56
(lp4063
S'10:e08766fa-dd6e-4a24-8070-d14f4ba5594c'
p4064
asbasbasbag49
(g65
g51
NtRp4065
(dp4066
g54
(dp4067
sg63
g2706
sg56
(lp4068
g49
(g70
g51
NtRp4069
(dp4070
g54
(dp4071
g74
g75
ssg63
g4065
sg56
(lp4072
S'session_id_name'
p4073
asbag49
(g70
g51
NtRp4074
(dp4075
g54
(dp4076
g81
g82
ssg63
g4065
sg56
(lp4077
S':'
asbag49
(g70
g51
NtRp4078
(dp4079
g54
(dp4080
sg63
g4065
sg56
(lp4081
g49
(g50
g51
NtRp4082
(dp4083
g54
(dp4084
g62
I5
ssg63
g4078
sg56
(lp4085
S'session_id_init'
p4086
asbasbasbag49
(g65
g51
NtRp4087
(dp4088
g54
(dp4089
sg63
g2706
sg56
(lp4090
g49
(g70
g51
NtRp4091
(dp4092
g54
(dp4093
g74
g75
ssg63
g4087
sg56
(lp4094
S'status'
p4095
asbag49
(g70
g51
NtRp4096
(dp4097
g54
(dp4098
g81
g82
ssg63
g4087
sg56
(lp4099
S':'
asbag49
(g70
g51
NtRp4100
(dp4101
g54
(dp4102
sg63
g4087
sg56
(lp4103
g49
(g50
g51
NtRp4104
(dp4105
g54
(dp4106
g62
I5
ssg63
g4100
sg56
(lp4107
S'200'
p4108
asbasbasbag49
(g65
g51
NtRp4109
(dp4110
g54
(dp4111
sg63
g2706
sg56
(lp4112
g49
(g70
g51
NtRp4113
(dp4114
g54
(dp4115
g74
g75
ssg63
g4109
sg56
(lp4116
S'subtitle'
p4117
asbag49
(g70
g51
NtRp4118
(dp4119
g54
(dp4120
g81
g82
ssg63
g4109
sg56
(lp4121
S':'
asbag49
(g70
g51
NtRp4122
(dp4123
g54
(dp4124
sg63
g4109
sg56
(lp4125
g49
(g50
g51
NtRp4126
(dp4127
g54
(dp4128
g62
I5
ssg63
g4122
sg56
(lp4129
g3242
(S's\r\x00\x00\x00customize me!'
tRp4130
asbasbasbag49
(g65
g51
NtRp4131
(dp4132
g54
(dp4133
sg63
g2706
sg56
(lp4134
g49
(g70
g51
NtRp4135
(dp4136
g54
(dp4137
g74
g75
ssg63
g4131
sg56
(lp4138
S'title'
p4139
asbag49
(g70
g51
NtRp4140
(dp4141
g54
(dp4142
g81
g82
ssg63
g4131
sg56
(lp4143
S':'
asbag49
(g70
g51
NtRp4144
(dp4145
g54
(dp4146
sg63
g4131
sg56
(lp4147
g49
(g50
g51
NtRp4148
(dp4149
g54
(dp4150
g62
I5
ssg63
g4144
sg56
(lp4151
S'Init'
p4152
asbasbasbag49
(g65
g51
NtRp4153
(dp4154
g54
(dp4155
sg63
g2706
sg56
(lp4156
g49
(g70
g51
NtRp4157
(dp4158
g54
(dp4159
g74
g75
ssg63
g4153
sg56
(lp4160
g1943
asbag49
(g70
g51
NtRp4161
(dp4162
g54
(dp4163
g81
g82
ssg63
g4153
sg56
(lp4164
S':'
asbag49
(g70
g51
NtRp4165
(dp4166
g54
(dp4167
sg63
g4153
sg56
(lp4168
g49
(g50
g51
NtRp4169
(dp4170
g54
(dp4171
g62
I5
ssg63
g4165
sg56
(lp4172
g1956
asbasbasbag49
(g65
g51
NtRp4173
(dp4174
g54
(dp4175
sg63
g2706
sg56
(lp4176
g49
(g70
g51
NtRp4177
(dp4178
g54
(dp4179
g74
g75
ssg63
g4173
sg56
(lp4180
S'view'
p4181
asbag49
(g70
g51
NtRp4182
(dp4183
g54
(dp4184
g81
g82
ssg63
g4173
sg56
(lp4185
S':'
asbag49
(g70
g51
NtRp4186
(dp4187
g54
(dp4188
sg63
g4173
sg56
(lp4189
g49
(g50
g51
NtRp4190
(dp4191
g54
(dp4192
g62
I5
ssg63
g4186
sg56
(lp4193
S'default/invitation.html'
p4194
asbasbasbasbasbsS'locals'
p4195
(dp4196
S'_[1]'
p4197
S'[]'
p4198
sS'record'
p4199
S"''"
p4200
sS'self'
p4201
S"<Table {'_db': <DAL {'auth_event': <Table {'orig...on_key': <gluon.dal.Field object at 0x048457B0>}>"
p4202
sS'id'
p4203
g561
sssS'traceback'
p4204
S'Traceback (most recent call last):\n  File "gluon/restricted.py", line 205, in restricted\n  File "C:\\Users\\Bussiere\\Dropbox\\Projets\\jackpoint\\web2py\\applications\\init\\controllers/default.py", line 332, in <module>\n  File "gluon/globals.py", line 173, in <lambda>\n  File "C:\\Users\\Bussiere\\Dropbox\\Projets\\jackpoint\\web2py\\applications\\init\\controllers/default.py", line 271, in invitation\n  File "gluon/dal.py", line 6683, in _filter_fields\nAttributeError: \'str\' object has no attribute \'items\'\n'
p4205
s.