(dp1
S'output'
p2
S"<type 'exceptions.SyntaxError'> invalid syntax (controllers/default.py, line 401)"
p3
sS'layer'
p4
S'C:\\Users\\Bussiere\\Dropbox\\Projets\\jackpoint\\web2py\\applications\\init\\controllers/default.py'
p5
sS'code'
p6
S'\xef\xbb\xbf# -*- coding: utf-8 -*-\n# this file is released under public domain and you can use without limitations\n\n#########################################################################\n## This is a samples controller\n## - index is the default action of any application\n## - user is required for authentication and authorization\n## - download is for downloading files uploaded in the db (does streaming)\n## - call exposes all registered services (none by default)\n#########################################################################\n# Static analyzer import helpers: (STATIC_IMPORT_MARK)\nif 0: \n    import gluon\n    global cache; cache = gluon.cache.Cache()\n    global LOAD; LOAD  = gluon.compileapp.LoadFactory()\n    import gluon.compileapp.local_import_aux as local_import #@UnusedImport\n    from gluon.contrib.gql import GQLDB #@UnusedImport\n    from gluon.dal import Field #@UnusedImport\n    global request; request = gluon.globals.Request()\n    global response; response = gluon.globals.Response()\n    global session; session = gluon.globals.Session()\n    from gluon.html import A #@UnusedImport\n    from gluon.html import B #@UnusedImport\n    from gluon.html import BEAUTIFY #@UnusedImport\n    from gluon.html import BODY #@UnusedImport\n    from gluon.html import BR #@UnusedImport\n    from gluon.html import CENTER #@UnusedImport\n    from gluon.html import CODE #@UnusedImport\n    from gluon.html import DIV #@UnusedImport\n    from gluon.html import EM #@UnusedImport\n    from gluon.html import EMBED #@UnusedImport\n    from gluon.html import embed64 #@UnusedImport\n    from gluon.html import FIELDSET #@UnusedImport\n    from gluon.html import FORM #@UnusedImport\n    from gluon.html import H1 #@UnusedImport\n    from gluon.html import H2 #@UnusedImport\n    from gluon.html import H3 #@UnusedImport\n    from gluon.html import H4 #@UnusedImport\n    from gluon.html import H5 #@UnusedImport\n    from gluon.html import H6 #@UnusedImport\n    from gluon.html import HEAD #@UnusedImport\n    from gluon.html import HR #@UnusedImport\n    from gluon.html import HTML #@UnusedImport\n    from gluon.html import I #@UnusedImport\n    from gluon.html import IFRAME #@UnusedImport\n    from gluon.html import IMG #@UnusedImport\n    from gluon.html import INPUT #@UnusedImport\n    from gluon.html import LABEL #@UnusedImport\n    from gluon.html import LEGEND #@UnusedImport\n    from gluon.html import LI #@UnusedImport\n    from gluon.html import LINK #@UnusedImport\n    from gluon.html import MARKMIN #@UnusedImport\n    from gluon.html import MENU #@UnusedImport\n    from gluon.html import META #@UnusedImport\n    from gluon.html import OBJECT #@UnusedImport\n    from gluon.html import OL #@UnusedImport\n    from gluon.html import ON #@UnusedImport\n    from gluon.html import OPTGROUP #@UnusedImport\n    from gluon.html import OPTION #@UnusedImport\n    from gluon.html import P #@UnusedImport\n    from gluon.html import PRE #@UnusedImport\n    from gluon.html import STYLE #@UnusedImport\n    from gluon.html import SCRIPT #@UnusedImport\n    from gluon.html import SELECT #@UnusedImport\n    from gluon.html import SPAN #@UnusedImport\n    from gluon.html import TABLE #@UnusedImport\n    from gluon.html import TAG #@UnusedImport\n    from gluon.html import TBODY #@UnusedImport\n    from gluon.html import TD #@UnusedImport\n    from gluon.html import TEXTAREA #@UnusedImport\n    from gluon.html import TFOOT #@UnusedImport\n    from gluon.html import TH  #@UnusedImport\n    from gluon.html import THEAD #@UnusedImport\n    from gluon.html import TITLE #@UnusedImport\n    from gluon.html import TR #@UnusedImport\n    from gluon.html import TT #@UnusedImport\n    from gluon.html import UL #@UnusedImport\n    from gluon.html import URL #@UnusedImport\n    from gluon.html import XHTML #@UnusedImport\n    from gluon.html import XML #@UnusedImport\n    from gluon.html import xmlescape #@UnusedImport\n    from gluon.http import HTTP #@UnusedImport\n    from gluon.http import redirect #@UnusedImport\n    import gluon.languages.translator as T #@UnusedImport\n    from gluon.sql import DAL\n    global db; db = DAL()\n    from gluon.sql import SQLDB #@UnusedImport\n    from gluon.sql import SQLField #@UnusedImport\n    from gluon.sqlhtml import SQLFORM #@UnusedImport\n    from gluon.sqlhtml import SQLTABLE #@UnusedImport\n    from gluon.tools import  Auth\n    global auth; auth = Auth()\n    from gluon.tools import Crud\n    global crud; crud = Crud()\n    from gluon.tools import fetch #@UnusedImport\n    from gluon.tools import geocode #@UnusedImport\n    from gluon.tools import Mail\n    global mail; mail = Mail()\n    from gluon.tools import PluginManager\n    global plugins; plugins = PluginManager()\n    from gluon.tools import prettydate #@UnusedImport\n    from gluon.tools import Recaptcha #@UnusedImport\n    from gluon.tools import Service\n    global service; service = Service()\n    from gluon.validators import CLEANUP  #@UnusedImport\n    from gluon.validators import CRYPT #@UnusedImport\n    from gluon.validators import IS_ALPHANUMERIC #@UnusedImport\n    from gluon.validators import IS_DATE #@UnusedImport\n    from gluon.validators import IS_DATE_IN_RANGE #@UnusedImport\n    from gluon.validators import IS_DATETIME #@UnusedImport\n    from gluon.validators import IS_DATETIME_IN_RANGE #@UnusedImport\n    from gluon.validators import IS_DECIMAL_IN_RANGE #@UnusedImport\n    from gluon.validators import IS_EMAIL #@UnusedImport\n    from gluon.validators import IS_EMPTY_OR #@UnusedImport\n    from gluon.validators import IS_EQUAL_TO #@UnusedImport\n    from gluon.validators import IS_EXPR #@UnusedImport\n    from gluon.validators import IS_FLOAT_IN_RANGE #@UnusedImport\n    from gluon.validators import IS_IMAGE #@UnusedImport\n    from gluon.validators import IS_IN_DB #@UnusedImport\n    from gluon.validators import IS_IN_SET #@UnusedImport\n    from gluon.validators import IS_INT_IN_RANGE #@UnusedImport\n    from gluon.validators import IS_IPV4 #@UnusedImport\n    from gluon.validators import IS_LENGTH #@UnusedImport\n    from gluon.validators import IS_LIST_OF #@UnusedImport\n    from gluon.validators import IS_LOWER #@UnusedImport\n    from gluon.validators import IS_MATCH #@UnusedImport\n    from gluon.validators import IS_NOT_EMPTY #@UnusedImport\n    from gluon.validators import IS_NOT_IN_DB #@UnusedImport\n    from gluon.validators import IS_NULL_OR #@UnusedImport\n    from gluon.validators import IS_SLUG #@UnusedImport\n    from gluon.validators import IS_STRONG  #@UnusedImport\n    from gluon.validators import IS_TIME #@UnusedImport\n    from gluon.validators import IS_UPLOAD_FILENAME #@UnusedImport\n    from gluon.validators import IS_UPPER #@UnusedImpor\n\n\nimport random\nfrom uuid import uuid4\nfrom gluon.storage import Storage\nsettings = Storage()\n\n\ndef logout():\n    return auth.logout()\n\n\ndef index():\n    if auth.is_logged_in() :\n       redirect(URL(\'interfaceuser\'))\n    else :\n        return dict(form=auth.login(),faq=URL(\'faq\'))\n\n\n\ndef index2():\n    if auth.is_logged_in() :\n        return "You get the blue pills"\n    else :\n        return dict(form=auth.login(),faq=URL(\'faq\'))\n\ndef ensurefirstuser(Surnom, email, password):\n  users = db(db.auth_user.email == email).select()\n  if users:\n    user_id = users[0].id\n    created = False\n    print (\'found user_id so created equals %s\') % created\n    if settings.debug_ensure_first_user == True:\n      print (\'found user_id so created equals %s\') % created\n    return (user_id, created)\n\n  else:\n    my_crypt = CRYPT(key=auth.settings.hmac_key)\n    crypt_pass = my_crypt(password)[0]    \n    id_user = db.auth_user.insert(\n                   Surnom=Surnom,\n                   email=email,\n                   username=email,\n                   Items = None,\n                   Skills = None,\n                   password=crypt_pass,\n                                   )\n    db.commit()\n    created = True\n    print (\'creating user_id\')\n    if settings.debug_ensure_first_user == True:\n      print (\'creating user_id\')\n    return (id_user, created)\n\n    \n\n\ndef ensure_users():\n  user_id, created = _ensure_user(\'first\', \'last\', \'email@address.com\', \'UserPassword12345\')\n  if settings.debug_ensure_users == True:\n    print (\'user id %i\') % user_id\n    print (\'created %s\') % created\n\ndef ensure_group_role(role, description):\n  if not auth.id_group(role=role):  \n    auth.add_group(role=role, description=description)  \n    if settings.debug_ensure_group_role == True:\n      print (\'created role %s\') % (role)\n\ndef ensure_membership(group_id, user_id):\n  return_group_id = auth.add_membership(role=role, user_id=user_id)\n  if settings.debug_ensure_membership == True:\n    print (\'made user_id member of %s\') % (role)\n  return return_group_id\n \ndef ensure_permissions(role, description, user_id):\n  ensure_group_role(role, description)\n  return_group_id = ensure_membership(group_id, user_id)\n  if settings.debug_ensure_permissions == True:\n    print return_group_id\n\ndef generate_invitation(number,word=4,num=1,numdigit=5):\n    code = [\n[\'BELCHER\', \'FIX\', \'EEL\', \'PANZERBOY\', \'DESK_JOCKEY\', \'CHILLED\', \'ENFORCER\', \'CHERRY_PICKING\', \'COUNTRY_CLUB\', \'BOMBSHELL\', \'PLUGGED_IN\', \'FINI\', \'LEGIT\', \'JAM\', \'BONED_OUT\', \'BLADE\', \'ROUST\', \'SAMURAI\', \'DISK\', \'INPUT\', \'POST_TIME\', \'SOUNDS\', \'SKIP\', \'FLATBACKER\', \'WILSON\', \'SHOEMAKER\', \'DELTA_SIERRA\', \'HEART\', \'CROAK\', \'HEAD_HUNTER\', \'HOSHO_KAISHA\', "DELTA\'D", "\'FACE_(also,_FACE,_EYE-FACE,_I-FACE)", \'WEEFLE\', \'DIRTGIRL\', \'KEYBOARD\', \'BRAIN_BUCKET\', \'DRYING_OUT\', \'OVERCOOK\', \'PIG\', \'COLD_TEA\', \'RECONFIG\', \'PAD\', \'LIT_UP\', \'WRAITH\', \'HANDLE\', \'L.P.\', \'PINCH\', \'TAKE_A_CAB\', \'SPILL\', \'ACE_KOOL\', \'DO\', \'BIZ\', \'BROWNIE\', \'CANDLE_AND_BLOOD\', \'BLUEBOY\', \'UP_ON_IT\', \'BURN\', \'USER_INTERFACE\', \'HOB\', \'GYRO\', \'STUFFIT\', \'THATCH\', \'ICEBREAKER\', \'ZIP_GUN\', \'PETERMAN\', \'PLAY_DOUGH\', \'TREY-EIGHT\', \'SETTLE\', "CHIPPIN\'_IN", \'MEATBALL\', \'RAFFLES\', \'YUBITSUME\', \'CROAKER\', \'SUCKER_POCKETS\', \'L.A.M.A.\', \'GEEK\', \'BUTTONHEAD\'],\n[\'TAKE\', \'TEKIYA\', \'KURUMAKU\', \'BLOC\', \'GAT\', \'JOHATSU\', \'CRYSTAL\', \'A.I.\', \'ZEROED\', \'OVER_THE_SHOULDER\', \'GRAB_GEE\', \'PANZER\', \'GO_LEO\', \'WASHED\', \'I.C.E.\', \'COPSHOP\', \'COLLATERAL_DAMAGE\', \'BIG_DARK\', \'DOUBLE-DEUCE\', \'ZONEDANCE\', \'MARK\', \'COBBERS\', \'CHIMPIRA\', \'TRIADS\', \'SHANK\', \'FRAG\', \'BREATH_VAC\', "CHARLIE\'S_ANGEL", \'MULE\', \'BURNER\', "PACKIN\'", \'HOTDOGGER\', \'BOSOZOKU\', \'RIPPERDOC\', \'THIRDMAN\', \'MAXIMUM,_MAX\', \'CHOOH2_("CHOO")\', \'CRYO_MAX\', \'HEATER\', \'SHARK\', \'JOYGIRL\', \'GURENTAI\', \'BANDIT\', \'VENICE\', \'MIZU_SHOBAI\', \'PASTA_BOYS\', \'SQUID\', \'CYBERED_UP\', \'DEAD_RECKONING\', \'POPSICLE\', \'FAUST\', \'COLLARBOY\', \'SHOES\', \'TORCH\', \'DELTAJOCK\', \'BUTTERFLY_MAN\', \'WISE_GUYS\', \'BOOST\', \'CAIN\', \'FOUR-FIVE\', \'BREAK-DOWN\', \'POLYMER_ONE-SHOT\', \'FLAG\', \'CALL_GIRL\', \'IN_THE_HUNT\', \'HYDRO\', \'DOCK\', \'FENCE\', \'SHAIKUJIN\', \'GOMI\', \'FILTER\', \'SAINT_NICK\', \'LINEFOOT\', \'CAVALRY\', \'PUKE\', \'CONVERSION\', \'FINGER\', \'CONTRACT\'],\n[\'PLASTIC\', \'CRYSTALJOCKEY,_CRYSTALJOCK\', \'SCREW\', \'TOYSTORE\', \'DREAM_TIME\', \'EXOTIC\', \'WALKABOUT\', \'DIAMOND_SEASON\', \'SARAKIN\', \'CHRISTMAS_BUNDLES\', \'SHADES\', \'BUTTON_MAN\', \'FOXTROT_UNIFORM\', \'KAI\', \'UNDER_THE_PAINT\', \'MINIMUM\', \'TRIPLE_A\', \'PIG_ON_A_WHEEL\', \'BAG_MAN\', \'DIP\', \'PIGEONS\', \'MAN\', \'ADAM_HENRY\', \'HIGH\', \'HEAT\', \'NINJO\', \'KNIFE_FIGHT\', \'MOUTHPIECE\', \'AGRIPLEX\', \'DATA_TERM\', \'LIZ\', \'CHROMER\', \'OUTPUT\', \'N.O.E.\', \'CLOSE_A_CONTRACT\', \'LASSIE\', \'FLATLINE\', \'CHIV\', \'SING\', \'AMMO\', \'RAT\', \'MATCHBOX\', \'PULL_AN_ASH\', \'BORYOKUDAN\', \'SQUEEZE\', \'RONIN\', \'HIT\', \'RAGS\', \'TAKE_OUT\', \'BEAT_THE_RAP\', \'GIRI\', \'RUNNING_THE_LINE\', \'HARNESS\', \'GRAVEROBBER\', \'DROP_A_DIME\', \'BADGE_ON_A_BEAVER\', \'FLETCHER\', \'AMPED-OUT\', \'NEUTRALIZE\', \'PETER\', \'CONFIG\', \'HARDFIRE\', \'B.A.M.A.\', \'CHROMATIC_ROCK\', \'MOLDED\', \'RAD\', \'CREASED\', \'CHATTER_BOX\', \'HAND_CANNON\', \'NIPPERS\', \'SIERRA_HOTEL\', \'HOOK_UP\', \'-JOCKEY,_-JOCK\', \'BUG\', \'BATMAN_AND_ROBIN\', \'BLACK_OPERATIONS\', "D.C.\'S", \'SO_KA\'],\n[\'_A.A.A.\', \'HOME_PLATE\', \'LITEJACK\', \'PINEAPPLE\', \'MAKE\', \'THE_STREET\', \'SITREP\', \'HANGING_PAPER\', \'PAINT_BOYS\', \'WETWORK\', \'NINER\', \'BOOKIE\', \'WHIPLASH\', \'TORPEDO\', \'HEATWAVE\', \'SOLAR_WIND\', \'QUIFF\', \'BIKE\', \'TRAFFIC\', \'WIRE_ROOM\', \'OYABUN\', \'COWBOY\', \'KOBUN\', \'MUDBOY\', \'COP_OUT\', \'SOKAIYA\', "\'DORPH", \'JOYBOY\', \'DIRTY\', \'BOAT\', \'DROP\', \'GRAV_or_GEE\', \'APOGEE\', \'BOOSTER\', \'BOOK\', \'FRY\', \'PULLING_TEETH\', \'ONE_LARGE\', \'COMBAT_DRUGS\', \'THRASH\', \'DO_A_GHOST\', \'DELTA\', \'RIN_TIN_TIN\', \'DROP_OUT\', \'GUMI\', \'ROCKERBOY/GIRL\', \'BULLET\', \'DEB\', \'THREADING_THE_NEEDLE\', \'MOTOR\', \'BLEEDER\', \'ARC\', \'BOPPER\', \'WASTE\', \'_DEMUKAI\', \'BREAK\', \'HOLDING_DOWN\', \'FEDS\', \'GAP\', \'RABBI\', \'BAKUTO\', \'CHOMBATTA_(CHOOMBA)\', \'BIG_HATS\', \'MR._JOHNSON\', \'EXEC\', \'BULL\', \'BULLSEYE\', \'POSERGANG\', \'CHAOL\', \'GEISHA\', \'SLAMMIT_ON\', \'POP_CAPS\', \'HARD_TIME\', \'BENJI\', \'MAKING_BANK\', \'PAPERHANGER\', \'NETRUN\', \'BOGEY\'],\n]     \n    i = 0\n    invits = []\n    print number\n    while (i < number):\n        invit = ""\n        j = 0\n        while (j < word):\n            debut = random.randint(0,len(code)-1)\n            codepick = code[debut][random.randint(0,len(code[debut])-1)]\n            j += 1\n            invit += codepick+"-"\n        j = 0\n        while (j < num):\n            invit += randomdig(numdigit)+"-"\n            j += 1\n        i+= 1\n        invit = invit[:-1]\n        if invit not in invits :\n            invits.append(invit[:-1])\n            print invit\n    return invits\n        \ndef randomdig(number):\n    max = "9"*number\n    max = int(max)\n    rand =  random.randint(0,max)\n    rand = str(rand)\n    rand = "0"*(number-len(rand))+rand\n    return rand\n\n@auth.requires_login()\ndef inscriptioninvit():\n    user = auth.environment.session.auth.user\n    caracs = db().select(db.Carac.ALL)\n    form=TABLE(\n        TR(\n            TD(\n                TABLE(\n        TR(\n\n                TD(\n                    LABEL(\'Username : \')\n                    ),\n                TD( \n                    INPUT(_name=\'Username\')\n                    )\n            ),\n    TR(\n        TD(\n            LABEL(\'Email: \')\n            ), \n        TD(\n            INPUT(_name=\'email\',_value=user.email)\n            )\n        ),\n             \n    TR(\n        TD(\n            LABEL(\'Password : \')\n            ), \n        TD(\n            INPUT(_name=\'password1\',_type=\'password\')\n            )\n        ),\n\n     TR(\n        TD(\n            LABEL(\'Password verification : \')\n            ), \n        TD(\n            INPUT(_name=\'password2\',_type=\'password\')\n            )\n        ),\n    \n    \n    )\n                )\n            )\n        )\n            \n\n\n    \n    form.append(TR(LABEL(\'1 = mauvais, 2 = bof, 3 = Moyen,4 = Bon , 5 = Tres Bon\')))\n    for carac in caracs :\n        form.append(\n            TR(\n\n                TD(LABEL(\'%s : \'%carac.Nom)),\n                TD(INPUT(_type=\'radio\',_name=\'carac_%d\'%carac.id,_value=\'1\',value=\'1\'),"1 "),\n                TD(INPUT(_type=\'radio\',_name=\'carac_%d\'%carac.id,_value=\'2\'),"2 "),\n                TD(INPUT(_type=\'radio\',_name=\'carac_%d\'%carac.id,_value=\'3\'),"3 "),\n                TD(INPUT(_type=\'radio\',_name=\'carac_%d\'%carac.id,_value=\'4\'),"4 "),\n                TD(INPUT(_type=\'radio\',_name=\'carac_%d\'%carac.id,_value=\'5\'),"5        "),\n\n                TD(LABEL(\'Private: \')),\n                TD(INPUT(_type=\'radio\',_name=\'carac_%d_private\'%carac.id,_value=\'1\'),"oui "),\n                TD(INPUT(_type=\'radio\',_name=\'carac_%d_private\'%carac.id,_value=\'0\',value=\'0\'),"non ")\n                )\n        )\n \n    # form.insert(-1, TR(LABEL(\'titi : \'),INPUT(_name=\'titi\',_value=\'titi\'))\n    # form.insert(-1, TR(LABEL(\'toto : \'),INPUT(_name=\'toto\',_value=\'toto\'))\n\n    form.append(TR(LABEL(\'0 = Inconnu, 1 = mauvais, 2 = bof, 3 = Moyen,4 = Bon , 5 = Moyen\')))\n    \n    #TODO a revoir algo crade :\n    skills1 = db(db.SkillLevel.Level==0).select()\n    skills2 = db(db.SkillLevel.Level==1).select()\n    skills3 = db(db.SkillLevel.Level==2).select()\n    skills4 = db(db.SkillLevel.Level==3).select()\n    skills5 = db(db.SkillLevel.Level==4).select()\n    Listeskill = UL()\n    for skill1 in skills1 :\n        Nom1 = db.Skill(skill1.Skill.id).Nom\n        retour1 = skillstab(Nom1)\n        for skill2 in skills2 :\n            if (skill2.Parent.id == skill1.Skill.id) :\n                Nom2 = db.Skill(skill2.Skill.id).Nom\n                retour2 = skillstab(Nom2)\n                for skill3 in skills3 :\n                    if (skill3.Parent.id == skill2.Skill.id) :\n                        Nom3 = db.Skill(skill3.Skill.id).Nom\n                        retour3 = skillstab(Nom3)\n                        for skill4 in skills4 :\n                            if (skill4.Parent.id == skill3.Skill.id) :\n                                Nom4 = db.Skill(skill4.Skill.id).Nom\n                                retour4 = skillstab(Nom4)\n                                for skill5 in skills5 :\n                                    if (skill5.Parent.id == skill4.Skill.id) :\n                                        Nom5 = db.Skill(skill5.Skill.id).Nom\n                                        retour5 = skillstab(Nom5)\n                                        retour4.append(UL(retour5))\n                                retour3.append(UL(retour4))\n                        retour2.append(UL(retour3))\n                retour1.append(UL(retour2))\n        Listeskill.append(retour1)\n       \n\n\n\n    form.append(TR(Listeskill))\n\n    Items = db().select(db.Item.ALL)\n    \n    #TODO\n    # crade a revoir\n\n    for item in Items :\n        try :\n            SkillNom = db.Skill(item.Skill.id).Nom\n        except :\n            SkillNom = ""\n        form.append(\n            TR(\n                TD(item.Nom),\n                TD(SkillNom),\n                TD(INPUT(_type=\'checkbox\',_name=\'%s\'%item.Nom)), \n                TD(LABEL(\'Private: \')),\n                TD(INPUT(_type=\'radio\',_name=\'%s_private\'%item.Nom,_value=\'1\'),"oui "),\n                TD(INPUT(_type=\'radio\',_name=\'%s_private\'%item.Nom,_value=\'0\',value=\'0\'),"non ")\n            )\n        )\n\n\n    form.append(TR(\n        TD(\n            TABLE(\n        TR(\n        TD("Suggestion (Rajout,skills,caracs,items):"),\n           \n            ),\n    TR(\n        TD(\n            TEXTAREA(_name=\'suggestion\', _rows="4", _cols="140"),\n            )\n        )\n    )\n    _colspan=4)\n    )\n    )\n\n    form.append(TR(INPUT(_type=\'submit\')))\n    form = FORM(TABLE(form)) \n    if form.process(onvalidation=forminscription_processing).accepted:\n       session.flash = \'record inserted\'\n       redirect(URL(\'interfaceuser\'))\n    return dict(form=form)\n\n@auth.requires_login()\ndef demandecoupdemain():\n    pass\n\n#process de la validation de l\'utilisateur\ndef forminscription_processing(form):\n    for var in form.vars :\n        print var\n\n@auth.requires_login()\ndef interfaceuser():\n    pass\n\ndef skillstab(Nom) :\n    skills = db(db.Skill.Nom==Nom).select()\n    for skill in skills :\n        idskill = skill.id \n    tab =  LI( Nom," : ",TABLE(\n                    TR(\n                TD(INPUT(_type=\'radio\',_name=\'skill_%d\'%idskill,_value=\'0\',value=\'0\'),"0 "),\n                TD(INPUT(_type=\'radio\',_name=\'skill_%d\'%idskill,_value=\'1\'),"1 "),\n                TD(INPUT(_type=\'radio\',_name=\'skill_%d\'%idskill,_value=\'2\'),"2 "),\n                TD(INPUT(_type=\'radio\',_name=\'skill_%d\'%idskill,_value=\'3\'),"3 "),\n                TD(INPUT(_type=\'radio\',_name=\'skill_%d\'%idskill,_value=\'4\'),"4 "),\n                TD(INPUT(_type=\'radio\',_name=\'skill_%d\'%idskill,_value=\'5\'),"5        "),\n\n                TD(LABEL(\'Private: \')),\n                TD(INPUT(_type=\'radio\',_name=\'skill_%d_private\'%idskill,_value=\'1\'),"oui "),\n                TD(INPUT(_type=\'radio\',_name=\'skill_%d_private\'%idskill,_value=\'0\',value=\'0\'),"non ")\n                )\n\n                )\n    )\n    return tab\n\ndef userstuff():\n    return dict(rows1 = db().select(db.Carac.ALL),rows2 = db().select(db.SkillLevel.ALL),rows3 = db().select(db.Item.ALL) )\n\ndef initdbjack():\n    auth.add_group(\'UserValide\', \'User ayant valide l inscription\')\n    auth.add_group(\'UserTemp\', \'User ayant pas valide l inscription\')\n    if db(db.auth_user.username == "bussiere").count() == 0:\n            password= "titi" \n            my_crypt = CRYPT(key=auth.settings.hmac_key)\n            crypt_pass = my_crypt(password)[0]  \n            buss = db.auth_user.insert(\n               email= "bussiere2@gmail.com",\n               username="bussiere",\n               password=crypt_pass,\n            )\n            jack = auth.add_group(\'Jack\', \'Jack master of none\')\n            auth.add_membership(jack, buss)\n            db.commit()  \n    db.commit() \n    carac = ["Force","Logique","Volonte","Charisme","Apparence","Dexterite"]\n    skills = { \n    "Physique":{\n                "Sport":{\n                         "Capoeira" :{ \n                                      "bengale":{}\n                                      },\n                        "Karate":{\n                                  "Nord" : {},\n                                  "Sud" : {},\n                                 },\n                         },\n            },\n\n\n    "Technique":{\n                "Mettalerrie" : {\n                                 "Forge" : {},\n                                  \n                                  },\n                 "Couture" : {\n                                  \n                                  },\n                "Conduite" : {\n                                  \n                                  },\n                 \n    },\n\n    "Savoir":{\n              "Informatique" : {\n                                   "Programmation" :{\n                                                     "Python" :{\n                                                                 "Django" : {} ,\n                                                                  "Web2py" : {}\n                                                                },\n                                                     "Methode" :{\n                                                                 "Uml":{},\n                                                                  "Merise": {}\n                                                                },\n                                                     },\n                                   },\n\n            },\n    }\n\n    for c in carac :\n        if db(db.Carac.Nom == c).count() == 0:\n            db.Carac.insert(Nom=c)\n\n    #TODO a revoir tout pourris on peut rien rajouter de nouveau\n    for level1 in skills.keys() :\n        i = 0\n        if db(db.Skill.Nom == level1).count() == 0:\n            Skill1 = db.SkillLevel.insert(Skill = (db.Skill.insert(Nom=level1)),Level = i)\n\n            for level2 in skills[level1].keys() :\n                i = 1\n                if db(db.Skill.Nom == level2).count() == 0:\n                    #Todo\n                    # c\'est crade a revoir :\n                    for row in db((db.Skill.Nom==level1) & (db.Skill.id)).select() :\n                        parent = row.id\n                    #fin du truc a revoir\n                    Skill2 = db.SkillLevel.insert(Skill = (db.Skill.insert(Nom=level2)),Level = i,Parent = parent )\n                    for level3 in skills[level1][level2].keys() :\n                        i = 2\n                        if db(db.Skill.Nom == level3).count() == 0:\n                            #Todo\n                            # c\'est crade a revoir :\n                            for row in db((db.Skill.Nom==level2) & (db.Skill.id)).select() :\n                                parent = row.id\n                            #fin du truc a revoir\n                            Skill3 = db.SkillLevel.insert(Skill = (db.Skill.insert(Nom=level3)),Level = i,Parent = parent)\n                            for level4 in skills[level1][level2][level3].keys() :\n                                i = 3\n                                if db(db.Skill.Nom == level4).count() == 0:\n                                #Todo\n                                # c\'est crade a revoir :\n                                    for row in db((db.Skill.Nom==level3) & (db.Skill.id)).select() :\n                                        parent = row.id\n                                #fin du truc a revoir\n                                    Skill3 = db.SkillLevel.insert(Skill = (db.Skill.insert(Nom=level4)),Level = i,Parent = parent)\n                                    for level5 in skills[level1][level2][level3][level4].keys() :\n                                        i = 4\n                                        if db(db.Skill.Nom == level5).count() == 0:\n                                        #Todo\n                                        # c\'est crade a revoir :\n                                            for row in db((db.Skill.Nom==level4) & (db.Skill.id)).select() :\n                                                parent = row.id\n                                        #fin du truc a revoir\n                                            Skill4 = db.SkillLevel.insert(Skill = (db.Skill.insert(Nom=level5)),Level = i,Parent = parent)\n\n\n\n    Item = {\n    "Machine a Coudre" : "Couture",\n    "Voiture" : "Conduite",\n    "Decoupeuse a plasma" : "Mettalerrie",\n    }\n\n\n    for row in Item.keys() :\n        if db(db.Item.Nom == Item[row]).count() == 0:\n            db.Item.insert(Nom=row,Skill=db.Skill(Nom=Item[row]))                                       \n    db.commit() \n\n\n\n\n\n\n\ndef liste_invitations():\n    return dict(rows = db().select(db.Invitation.ALL))\n\ndef liste_user():\n    return dict(rows = db().select(db.auth_user.ALL))\n\n#@auth.requires_membership(\'manager\')\ndef generate_invitationpage():\n   form=FORM("Nombre d\'invit a generer:", INPUT(_name=\'nmbreinvit\'), INPUT(_type=\'submit\'))\n   if form.process().accepted and form.vars.nmbreinvit != None :\n       i = form.vars.nmbreinvit\n       invitsgenere = generate_invitation(int(i))\n       for invit in invitsgenere :\n           db.Invitation.insert(Code=invit)\n           db.commit()\n       session.flash = \'invitation inserted\'\n       form=FORM("Nombre d\'invit a generer:", INPUT(_name=\'nmbreinvit\'), INPUT(_type=\'submit\'))\n       #db.Invitation.insert(Code="Toto-5542")\n       db.commit()\n   return dict(form=form)\n\ndef verif_invitation(form):\n    print form.vars.invitation\n    if db.Invitation(db.Invitation.Code==form.vars.invitation) == None :\n        form.errors.invitation = \'code invitation incorrect\'\n        print "mauvais"\n    else :\n        print "bon"\n\ndef invitation():\n    form=FORM("Code Invitation :", INPUT(_name=\'invitation\'),"<Email :",INPUT(_name=\'email\'),  INPUT(_type=\'submit\'))\n    if form.process(onvalidation=verif_invitation).accepted and  form.vars.invitation != None  :\n        email = form.vars.email\n        if db(db.auth_user.email == email).count() == 0:\n            password= form.vars.invitation  \n            my_crypt = CRYPT(key=auth.settings.hmac_key)\n            crypt_pass = my_crypt(password)[0]  \n            db.auth_user.insert(\n               email= email,\n               username="John_Doe",\n               password=crypt_pass,\n            )\n            db.commit()  \n            user = db(db.auth_user.email==email).select().first()\n            auth.user = Storage(auth.settings.table_user._filter_fields(user, id=True))\n            auth.environment.session.auth = Storage(user=user, last_visit=request.now,\n                                                expiration=auth.settings.expiration)\n            redirect(URL(\'inscriptioninvit\'))\n    return dict(form=form)\n\ndef faq():\n\n    return dict()\ndef user():\n    """\n    exposes:\n    http://..../[app]/default/user/login\n    http://..../[app]/default/user/logout\n    http://..../[app]/default/user/register\n    http://..../[app]/default/user/profile\n    http://..../[app]/default/user/retrieve_password\n    http://..../[app]/default/user/change_password\n    use @auth.requires_login()\n        @auth.requires_membership(\'group name\')\n        @auth.requires_permission(\'read\',\'table name\',record_id)\n    to decorate functions that need access control\n    """\n    return dict(form=auth())\n\n\ndef download():\n    """\n    allows downloading of uploaded files\n    http://..../[app]/default/download/[filename]\n    """\n    return response.download(request,db)\n\n\ndef call():\n    """\n    exposes services. for example:\n    http://..../[app]/default/call/jsonrpc\n    decorate with @services.jsonrpc the functions to expose\n    supports xml, json, xmlrpc, jsonrpc, amfrpc, rss, csv\n    """\n    return service()\n\n\n@auth.requires_signature()\ndef data():\n    """\n    http://..../[app]/default/data/tables\n    http://..../[app]/default/data/create/[table]\n    http://..../[app]/default/data/read/[table]/[id]\n    http://..../[app]/default/data/update/[table]/[id]\n    http://..../[app]/default/data/delete/[table]/[id]\n    http://..../[app]/default/data/select/[table]\n    http://..../[app]/default/data/search/[table]\n    but URLs must be signed, i.e. linked with\n      A(\'table\',_href=URL(\'data/tables\',user_signature=True))\n    or with the signed load operator\n      LOAD(\'default\',\'data.load\',args=\'tables\',ajax=True,user_signature=True)\n    """\n    return dict(form=crud())\n\nresponse._vars=response._caller(inscriptioninvit)\n'
p7
sS'snapshot'
p8
(dp9
S'exception'
p10
(dp11
S'__getslice__'
p12
S"<method-wrapper '__getslice__' of exceptions.SyntaxError object at 0x03E9EBB0>"
p13
sS'text'
p14
S"'    _colspan=4)\\n'"
p15
sS'__str__'
p16
S"<method-wrapper '__str__' of exceptions.SyntaxError object at 0x03E9EBB0>"
p17
sS'__reduce__'
p18
S'<built-in method __reduce__ of exceptions.SyntaxError object at 0x03E9EBB0>'
p19
sS'__dict__'
p20
S'{}'
p21
sS'__init__'
p22
S"<method-wrapper '__init__' of exceptions.SyntaxError object at 0x03E9EBB0>"
p23
sS'__setattr__'
p24
S"<method-wrapper '__setattr__' of exceptions.SyntaxError object at 0x03E9EBB0>"
p25
sS'__reduce_ex__'
p26
S'<built-in method __reduce_ex__ of exceptions.SyntaxError object at 0x03E9EBB0>'
p27
sS'__new__'
p28
S'<built-in method __new__ of type object at 0x1E1CDBD0>'
p29
sS'__class__'
p30
S"<type 'exceptions.SyntaxError'>"
p31
sS'filename'
p32
S"r'C:\\Users\\Bussiere\\Dropbox\\Projets\\jackpoint\\web2py\\applications\\init\\controllers/default.py'"
p33
sS'lineno'
p34
S'401'
p35
sS'msg'
p36
S"'invalid syntax'"
p37
sS'__doc__'
p38
S"'Invalid syntax.'"
p39
sS'__getitem__'
p40
S"<method-wrapper '__getitem__' of exceptions.SyntaxError object at 0x03E9EBB0>"
p41
sS'__setstate__'
p42
S'<built-in method __setstate__ of exceptions.SyntaxError object at 0x03E9EBB0>'
p43
sS'__getattribute__'
p44
S"<method-wrapper '__getattribute__' of exceptions.SyntaxError object at 0x03E9EBB0>"
p45
sS'print_file_and_line'
p46
S'None'
p47
sS'args'
p48
S"('invalid syntax', (r'C:\\Users\\Bussiere\\Dropbox\\Projets\\jackpoint\\web2py\\applications\\init\\controllers/default.py', 401, 12, '    _colspan=4)\\n'))"
p49
sS'offset'
p50
S'12'
p51
sS'__delattr__'
p52
S"<method-wrapper '__delattr__' of exceptions.SyntaxError object at 0x03E9EBB0>"
p53
sS'__repr__'
p54
S"<method-wrapper '__repr__' of exceptions.SyntaxError object at 0x03E9EBB0>"
p55
sS'__hash__'
p56
S"<method-wrapper '__hash__' of exceptions.SyntaxError object at 0x03E9EBB0>"
p57
ssS'evalue'
p58
S'invalid syntax (controllers/default.py, line 401)'
p59
sS'request'
p60
ccopy_reg
_reconstructor
p61
(cgluon.html
BEAUTIFY
p62
c__builtin__
object
p63
NtRp64
(dp65
S'attributes'
p66
(dp67
sS'components'
p68
(lp69
g61
(cgluon.html
TABLE
p70
g63
NtRp71
(dp72
g66
(dp73
S'level'
p74
I5
ssS'parent'
p75
Nsg68
(lp76
g61
(cgluon.html
TR
p77
g63
NtRp78
(dp79
g66
(dp80
sg75
g71
sg68
(lp81
g61
(cgluon.html
TD
p82
g63
NtRp83
(dp84
g66
(dp85
S'_style'
p86
S'font-weight:bold;vertical-align:top'
p87
ssg75
g78
sg68
(lp88
S'ajax'
p89
asbag61
(g82
g63
NtRp90
(dp91
g66
(dp92
S'_valign'
p93
S'top'
p94
ssg75
g78
sg68
(lp95
S':'
asbag61
(g82
g63
NtRp96
(dp97
g66
(dp98
sg75
g78
sg68
(lp99
g61
(g62
g63
NtRp100
(dp101
g66
(dp102
g74
I5
ssg75
g96
sg68
(lp103
S'False'
p104
asbasbasbag61
(g77
g63
NtRp105
(dp106
g66
(dp107
sg75
g71
sg68
(lp108
g61
(g82
g63
NtRp109
(dp110
g66
(dp111
g86
g87
ssg75
g105
sg68
(lp112
S'application'
p113
asbag61
(g82
g63
NtRp114
(dp115
g66
(dp116
g93
g94
ssg75
g105
sg68
(lp117
S':'
asbag61
(g82
g63
NtRp118
(dp119
g66
(dp120
sg75
g105
sg68
(lp121
g61
(g62
g63
NtRp122
(dp123
g66
(dp124
g74
I5
ssg75
g118
sg68
(lp125
S'init'
p126
asbasbasbag61
(g77
g63
NtRp127
(dp128
g66
(dp129
sg75
g71
sg68
(lp130
g61
(g82
g63
NtRp131
(dp132
g66
(dp133
g86
g87
ssg75
g127
sg68
(lp134
g48
asbag61
(g82
g63
NtRp135
(dp136
g66
(dp137
g93
g94
ssg75
g127
sg68
(lp138
S':'
asbag61
(g82
g63
NtRp139
(dp140
g66
(dp141
sg75
g127
sg68
(lp142
g61
(g62
g63
NtRp143
(dp144
g66
(dp145
g74
I5
ssg75
g139
sg68
(lp146
g61
(g70
g63
NtRp147
(dp148
g66
(dp149
g74
I4
ssg75
Nsg68
(lp150
sbasbasbasbag61
(g77
g63
NtRp151
(dp152
g66
(dp153
sg75
g71
sg68
(lp154
g61
(g82
g63
NtRp155
(dp156
g66
(dp157
g86
g87
ssg75
g151
sg68
(lp158
S'body'
p159
asbag61
(g82
g63
NtRp160
(dp161
g66
(dp162
g93
g94
ssg75
g151
sg68
(lp163
S':'
asbag61
(g82
g63
NtRp164
(dp165
g66
(dp166
sg75
g151
sg68
(lp167
g61
(g62
g63
NtRp168
(dp169
g66
(dp170
g74
I5
ssg75
g164
sg68
(lp171
S'<cStringIO.StringO object at 0x046A23A0>'
p172
asbasbasbag61
(g77
g63
NtRp173
(dp174
g66
(dp175
sg75
g71
sg68
(lp176
g61
(g82
g63
NtRp177
(dp178
g66
(dp179
g86
g87
ssg75
g173
sg68
(lp180
S'client'
p181
asbag61
(g82
g63
NtRp182
(dp183
g66
(dp184
g93
g94
ssg75
g173
sg68
(lp185
S':'
asbag61
(g82
g63
NtRp186
(dp187
g66
(dp188
sg75
g173
sg68
(lp189
g61
(g62
g63
NtRp190
(dp191
g66
(dp192
g74
I5
ssg75
g186
sg68
(lp193
S'127.0.0.1'
p194
asbasbasbag61
(g77
g63
NtRp195
(dp196
g66
(dp197
sg75
g71
sg68
(lp198
g61
(g82
g63
NtRp199
(dp200
g66
(dp201
g86
g87
ssg75
g195
sg68
(lp202
S'controller'
p203
asbag61
(g82
g63
NtRp204
(dp205
g66
(dp206
g93
g94
ssg75
g195
sg68
(lp207
S':'
asbag61
(g82
g63
NtRp208
(dp209
g66
(dp210
sg75
g195
sg68
(lp211
g61
(g62
g63
NtRp212
(dp213
g66
(dp214
g74
I5
ssg75
g208
sg68
(lp215
S'default'
p216
asbasbasbag61
(g77
g63
NtRp217
(dp218
g66
(dp219
sg75
g71
sg68
(lp220
g61
(g82
g63
NtRp221
(dp222
g66
(dp223
g86
g87
ssg75
g217
sg68
(lp224
S'cookies'
p225
asbag61
(g82
g63
NtRp226
(dp227
g66
(dp228
g93
g94
ssg75
g217
sg68
(lp229
S':'
asbag61
(g82
g63
NtRp230
(dp231
g66
(dp232
sg75
g217
sg68
(lp233
g61
(g62
g63
NtRp234
(dp235
g66
(dp236
g74
I5
ssg75
g230
sg68
(lp237
g61
(g70
g63
NtRp238
(dp239
g66
(dp240
g74
I4
ssg75
Nsg68
(lp241
g61
(g77
g63
NtRp242
(dp243
g66
(dp244
sg75
g238
sg68
(lp245
g61
(g82
g63
NtRp246
(dp247
g66
(dp248
g86
g87
ssg75
g242
sg68
(lp249
S'session_id_admin'
p250
asbag61
(g82
g63
NtRp251
(dp252
g66
(dp253
g93
g94
ssg75
g242
sg68
(lp254
S':'
asbag61
(g82
g63
NtRp255
(dp256
g66
(dp257
sg75
g242
sg68
(lp258
g61
(g62
g63
NtRp259
(dp260
g66
(dp261
g74
I4
ssg75
g255
sg68
(lp262
g61
(g70
g63
NtRp263
(dp264
g66
(dp265
g74
I3
ssg75
Nsg68
(lp266
g61
(g77
g63
NtRp267
(dp268
g66
(dp269
sg75
g263
sg68
(lp270
g61
(g82
g63
NtRp271
(dp272
g66
(dp273
g86
g87
ssg75
g267
sg68
(lp274
S'comment'
p275
asbag61
(g82
g63
NtRp276
(dp277
g66
(dp278
g93
g94
ssg75
g267
sg68
(lp279
S':'
asbag61
(g82
g63
NtRp280
(dp281
g66
(dp282
sg75
g267
sg68
(lp283
g61
(g62
g63
NtRp284
(dp285
g66
(dp286
g74
I3
ssg75
g280
sg68
(lp287
S''
asbasbasbag61
(g77
g63
NtRp288
(dp289
g66
(dp290
sg75
g263
sg68
(lp291
g61
(g82
g63
NtRp292
(dp293
g66
(dp294
g86
g87
ssg75
g288
sg68
(lp295
S'domain'
p296
asbag61
(g82
g63
NtRp297
(dp298
g66
(dp299
g93
g94
ssg75
g288
sg68
(lp300
S':'
asbag61
(g82
g63
NtRp301
(dp302
g66
(dp303
sg75
g288
sg68
(lp304
g61
(g62
g63
NtRp305
(dp306
g66
(dp307
g74
I3
ssg75
g301
sg68
(lp308
S''
asbasbasbag61
(g77
g63
NtRp309
(dp310
g66
(dp311
sg75
g263
sg68
(lp312
g61
(g82
g63
NtRp313
(dp314
g66
(dp315
g86
g87
ssg75
g309
sg68
(lp316
S'expires'
p317
asbag61
(g82
g63
NtRp318
(dp319
g66
(dp320
g93
g94
ssg75
g309
sg68
(lp321
S':'
asbag61
(g82
g63
NtRp322
(dp323
g66
(dp324
sg75
g309
sg68
(lp325
g61
(g62
g63
NtRp326
(dp327
g66
(dp328
g74
I3
ssg75
g322
sg68
(lp329
S''
asbasbasbag61
(g77
g63
NtRp330
(dp331
g66
(dp332
sg75
g263
sg68
(lp333
g61
(g82
g63
NtRp334
(dp335
g66
(dp336
g86
g87
ssg75
g330
sg68
(lp337
S'max-age'
p338
asbag61
(g82
g63
NtRp339
(dp340
g66
(dp341
g93
g94
ssg75
g330
sg68
(lp342
S':'
asbag61
(g82
g63
NtRp343
(dp344
g66
(dp345
sg75
g330
sg68
(lp346
g61
(g62
g63
NtRp347
(dp348
g66
(dp349
g74
I3
ssg75
g343
sg68
(lp350
S''
asbasbasbag61
(g77
g63
NtRp351
(dp352
g66
(dp353
sg75
g263
sg68
(lp354
g61
(g82
g63
NtRp355
(dp356
g66
(dp357
g86
g87
ssg75
g351
sg68
(lp358
S'path'
p359
asbag61
(g82
g63
NtRp360
(dp361
g66
(dp362
g93
g94
ssg75
g351
sg68
(lp363
S':'
asbag61
(g82
g63
NtRp364
(dp365
g66
(dp366
sg75
g351
sg68
(lp367
g61
(g62
g63
NtRp368
(dp369
g66
(dp370
g74
I3
ssg75
g364
sg68
(lp371
S''
asbasbasbag61
(g77
g63
NtRp372
(dp373
g66
(dp374
sg75
g263
sg68
(lp375
g61
(g82
g63
NtRp376
(dp377
g66
(dp378
g86
g87
ssg75
g372
sg68
(lp379
S'secure'
p380
asbag61
(g82
g63
NtRp381
(dp382
g66
(dp383
g93
g94
ssg75
g372
sg68
(lp384
S':'
asbag61
(g82
g63
NtRp385
(dp386
g66
(dp387
sg75
g372
sg68
(lp388
g61
(g62
g63
NtRp389
(dp390
g66
(dp391
g74
I3
ssg75
g385
sg68
(lp392
S''
asbasbasbag61
(g77
g63
NtRp393
(dp394
g66
(dp395
sg75
g263
sg68
(lp396
g61
(g82
g63
NtRp397
(dp398
g66
(dp399
g86
g87
ssg75
g393
sg68
(lp400
S'version'
p401
asbag61
(g82
g63
NtRp402
(dp403
g66
(dp404
g93
g94
ssg75
g393
sg68
(lp405
S':'
asbag61
(g82
g63
NtRp406
(dp407
g66
(dp408
sg75
g393
sg68
(lp409
g61
(g62
g63
NtRp410
(dp411
g66
(dp412
g74
I3
ssg75
g406
sg68
(lp413
S''
asbasbasbasbasbasbasbag61
(g77
g63
NtRp414
(dp415
g66
(dp416
sg75
g238
sg68
(lp417
g61
(g82
g63
NtRp418
(dp419
g66
(dp420
g86
g87
ssg75
g414
sg68
(lp421
S'session_id_init'
p422
asbag61
(g82
g63
NtRp423
(dp424
g66
(dp425
g93
g94
ssg75
g414
sg68
(lp426
S':'
asbag61
(g82
g63
NtRp427
(dp428
g66
(dp429
sg75
g414
sg68
(lp430
g61
(g62
g63
NtRp431
(dp432
g66
(dp433
g74
I4
ssg75
g427
sg68
(lp434
g61
(g70
g63
NtRp435
(dp436
g66
(dp437
g74
I3
ssg75
Nsg68
(lp438
g61
(g77
g63
NtRp439
(dp440
g66
(dp441
sg75
g435
sg68
(lp442
g61
(g82
g63
NtRp443
(dp444
g66
(dp445
g86
g87
ssg75
g439
sg68
(lp446
g275
asbag61
(g82
g63
NtRp447
(dp448
g66
(dp449
g93
g94
ssg75
g439
sg68
(lp450
S':'
asbag61
(g82
g63
NtRp451
(dp452
g66
(dp453
sg75
g439
sg68
(lp454
g61
(g62
g63
NtRp455
(dp456
g66
(dp457
g74
I3
ssg75
g451
sg68
(lp458
S''
asbasbasbag61
(g77
g63
NtRp459
(dp460
g66
(dp461
sg75
g435
sg68
(lp462
g61
(g82
g63
NtRp463
(dp464
g66
(dp465
g86
g87
ssg75
g459
sg68
(lp466
g296
asbag61
(g82
g63
NtRp467
(dp468
g66
(dp469
g93
g94
ssg75
g459
sg68
(lp470
S':'
asbag61
(g82
g63
NtRp471
(dp472
g66
(dp473
sg75
g459
sg68
(lp474
g61
(g62
g63
NtRp475
(dp476
g66
(dp477
g74
I3
ssg75
g471
sg68
(lp478
S''
asbasbasbag61
(g77
g63
NtRp479
(dp480
g66
(dp481
sg75
g435
sg68
(lp482
g61
(g82
g63
NtRp483
(dp484
g66
(dp485
g86
g87
ssg75
g479
sg68
(lp486
g317
asbag61
(g82
g63
NtRp487
(dp488
g66
(dp489
g93
g94
ssg75
g479
sg68
(lp490
S':'
asbag61
(g82
g63
NtRp491
(dp492
g66
(dp493
sg75
g479
sg68
(lp494
g61
(g62
g63
NtRp495
(dp496
g66
(dp497
g74
I3
ssg75
g491
sg68
(lp498
S''
asbasbasbag61
(g77
g63
NtRp499
(dp500
g66
(dp501
sg75
g435
sg68
(lp502
g61
(g82
g63
NtRp503
(dp504
g66
(dp505
g86
g87
ssg75
g499
sg68
(lp506
g338
asbag61
(g82
g63
NtRp507
(dp508
g66
(dp509
g93
g94
ssg75
g499
sg68
(lp510
S':'
asbag61
(g82
g63
NtRp511
(dp512
g66
(dp513
sg75
g499
sg68
(lp514
g61
(g62
g63
NtRp515
(dp516
g66
(dp517
g74
I3
ssg75
g511
sg68
(lp518
S''
asbasbasbag61
(g77
g63
NtRp519
(dp520
g66
(dp521
sg75
g435
sg68
(lp522
g61
(g82
g63
NtRp523
(dp524
g66
(dp525
g86
g87
ssg75
g519
sg68
(lp526
g359
asbag61
(g82
g63
NtRp527
(dp528
g66
(dp529
g93
g94
ssg75
g519
sg68
(lp530
S':'
asbag61
(g82
g63
NtRp531
(dp532
g66
(dp533
sg75
g519
sg68
(lp534
g61
(g62
g63
NtRp535
(dp536
g66
(dp537
g74
I3
ssg75
g531
sg68
(lp538
S''
asbasbasbag61
(g77
g63
NtRp539
(dp540
g66
(dp541
sg75
g435
sg68
(lp542
g61
(g82
g63
NtRp543
(dp544
g66
(dp545
g86
g87
ssg75
g539
sg68
(lp546
g380
asbag61
(g82
g63
NtRp547
(dp548
g66
(dp549
g93
g94
ssg75
g539
sg68
(lp550
S':'
asbag61
(g82
g63
NtRp551
(dp552
g66
(dp553
sg75
g539
sg68
(lp554
g61
(g62
g63
NtRp555
(dp556
g66
(dp557
g74
I3
ssg75
g551
sg68
(lp558
S''
asbasbasbag61
(g77
g63
NtRp559
(dp560
g66
(dp561
sg75
g435
sg68
(lp562
g61
(g82
g63
NtRp563
(dp564
g66
(dp565
g86
g87
ssg75
g559
sg68
(lp566
g401
asbag61
(g82
g63
NtRp567
(dp568
g66
(dp569
g93
g94
ssg75
g559
sg68
(lp570
S':'
asbag61
(g82
g63
NtRp571
(dp572
g66
(dp573
sg75
g559
sg68
(lp574
g61
(g62
g63
NtRp575
(dp576
g66
(dp577
g74
I3
ssg75
g571
sg68
(lp578
S''
asbasbasbasbasbasbasbasbasbasbasbag61
(g77
g63
NtRp579
(dp580
g66
(dp581
sg75
g71
sg68
(lp582
g61
(g82
g63
NtRp583
(dp584
g66
(dp585
g86
g87
ssg75
g579
sg68
(lp586
S'env'
p587
asbag61
(g82
g63
NtRp588
(dp589
g66
(dp590
g93
g94
ssg75
g579
sg68
(lp591
S':'
asbag61
(g82
g63
NtRp592
(dp593
g66
(dp594
sg75
g579
sg68
(lp595
g61
(g62
g63
NtRp596
(dp597
g66
(dp598
g74
I5
ssg75
g592
sg68
(lp599
g61
(g70
g63
NtRp600
(dp601
g66
(dp602
g74
I4
ssg75
Nsg68
(lp603
g61
(g77
g63
NtRp604
(dp605
g66
(dp606
sg75
g600
sg68
(lp607
g61
(g82
g63
NtRp608
(dp609
g66
(dp610
g86
g87
ssg75
g604
sg68
(lp611
S'app_folders'
p612
asbag61
(g82
g63
NtRp613
(dp614
g66
(dp615
g93
g94
ssg75
g604
sg68
(lp616
S':'
asbag61
(g82
g63
NtRp617
(dp618
g66
(dp619
sg75
g604
sg68
(lp620
g61
(g62
g63
NtRp621
(dp622
g66
(dp623
g74
I4
ssg75
g617
sg68
(lp624
S"set(['C:\\\\Users\\\\Bussiere\\\\Dropbox\\\\Projets\\\\jackpoint\\\\web2py\\\\applications\\\\init\\\\', 'C:\\\\Users\\\\Bussiere\\\\Dropbox\\\\Projets\\\\jackpoint\\\\web2py\\\\applications\\\\admin\\\\'])"
p625
asbasbasbag61
(g77
g63
NtRp626
(dp627
g66
(dp628
sg75
g600
sg68
(lp629
g61
(g82
g63
NtRp630
(dp631
g66
(dp632
g86
g87
ssg75
g626
sg68
(lp633
S'applications_parent'
p634
asbag61
(g82
g63
NtRp635
(dp636
g66
(dp637
g93
g94
ssg75
g626
sg68
(lp638
S':'
asbag61
(g82
g63
NtRp639
(dp640
g66
(dp641
sg75
g626
sg68
(lp642
g61
(g62
g63
NtRp643
(dp644
g66
(dp645
g74
I4
ssg75
g639
sg68
(lp646
S'C:\\Users\\Bussiere\\Dropbox\\Projets\\jackpoint\\web2py'
p647
asbasbasbag61
(g77
g63
NtRp648
(dp649
g66
(dp650
sg75
g600
sg68
(lp651
g61
(g82
g63
NtRp652
(dp653
g66
(dp654
g86
g87
ssg75
g648
sg68
(lp655
S'cmd_args'
p656
asbag61
(g82
g63
NtRp657
(dp658
g66
(dp659
g93
g94
ssg75
g648
sg68
(lp660
S':'
asbag61
(g82
g63
NtRp661
(dp662
g66
(dp663
sg75
g648
sg68
(lp664
g61
(g62
g63
NtRp665
(dp666
g66
(dp667
g74
I4
ssg75
g661
sg68
(lp668
g61
(g70
g63
NtRp669
(dp670
g66
(dp671
g74
I3
ssg75
Nsg68
(lp672
sbasbasbasbag61
(g77
g63
NtRp673
(dp674
g66
(dp675
sg75
g600
sg68
(lp676
g61
(g82
g63
NtRp677
(dp678
g66
(dp679
g86
g87
ssg75
g673
sg68
(lp680
S'cmd_options'
p681
asbag61
(g82
g63
NtRp682
(dp683
g66
(dp684
g93
g94
ssg75
g673
sg68
(lp685
S':'
asbag61
(g82
g63
NtRp686
(dp687
g66
(dp688
sg75
g673
sg68
(lp689
g61
(g62
g63
NtRp690
(dp691
g66
(dp692
g74
I4
ssg75
g686
sg68
(lp693
S"<Values at 0x3c25fa8: {'verbose': False, 'ip': '127.0.0.1', 'shutdown_timeout': 5, 'taskbar': False, 'nocron': False, 'pid_filename': 'httpserver.pid', 'maxthreads': None, 'softcron': False, 'server_name': 'Batou', 'bpython': False, 'nogui': False, 'port': 8000, 'extcron': False, 'debuglevel': 30, 'test': None, 'folder': 'C:\\\\Users\\\\Bussiere\\\\Dropbox\\\\Projets\\\\jackpoint\\\\web2py', 'config': '', 'import_models': False, 'winservice': '', 'shell': None, 'run': '', 'log_filename': 'httpserver.log', 'args': [''], 'socket_timeout': 5, 'ssl_ca_certificate': None, 'scheduler': None, 'profiler_filename': None, 'ssl_private_key': '', 'password': '<ask>', 'request_queue_size': 5, 'ssl_certificate': '', 'cronjob': False, 'numthreads': None, 'quiet': False, 'interfaces': None, 'minthreads': None, 'timeout': 10, 'plain': False, 'nobanner': False}>"
p694
asbasbasbag61
(g77
g63
NtRp695
(dp696
g66
(dp697
sg75
g600
sg68
(lp698
g61
(g82
g63
NtRp699
(dp700
g66
(dp701
g86
g87
ssg75
g695
sg68
(lp702
S'db_sessions'
p703
asbag61
(g82
g63
NtRp704
(dp705
g66
(dp706
g93
g94
ssg75
g695
sg68
(lp707
S':'
asbag61
(g82
g63
NtRp708
(dp709
g66
(dp710
sg75
g695
sg68
(lp711
g61
(g62
g63
NtRp712
(dp713
g66
(dp714
g74
I4
ssg75
g708
sg68
(lp715
S"set(['init'])"
p716
asbasbasbag61
(g77
g63
NtRp717
(dp718
g66
(dp719
sg75
g600
sg68
(lp720
g61
(g82
g63
NtRp721
(dp722
g66
(dp723
g86
g87
ssg75
g717
sg68
(lp724
S'debugging'
p725
asbag61
(g82
g63
NtRp726
(dp727
g66
(dp728
g93
g94
ssg75
g717
sg68
(lp729
S':'
asbag61
(g82
g63
NtRp730
(dp731
g66
(dp732
sg75
g717
sg68
(lp733
g61
(g62
g63
NtRp734
(dp735
g66
(dp736
g74
I4
ssg75
g730
sg68
(lp737
S'True'
p738
asbasbasbag61
(g77
g63
NtRp739
(dp740
g66
(dp741
sg75
g600
sg68
(lp742
g61
(g82
g63
NtRp743
(dp744
g66
(dp745
g86
g87
ssg75
g739
sg68
(lp746
S'gluon_parent'
p747
asbag61
(g82
g63
NtRp748
(dp749
g66
(dp750
g93
g94
ssg75
g739
sg68
(lp751
S':'
asbag61
(g82
g63
NtRp752
(dp753
g66
(dp754
sg75
g739
sg68
(lp755
g61
(g62
g63
NtRp756
(dp757
g66
(dp758
g74
I4
ssg75
g752
sg68
(lp759
S'C:\\Users\\Bussiere\\Dropbox\\Projets\\jackpoint\\web2py'
p760
asbasbasbag61
(g77
g63
NtRp761
(dp762
g66
(dp763
sg75
g600
sg68
(lp764
g61
(g82
g63
NtRp765
(dp766
g66
(dp767
g86
g87
ssg75
g761
sg68
(lp768
S'http_accept'
p769
asbag61
(g82
g63
NtRp770
(dp771
g66
(dp772
g93
g94
ssg75
g761
sg68
(lp773
S':'
asbag61
(g82
g63
NtRp774
(dp775
g66
(dp776
sg75
g761
sg68
(lp777
g61
(g62
g63
NtRp778
(dp779
g66
(dp780
g74
I4
ssg75
g774
sg68
(lp781
S'text/html,application/xhtml+xml,application/xml;q=0.9,*/*;q=0.8'
p782
asbasbasbag61
(g77
g63
NtRp783
(dp784
g66
(dp785
sg75
g600
sg68
(lp786
g61
(g82
g63
NtRp787
(dp788
g66
(dp789
g86
g87
ssg75
g783
sg68
(lp790
S'http_accept_charset'
p791
asbag61
(g82
g63
NtRp792
(dp793
g66
(dp794
g93
g94
ssg75
g783
sg68
(lp795
S':'
asbag61
(g82
g63
NtRp796
(dp797
g66
(dp798
sg75
g783
sg68
(lp799
g61
(g62
g63
NtRp800
(dp801
g66
(dp802
g74
I4
ssg75
g796
sg68
(lp803
S'ISO-8859-1,utf-8;q=0.7,*;q=0.3'
p804
asbasbasbag61
(g77
g63
NtRp805
(dp806
g66
(dp807
sg75
g600
sg68
(lp808
g61
(g82
g63
NtRp809
(dp810
g66
(dp811
g86
g87
ssg75
g805
sg68
(lp812
S'http_accept_encoding'
p813
asbag61
(g82
g63
NtRp814
(dp815
g66
(dp816
g93
g94
ssg75
g805
sg68
(lp817
S':'
asbag61
(g82
g63
NtRp818
(dp819
g66
(dp820
sg75
g805
sg68
(lp821
g61
(g62
g63
NtRp822
(dp823
g66
(dp824
g74
I4
ssg75
g818
sg68
(lp825
S'gzip,deflate,sdch'
p826
asbasbasbag61
(g77
g63
NtRp827
(dp828
g66
(dp829
sg75
g600
sg68
(lp830
g61
(g82
g63
NtRp831
(dp832
g66
(dp833
g86
g87
ssg75
g827
sg68
(lp834
S'http_accept_language'
p835
asbag61
(g82
g63
NtRp836
(dp837
g66
(dp838
g93
g94
ssg75
g827
sg68
(lp839
S':'
asbag61
(g82
g63
NtRp840
(dp841
g66
(dp842
sg75
g827
sg68
(lp843
g61
(g62
g63
NtRp844
(dp845
g66
(dp846
g74
I4
ssg75
g840
sg68
(lp847
S'en-US,en;q=0.8'
p848
asbasbasbag61
(g77
g63
NtRp849
(dp850
g66
(dp851
sg75
g600
sg68
(lp852
g61
(g82
g63
NtRp853
(dp854
g66
(dp855
g86
g87
ssg75
g849
sg68
(lp856
S'http_cache_control'
p857
asbag61
(g82
g63
NtRp858
(dp859
g66
(dp860
g93
g94
ssg75
g849
sg68
(lp861
S':'
asbag61
(g82
g63
NtRp862
(dp863
g66
(dp864
sg75
g849
sg68
(lp865
g61
(g62
g63
NtRp866
(dp867
g66
(dp868
g74
I4
ssg75
g862
sg68
(lp869
S'max-age=0'
p870
asbasbasbag61
(g77
g63
NtRp871
(dp872
g66
(dp873
sg75
g600
sg68
(lp874
g61
(g82
g63
NtRp875
(dp876
g66
(dp877
g86
g87
ssg75
g871
sg68
(lp878
S'http_connection'
p879
asbag61
(g82
g63
NtRp880
(dp881
g66
(dp882
g93
g94
ssg75
g871
sg68
(lp883
S':'
asbag61
(g82
g63
NtRp884
(dp885
g66
(dp886
sg75
g871
sg68
(lp887
g61
(g62
g63
NtRp888
(dp889
g66
(dp890
g74
I4
ssg75
g884
sg68
(lp891
S'keep-alive'
p892
asbasbasbag61
(g77
g63
NtRp893
(dp894
g66
(dp895
sg75
g600
sg68
(lp896
g61
(g82
g63
NtRp897
(dp898
g66
(dp899
g86
g87
ssg75
g893
sg68
(lp900
S'http_cookie'
p901
asbag61
(g82
g63
NtRp902
(dp903
g66
(dp904
g93
g94
ssg75
g893
sg68
(lp905
S':'
asbag61
(g82
g63
NtRp906
(dp907
g66
(dp908
sg75
g893
sg68
(lp909
g61
(g62
g63
NtRp910
(dp911
g66
(dp912
g74
I4
ssg75
g906
sg68
(lp913
S'session_id_admin=127.0.0.1-e1457306-3bd0-4998-a7b3-8cac3af988e6; session_id_init="24:fc940c53-63d4-4b03-b7eb-6ddd9cd731aa"'
p914
asbasbasbag61
(g77
g63
NtRp915
(dp916
g66
(dp917
sg75
g600
sg68
(lp918
g61
(g82
g63
NtRp919
(dp920
g66
(dp921
g86
g87
ssg75
g915
sg68
(lp922
S'http_host'
p923
asbag61
(g82
g63
NtRp924
(dp925
g66
(dp926
g93
g94
ssg75
g915
sg68
(lp927
S':'
asbag61
(g82
g63
NtRp928
(dp929
g66
(dp930
sg75
g915
sg68
(lp931
g61
(g62
g63
NtRp932
(dp933
g66
(dp934
g74
I4
ssg75
g928
sg68
(lp935
S'localhost:8000'
p936
asbasbasbag61
(g77
g63
NtRp937
(dp938
g66
(dp939
sg75
g600
sg68
(lp940
g61
(g82
g63
NtRp941
(dp942
g66
(dp943
g86
g87
ssg75
g937
sg68
(lp944
S'http_referer'
p945
asbag61
(g82
g63
NtRp946
(dp947
g66
(dp948
g93
g94
ssg75
g937
sg68
(lp949
S':'
asbag61
(g82
g63
NtRp950
(dp951
g66
(dp952
sg75
g937
sg68
(lp953
g61
(g62
g63
NtRp954
(dp955
g66
(dp956
g74
I4
ssg75
g950
sg68
(lp957
S'http://localhost:8000/init/default/invitation'
p958
asbasbasbag61
(g77
g63
NtRp959
(dp960
g66
(dp961
sg75
g600
sg68
(lp962
g61
(g82
g63
NtRp963
(dp964
g66
(dp965
g86
g87
ssg75
g959
sg68
(lp966
S'http_user_agent'
p967
asbag61
(g82
g63
NtRp968
(dp969
g66
(dp970
g93
g94
ssg75
g959
sg68
(lp971
S':'
asbag61
(g82
g63
NtRp972
(dp973
g66
(dp974
sg75
g959
sg68
(lp975
g61
(g62
g63
NtRp976
(dp977
g66
(dp978
g74
I4
ssg75
g972
sg68
(lp979
S'Mozilla/5.0 (Windows NT 6.1; WOW64) AppleWebKit/535.18 (KHTML, like Gecko) Chrome/18.0.1011.0 Safari/535.18'
p980
asbasbasbag61
(g77
g63
NtRp981
(dp982
g66
(dp983
sg75
g600
sg68
(lp984
g61
(g82
g63
NtRp985
(dp986
g66
(dp987
g86
g87
ssg75
g981
sg68
(lp988
S'is_jython'
p989
asbag61
(g82
g63
NtRp990
(dp991
g66
(dp992
g93
g94
ssg75
g981
sg68
(lp993
S':'
asbag61
(g82
g63
NtRp994
(dp995
g66
(dp996
sg75
g981
sg68
(lp997
g61
(g62
g63
NtRp998
(dp999
g66
(dp1000
g74
I4
ssg75
g994
sg68
(lp1001
g104
asbasbasbag61
(g77
g63
NtRp1002
(dp1003
g66
(dp1004
sg75
g600
sg68
(lp1005
g61
(g82
g63
NtRp1006
(dp1007
g66
(dp1008
g86
g87
ssg75
g1002
sg68
(lp1009
S'is_pypy'
p1010
asbag61
(g82
g63
NtRp1011
(dp1012
g66
(dp1013
g93
g94
ssg75
g1002
sg68
(lp1014
S':'
asbag61
(g82
g63
NtRp1015
(dp1016
g66
(dp1017
sg75
g1002
sg68
(lp1018
g61
(g62
g63
NtRp1019
(dp1020
g66
(dp1021
g74
I4
ssg75
g1015
sg68
(lp1022
g104
asbasbasbag61
(g77
g63
NtRp1023
(dp1024
g66
(dp1025
sg75
g600
sg68
(lp1026
g61
(g82
g63
NtRp1027
(dp1028
g66
(dp1029
g86
g87
ssg75
g1023
sg68
(lp1030
S'path_info'
p1031
asbag61
(g82
g63
NtRp1032
(dp1033
g66
(dp1034
g93
g94
ssg75
g1023
sg68
(lp1035
S':'
asbag61
(g82
g63
NtRp1036
(dp1037
g66
(dp1038
sg75
g1023
sg68
(lp1039
g61
(g62
g63
NtRp1040
(dp1041
g66
(dp1042
g74
I4
ssg75
g1036
sg68
(lp1043
S'/init/default/inscriptioninvit'
p1044
asbasbasbag61
(g77
g63
NtRp1045
(dp1046
g66
(dp1047
sg75
g600
sg68
(lp1048
g61
(g82
g63
NtRp1049
(dp1050
g66
(dp1051
g86
g87
ssg75
g1045
sg68
(lp1052
S'query_string'
p1053
asbag61
(g82
g63
NtRp1054
(dp1055
g66
(dp1056
g93
g94
ssg75
g1045
sg68
(lp1057
S':'
asbag61
(g82
g63
NtRp1058
(dp1059
g66
(dp1060
sg75
g1045
sg68
(lp1061
g61
(g62
g63
NtRp1062
(dp1063
g66
(dp1064
g74
I4
ssg75
g1058
sg68
(lp1065
S''
asbasbasbag61
(g77
g63
NtRp1066
(dp1067
g66
(dp1068
sg75
g600
sg68
(lp1069
g61
(g82
g63
NtRp1070
(dp1071
g66
(dp1072
g86
g87
ssg75
g1066
sg68
(lp1073
S'remote_addr'
p1074
asbag61
(g82
g63
NtRp1075
(dp1076
g66
(dp1077
g93
g94
ssg75
g1066
sg68
(lp1078
S':'
asbag61
(g82
g63
NtRp1079
(dp1080
g66
(dp1081
sg75
g1066
sg68
(lp1082
g61
(g62
g63
NtRp1083
(dp1084
g66
(dp1085
g74
I4
ssg75
g1079
sg68
(lp1086
g194
asbasbasbag61
(g77
g63
NtRp1087
(dp1088
g66
(dp1089
sg75
g600
sg68
(lp1090
g61
(g82
g63
NtRp1091
(dp1092
g66
(dp1093
g86
g87
ssg75
g1087
sg68
(lp1094
S'remote_port'
p1095
asbag61
(g82
g63
NtRp1096
(dp1097
g66
(dp1098
g93
g94
ssg75
g1087
sg68
(lp1099
S':'
asbag61
(g82
g63
NtRp1100
(dp1101
g66
(dp1102
sg75
g1087
sg68
(lp1103
g61
(g62
g63
NtRp1104
(dp1105
g66
(dp1106
g74
I4
ssg75
g1100
sg68
(lp1107
S'52346'
p1108
asbasbasbag61
(g77
g63
NtRp1109
(dp1110
g66
(dp1111
sg75
g600
sg68
(lp1112
g61
(g82
g63
NtRp1113
(dp1114
g66
(dp1115
g86
g87
ssg75
g1109
sg68
(lp1116
S'request_method'
p1117
asbag61
(g82
g63
NtRp1118
(dp1119
g66
(dp1120
g93
g94
ssg75
g1109
sg68
(lp1121
S':'
asbag61
(g82
g63
NtRp1122
(dp1123
g66
(dp1124
sg75
g1109
sg68
(lp1125
g61
(g62
g63
NtRp1126
(dp1127
g66
(dp1128
g74
I4
ssg75
g1122
sg68
(lp1129
S'GET'
p1130
asbasbasbag61
(g77
g63
NtRp1131
(dp1132
g66
(dp1133
sg75
g600
sg68
(lp1134
g61
(g82
g63
NtRp1135
(dp1136
g66
(dp1137
g86
g87
ssg75
g1131
sg68
(lp1138
S'script_name'
p1139
asbag61
(g82
g63
NtRp1140
(dp1141
g66
(dp1142
g93
g94
ssg75
g1131
sg68
(lp1143
S':'
asbag61
(g82
g63
NtRp1144
(dp1145
g66
(dp1146
sg75
g1131
sg68
(lp1147
g61
(g62
g63
NtRp1148
(dp1149
g66
(dp1150
g74
I4
ssg75
g1144
sg68
(lp1151
S''
asbasbasbag61
(g77
g63
NtRp1152
(dp1153
g66
(dp1154
sg75
g600
sg68
(lp1155
g61
(g82
g63
NtRp1156
(dp1157
g66
(dp1158
g86
g87
ssg75
g1152
sg68
(lp1159
S'server_name'
p1160
asbag61
(g82
g63
NtRp1161
(dp1162
g66
(dp1163
g93
g94
ssg75
g1152
sg68
(lp1164
S':'
asbag61
(g82
g63
NtRp1165
(dp1166
g66
(dp1167
sg75
g1152
sg68
(lp1168
g61
(g62
g63
NtRp1169
(dp1170
g66
(dp1171
g74
I4
ssg75
g1165
sg68
(lp1172
S'Batou'
p1173
asbasbasbag61
(g77
g63
NtRp1174
(dp1175
g66
(dp1176
sg75
g600
sg68
(lp1177
g61
(g82
g63
NtRp1178
(dp1179
g66
(dp1180
g86
g87
ssg75
g1174
sg68
(lp1181
S'server_port'
p1182
asbag61
(g82
g63
NtRp1183
(dp1184
g66
(dp1185
g93
g94
ssg75
g1174
sg68
(lp1186
S':'
asbag61
(g82
g63
NtRp1187
(dp1188
g66
(dp1189
sg75
g1174
sg68
(lp1190
g61
(g62
g63
NtRp1191
(dp1192
g66
(dp1193
g74
I4
ssg75
g1187
sg68
(lp1194
S'8000'
p1195
asbasbasbag61
(g77
g63
NtRp1196
(dp1197
g66
(dp1198
sg75
g600
sg68
(lp1199
g61
(g82
g63
NtRp1200
(dp1201
g66
(dp1202
g86
g87
ssg75
g1196
sg68
(lp1203
S'server_protocol'
p1204
asbag61
(g82
g63
NtRp1205
(dp1206
g66
(dp1207
g93
g94
ssg75
g1196
sg68
(lp1208
S':'
asbag61
(g82
g63
NtRp1209
(dp1210
g66
(dp1211
sg75
g1196
sg68
(lp1212
g61
(g62
g63
NtRp1213
(dp1214
g66
(dp1215
g74
I4
ssg75
g1209
sg68
(lp1216
S'HTTP/1.1'
p1217
asbasbasbag61
(g77
g63
NtRp1218
(dp1219
g66
(dp1220
sg75
g600
sg68
(lp1221
g61
(g82
g63
NtRp1222
(dp1223
g66
(dp1224
g86
g87
ssg75
g1218
sg68
(lp1225
S'server_software'
p1226
asbag61
(g82
g63
NtRp1227
(dp1228
g66
(dp1229
g93
g94
ssg75
g1218
sg68
(lp1230
S':'
asbag61
(g82
g63
NtRp1231
(dp1232
g66
(dp1233
sg75
g1218
sg68
(lp1234
g61
(g62
g63
NtRp1235
(dp1236
g66
(dp1237
g74
I4
ssg75
g1231
sg68
(lp1238
S'Rocket 1.2.4'
p1239
asbasbasbag61
(g77
g63
NtRp1240
(dp1241
g66
(dp1242
sg75
g600
sg68
(lp1243
g61
(g82
g63
NtRp1244
(dp1245
g66
(dp1246
g86
g87
ssg75
g1240
sg68
(lp1247
S'web2py_crontype'
p1248
asbag61
(g82
g63
NtRp1249
(dp1250
g66
(dp1251
g93
g94
ssg75
g1240
sg68
(lp1252
S':'
asbag61
(g82
g63
NtRp1253
(dp1254
g66
(dp1255
sg75
g1240
sg68
(lp1256
g61
(g62
g63
NtRp1257
(dp1258
g66
(dp1259
g74
I4
ssg75
g1253
sg68
(lp1260
S'hard'
p1261
asbasbasbag61
(g77
g63
NtRp1262
(dp1263
g66
(dp1264
sg75
g600
sg68
(lp1265
g61
(g82
g63
NtRp1266
(dp1267
g66
(dp1268
g86
g87
ssg75
g1262
sg68
(lp1269
S'web2py_path'
p1270
asbag61
(g82
g63
NtRp1271
(dp1272
g66
(dp1273
g93
g94
ssg75
g1262
sg68
(lp1274
S':'
asbag61
(g82
g63
NtRp1275
(dp1276
g66
(dp1277
sg75
g1262
sg68
(lp1278
g61
(g62
g63
NtRp1279
(dp1280
g66
(dp1281
g74
I4
ssg75
g1275
sg68
(lp1282
g647
asbasbasbag61
(g77
g63
NtRp1283
(dp1284
g66
(dp1285
sg75
g600
sg68
(lp1286
g61
(g82
g63
NtRp1287
(dp1288
g66
(dp1289
g86
g87
ssg75
g1283
sg68
(lp1290
S'web2py_version'
p1291
asbag61
(g82
g63
NtRp1292
(dp1293
g66
(dp1294
g93
g94
ssg75
g1283
sg68
(lp1295
S':'
asbag61
(g82
g63
NtRp1296
(dp1297
g66
(dp1298
sg75
g1283
sg68
(lp1299
g61
(g62
g63
NtRp1300
(dp1301
g66
(dp1302
g74
I4
ssg75
g1296
sg68
(lp1303
g61
(g70
g63
NtRp1304
(dp1305
g66
(dp1306
g74
I3
ssg75
Nsg68
(lp1307
g61
(g77
g63
NtRp1308
(dp1309
g66
(dp1310
sg75
g1304
sg68
(lp1311
g61
(g82
g63
NtRp1312
(dp1313
g66
(dp1314
sg75
g1308
sg68
(lp1315
g61
(g62
g63
NtRp1316
(dp1317
g66
(dp1318
g74
I3
ssg75
g1312
sg68
(lp1319
S'1'
asbasbasbag61
(g77
g63
NtRp1320
(dp1321
g66
(dp1322
sg75
g1304
sg68
(lp1323
g61
(g82
g63
NtRp1324
(dp1325
g66
(dp1326
sg75
g1320
sg68
(lp1327
g61
(g62
g63
NtRp1328
(dp1329
g66
(dp1330
g74
I3
ssg75
g1324
sg68
(lp1331
S'99'
p1332
asbasbasbag61
(g77
g63
NtRp1333
(dp1334
g66
(dp1335
sg75
g1304
sg68
(lp1336
g61
(g82
g63
NtRp1337
(dp1338
g66
(dp1339
sg75
g1333
sg68
(lp1340
g61
(g62
g63
NtRp1341
(dp1342
g66
(dp1343
g74
I3
ssg75
g1337
sg68
(lp1344
S'7'
asbasbasbag61
(g77
g63
NtRp1345
(dp1346
g66
(dp1347
sg75
g1304
sg68
(lp1348
g61
(g82
g63
NtRp1349
(dp1350
g66
(dp1351
sg75
g1345
sg68
(lp1352
g61
(g62
g63
NtRp1353
(dp1354
g66
(dp1355
g74
I3
ssg75
g1349
sg68
(lp1356
S'datetime.datetime(2012, 3, 4, 22, 12, 8)'
p1357
asbasbasbag61
(g77
g63
NtRp1358
(dp1359
g66
(dp1360
sg75
g1304
sg68
(lp1361
g61
(g82
g63
NtRp1362
(dp1363
g66
(dp1364
sg75
g1358
sg68
(lp1365
g61
(g62
g63
NtRp1366
(dp1367
g66
(dp1368
g74
I3
ssg75
g1362
sg68
(lp1369
S'stable'
p1370
asbasbasbasbasbasbasbag61
(g77
g63
NtRp1371
(dp1372
g66
(dp1373
sg75
g600
sg68
(lp1374
g61
(g82
g63
NtRp1375
(dp1376
g66
(dp1377
g86
g87
ssg75
g1371
sg68
(lp1378
S'wsgi_errors'
p1379
asbag61
(g82
g63
NtRp1380
(dp1381
g66
(dp1382
g93
g94
ssg75
g1371
sg68
(lp1383
S':'
asbag61
(g82
g63
NtRp1384
(dp1385
g66
(dp1386
sg75
g1371
sg68
(lp1387
g61
(g62
g63
NtRp1388
(dp1389
g66
(dp1390
g74
I4
ssg75
g1384
sg68
(lp1391
S"<open file '<stderr>', mode 'w' at 0x008C00B0>"
p1392
asbasbasbag61
(g77
g63
NtRp1393
(dp1394
g66
(dp1395
sg75
g600
sg68
(lp1396
g61
(g82
g63
NtRp1397
(dp1398
g66
(dp1399
g86
g87
ssg75
g1393
sg68
(lp1400
S'wsgi_file_wrapper'
p1401
asbag61
(g82
g63
NtRp1402
(dp1403
g66
(dp1404
g93
g94
ssg75
g1393
sg68
(lp1405
S':'
asbag61
(g82
g63
NtRp1406
(dp1407
g66
(dp1408
sg75
g1393
sg68
(lp1409
g61
(g62
g63
NtRp1410
(dp1411
g66
(dp1412
g74
I4
ssg75
g1406
sg68
(lp1413
S'<class wsgiref.util.FileWrapper at 0x02BC6900>'
p1414
asbasbasbag61
(g77
g63
NtRp1415
(dp1416
g66
(dp1417
sg75
g600
sg68
(lp1418
g61
(g82
g63
NtRp1419
(dp1420
g66
(dp1421
g86
g87
ssg75
g1415
sg68
(lp1422
S'wsgi_input'
p1423
asbag61
(g82
g63
NtRp1424
(dp1425
g66
(dp1426
g93
g94
ssg75
g1415
sg68
(lp1427
S':'
asbag61
(g82
g63
NtRp1428
(dp1429
g66
(dp1430
sg75
g1415
sg68
(lp1431
g61
(g62
g63
NtRp1432
(dp1433
g66
(dp1434
g74
I4
ssg75
g1428
sg68
(lp1435
S'<socket._fileobject object at 0x03E9E930>'
p1436
asbasbasbag61
(g77
g63
NtRp1437
(dp1438
g66
(dp1439
sg75
g600
sg68
(lp1440
g61
(g82
g63
NtRp1441
(dp1442
g66
(dp1443
g86
g87
ssg75
g1437
sg68
(lp1444
S'wsgi_multiprocess'
p1445
asbag61
(g82
g63
NtRp1446
(dp1447
g66
(dp1448
g93
g94
ssg75
g1437
sg68
(lp1449
S':'
asbag61
(g82
g63
NtRp1450
(dp1451
g66
(dp1452
sg75
g1437
sg68
(lp1453
g61
(g62
g63
NtRp1454
(dp1455
g66
(dp1456
g74
I4
ssg75
g1450
sg68
(lp1457
g104
asbasbasbag61
(g77
g63
NtRp1458
(dp1459
g66
(dp1460
sg75
g600
sg68
(lp1461
g61
(g82
g63
NtRp1462
(dp1463
g66
(dp1464
g86
g87
ssg75
g1458
sg68
(lp1465
S'wsgi_multithread'
p1466
asbag61
(g82
g63
NtRp1467
(dp1468
g66
(dp1469
g93
g94
ssg75
g1458
sg68
(lp1470
S':'
asbag61
(g82
g63
NtRp1471
(dp1472
g66
(dp1473
sg75
g1458
sg68
(lp1474
g61
(g62
g63
NtRp1475
(dp1476
g66
(dp1477
g74
I4
ssg75
g1471
sg68
(lp1478
g738
asbasbasbag61
(g77
g63
NtRp1479
(dp1480
g66
(dp1481
sg75
g600
sg68
(lp1482
g61
(g82
g63
NtRp1483
(dp1484
g66
(dp1485
g86
g87
ssg75
g1479
sg68
(lp1486
S'wsgi_run_once'
p1487
asbag61
(g82
g63
NtRp1488
(dp1489
g66
(dp1490
g93
g94
ssg75
g1479
sg68
(lp1491
S':'
asbag61
(g82
g63
NtRp1492
(dp1493
g66
(dp1494
sg75
g1479
sg68
(lp1495
g61
(g62
g63
NtRp1496
(dp1497
g66
(dp1498
g74
I4
ssg75
g1492
sg68
(lp1499
g104
asbasbasbag61
(g77
g63
NtRp1500
(dp1501
g66
(dp1502
sg75
g600
sg68
(lp1503
g61
(g82
g63
NtRp1504
(dp1505
g66
(dp1506
g86
g87
ssg75
g1500
sg68
(lp1507
S'wsgi_url_scheme'
p1508
asbag61
(g82
g63
NtRp1509
(dp1510
g66
(dp1511
g93
g94
ssg75
g1500
sg68
(lp1512
S':'
asbag61
(g82
g63
NtRp1513
(dp1514
g66
(dp1515
sg75
g1500
sg68
(lp1516
g61
(g62
g63
NtRp1517
(dp1518
g66
(dp1519
g74
I4
ssg75
g1513
sg68
(lp1520
S'http'
p1521
asbasbasbag61
(g77
g63
NtRp1522
(dp1523
g66
(dp1524
sg75
g600
sg68
(lp1525
g61
(g82
g63
NtRp1526
(dp1527
g66
(dp1528
g86
g87
ssg75
g1522
sg68
(lp1529
S'wsgi_version'
p1530
asbag61
(g82
g63
NtRp1531
(dp1532
g66
(dp1533
g93
g94
ssg75
g1522
sg68
(lp1534
S':'
asbag61
(g82
g63
NtRp1535
(dp1536
g66
(dp1537
sg75
g1522
sg68
(lp1538
g61
(g62
g63
NtRp1539
(dp1540
g66
(dp1541
g74
I4
ssg75
g1535
sg68
(lp1542
g61
(g70
g63
NtRp1543
(dp1544
g66
(dp1545
g74
I3
ssg75
Nsg68
(lp1546
g61
(g77
g63
NtRp1547
(dp1548
g66
(dp1549
sg75
g1543
sg68
(lp1550
g61
(g82
g63
NtRp1551
(dp1552
g66
(dp1553
sg75
g1547
sg68
(lp1554
g61
(g62
g63
NtRp1555
(dp1556
g66
(dp1557
g74
I3
ssg75
g1551
sg68
(lp1558
S'1'
asbasbasbag61
(g77
g63
NtRp1559
(dp1560
g66
(dp1561
sg75
g1543
sg68
(lp1562
g61
(g82
g63
NtRp1563
(dp1564
g66
(dp1565
sg75
g1559
sg68
(lp1566
g61
(g62
g63
NtRp1567
(dp1568
g66
(dp1569
g74
I3
ssg75
g1563
sg68
(lp1570
S'0'
asbasbasbasbasbasbasbasbasbasbasbag61
(g77
g63
NtRp1571
(dp1572
g66
(dp1573
sg75
g71
sg68
(lp1574
g61
(g82
g63
NtRp1575
(dp1576
g66
(dp1577
g86
g87
ssg75
g1571
sg68
(lp1578
S'extension'
p1579
asbag61
(g82
g63
NtRp1580
(dp1581
g66
(dp1582
g93
g94
ssg75
g1571
sg68
(lp1583
S':'
asbag61
(g82
g63
NtRp1584
(dp1585
g66
(dp1586
sg75
g1571
sg68
(lp1587
g61
(g62
g63
NtRp1588
(dp1589
g66
(dp1590
g74
I5
ssg75
g1584
sg68
(lp1591
S'html'
p1592
asbasbasbag61
(g77
g63
NtRp1593
(dp1594
g66
(dp1595
sg75
g71
sg68
(lp1596
g61
(g82
g63
NtRp1597
(dp1598
g66
(dp1599
g86
g87
ssg75
g1593
sg68
(lp1600
S'folder'
p1601
asbag61
(g82
g63
NtRp1602
(dp1603
g66
(dp1604
g93
g94
ssg75
g1593
sg68
(lp1605
S':'
asbag61
(g82
g63
NtRp1606
(dp1607
g66
(dp1608
sg75
g1593
sg68
(lp1609
g61
(g62
g63
NtRp1610
(dp1611
g66
(dp1612
g74
I5
ssg75
g1606
sg68
(lp1613
S'C:\\Users\\Bussiere\\Dropbox\\Projets\\jackpoint\\web2py\\applications\\init\\'
p1614
asbasbasbag61
(g77
g63
NtRp1615
(dp1616
g66
(dp1617
sg75
g71
sg68
(lp1618
g61
(g82
g63
NtRp1619
(dp1620
g66
(dp1621
g86
g87
ssg75
g1615
sg68
(lp1622
S'function'
p1623
asbag61
(g82
g63
NtRp1624
(dp1625
g66
(dp1626
g93
g94
ssg75
g1615
sg68
(lp1627
S':'
asbag61
(g82
g63
NtRp1628
(dp1629
g66
(dp1630
sg75
g1615
sg68
(lp1631
g61
(g62
g63
NtRp1632
(dp1633
g66
(dp1634
g74
I5
ssg75
g1628
sg68
(lp1635
S'inscriptioninvit'
p1636
asbasbasbag61
(g77
g63
NtRp1637
(dp1638
g66
(dp1639
sg75
g71
sg68
(lp1640
g61
(g82
g63
NtRp1641
(dp1642
g66
(dp1643
g86
g87
ssg75
g1637
sg68
(lp1644
S'get_vars'
p1645
asbag61
(g82
g63
NtRp1646
(dp1647
g66
(dp1648
g93
g94
ssg75
g1637
sg68
(lp1649
S':'
asbag61
(g82
g63
NtRp1650
(dp1651
g66
(dp1652
sg75
g1637
sg68
(lp1653
g61
(g62
g63
NtRp1654
(dp1655
g66
(dp1656
g74
I5
ssg75
g1650
sg68
(lp1657
g61
(g70
g63
NtRp1658
(dp1659
g66
(dp1660
g74
I4
ssg75
Nsg68
(lp1661
sbasbasbasbag61
(g77
g63
NtRp1662
(dp1663
g66
(dp1664
sg75
g71
sg68
(lp1665
g61
(g82
g63
NtRp1666
(dp1667
g66
(dp1668
g86
g87
ssg75
g1662
sg68
(lp1669
S'global_settings'
p1670
asbag61
(g82
g63
NtRp1671
(dp1672
g66
(dp1673
g93
g94
ssg75
g1662
sg68
(lp1674
S':'
asbag61
(g82
g63
NtRp1675
(dp1676
g66
(dp1677
sg75
g1662
sg68
(lp1678
g61
(g62
g63
NtRp1679
(dp1680
g66
(dp1681
g74
I5
ssg75
g1675
sg68
(lp1682
g61
(g70
g63
NtRp1683
(dp1684
g66
(dp1685
g74
I4
ssg75
Nsg68
(lp1686
g61
(g77
g63
NtRp1687
(dp1688
g66
(dp1689
sg75
g1683
sg68
(lp1690
g61
(g82
g63
NtRp1691
(dp1692
g66
(dp1693
g86
g87
ssg75
g1687
sg68
(lp1694
g612
asbag61
(g82
g63
NtRp1695
(dp1696
g66
(dp1697
g93
g94
ssg75
g1687
sg68
(lp1698
S':'
asbag61
(g82
g63
NtRp1699
(dp1700
g66
(dp1701
sg75
g1687
sg68
(lp1702
g61
(g62
g63
NtRp1703
(dp1704
g66
(dp1705
g74
I4
ssg75
g1699
sg68
(lp1706
S"set(['C:\\\\Users\\\\Bussiere\\\\Dropbox\\\\Projets\\\\jackpoint\\\\web2py\\\\applications\\\\init\\\\', 'C:\\\\Users\\\\Bussiere\\\\Dropbox\\\\Projets\\\\jackpoint\\\\web2py\\\\applications\\\\admin\\\\'])"
p1707
asbasbasbag61
(g77
g63
NtRp1708
(dp1709
g66
(dp1710
sg75
g1683
sg68
(lp1711
g61
(g82
g63
NtRp1712
(dp1713
g66
(dp1714
g86
g87
ssg75
g1708
sg68
(lp1715
g634
asbag61
(g82
g63
NtRp1716
(dp1717
g66
(dp1718
g93
g94
ssg75
g1708
sg68
(lp1719
S':'
asbag61
(g82
g63
NtRp1720
(dp1721
g66
(dp1722
sg75
g1708
sg68
(lp1723
g61
(g62
g63
NtRp1724
(dp1725
g66
(dp1726
g74
I4
ssg75
g1720
sg68
(lp1727
g647
asbasbasbag61
(g77
g63
NtRp1728
(dp1729
g66
(dp1730
sg75
g1683
sg68
(lp1731
g61
(g82
g63
NtRp1732
(dp1733
g66
(dp1734
g86
g87
ssg75
g1728
sg68
(lp1735
g656
asbag61
(g82
g63
NtRp1736
(dp1737
g66
(dp1738
g93
g94
ssg75
g1728
sg68
(lp1739
S':'
asbag61
(g82
g63
NtRp1740
(dp1741
g66
(dp1742
sg75
g1728
sg68
(lp1743
g61
(g62
g63
NtRp1744
(dp1745
g66
(dp1746
g74
I4
ssg75
g1740
sg68
(lp1747
g61
(g70
g63
NtRp1748
(dp1749
g66
(dp1750
g74
I3
ssg75
Nsg68
(lp1751
sbasbasbasbag61
(g77
g63
NtRp1752
(dp1753
g66
(dp1754
sg75
g1683
sg68
(lp1755
g61
(g82
g63
NtRp1756
(dp1757
g66
(dp1758
g86
g87
ssg75
g1752
sg68
(lp1759
g681
asbag61
(g82
g63
NtRp1760
(dp1761
g66
(dp1762
g93
g94
ssg75
g1752
sg68
(lp1763
S':'
asbag61
(g82
g63
NtRp1764
(dp1765
g66
(dp1766
sg75
g1752
sg68
(lp1767
g61
(g62
g63
NtRp1768
(dp1769
g66
(dp1770
g74
I4
ssg75
g1764
sg68
(lp1771
S"<Values at 0x3c25fa8: {'verbose': False, 'ip': '127.0.0.1', 'shutdown_timeout': 5, 'taskbar': False, 'nocron': False, 'pid_filename': 'httpserver.pid', 'maxthreads': None, 'softcron': False, 'server_name': 'Batou', 'bpython': False, 'nogui': False, 'port': 8000, 'extcron': False, 'debuglevel': 30, 'test': None, 'folder': 'C:\\\\Users\\\\Bussiere\\\\Dropbox\\\\Projets\\\\jackpoint\\\\web2py', 'config': '', 'import_models': False, 'winservice': '', 'shell': None, 'run': '', 'log_filename': 'httpserver.log', 'args': [''], 'socket_timeout': 5, 'ssl_ca_certificate': None, 'scheduler': None, 'profiler_filename': None, 'ssl_private_key': '', 'password': '<ask>', 'request_queue_size': 5, 'ssl_certificate': '', 'cronjob': False, 'numthreads': None, 'quiet': False, 'interfaces': None, 'minthreads': None, 'timeout': 10, 'plain': False, 'nobanner': False}>"
p1772
asbasbasbag61
(g77
g63
NtRp1773
(dp1774
g66
(dp1775
sg75
g1683
sg68
(lp1776
g61
(g82
g63
NtRp1777
(dp1778
g66
(dp1779
g86
g87
ssg75
g1773
sg68
(lp1780
g703
asbag61
(g82
g63
NtRp1781
(dp1782
g66
(dp1783
g93
g94
ssg75
g1773
sg68
(lp1784
S':'
asbag61
(g82
g63
NtRp1785
(dp1786
g66
(dp1787
sg75
g1773
sg68
(lp1788
g61
(g62
g63
NtRp1789
(dp1790
g66
(dp1791
g74
I4
ssg75
g1785
sg68
(lp1792
S"set(['init'])"
p1793
asbasbasbag61
(g77
g63
NtRp1794
(dp1795
g66
(dp1796
sg75
g1683
sg68
(lp1797
g61
(g82
g63
NtRp1798
(dp1799
g66
(dp1800
g86
g87
ssg75
g1794
sg68
(lp1801
g725
asbag61
(g82
g63
NtRp1802
(dp1803
g66
(dp1804
g93
g94
ssg75
g1794
sg68
(lp1805
S':'
asbag61
(g82
g63
NtRp1806
(dp1807
g66
(dp1808
sg75
g1794
sg68
(lp1809
g61
(g62
g63
NtRp1810
(dp1811
g66
(dp1812
g74
I4
ssg75
g1806
sg68
(lp1813
g738
asbasbasbag61
(g77
g63
NtRp1814
(dp1815
g66
(dp1816
sg75
g1683
sg68
(lp1817
g61
(g82
g63
NtRp1818
(dp1819
g66
(dp1820
g86
g87
ssg75
g1814
sg68
(lp1821
g747
asbag61
(g82
g63
NtRp1822
(dp1823
g66
(dp1824
g93
g94
ssg75
g1814
sg68
(lp1825
S':'
asbag61
(g82
g63
NtRp1826
(dp1827
g66
(dp1828
sg75
g1814
sg68
(lp1829
g61
(g62
g63
NtRp1830
(dp1831
g66
(dp1832
g74
I4
ssg75
g1826
sg68
(lp1833
g760
asbasbasbag61
(g77
g63
NtRp1834
(dp1835
g66
(dp1836
sg75
g1683
sg68
(lp1837
g61
(g82
g63
NtRp1838
(dp1839
g66
(dp1840
g86
g87
ssg75
g1834
sg68
(lp1841
g989
asbag61
(g82
g63
NtRp1842
(dp1843
g66
(dp1844
g93
g94
ssg75
g1834
sg68
(lp1845
S':'
asbag61
(g82
g63
NtRp1846
(dp1847
g66
(dp1848
sg75
g1834
sg68
(lp1849
g61
(g62
g63
NtRp1850
(dp1851
g66
(dp1852
g74
I4
ssg75
g1846
sg68
(lp1853
g104
asbasbasbag61
(g77
g63
NtRp1854
(dp1855
g66
(dp1856
sg75
g1683
sg68
(lp1857
g61
(g82
g63
NtRp1858
(dp1859
g66
(dp1860
g86
g87
ssg75
g1854
sg68
(lp1861
g1010
asbag61
(g82
g63
NtRp1862
(dp1863
g66
(dp1864
g93
g94
ssg75
g1854
sg68
(lp1865
S':'
asbag61
(g82
g63
NtRp1866
(dp1867
g66
(dp1868
sg75
g1854
sg68
(lp1869
g61
(g62
g63
NtRp1870
(dp1871
g66
(dp1872
g74
I4
ssg75
g1866
sg68
(lp1873
g104
asbasbasbag61
(g77
g63
NtRp1874
(dp1875
g66
(dp1876
sg75
g1683
sg68
(lp1877
g61
(g82
g63
NtRp1878
(dp1879
g66
(dp1880
g86
g87
ssg75
g1874
sg68
(lp1881
g1248
asbag61
(g82
g63
NtRp1882
(dp1883
g66
(dp1884
g93
g94
ssg75
g1874
sg68
(lp1885
S':'
asbag61
(g82
g63
NtRp1886
(dp1887
g66
(dp1888
sg75
g1874
sg68
(lp1889
g61
(g62
g63
NtRp1890
(dp1891
g66
(dp1892
g74
I4
ssg75
g1886
sg68
(lp1893
g1261
asbasbasbag61
(g77
g63
NtRp1894
(dp1895
g66
(dp1896
sg75
g1683
sg68
(lp1897
g61
(g82
g63
NtRp1898
(dp1899
g66
(dp1900
g86
g87
ssg75
g1894
sg68
(lp1901
g1291
asbag61
(g82
g63
NtRp1902
(dp1903
g66
(dp1904
g93
g94
ssg75
g1894
sg68
(lp1905
S':'
asbag61
(g82
g63
NtRp1906
(dp1907
g66
(dp1908
sg75
g1894
sg68
(lp1909
g61
(g62
g63
NtRp1910
(dp1911
g66
(dp1912
g74
I4
ssg75
g1906
sg68
(lp1913
g61
(g70
g63
NtRp1914
(dp1915
g66
(dp1916
g74
I3
ssg75
Nsg68
(lp1917
g61
(g77
g63
NtRp1918
(dp1919
g66
(dp1920
sg75
g1914
sg68
(lp1921
g61
(g82
g63
NtRp1922
(dp1923
g66
(dp1924
sg75
g1918
sg68
(lp1925
g61
(g62
g63
NtRp1926
(dp1927
g66
(dp1928
g74
I3
ssg75
g1922
sg68
(lp1929
S'1'
asbasbasbag61
(g77
g63
NtRp1930
(dp1931
g66
(dp1932
sg75
g1914
sg68
(lp1933
g61
(g82
g63
NtRp1934
(dp1935
g66
(dp1936
sg75
g1930
sg68
(lp1937
g61
(g62
g63
NtRp1938
(dp1939
g66
(dp1940
g74
I3
ssg75
g1934
sg68
(lp1941
S'99'
p1942
asbasbasbag61
(g77
g63
NtRp1943
(dp1944
g66
(dp1945
sg75
g1914
sg68
(lp1946
g61
(g82
g63
NtRp1947
(dp1948
g66
(dp1949
sg75
g1943
sg68
(lp1950
g61
(g62
g63
NtRp1951
(dp1952
g66
(dp1953
g74
I3
ssg75
g1947
sg68
(lp1954
S'7'
asbasbasbag61
(g77
g63
NtRp1955
(dp1956
g66
(dp1957
sg75
g1914
sg68
(lp1958
g61
(g82
g63
NtRp1959
(dp1960
g66
(dp1961
sg75
g1955
sg68
(lp1962
g61
(g62
g63
NtRp1963
(dp1964
g66
(dp1965
g74
I3
ssg75
g1959
sg68
(lp1966
S'datetime.datetime(2012, 3, 4, 22, 12, 8)'
p1967
asbasbasbag61
(g77
g63
NtRp1968
(dp1969
g66
(dp1970
sg75
g1914
sg68
(lp1971
g61
(g82
g63
NtRp1972
(dp1973
g66
(dp1974
sg75
g1968
sg68
(lp1975
g61
(g62
g63
NtRp1976
(dp1977
g66
(dp1978
g74
I3
ssg75
g1972
sg68
(lp1979
g1370
asbasbasbasbasbasbasbasbasbasbasbag61
(g77
g63
NtRp1980
(dp1981
g66
(dp1982
sg75
g71
sg68
(lp1983
g61
(g82
g63
NtRp1984
(dp1985
g66
(dp1986
g86
g87
ssg75
g1980
sg68
(lp1987
S'is_https'
p1988
asbag61
(g82
g63
NtRp1989
(dp1990
g66
(dp1991
g93
g94
ssg75
g1980
sg68
(lp1992
S':'
asbag61
(g82
g63
NtRp1993
(dp1994
g66
(dp1995
sg75
g1980
sg68
(lp1996
g61
(g62
g63
NtRp1997
(dp1998
g66
(dp1999
g74
I5
ssg75
g1993
sg68
(lp2000
g104
asbasbasbag61
(g77
g63
NtRp2001
(dp2002
g66
(dp2003
sg75
g71
sg68
(lp2004
g61
(g82
g63
NtRp2005
(dp2006
g66
(dp2007
g86
g87
ssg75
g2001
sg68
(lp2008
S'is_local'
p2009
asbag61
(g82
g63
NtRp2010
(dp2011
g66
(dp2012
g93
g94
ssg75
g2001
sg68
(lp2013
S':'
asbag61
(g82
g63
NtRp2014
(dp2015
g66
(dp2016
sg75
g2001
sg68
(lp2017
g61
(g62
g63
NtRp2018
(dp2019
g66
(dp2020
g74
I5
ssg75
g2014
sg68
(lp2021
g738
asbasbasbag61
(g77
g63
NtRp2022
(dp2023
g66
(dp2024
sg75
g71
sg68
(lp2025
g61
(g82
g63
NtRp2026
(dp2027
g66
(dp2028
g86
g87
ssg75
g2022
sg68
(lp2029
S'is_restful'
p2030
asbag61
(g82
g63
NtRp2031
(dp2032
g66
(dp2033
g93
g94
ssg75
g2022
sg68
(lp2034
S':'
asbag61
(g82
g63
NtRp2035
(dp2036
g66
(dp2037
sg75
g2022
sg68
(lp2038
g61
(g62
g63
NtRp2039
(dp2040
g66
(dp2041
g74
I5
ssg75
g2035
sg68
(lp2042
g104
asbasbasbag61
(g77
g63
NtRp2043
(dp2044
g66
(dp2045
sg75
g71
sg68
(lp2046
g61
(g82
g63
NtRp2047
(dp2048
g66
(dp2049
g86
g87
ssg75
g2043
sg68
(lp2050
S'now'
p2051
asbag61
(g82
g63
NtRp2052
(dp2053
g66
(dp2054
g93
g94
ssg75
g2043
sg68
(lp2055
S':'
asbag61
(g82
g63
NtRp2056
(dp2057
g66
(dp2058
sg75
g2043
sg68
(lp2059
g61
(g62
g63
NtRp2060
(dp2061
g66
(dp2062
g74
I5
ssg75
g2056
sg68
(lp2063
S'datetime.datetime(2012, 4, 2, 17, 1, 14, 438000)'
p2064
asbasbasbag61
(g77
g63
NtRp2065
(dp2066
g66
(dp2067
sg75
g71
sg68
(lp2068
g61
(g82
g63
NtRp2069
(dp2070
g66
(dp2071
g86
g87
ssg75
g2065
sg68
(lp2072
S'post_vars'
p2073
asbag61
(g82
g63
NtRp2074
(dp2075
g66
(dp2076
g93
g94
ssg75
g2065
sg68
(lp2077
S':'
asbag61
(g82
g63
NtRp2078
(dp2079
g66
(dp2080
sg75
g2065
sg68
(lp2081
g61
(g62
g63
NtRp2082
(dp2083
g66
(dp2084
g74
I5
ssg75
g2078
sg68
(lp2085
g61
(g70
g63
NtRp2086
(dp2087
g66
(dp2088
g74
I4
ssg75
Nsg68
(lp2089
sbasbasbasbag61
(g77
g63
NtRp2090
(dp2091
g66
(dp2092
sg75
g71
sg68
(lp2093
g61
(g82
g63
NtRp2094
(dp2095
g66
(dp2096
g86
g87
ssg75
g2090
sg68
(lp2097
S'url'
p2098
asbag61
(g82
g63
NtRp2099
(dp2100
g66
(dp2101
g93
g94
ssg75
g2090
sg68
(lp2102
S':'
asbag61
(g82
g63
NtRp2103
(dp2104
g66
(dp2105
sg75
g2090
sg68
(lp2106
g61
(g62
g63
NtRp2107
(dp2108
g66
(dp2109
g74
I5
ssg75
g2103
sg68
(lp2110
S'/init/default/inscriptioninvit'
p2111
asbasbasbag61
(g77
g63
NtRp2112
(dp2113
g66
(dp2114
sg75
g71
sg68
(lp2115
g61
(g82
g63
NtRp2116
(dp2117
g66
(dp2118
g86
g87
ssg75
g2112
sg68
(lp2119
S'utcnow'
p2120
asbag61
(g82
g63
NtRp2121
(dp2122
g66
(dp2123
g93
g94
ssg75
g2112
sg68
(lp2124
S':'
asbag61
(g82
g63
NtRp2125
(dp2126
g66
(dp2127
sg75
g2112
sg68
(lp2128
g61
(g62
g63
NtRp2129
(dp2130
g66
(dp2131
g74
I5
ssg75
g2125
sg68
(lp2132
S'datetime.datetime(2012, 4, 2, 15, 1, 14, 439000)'
p2133
asbasbasbag61
(g77
g63
NtRp2134
(dp2135
g66
(dp2136
sg75
g71
sg68
(lp2137
g61
(g82
g63
NtRp2138
(dp2139
g66
(dp2140
g86
g87
ssg75
g2134
sg68
(lp2141
S'uuid'
p2142
asbag61
(g82
g63
NtRp2143
(dp2144
g66
(dp2145
g93
g94
ssg75
g2134
sg68
(lp2146
S':'
asbag61
(g82
g63
NtRp2147
(dp2148
g66
(dp2149
sg75
g2134
sg68
(lp2150
g61
(g62
g63
NtRp2151
(dp2152
g66
(dp2153
g74
I5
ssg75
g2147
sg68
(lp2154
S'init/127.0.0.1.2012-04-02.17-01-14.bf0b1f2c-3e5f-4706-a4a5-2892ee149fc3'
p2155
asbasbasbag61
(g77
g63
NtRp2156
(dp2157
g66
(dp2158
sg75
g71
sg68
(lp2159
g61
(g82
g63
NtRp2160
(dp2161
g66
(dp2162
g86
g87
ssg75
g2156
sg68
(lp2163
S'vars'
p2164
asbag61
(g82
g63
NtRp2165
(dp2166
g66
(dp2167
g93
g94
ssg75
g2156
sg68
(lp2168
S':'
asbag61
(g82
g63
NtRp2169
(dp2170
g66
(dp2171
sg75
g2156
sg68
(lp2172
g61
(g62
g63
NtRp2173
(dp2174
g66
(dp2175
g74
I5
ssg75
g2169
sg68
(lp2176
g61
(g70
g63
NtRp2177
(dp2178
g66
(dp2179
g74
I4
ssg75
Nsg68
(lp2180
sbasbasbasbag61
(g77
g63
NtRp2181
(dp2182
g66
(dp2183
sg75
g71
sg68
(lp2184
g61
(g82
g63
NtRp2185
(dp2186
g66
(dp2187
g86
g87
ssg75
g2181
sg68
(lp2188
S'wsgi'
p2189
asbag61
(g82
g63
NtRp2190
(dp2191
g66
(dp2192
g93
g94
ssg75
g2181
sg68
(lp2193
S':'
asbag61
(g82
g63
NtRp2194
(dp2195
g66
(dp2196
sg75
g2181
sg68
(lp2197
g61
(g62
g63
NtRp2198
(dp2199
g66
(dp2200
g74
I5
ssg75
g2194
sg68
(lp2201
g61
(g70
g63
NtRp2202
(dp2203
g66
(dp2204
g74
I4
ssg75
Nsg68
(lp2205
g61
(g77
g63
NtRp2206
(dp2207
g66
(dp2208
sg75
g2202
sg68
(lp2209
g61
(g82
g63
NtRp2210
(dp2211
g66
(dp2212
g86
g87
ssg75
g2206
sg68
(lp2213
S'environ'
p2214
asbag61
(g82
g63
NtRp2215
(dp2216
g66
(dp2217
g93
g94
ssg75
g2206
sg68
(lp2218
S':'
asbag61
(g82
g63
NtRp2219
(dp2220
g66
(dp2221
sg75
g2206
sg68
(lp2222
g61
(g62
g63
NtRp2223
(dp2224
g66
(dp2225
g74
I4
ssg75
g2219
sg68
(lp2226
g61
(g70
g63
NtRp2227
(dp2228
g66
(dp2229
g74
I3
ssg75
Nsg68
(lp2230
g61
(g77
g63
NtRp2231
(dp2232
g66
(dp2233
sg75
g2227
sg68
(lp2234
g61
(g82
g63
NtRp2235
(dp2236
g66
(dp2237
g86
g87
ssg75
g2231
sg68
(lp2238
S'HTTP_ACCEPT'
p2239
asbag61
(g82
g63
NtRp2240
(dp2241
g66
(dp2242
g93
g94
ssg75
g2231
sg68
(lp2243
S':'
asbag61
(g82
g63
NtRp2244
(dp2245
g66
(dp2246
sg75
g2231
sg68
(lp2247
g61
(g62
g63
NtRp2248
(dp2249
g66
(dp2250
g74
I3
ssg75
g2244
sg68
(lp2251
g782
asbasbasbag61
(g77
g63
NtRp2252
(dp2253
g66
(dp2254
sg75
g2227
sg68
(lp2255
g61
(g82
g63
NtRp2256
(dp2257
g66
(dp2258
g86
g87
ssg75
g2252
sg68
(lp2259
S'HTTP_ACCEPT_CHARSET'
p2260
asbag61
(g82
g63
NtRp2261
(dp2262
g66
(dp2263
g93
g94
ssg75
g2252
sg68
(lp2264
S':'
asbag61
(g82
g63
NtRp2265
(dp2266
g66
(dp2267
sg75
g2252
sg68
(lp2268
g61
(g62
g63
NtRp2269
(dp2270
g66
(dp2271
g74
I3
ssg75
g2265
sg68
(lp2272
g804
asbasbasbag61
(g77
g63
NtRp2273
(dp2274
g66
(dp2275
sg75
g2227
sg68
(lp2276
g61
(g82
g63
NtRp2277
(dp2278
g66
(dp2279
g86
g87
ssg75
g2273
sg68
(lp2280
S'HTTP_ACCEPT_ENCODING'
p2281
asbag61
(g82
g63
NtRp2282
(dp2283
g66
(dp2284
g93
g94
ssg75
g2273
sg68
(lp2285
S':'
asbag61
(g82
g63
NtRp2286
(dp2287
g66
(dp2288
sg75
g2273
sg68
(lp2289
g61
(g62
g63
NtRp2290
(dp2291
g66
(dp2292
g74
I3
ssg75
g2286
sg68
(lp2293
g826
asbasbasbag61
(g77
g63
NtRp2294
(dp2295
g66
(dp2296
sg75
g2227
sg68
(lp2297
g61
(g82
g63
NtRp2298
(dp2299
g66
(dp2300
g86
g87
ssg75
g2294
sg68
(lp2301
S'HTTP_ACCEPT_LANGUAGE'
p2302
asbag61
(g82
g63
NtRp2303
(dp2304
g66
(dp2305
g93
g94
ssg75
g2294
sg68
(lp2306
S':'
asbag61
(g82
g63
NtRp2307
(dp2308
g66
(dp2309
sg75
g2294
sg68
(lp2310
g61
(g62
g63
NtRp2311
(dp2312
g66
(dp2313
g74
I3
ssg75
g2307
sg68
(lp2314
g848
asbasbasbag61
(g77
g63
NtRp2315
(dp2316
g66
(dp2317
sg75
g2227
sg68
(lp2318
g61
(g82
g63
NtRp2319
(dp2320
g66
(dp2321
g86
g87
ssg75
g2315
sg68
(lp2322
S'HTTP_CACHE_CONTROL'
p2323
asbag61
(g82
g63
NtRp2324
(dp2325
g66
(dp2326
g93
g94
ssg75
g2315
sg68
(lp2327
S':'
asbag61
(g82
g63
NtRp2328
(dp2329
g66
(dp2330
sg75
g2315
sg68
(lp2331
g61
(g62
g63
NtRp2332
(dp2333
g66
(dp2334
g74
I3
ssg75
g2328
sg68
(lp2335
g870
asbasbasbag61
(g77
g63
NtRp2336
(dp2337
g66
(dp2338
sg75
g2227
sg68
(lp2339
g61
(g82
g63
NtRp2340
(dp2341
g66
(dp2342
g86
g87
ssg75
g2336
sg68
(lp2343
S'HTTP_CONNECTION'
p2344
asbag61
(g82
g63
NtRp2345
(dp2346
g66
(dp2347
g93
g94
ssg75
g2336
sg68
(lp2348
S':'
asbag61
(g82
g63
NtRp2349
(dp2350
g66
(dp2351
sg75
g2336
sg68
(lp2352
g61
(g62
g63
NtRp2353
(dp2354
g66
(dp2355
g74
I3
ssg75
g2349
sg68
(lp2356
g892
asbasbasbag61
(g77
g63
NtRp2357
(dp2358
g66
(dp2359
sg75
g2227
sg68
(lp2360
g61
(g82
g63
NtRp2361
(dp2362
g66
(dp2363
g86
g87
ssg75
g2357
sg68
(lp2364
S'HTTP_COOKIE'
p2365
asbag61
(g82
g63
NtRp2366
(dp2367
g66
(dp2368
g93
g94
ssg75
g2357
sg68
(lp2369
S':'
asbag61
(g82
g63
NtRp2370
(dp2371
g66
(dp2372
sg75
g2357
sg68
(lp2373
g61
(g62
g63
NtRp2374
(dp2375
g66
(dp2376
g74
I3
ssg75
g2370
sg68
(lp2377
g914
asbasbasbag61
(g77
g63
NtRp2378
(dp2379
g66
(dp2380
sg75
g2227
sg68
(lp2381
g61
(g82
g63
NtRp2382
(dp2383
g66
(dp2384
g86
g87
ssg75
g2378
sg68
(lp2385
S'HTTP_HOST'
p2386
asbag61
(g82
g63
NtRp2387
(dp2388
g66
(dp2389
g93
g94
ssg75
g2378
sg68
(lp2390
S':'
asbag61
(g82
g63
NtRp2391
(dp2392
g66
(dp2393
sg75
g2378
sg68
(lp2394
g61
(g62
g63
NtRp2395
(dp2396
g66
(dp2397
g74
I3
ssg75
g2391
sg68
(lp2398
g936
asbasbasbag61
(g77
g63
NtRp2399
(dp2400
g66
(dp2401
sg75
g2227
sg68
(lp2402
g61
(g82
g63
NtRp2403
(dp2404
g66
(dp2405
g86
g87
ssg75
g2399
sg68
(lp2406
S'HTTP_REFERER'
p2407
asbag61
(g82
g63
NtRp2408
(dp2409
g66
(dp2410
g93
g94
ssg75
g2399
sg68
(lp2411
S':'
asbag61
(g82
g63
NtRp2412
(dp2413
g66
(dp2414
sg75
g2399
sg68
(lp2415
g61
(g62
g63
NtRp2416
(dp2417
g66
(dp2418
g74
I3
ssg75
g2412
sg68
(lp2419
g958
asbasbasbag61
(g77
g63
NtRp2420
(dp2421
g66
(dp2422
sg75
g2227
sg68
(lp2423
g61
(g82
g63
NtRp2424
(dp2425
g66
(dp2426
g86
g87
ssg75
g2420
sg68
(lp2427
S'HTTP_USER_AGENT'
p2428
asbag61
(g82
g63
NtRp2429
(dp2430
g66
(dp2431
g93
g94
ssg75
g2420
sg68
(lp2432
S':'
asbag61
(g82
g63
NtRp2433
(dp2434
g66
(dp2435
sg75
g2420
sg68
(lp2436
g61
(g62
g63
NtRp2437
(dp2438
g66
(dp2439
g74
I3
ssg75
g2433
sg68
(lp2440
g980
asbasbasbag61
(g77
g63
NtRp2441
(dp2442
g66
(dp2443
sg75
g2227
sg68
(lp2444
g61
(g82
g63
NtRp2445
(dp2446
g66
(dp2447
g86
g87
ssg75
g2441
sg68
(lp2448
S'PATH_INFO'
p2449
asbag61
(g82
g63
NtRp2450
(dp2451
g66
(dp2452
g93
g94
ssg75
g2441
sg68
(lp2453
S':'
asbag61
(g82
g63
NtRp2454
(dp2455
g66
(dp2456
sg75
g2441
sg68
(lp2457
g61
(g62
g63
NtRp2458
(dp2459
g66
(dp2460
g74
I3
ssg75
g2454
sg68
(lp2461
g1044
asbasbasbag61
(g77
g63
NtRp2462
(dp2463
g66
(dp2464
sg75
g2227
sg68
(lp2465
g61
(g82
g63
NtRp2466
(dp2467
g66
(dp2468
g86
g87
ssg75
g2462
sg68
(lp2469
S'QUERY_STRING'
p2470
asbag61
(g82
g63
NtRp2471
(dp2472
g66
(dp2473
g93
g94
ssg75
g2462
sg68
(lp2474
S':'
asbag61
(g82
g63
NtRp2475
(dp2476
g66
(dp2477
sg75
g2462
sg68
(lp2478
g61
(g62
g63
NtRp2479
(dp2480
g66
(dp2481
g74
I3
ssg75
g2475
sg68
(lp2482
S''
asbasbasbag61
(g77
g63
NtRp2483
(dp2484
g66
(dp2485
sg75
g2227
sg68
(lp2486
g61
(g82
g63
NtRp2487
(dp2488
g66
(dp2489
g86
g87
ssg75
g2483
sg68
(lp2490
S'REMOTE_ADDR'
p2491
asbag61
(g82
g63
NtRp2492
(dp2493
g66
(dp2494
g93
g94
ssg75
g2483
sg68
(lp2495
S':'
asbag61
(g82
g63
NtRp2496
(dp2497
g66
(dp2498
sg75
g2483
sg68
(lp2499
g61
(g62
g63
NtRp2500
(dp2501
g66
(dp2502
g74
I3
ssg75
g2496
sg68
(lp2503
g194
asbasbasbag61
(g77
g63
NtRp2504
(dp2505
g66
(dp2506
sg75
g2227
sg68
(lp2507
g61
(g82
g63
NtRp2508
(dp2509
g66
(dp2510
g86
g87
ssg75
g2504
sg68
(lp2511
S'REMOTE_PORT'
p2512
asbag61
(g82
g63
NtRp2513
(dp2514
g66
(dp2515
g93
g94
ssg75
g2504
sg68
(lp2516
S':'
asbag61
(g82
g63
NtRp2517
(dp2518
g66
(dp2519
sg75
g2504
sg68
(lp2520
g61
(g62
g63
NtRp2521
(dp2522
g66
(dp2523
g74
I3
ssg75
g2517
sg68
(lp2524
g1108
asbasbasbag61
(g77
g63
NtRp2525
(dp2526
g66
(dp2527
sg75
g2227
sg68
(lp2528
g61
(g82
g63
NtRp2529
(dp2530
g66
(dp2531
g86
g87
ssg75
g2525
sg68
(lp2532
S'REQUEST_METHOD'
p2533
asbag61
(g82
g63
NtRp2534
(dp2535
g66
(dp2536
g93
g94
ssg75
g2525
sg68
(lp2537
S':'
asbag61
(g82
g63
NtRp2538
(dp2539
g66
(dp2540
sg75
g2525
sg68
(lp2541
g61
(g62
g63
NtRp2542
(dp2543
g66
(dp2544
g74
I3
ssg75
g2538
sg68
(lp2545
g1130
asbasbasbag61
(g77
g63
NtRp2546
(dp2547
g66
(dp2548
sg75
g2227
sg68
(lp2549
g61
(g82
g63
NtRp2550
(dp2551
g66
(dp2552
g86
g87
ssg75
g2546
sg68
(lp2553
S'SCRIPT_NAME'
p2554
asbag61
(g82
g63
NtRp2555
(dp2556
g66
(dp2557
g93
g94
ssg75
g2546
sg68
(lp2558
S':'
asbag61
(g82
g63
NtRp2559
(dp2560
g66
(dp2561
sg75
g2546
sg68
(lp2562
g61
(g62
g63
NtRp2563
(dp2564
g66
(dp2565
g74
I3
ssg75
g2559
sg68
(lp2566
S''
asbasbasbag61
(g77
g63
NtRp2567
(dp2568
g66
(dp2569
sg75
g2227
sg68
(lp2570
g61
(g82
g63
NtRp2571
(dp2572
g66
(dp2573
g86
g87
ssg75
g2567
sg68
(lp2574
S'SERVER_NAME'
p2575
asbag61
(g82
g63
NtRp2576
(dp2577
g66
(dp2578
g93
g94
ssg75
g2567
sg68
(lp2579
S':'
asbag61
(g82
g63
NtRp2580
(dp2581
g66
(dp2582
sg75
g2567
sg68
(lp2583
g61
(g62
g63
NtRp2584
(dp2585
g66
(dp2586
g74
I3
ssg75
g2580
sg68
(lp2587
g1173
asbasbasbag61
(g77
g63
NtRp2588
(dp2589
g66
(dp2590
sg75
g2227
sg68
(lp2591
g61
(g82
g63
NtRp2592
(dp2593
g66
(dp2594
g86
g87
ssg75
g2588
sg68
(lp2595
S'SERVER_PORT'
p2596
asbag61
(g82
g63
NtRp2597
(dp2598
g66
(dp2599
g93
g94
ssg75
g2588
sg68
(lp2600
S':'
asbag61
(g82
g63
NtRp2601
(dp2602
g66
(dp2603
sg75
g2588
sg68
(lp2604
g61
(g62
g63
NtRp2605
(dp2606
g66
(dp2607
g74
I3
ssg75
g2601
sg68
(lp2608
g1195
asbasbasbag61
(g77
g63
NtRp2609
(dp2610
g66
(dp2611
sg75
g2227
sg68
(lp2612
g61
(g82
g63
NtRp2613
(dp2614
g66
(dp2615
g86
g87
ssg75
g2609
sg68
(lp2616
S'SERVER_PROTOCOL'
p2617
asbag61
(g82
g63
NtRp2618
(dp2619
g66
(dp2620
g93
g94
ssg75
g2609
sg68
(lp2621
S':'
asbag61
(g82
g63
NtRp2622
(dp2623
g66
(dp2624
sg75
g2609
sg68
(lp2625
g61
(g62
g63
NtRp2626
(dp2627
g66
(dp2628
g74
I3
ssg75
g2622
sg68
(lp2629
g1217
asbasbasbag61
(g77
g63
NtRp2630
(dp2631
g66
(dp2632
sg75
g2227
sg68
(lp2633
g61
(g82
g63
NtRp2634
(dp2635
g66
(dp2636
g86
g87
ssg75
g2630
sg68
(lp2637
S'SERVER_SOFTWARE'
p2638
asbag61
(g82
g63
NtRp2639
(dp2640
g66
(dp2641
g93
g94
ssg75
g2630
sg68
(lp2642
S':'
asbag61
(g82
g63
NtRp2643
(dp2644
g66
(dp2645
sg75
g2630
sg68
(lp2646
g61
(g62
g63
NtRp2647
(dp2648
g66
(dp2649
g74
I3
ssg75
g2643
sg68
(lp2650
g1239
asbasbasbag61
(g77
g63
NtRp2651
(dp2652
g66
(dp2653
sg75
g2227
sg68
(lp2654
g61
(g82
g63
NtRp2655
(dp2656
g66
(dp2657
g86
g87
ssg75
g2651
sg68
(lp2658
S'wsgi.errors'
p2659
asbag61
(g82
g63
NtRp2660
(dp2661
g66
(dp2662
g93
g94
ssg75
g2651
sg68
(lp2663
S':'
asbag61
(g82
g63
NtRp2664
(dp2665
g66
(dp2666
sg75
g2651
sg68
(lp2667
g61
(g62
g63
NtRp2668
(dp2669
g66
(dp2670
g74
I3
ssg75
g2664
sg68
(lp2671
S"<open file '<stderr>', mode 'w' at 0x008C00B0>"
p2672
asbasbasbag61
(g77
g63
NtRp2673
(dp2674
g66
(dp2675
sg75
g2227
sg68
(lp2676
g61
(g82
g63
NtRp2677
(dp2678
g66
(dp2679
g86
g87
ssg75
g2673
sg68
(lp2680
S'wsgi.file_wrapper'
p2681
asbag61
(g82
g63
NtRp2682
(dp2683
g66
(dp2684
g93
g94
ssg75
g2673
sg68
(lp2685
S':'
asbag61
(g82
g63
NtRp2686
(dp2687
g66
(dp2688
sg75
g2673
sg68
(lp2689
g61
(g62
g63
NtRp2690
(dp2691
g66
(dp2692
g74
I3
ssg75
g2686
sg68
(lp2693
S'<class wsgiref.util.FileWrapper at 0x02BC6900>'
p2694
asbasbasbag61
(g77
g63
NtRp2695
(dp2696
g66
(dp2697
sg75
g2227
sg68
(lp2698
g61
(g82
g63
NtRp2699
(dp2700
g66
(dp2701
g86
g87
ssg75
g2695
sg68
(lp2702
S'wsgi.input'
p2703
asbag61
(g82
g63
NtRp2704
(dp2705
g66
(dp2706
g93
g94
ssg75
g2695
sg68
(lp2707
S':'
asbag61
(g82
g63
NtRp2708
(dp2709
g66
(dp2710
sg75
g2695
sg68
(lp2711
g61
(g62
g63
NtRp2712
(dp2713
g66
(dp2714
g74
I3
ssg75
g2708
sg68
(lp2715
S'<cStringIO.StringO object at 0x046A23A0>'
p2716
asbasbasbag61
(g77
g63
NtRp2717
(dp2718
g66
(dp2719
sg75
g2227
sg68
(lp2720
g61
(g82
g63
NtRp2721
(dp2722
g66
(dp2723
g86
g87
ssg75
g2717
sg68
(lp2724
S'wsgi.multiprocess'
p2725
asbag61
(g82
g63
NtRp2726
(dp2727
g66
(dp2728
g93
g94
ssg75
g2717
sg68
(lp2729
S':'
asbag61
(g82
g63
NtRp2730
(dp2731
g66
(dp2732
sg75
g2717
sg68
(lp2733
g61
(g62
g63
NtRp2734
(dp2735
g66
(dp2736
g74
I3
ssg75
g2730
sg68
(lp2737
g104
asbasbasbag61
(g77
g63
NtRp2738
(dp2739
g66
(dp2740
sg75
g2227
sg68
(lp2741
g61
(g82
g63
NtRp2742
(dp2743
g66
(dp2744
g86
g87
ssg75
g2738
sg68
(lp2745
S'wsgi.multithread'
p2746
asbag61
(g82
g63
NtRp2747
(dp2748
g66
(dp2749
g93
g94
ssg75
g2738
sg68
(lp2750
S':'
asbag61
(g82
g63
NtRp2751
(dp2752
g66
(dp2753
sg75
g2738
sg68
(lp2754
g61
(g62
g63
NtRp2755
(dp2756
g66
(dp2757
g74
I3
ssg75
g2751
sg68
(lp2758
g738
asbasbasbag61
(g77
g63
NtRp2759
(dp2760
g66
(dp2761
sg75
g2227
sg68
(lp2762
g61
(g82
g63
NtRp2763
(dp2764
g66
(dp2765
g86
g87
ssg75
g2759
sg68
(lp2766
S'wsgi.run_once'
p2767
asbag61
(g82
g63
NtRp2768
(dp2769
g66
(dp2770
g93
g94
ssg75
g2759
sg68
(lp2771
S':'
asbag61
(g82
g63
NtRp2772
(dp2773
g66
(dp2774
sg75
g2759
sg68
(lp2775
g61
(g62
g63
NtRp2776
(dp2777
g66
(dp2778
g74
I3
ssg75
g2772
sg68
(lp2779
g104
asbasbasbag61
(g77
g63
NtRp2780
(dp2781
g66
(dp2782
sg75
g2227
sg68
(lp2783
g61
(g82
g63
NtRp2784
(dp2785
g66
(dp2786
g86
g87
ssg75
g2780
sg68
(lp2787
S'wsgi.url_scheme'
p2788
asbag61
(g82
g63
NtRp2789
(dp2790
g66
(dp2791
g93
g94
ssg75
g2780
sg68
(lp2792
S':'
asbag61
(g82
g63
NtRp2793
(dp2794
g66
(dp2795
sg75
g2780
sg68
(lp2796
g61
(g62
g63
NtRp2797
(dp2798
g66
(dp2799
g74
I3
ssg75
g2793
sg68
(lp2800
g1521
asbasbasbag61
(g77
g63
NtRp2801
(dp2802
g66
(dp2803
sg75
g2227
sg68
(lp2804
g61
(g82
g63
NtRp2805
(dp2806
g66
(dp2807
g86
g87
ssg75
g2801
sg68
(lp2808
S'wsgi.version'
p2809
asbag61
(g82
g63
NtRp2810
(dp2811
g66
(dp2812
g93
g94
ssg75
g2801
sg68
(lp2813
S':'
asbag61
(g82
g63
NtRp2814
(dp2815
g66
(dp2816
sg75
g2801
sg68
(lp2817
g61
(g62
g63
NtRp2818
(dp2819
g66
(dp2820
g74
I3
ssg75
g2814
sg68
(lp2821
S'1'
asbasbasbasbasbasbasbasbasbasbasbasbasbsS'frames'
p2822
(lp2823
(dp2824
S'file'
p2825
S'C:\\Users\\Bussiere\\Dropbox\\Projets\\jackpoint\\web2py\\gluon\\restricted.py'
p2826
sS'dump'
p2827
(dp2828
sS'lnum'
p2829
I204
sS'lines'
p2830
(dp2831
I199
S"    environment['__name__'] = '__restricted__'"
p2832
sI200
S'    try:'
p2833
sI201
S'        if type(code) == types.CodeType:'
p2834
sI202
S'            ccode = code'
p2835
sI203
S'        else:'
p2836
sI204
S'            ccode = compile2(code,layer)'
p2837
sI205
S'        exec ccode in environment'
p2838
sI206
S'    except HTTP:'
p2839
sI207
S'        raise'
p2840
sI208
S'    except RestrictedError:'
p2841
ssS'call'
p2842
S"(code='\\xef\\xbb\\xbf# -*- coding: utf-8 -*-\\n# this file is releas...esponse._vars=response._caller(inscriptioninvit)\\n', environment={'A': <class 'gluon.html.A'>, 'Auth': <class 'gluon.tools.Auth'>, 'AutocompleteWidget': <class 'gluon.sqlhtml.AutocompleteWidget'>, 'B': <class 'gluon.html.B'>, 'BEAUTIFY': <class 'gluon.html.BEAUTIFY'>, 'BODY': <class 'gluon.html.BODY'>, 'BR': <class 'gluon.html.BR'>, 'BUTTON': <class 'gluon.html.BUTTON'>, 'BooleanWidget': <class 'gluon.sqlhtml.BooleanWidget'>, 'CALLABLETYPES': (<type 'function'>, <type 'function'>, <type 'builtin_function_or_method'>, <type 'instancemethod'>, <type 'builtin_function_or_method'>), ...}, layer=r'C:\\Users\\Bussiere\\Dropbox\\Projets\\jackpoint\\web2py\\applications\\init\\controllers/default.py')"
p2843
sS'func'
p2844
S'restricted'
p2845
sa(dp2846
g2825
S'C:\\Users\\Bussiere\\Dropbox\\Projets\\jackpoint\\web2py\\gluon\\restricted.py'
p2847
sg2827
(dp2848
sg2829
I189
sg2830
(dp2849
I192
S'    """'
p2850
sI193
S'    runs code in environment and returns the output. if an exception occurs'
p2851
sI184
S''
sI185
S'def compile2(code,layer):'
p2852
sI186
S'    """'
p2853
sI187
S"    The +'\\n' is necessary else compile fails when code ends in a comment."
p2854
sI188
S'    """'
p2855
sI189
S"    return compile(code.rstrip().replace('\\r\\n','\\n')+'\\n', layer, 'exec')"
p2856
sI190
S''
sI191
S"def restricted(code, environment=None, layer='Unknown'):"
p2857
ssg2842
S"(code='\\xef\\xbb\\xbf# -*- coding: utf-8 -*-\\n# this file is releas...esponse._vars=response._caller(inscriptioninvit)\\n', layer=r'C:\\Users\\Bussiere\\Dropbox\\Projets\\jackpoint\\web2py\\applications\\init\\controllers/default.py')"
p2858
sg2844
S'compile2'
p2859
sasS'pyver'
p2860
S'Python 2.5.4: C:\\Users\\Bussiere\\Dropbox\\Projets\\jackpoint\\web2py\\web2py.exe'
p2861
sS'session'
p2862
g61
(g62
g63
NtRp2863
(dp2864
g66
(dp2865
sg68
(lp2866
g61
(g70
g63
NtRp2867
(dp2868
g66
(dp2869
g74
I5
ssg75
Nsg68
(lp2870
g61
(g77
g63
NtRp2871
(dp2872
g66
(dp2873
sg75
g2867
sg68
(lp2874
g61
(g82
g63
NtRp2875
(dp2876
g66
(dp2877
g86
g87
ssg75
g2871
sg68
(lp2878
S'auth'
p2879
asbag61
(g82
g63
NtRp2880
(dp2881
g66
(dp2882
g93
g94
ssg75
g2871
sg68
(lp2883
S':'
asbag61
(g82
g63
NtRp2884
(dp2885
g66
(dp2886
sg75
g2871
sg68
(lp2887
g61
(g62
g63
NtRp2888
(dp2889
g66
(dp2890
g74
I5
ssg75
g2884
sg68
(lp2891
g61
(g70
g63
NtRp2892
(dp2893
g66
(dp2894
g74
I4
ssg75
Nsg68
(lp2895
g61
(g77
g63
NtRp2896
(dp2897
g66
(dp2898
sg75
g2892
sg68
(lp2899
g61
(g82
g63
NtRp2900
(dp2901
g66
(dp2902
g86
g87
ssg75
g2896
sg68
(lp2903
S'expiration'
p2904
asbag61
(g82
g63
NtRp2905
(dp2906
g66
(dp2907
g93
g94
ssg75
g2896
sg68
(lp2908
S':'
asbag61
(g82
g63
NtRp2909
(dp2910
g66
(dp2911
sg75
g2896
sg68
(lp2912
g61
(g62
g63
NtRp2913
(dp2914
g66
(dp2915
g74
I4
ssg75
g2909
sg68
(lp2916
S'3600'
p2917
asbasbasbag61
(g77
g63
NtRp2918
(dp2919
g66
(dp2920
sg75
g2892
sg68
(lp2921
g61
(g82
g63
NtRp2922
(dp2923
g66
(dp2924
g86
g87
ssg75
g2918
sg68
(lp2925
S'last_visit'
p2926
asbag61
(g82
g63
NtRp2927
(dp2928
g66
(dp2929
g93
g94
ssg75
g2918
sg68
(lp2930
S':'
asbag61
(g82
g63
NtRp2931
(dp2932
g66
(dp2933
sg75
g2918
sg68
(lp2934
g61
(g62
g63
NtRp2935
(dp2936
g66
(dp2937
g74
I4
ssg75
g2931
sg68
(lp2938
S'datetime.datetime(2012, 4, 2, 16, 59, 7, 480000)'
p2939
asbasbasbag61
(g77
g63
NtRp2940
(dp2941
g66
(dp2942
sg75
g2892
sg68
(lp2943
g61
(g82
g63
NtRp2944
(dp2945
g66
(dp2946
g86
g87
ssg75
g2940
sg68
(lp2947
S'user'
p2948
asbag61
(g82
g63
NtRp2949
(dp2950
g66
(dp2951
g93
g94
ssg75
g2940
sg68
(lp2952
S':'
asbag61
(g82
g63
NtRp2953
(dp2954
g66
(dp2955
sg75
g2940
sg68
(lp2956
g61
(g62
g63
NtRp2957
(dp2958
g66
(dp2959
g74
I4
ssg75
g2953
sg68
(lp2960
g61
(g70
g63
NtRp2961
(dp2962
g66
(dp2963
g74
I3
ssg75
Nsg68
(lp2964
g61
(g77
g63
NtRp2965
(dp2966
g66
(dp2967
sg75
g2961
sg68
(lp2968
g61
(g82
g63
NtRp2969
(dp2970
g66
(dp2971
g86
g87
ssg75
g2965
sg68
(lp2972
S'Items'
p2973
asbag61
(g82
g63
NtRp2974
(dp2975
g66
(dp2976
g93
g94
ssg75
g2965
sg68
(lp2977
S':'
asbag61
(g82
g63
NtRp2978
(dp2979
g66
(dp2980
sg75
g2965
sg68
(lp2981
g61
(g62
g63
NtRp2982
(dp2983
g66
(dp2984
g74
I3
ssg75
g2978
sg68
(lp2985
S'None'
p2986
asbasbasbag61
(g77
g63
NtRp2987
(dp2988
g66
(dp2989
sg75
g2961
sg68
(lp2990
g61
(g82
g63
NtRp2991
(dp2992
g66
(dp2993
g86
g87
ssg75
g2987
sg68
(lp2994
S'Skills'
p2995
asbag61
(g82
g63
NtRp2996
(dp2997
g66
(dp2998
g93
g94
ssg75
g2987
sg68
(lp2999
S':'
asbag61
(g82
g63
NtRp3000
(dp3001
g66
(dp3002
sg75
g2987
sg68
(lp3003
g61
(g62
g63
NtRp3004
(dp3005
g66
(dp3006
g74
I3
ssg75
g3000
sg68
(lp3007
S'None'
p3008
asbasbasbag61
(g77
g63
NtRp3009
(dp3010
g66
(dp3011
sg75
g2961
sg68
(lp3012
g61
(g82
g63
NtRp3013
(dp3014
g66
(dp3015
g86
g87
ssg75
g3009
sg68
(lp3016
S'email'
p3017
asbag61
(g82
g63
NtRp3018
(dp3019
g66
(dp3020
g93
g94
ssg75
g3009
sg68
(lp3021
S':'
asbag61
(g82
g63
NtRp3022
(dp3023
g66
(dp3024
sg75
g3009
sg68
(lp3025
g61
(g62
g63
NtRp3026
(dp3027
g66
(dp3028
g74
I3
ssg75
g3022
sg68
(lp3029
S'ttb@gmail.com'
p3030
asbasbasbag61
(g77
g63
NtRp3031
(dp3032
g66
(dp3033
sg75
g2961
sg68
(lp3034
g61
(g82
g63
NtRp3035
(dp3036
g66
(dp3037
g86
g87
ssg75
g3031
sg68
(lp3038
S'id'
p3039
asbag61
(g82
g63
NtRp3040
(dp3041
g66
(dp3042
g93
g94
ssg75
g3031
sg68
(lp3043
S':'
asbag61
(g82
g63
NtRp3044
(dp3045
g66
(dp3046
sg75
g3031
sg68
(lp3047
g61
(g62
g63
NtRp3048
(dp3049
g66
(dp3050
g74
I3
ssg75
g3044
sg68
(lp3051
S'19'
p3052
asbasbasbag61
(g77
g63
NtRp3053
(dp3054
g66
(dp3055
sg75
g2961
sg68
(lp3056
g61
(g82
g63
NtRp3057
(dp3058
g66
(dp3059
g86
g87
ssg75
g3053
sg68
(lp3060
S'password'
p3061
asbag61
(g82
g63
NtRp3062
(dp3063
g66
(dp3064
g93
g94
ssg75
g3053
sg68
(lp3065
S':'
asbag61
(g82
g63
NtRp3066
(dp3067
g66
(dp3068
sg75
g3053
sg68
(lp3069
g61
(g62
g63
NtRp3070
(dp3071
g66
(dp3072
g74
I3
ssg75
g3066
sg68
(lp3073
S'2ee032ef01e682517e5c64427c6c1d23'
p3074
asbasbasbag61
(g77
g63
NtRp3075
(dp3076
g66
(dp3077
sg75
g2961
sg68
(lp3078
g61
(g82
g63
NtRp3079
(dp3080
g66
(dp3081
g86
g87
ssg75
g3075
sg68
(lp3082
S'registration_id'
p3083
asbag61
(g82
g63
NtRp3084
(dp3085
g66
(dp3086
g93
g94
ssg75
g3075
sg68
(lp3087
S':'
asbag61
(g82
g63
NtRp3088
(dp3089
g66
(dp3090
sg75
g3075
sg68
(lp3091
g61
(g62
g63
NtRp3092
(dp3093
g66
(dp3094
g74
I3
ssg75
g3088
sg68
(lp3095
S''
asbasbasbag61
(g77
g63
NtRp3096
(dp3097
g66
(dp3098
sg75
g2961
sg68
(lp3099
g61
(g82
g63
NtRp3100
(dp3101
g66
(dp3102
g86
g87
ssg75
g3096
sg68
(lp3103
S'registration_key'
p3104
asbag61
(g82
g63
NtRp3105
(dp3106
g66
(dp3107
g93
g94
ssg75
g3096
sg68
(lp3108
S':'
asbag61
(g82
g63
NtRp3109
(dp3110
g66
(dp3111
sg75
g3096
sg68
(lp3112
g61
(g62
g63
NtRp3113
(dp3114
g66
(dp3115
g74
I3
ssg75
g3109
sg68
(lp3116
S''
asbasbasbag61
(g77
g63
NtRp3117
(dp3118
g66
(dp3119
sg75
g2961
sg68
(lp3120
g61
(g82
g63
NtRp3121
(dp3122
g66
(dp3123
g86
g87
ssg75
g3117
sg68
(lp3124
S'reset_password_key'
p3125
asbag61
(g82
g63
NtRp3126
(dp3127
g66
(dp3128
g93
g94
ssg75
g3117
sg68
(lp3129
S':'
asbag61
(g82
g63
NtRp3130
(dp3131
g66
(dp3132
sg75
g3117
sg68
(lp3133
g61
(g62
g63
NtRp3134
(dp3135
g66
(dp3136
g74
I3
ssg75
g3130
sg68
(lp3137
S''
asbasbasbag61
(g77
g63
NtRp3138
(dp3139
g66
(dp3140
sg75
g2961
sg68
(lp3141
g61
(g82
g63
NtRp3142
(dp3143
g66
(dp3144
g86
g87
ssg75
g3138
sg68
(lp3145
S'username'
p3146
asbag61
(g82
g63
NtRp3147
(dp3148
g66
(dp3149
g93
g94
ssg75
g3138
sg68
(lp3150
S':'
asbag61
(g82
g63
NtRp3151
(dp3152
g66
(dp3153
sg75
g3138
sg68
(lp3154
g61
(g62
g63
NtRp3155
(dp3156
g66
(dp3157
g74
I3
ssg75
g3151
sg68
(lp3158
S'John_Doe'
p3159
asbasbasbag61
(g77
g63
NtRp3160
(dp3161
g66
(dp3162
sg75
g2961
sg68
(lp3163
g61
(g82
g63
NtRp3164
(dp3165
g66
(dp3166
g86
g87
ssg75
g3160
sg68
(lp3167
S'validated'
p3168
asbag61
(g82
g63
NtRp3169
(dp3170
g66
(dp3171
g93
g94
ssg75
g3160
sg68
(lp3172
S':'
asbag61
(g82
g63
NtRp3173
(dp3174
g66
(dp3175
sg75
g3160
sg68
(lp3176
g61
(g62
g63
NtRp3177
(dp3178
g66
(dp3179
g74
I3
ssg75
g3173
sg68
(lp3180
g104
asbasbasbasbasbasbasbasbasbasbasbasbasbsS'etype'
p3181
S"<type 'exceptions.SyntaxError'>"
p3182
sS'date'
p3183
S'Mon Apr 02 17:01:14 2012'
p3184
sS'response'
p3185
g61
(g62
g63
NtRp3186
(dp3187
g66
(dp3188
sg68
(lp3189
g61
(g70
g63
NtRp3190
(dp3191
g66
(dp3192
g74
I5
ssg75
Nsg68
(lp3193
g61
(g77
g63
NtRp3194
(dp3195
g66
(dp3196
sg75
g3190
sg68
(lp3197
g61
(g82
g63
NtRp3198
(dp3199
g66
(dp3200
g86
g87
ssg75
g3194
sg68
(lp3201
g159
asbag61
(g82
g63
NtRp3202
(dp3203
g66
(dp3204
g93
g94
ssg75
g3194
sg68
(lp3205
S':'
asbag61
(g82
g63
NtRp3206
(dp3207
g66
(dp3208
sg75
g3194
sg68
(lp3209
g61
(g62
g63
NtRp3210
(dp3211
g66
(dp3212
g74
I5
ssg75
g3206
sg68
(lp3213
S'<cStringIO.StringO object at 0x07A8ED60>'
p3214
asbasbasbag61
(g77
g63
NtRp3215
(dp3216
g66
(dp3217
sg75
g3190
sg68
(lp3218
g61
(g82
g63
NtRp3219
(dp3220
g66
(dp3221
g86
g87
ssg75
g3215
sg68
(lp3222
g225
asbag61
(g82
g63
NtRp3223
(dp3224
g66
(dp3225
g93
g94
ssg75
g3215
sg68
(lp3226
S':'
asbag61
(g82
g63
NtRp3227
(dp3228
g66
(dp3229
sg75
g3215
sg68
(lp3230
g61
(g62
g63
NtRp3231
(dp3232
g66
(dp3233
g74
I5
ssg75
g3227
sg68
(lp3234
g61
(g70
g63
NtRp3235
(dp3236
g66
(dp3237
g74
I4
ssg75
Nsg68
(lp3238
g61
(g77
g63
NtRp3239
(dp3240
g66
(dp3241
sg75
g3235
sg68
(lp3242
g61
(g82
g63
NtRp3243
(dp3244
g66
(dp3245
g86
g87
ssg75
g3239
sg68
(lp3246
S'session_id_init'
p3247
asbag61
(g82
g63
NtRp3248
(dp3249
g66
(dp3250
g93
g94
ssg75
g3239
sg68
(lp3251
S':'
asbag61
(g82
g63
NtRp3252
(dp3253
g66
(dp3254
sg75
g3239
sg68
(lp3255
g61
(g62
g63
NtRp3256
(dp3257
g66
(dp3258
g74
I4
ssg75
g3252
sg68
(lp3259
g61
(g70
g63
NtRp3260
(dp3261
g66
(dp3262
g74
I3
ssg75
Nsg68
(lp3263
g61
(g77
g63
NtRp3264
(dp3265
g66
(dp3266
sg75
g3260
sg68
(lp3267
g61
(g82
g63
NtRp3268
(dp3269
g66
(dp3270
g86
g87
ssg75
g3264
sg68
(lp3271
g275
asbag61
(g82
g63
NtRp3272
(dp3273
g66
(dp3274
g93
g94
ssg75
g3264
sg68
(lp3275
S':'
asbag61
(g82
g63
NtRp3276
(dp3277
g66
(dp3278
sg75
g3264
sg68
(lp3279
g61
(g62
g63
NtRp3280
(dp3281
g66
(dp3282
g74
I3
ssg75
g3276
sg68
(lp3283
S''
asbasbasbag61
(g77
g63
NtRp3284
(dp3285
g66
(dp3286
sg75
g3260
sg68
(lp3287
g61
(g82
g63
NtRp3288
(dp3289
g66
(dp3290
g86
g87
ssg75
g3284
sg68
(lp3291
g296
asbag61
(g82
g63
NtRp3292
(dp3293
g66
(dp3294
g93
g94
ssg75
g3284
sg68
(lp3295
S':'
asbag61
(g82
g63
NtRp3296
(dp3297
g66
(dp3298
sg75
g3284
sg68
(lp3299
g61
(g62
g63
NtRp3300
(dp3301
g66
(dp3302
g74
I3
ssg75
g3296
sg68
(lp3303
S''
asbasbasbag61
(g77
g63
NtRp3304
(dp3305
g66
(dp3306
sg75
g3260
sg68
(lp3307
g61
(g82
g63
NtRp3308
(dp3309
g66
(dp3310
g86
g87
ssg75
g3304
sg68
(lp3311
g317
asbag61
(g82
g63
NtRp3312
(dp3313
g66
(dp3314
g93
g94
ssg75
g3304
sg68
(lp3315
S':'
asbag61
(g82
g63
NtRp3316
(dp3317
g66
(dp3318
sg75
g3304
sg68
(lp3319
g61
(g62
g63
NtRp3320
(dp3321
g66
(dp3322
g74
I3
ssg75
g3316
sg68
(lp3323
S''
asbasbasbag61
(g77
g63
NtRp3324
(dp3325
g66
(dp3326
sg75
g3260
sg68
(lp3327
g61
(g82
g63
NtRp3328
(dp3329
g66
(dp3330
g86
g87
ssg75
g3324
sg68
(lp3331
g338
asbag61
(g82
g63
NtRp3332
(dp3333
g66
(dp3334
g93
g94
ssg75
g3324
sg68
(lp3335
S':'
asbag61
(g82
g63
NtRp3336
(dp3337
g66
(dp3338
sg75
g3324
sg68
(lp3339
g61
(g62
g63
NtRp3340
(dp3341
g66
(dp3342
g74
I3
ssg75
g3336
sg68
(lp3343
S''
asbasbasbag61
(g77
g63
NtRp3344
(dp3345
g66
(dp3346
sg75
g3260
sg68
(lp3347
g61
(g82
g63
NtRp3348
(dp3349
g66
(dp3350
g86
g87
ssg75
g3344
sg68
(lp3351
g359
asbag61
(g82
g63
NtRp3352
(dp3353
g66
(dp3354
g93
g94
ssg75
g3344
sg68
(lp3355
S':'
asbag61
(g82
g63
NtRp3356
(dp3357
g66
(dp3358
sg75
g3344
sg68
(lp3359
g61
(g62
g63
NtRp3360
(dp3361
g66
(dp3362
g74
I3
ssg75
g3356
sg68
(lp3363
S'/'
asbasbasbag61
(g77
g63
NtRp3364
(dp3365
g66
(dp3366
sg75
g3260
sg68
(lp3367
g61
(g82
g63
NtRp3368
(dp3369
g66
(dp3370
g86
g87
ssg75
g3364
sg68
(lp3371
g380
asbag61
(g82
g63
NtRp3372
(dp3373
g66
(dp3374
g93
g94
ssg75
g3364
sg68
(lp3375
S':'
asbag61
(g82
g63
NtRp3376
(dp3377
g66
(dp3378
sg75
g3364
sg68
(lp3379
g61
(g62
g63
NtRp3380
(dp3381
g66
(dp3382
g74
I3
ssg75
g3376
sg68
(lp3383
S''
asbasbasbag61
(g77
g63
NtRp3384
(dp3385
g66
(dp3386
sg75
g3260
sg68
(lp3387
g61
(g82
g63
NtRp3388
(dp3389
g66
(dp3390
g86
g87
ssg75
g3384
sg68
(lp3391
g401
asbag61
(g82
g63
NtRp3392
(dp3393
g66
(dp3394
g93
g94
ssg75
g3384
sg68
(lp3395
S':'
asbag61
(g82
g63
NtRp3396
(dp3397
g66
(dp3398
sg75
g3384
sg68
(lp3399
g61
(g62
g63
NtRp3400
(dp3401
g66
(dp3402
g74
I3
ssg75
g3396
sg68
(lp3403
S''
asbasbasbasbasbasbasbasbasbasbasbag61
(g77
g63
NtRp3404
(dp3405
g66
(dp3406
sg75
g3190
sg68
(lp3407
g61
(g82
g63
NtRp3408
(dp3409
g66
(dp3410
g86
g87
ssg75
g3404
sg68
(lp3411
S'delimiters'
p3412
asbag61
(g82
g63
NtRp3413
(dp3414
g66
(dp3415
g93
g94
ssg75
g3404
sg68
(lp3416
S':'
asbag61
(g82
g63
NtRp3417
(dp3418
g66
(dp3419
sg75
g3404
sg68
(lp3420
g61
(g62
g63
NtRp3421
(dp3422
g66
(dp3423
g74
I5
ssg75
g3417
sg68
(lp3424
g61
(g70
g63
NtRp3425
(dp3426
g66
(dp3427
g74
I4
ssg75
Nsg68
(lp3428
g61
(g77
g63
NtRp3429
(dp3430
g66
(dp3431
sg75
g3425
sg68
(lp3432
g61
(g82
g63
NtRp3433
(dp3434
g66
(dp3435
sg75
g3429
sg68
(lp3436
g61
(g62
g63
NtRp3437
(dp3438
g66
(dp3439
g74
I4
ssg75
g3433
sg68
(lp3440
S'{{'
p3441
asbasbasbag61
(g77
g63
NtRp3442
(dp3443
g66
(dp3444
sg75
g3425
sg68
(lp3445
g61
(g82
g63
NtRp3446
(dp3447
g66
(dp3448
sg75
g3442
sg68
(lp3449
g61
(g62
g63
NtRp3450
(dp3451
g66
(dp3452
g74
I4
ssg75
g3446
sg68
(lp3453
S'}}'
p3454
asbasbasbasbasbasbasbag61
(g77
g63
NtRp3455
(dp3456
g66
(dp3457
sg75
g3190
sg68
(lp3458
g61
(g82
g63
NtRp3459
(dp3460
g66
(dp3461
g86
g87
ssg75
g3455
sg68
(lp3462
S'files'
p3463
asbag61
(g82
g63
NtRp3464
(dp3465
g66
(dp3466
g93
g94
ssg75
g3455
sg68
(lp3467
S':'
asbag61
(g82
g63
NtRp3468
(dp3469
g66
(dp3470
sg75
g3455
sg68
(lp3471
g61
(g62
g63
NtRp3472
(dp3473
g66
(dp3474
g74
I5
ssg75
g3468
sg68
(lp3475
g61
(g70
g63
NtRp3476
(dp3477
g66
(dp3478
g74
I4
ssg75
Nsg68
(lp3479
sbasbasbasbag61
(g77
g63
NtRp3480
(dp3481
g66
(dp3482
sg75
g3190
sg68
(lp3483
g61
(g82
g63
NtRp3484
(dp3485
g66
(dp3486
g86
g87
ssg75
g3480
sg68
(lp3487
S'flash'
p3488
asbag61
(g82
g63
NtRp3489
(dp3490
g66
(dp3491
g93
g94
ssg75
g3480
sg68
(lp3492
S':'
asbag61
(g82
g63
NtRp3493
(dp3494
g66
(dp3495
sg75
g3480
sg68
(lp3496
g61
(g62
g63
NtRp3497
(dp3498
g66
(dp3499
g74
I5
ssg75
g3493
sg68
(lp3500
S''
asbasbasbag61
(g77
g63
NtRp3501
(dp3502
g66
(dp3503
sg75
g3190
sg68
(lp3504
g61
(g82
g63
NtRp3505
(dp3506
g66
(dp3507
g86
g87
ssg75
g3501
sg68
(lp3508
S'generic_patterns'
p3509
asbag61
(g82
g63
NtRp3510
(dp3511
g66
(dp3512
g93
g94
ssg75
g3501
sg68
(lp3513
S':'
asbag61
(g82
g63
NtRp3514
(dp3515
g66
(dp3516
sg75
g3501
sg68
(lp3517
g61
(g62
g63
NtRp3518
(dp3519
g66
(dp3520
g74
I5
ssg75
g3514
sg68
(lp3521
g61
(g70
g63
NtRp3522
(dp3523
g66
(dp3524
g74
I4
ssg75
Nsg68
(lp3525
g61
(g77
g63
NtRp3526
(dp3527
g66
(dp3528
sg75
g3522
sg68
(lp3529
g61
(g82
g63
NtRp3530
(dp3531
g66
(dp3532
sg75
g3526
sg68
(lp3533
g61
(g62
g63
NtRp3534
(dp3535
g66
(dp3536
g74
I4
ssg75
g3530
sg68
(lp3537
S'*'
asbasbasbasbasbasbasbag61
(g77
g63
NtRp3538
(dp3539
g66
(dp3540
sg75
g3190
sg68
(lp3541
g61
(g82
g63
NtRp3542
(dp3543
g66
(dp3544
g86
g87
ssg75
g3538
sg68
(lp3545
S'headers'
p3546
asbag61
(g82
g63
NtRp3547
(dp3548
g66
(dp3549
g93
g94
ssg75
g3538
sg68
(lp3550
S':'
asbag61
(g82
g63
NtRp3551
(dp3552
g66
(dp3553
sg75
g3538
sg68
(lp3554
g61
(g62
g63
NtRp3555
(dp3556
g66
(dp3557
g74
I5
ssg75
g3551
sg68
(lp3558
g61
(g70
g63
NtRp3559
(dp3560
g66
(dp3561
g74
I4
ssg75
Nsg68
(lp3562
g61
(g77
g63
NtRp3563
(dp3564
g66
(dp3565
sg75
g3559
sg68
(lp3566
g61
(g82
g63
NtRp3567
(dp3568
g66
(dp3569
g86
g87
ssg75
g3563
sg68
(lp3570
S'Cache-Control'
p3571
asbag61
(g82
g63
NtRp3572
(dp3573
g66
(dp3574
g93
g94
ssg75
g3563
sg68
(lp3575
S':'
asbag61
(g82
g63
NtRp3576
(dp3577
g66
(dp3578
sg75
g3563
sg68
(lp3579
g61
(g62
g63
NtRp3580
(dp3581
g66
(dp3582
g74
I4
ssg75
g3576
sg68
(lp3583
S'no-store, no-cache, must-revalidate, post-check=0, pre-check=0'
p3584
asbasbasbag61
(g77
g63
NtRp3585
(dp3586
g66
(dp3587
sg75
g3559
sg68
(lp3588
g61
(g82
g63
NtRp3589
(dp3590
g66
(dp3591
g86
g87
ssg75
g3585
sg68
(lp3592
S'Content-Type'
p3593
asbag61
(g82
g63
NtRp3594
(dp3595
g66
(dp3596
g93
g94
ssg75
g3585
sg68
(lp3597
S':'
asbag61
(g82
g63
NtRp3598
(dp3599
g66
(dp3600
sg75
g3585
sg68
(lp3601
g61
(g62
g63
NtRp3602
(dp3603
g66
(dp3604
g74
I4
ssg75
g3598
sg68
(lp3605
S'text/html; charset=utf-8'
p3606
asbasbasbag61
(g77
g63
NtRp3607
(dp3608
g66
(dp3609
sg75
g3559
sg68
(lp3610
g61
(g82
g63
NtRp3611
(dp3612
g66
(dp3613
g86
g87
ssg75
g3607
sg68
(lp3614
S'Expires'
p3615
asbag61
(g82
g63
NtRp3616
(dp3617
g66
(dp3618
g93
g94
ssg75
g3607
sg68
(lp3619
S':'
asbag61
(g82
g63
NtRp3620
(dp3621
g66
(dp3622
sg75
g3607
sg68
(lp3623
g61
(g62
g63
NtRp3624
(dp3625
g66
(dp3626
g74
I4
ssg75
g3620
sg68
(lp3627
S'Mon, 02 Apr 2012 15:01:14 GMT'
p3628
asbasbasbag61
(g77
g63
NtRp3629
(dp3630
g66
(dp3631
sg75
g3559
sg68
(lp3632
g61
(g82
g63
NtRp3633
(dp3634
g66
(dp3635
g86
g87
ssg75
g3629
sg68
(lp3636
S'Pragma'
p3637
asbag61
(g82
g63
NtRp3638
(dp3639
g66
(dp3640
g93
g94
ssg75
g3629
sg68
(lp3641
S':'
asbag61
(g82
g63
NtRp3642
(dp3643
g66
(dp3644
sg75
g3629
sg68
(lp3645
g61
(g62
g63
NtRp3646
(dp3647
g66
(dp3648
g74
I4
ssg75
g3642
sg68
(lp3649
S'no-cache'
p3650
asbasbasbag61
(g77
g63
NtRp3651
(dp3652
g66
(dp3653
sg75
g3559
sg68
(lp3654
g61
(g82
g63
NtRp3655
(dp3656
g66
(dp3657
g86
g87
ssg75
g3651
sg68
(lp3658
S'X-Powered-By'
p3659
asbag61
(g82
g63
NtRp3660
(dp3661
g66
(dp3662
g93
g94
ssg75
g3651
sg68
(lp3663
S':'
asbag61
(g82
g63
NtRp3664
(dp3665
g66
(dp3666
sg75
g3651
sg68
(lp3667
g61
(g62
g63
NtRp3668
(dp3669
g66
(dp3670
g74
I4
ssg75
g3664
sg68
(lp3671
S'web2py'
p3672
asbasbasbasbasbasbasbag61
(g77
g63
NtRp3673
(dp3674
g66
(dp3675
sg75
g3190
sg68
(lp3676
g61
(g82
g63
NtRp3677
(dp3678
g66
(dp3679
g86
g87
ssg75
g3673
sg68
(lp3680
S'menu'
p3681
asbag61
(g82
g63
NtRp3682
(dp3683
g66
(dp3684
g93
g94
ssg75
g3673
sg68
(lp3685
S':'
asbag61
(g82
g63
NtRp3686
(dp3687
g66
(dp3688
sg75
g3673
sg68
(lp3689
g61
(g62
g63
NtRp3690
(dp3691
g66
(dp3692
g74
I5
ssg75
g3686
sg68
(lp3693
g61
(g70
g63
NtRp3694
(dp3695
g66
(dp3696
g74
I4
ssg75
Nsg68
(lp3697
g61
(g77
g63
NtRp3698
(dp3699
g66
(dp3700
sg75
g3694
sg68
(lp3701
g61
(g82
g63
NtRp3702
(dp3703
g66
(dp3704
sg75
g3698
sg68
(lp3705
g61
(g62
g63
NtRp3706
(dp3707
g66
(dp3708
g74
I4
ssg75
g3702
sg68
(lp3709
g61
(g70
g63
NtRp3710
(dp3711
g66
(dp3712
g74
I3
ssg75
Nsg68
(lp3713
g61
(g77
g63
NtRp3714
(dp3715
g66
(dp3716
sg75
g3710
sg68
(lp3717
g61
(g82
g63
NtRp3718
(dp3719
g66
(dp3720
sg75
g3714
sg68
(lp3721
g61
(g62
g63
NtRp3722
(dp3723
g66
(dp3724
g74
I3
ssg75
g3718
sg68
(lp3725
cgluon.languages
lazyT_unpickle
p3726
(S's\x04\x00\x00\x00Home'
tRp3727
asbasbasbag61
(g77
g63
NtRp3728
(dp3729
g66
(dp3730
sg75
g3710
sg68
(lp3731
g61
(g82
g63
NtRp3732
(dp3733
g66
(dp3734
sg75
g3728
sg68
(lp3735
g61
(g62
g63
NtRp3736
(dp3737
g66
(dp3738
g74
I3
ssg75
g3732
sg68
(lp3739
g104
asbasbasbag61
(g77
g63
NtRp3740
(dp3741
g66
(dp3742
sg75
g3710
sg68
(lp3743
g61
(g82
g63
NtRp3744
(dp3745
g66
(dp3746
sg75
g3740
sg68
(lp3747
g61
(g62
g63
NtRp3748
(dp3749
g66
(dp3750
g74
I3
ssg75
g3744
sg68
(lp3751
S'/init/default/index'
p3752
asbasbasbag61
(g77
g63
NtRp3753
(dp3754
g66
(dp3755
sg75
g3710
sg68
(lp3756
g61
(g82
g63
NtRp3757
(dp3758
g66
(dp3759
sg75
g3753
sg68
(lp3760
g61
(g62
g63
NtRp3761
(dp3762
g66
(dp3763
g74
I3
ssg75
g3757
sg68
(lp3764
g61
(g70
g63
NtRp3765
(dp3766
g66
(dp3767
g74
I2
ssg75
Nsg68
(lp3768
sbasbasbasbasbasbasbasbag61
(g77
g63
NtRp3769
(dp3770
g66
(dp3771
sg75
g3694
sg68
(lp3772
g61
(g82
g63
NtRp3773
(dp3774
g66
(dp3775
sg75
g3769
sg68
(lp3776
g61
(g62
g63
NtRp3777
(dp3778
g66
(dp3779
g74
I4
ssg75
g3773
sg68
(lp3780
g61
(g70
g63
NtRp3781
(dp3782
g66
(dp3783
g74
I3
ssg75
Nsg68
(lp3784
g61
(g77
g63
NtRp3785
(dp3786
g66
(dp3787
sg75
g3781
sg68
(lp3788
g61
(g82
g63
NtRp3789
(dp3790
g66
(dp3791
sg75
g3785
sg68
(lp3792
g61
(g62
g63
NtRp3793
(dp3794
g66
(dp3795
g74
I3
ssg75
g3789
sg68
(lp3796
g61
(cgluon.html
SPAN
p3797
g63
NtRp3798
(dp3799
g66
(dp3800
g86
S'color:yellow'
p3801
ssg75
Nsg68
(lp3802
g3672
asbasbasbasbag61
(g77
g63
NtRp3803
(dp3804
g66
(dp3805
sg75
g3781
sg68
(lp3806
g61
(g82
g63
NtRp3807
(dp3808
g66
(dp3809
sg75
g3803
sg68
(lp3810
g61
(g62
g63
NtRp3811
(dp3812
g66
(dp3813
g74
I3
ssg75
g3807
sg68
(lp3814
g104
asbasbasbag61
(g77
g63
NtRp3815
(dp3816
g66
(dp3817
sg75
g3781
sg68
(lp3818
g61
(g82
g63
NtRp3819
(dp3820
g66
(dp3821
sg75
g3815
sg68
(lp3822
g61
(g62
g63
NtRp3823
(dp3824
g66
(dp3825
g74
I3
ssg75
g3819
sg68
(lp3826
S'None'
p3827
asbasbasbag61
(g77
g63
NtRp3828
(dp3829
g66
(dp3830
sg75
g3781
sg68
(lp3831
g61
(g82
g63
NtRp3832
(dp3833
g66
(dp3834
sg75
g3828
sg68
(lp3835
g61
(g62
g63
NtRp3836
(dp3837
g66
(dp3838
g74
I3
ssg75
g3832
sg68
(lp3839
g61
(g70
g63
NtRp3840
(dp3841
g66
(dp3842
g74
I2
ssg75
Nsg68
(lp3843
g61
(g77
g63
NtRp3844
(dp3845
g66
(dp3846
sg75
g3840
sg68
(lp3847
g61
(g82
g63
NtRp3848
(dp3849
g66
(dp3850
sg75
g3844
sg68
(lp3851
g61
(g62
g63
NtRp3852
(dp3853
g66
(dp3854
g74
I2
ssg75
g3848
sg68
(lp3855
g61
(g70
g63
NtRp3856
(dp3857
g66
(dp3858
g74
I1
ssg75
Nsg68
(lp3859
g61
(g77
g63
NtRp3860
(dp3861
g66
(dp3862
sg75
g3856
sg68
(lp3863
g61
(g82
g63
NtRp3864
(dp3865
g66
(dp3866
sg75
g3860
sg68
(lp3867
g61
(g62
g63
NtRp3868
(dp3869
g66
(dp3870
g74
I1
ssg75
g3864
sg68
(lp3871
g3726
(S's\x08\x00\x00\x00My Sites'
tRp3872
asbasbasbag61
(g77
g63
NtRp3873
(dp3874
g66
(dp3875
sg75
g3856
sg68
(lp3876
g61
(g82
g63
NtRp3877
(dp3878
g66
(dp3879
sg75
g3873
sg68
(lp3880
g61
(g62
g63
NtRp3881
(dp3882
g66
(dp3883
g74
I1
ssg75
g3877
sg68
(lp3884
I00
asbasbasbag61
(g77
g63
NtRp3885
(dp3886
g66
(dp3887
sg75
g3856
sg68
(lp3888
g61
(g82
g63
NtRp3889
(dp3890
g66
(dp3891
sg75
g3885
sg68
(lp3892
g61
(g62
g63
NtRp3893
(dp3894
g66
(dp3895
g74
I1
ssg75
g3889
sg68
(lp3896
S'/admin/default/site'
p3897
asbasbasbasbasbasbasbag61
(g77
g63
NtRp3898
(dp3899
g66
(dp3900
sg75
g3840
sg68
(lp3901
g61
(g82
g63
NtRp3902
(dp3903
g66
(dp3904
sg75
g3898
sg68
(lp3905
g61
(g62
g63
NtRp3906
(dp3907
g66
(dp3908
g74
I2
ssg75
g3902
sg68
(lp3909
g61
(g70
g63
NtRp3910
(dp3911
g66
(dp3912
g74
I1
ssg75
Nsg68
(lp3913
g61
(g77
g63
NtRp3914
(dp3915
g66
(dp3916
sg75
g3910
sg68
(lp3917
g61
(g82
g63
NtRp3918
(dp3919
g66
(dp3920
sg75
g3914
sg68
(lp3921
g61
(g62
g63
NtRp3922
(dp3923
g66
(dp3924
g74
I1
ssg75
g3918
sg68
(lp3925
g3726
(S's\x08\x00\x00\x00This App'
tRp3926
asbasbasbag61
(g77
g63
NtRp3927
(dp3928
g66
(dp3929
sg75
g3910
sg68
(lp3930
g61
(g82
g63
NtRp3931
(dp3932
g66
(dp3933
sg75
g3927
sg68
(lp3934
g61
(g62
g63
NtRp3935
(dp3936
g66
(dp3937
g74
I1
ssg75
g3931
sg68
(lp3938
I00
asbasbasbag61
(g77
g63
NtRp3939
(dp3940
g66
(dp3941
sg75
g3910
sg68
(lp3942
g61
(g82
g63
NtRp3943
(dp3944
g66
(dp3945
sg75
g3939
sg68
(lp3946
g61
(g62
g63
NtRp3947
(dp3948
g66
(dp3949
g74
I1
ssg75
g3943
sg68
(lp3950
S'/admin/default/design/init'
p3951
asbasbasbag61
(g77
g63
NtRp3952
(dp3953
g66
(dp3954
sg75
g3910
sg68
(lp3955
g61
(g82
g63
NtRp3956
(dp3957
g66
(dp3958
sg75
g3952
sg68
(lp3959
g61
(g62
g63
NtRp3960
(dp3961
g66
(dp3962
g74
I1
ssg75
g3956
sg68
(lp3963
(lp3964
(g3726
(S's\n\x00\x00\x00Controller'
tRp3965
I00
S'/admin/default/edit/init/controllers/default.py'
tp3966
a(g3726
(S's\x04\x00\x00\x00View'
tRp3967
I00
S'/admin/default/edit/init/views/default/inscriptioninvit.html'
tp3968
a(g3726
(S's\x06\x00\x00\x00Layout'
tRp3969
I00
S'/admin/default/edit/init/views/layout.html'
tp3970
a(g3726
(S's\n\x00\x00\x00Stylesheet'
tRp3971
I00
S'/admin/default/edit/init/static/css/web2py.css'
tp3972
a(g3726
(S's\x08\x00\x00\x00DB Model'
tRp3973
I00
S'/admin/default/edit/init/models/db.py'
tp3974
a(g3726
(S's\n\x00\x00\x00Menu Model'
tRp3975
I00
S'/admin/default/edit/init/models/menu.py'
tp3976
a(g3726
(S's\x08\x00\x00\x00Database'
tRp3977
I00
S'/init/appadmin/index'
tp3978
a(g3726
(S's\x06\x00\x00\x00Errors'
tRp3979
I00
S'/admin/default/errors/init'
tp3980
a(g3726
(S's\x05\x00\x00\x00About'
tRp3981
I00
S'/admin/default/about/init'
tp3982
aasbasbasbasbasbasbasbag61
(g77
g63
NtRp3983
(dp3984
g66
(dp3985
sg75
g3840
sg68
(lp3986
g61
(g82
g63
NtRp3987
(dp3988
g66
(dp3989
sg75
g3983
sg68
(lp3990
g61
(g62
g63
NtRp3991
(dp3992
g66
(dp3993
g74
I2
ssg75
g3987
sg68
(lp3994
g61
(g70
g63
NtRp3995
(dp3996
g66
(dp3997
g74
I1
ssg75
Nsg68
(lp3998
g61
(g77
g63
NtRp3999
(dp4000
g66
(dp4001
sg75
g3995
sg68
(lp4002
g61
(g82
g63
NtRp4003
(dp4004
g66
(dp4005
sg75
g3999
sg68
(lp4006
g61
(g62
g63
NtRp4007
(dp4008
g66
(dp4009
g74
I1
ssg75
g4003
sg68
(lp4010
S'web2py.com'
p4011
asbasbasbag61
(g77
g63
NtRp4012
(dp4013
g66
(dp4014
sg75
g3995
sg68
(lp4015
g61
(g82
g63
NtRp4016
(dp4017
g66
(dp4018
sg75
g4012
sg68
(lp4019
g61
(g62
g63
NtRp4020
(dp4021
g66
(dp4022
g74
I1
ssg75
g4016
sg68
(lp4023
I00
asbasbasbag61
(g77
g63
NtRp4024
(dp4025
g66
(dp4026
sg75
g3995
sg68
(lp4027
g61
(g82
g63
NtRp4028
(dp4029
g66
(dp4030
sg75
g4024
sg68
(lp4031
g61
(g62
g63
NtRp4032
(dp4033
g66
(dp4034
g74
I1
ssg75
g4028
sg68
(lp4035
S'http://www.web2py.com'
p4036
asbasbasbag61
(g77
g63
NtRp4037
(dp4038
g66
(dp4039
sg75
g3995
sg68
(lp4040
g61
(g82
g63
NtRp4041
(dp4042
g66
(dp4043
sg75
g4037
sg68
(lp4044
g61
(g62
g63
NtRp4045
(dp4046
g66
(dp4047
g74
I1
ssg75
g4041
sg68
(lp4048
(lp4049
(g3726
(S's\x08\x00\x00\x00Download'
tRp4050
I00
S'http://www.web2py.com/examples/default/download'
p4051
tp4052
a(g3726
(S's\x07\x00\x00\x00Support'
tRp4053
I00
S'http://www.web2py.com/examples/default/support'
p4054
tp4055
a(g3726
(S's\x04\x00\x00\x00Demo'
tRp4056
I00
S'http://web2py.com/demo_admin'
p4057
tp4058
a(g3726
(S's\x0e\x00\x00\x00Quick Examples'
tRp4059
I00
S'http://web2py.com/examples/default/examples'
p4060
tp4061
a(g3726
(S's\x03\x00\x00\x00FAQ'
tRp4062
I00
S'http://web2py.com/AlterEgo'
p4063
tp4064
a(g3726
(S's\x06\x00\x00\x00Videos'
tRp4065
I00
S'http://www.web2py.com/examples/default/videos/'
p4066
tp4067
a(g3726
(S's\x11\x00\x00\x00Free Applications'
tRp4068
I00
S'http://web2py.com/appliances'
p4069
tp4070
a(g3726
(S's\x07\x00\x00\x00Plugins'
tRp4071
I00
S'http://web2py.com/plugins'
p4072
tp4073
a(g3726
(S's\x07\x00\x00\x00Layouts'
tRp4074
I00
S'http://web2py.com/layouts'
p4075
tp4076
a(g3726
(S's\x07\x00\x00\x00Recipes'
tRp4077
I00
S'http://web2pyslices.com/'
p4078
tp4079
a(g3726
(S's\x08\x00\x00\x00Semantic'
tRp4080
I00
S'http://web2py.com/semantic'
p4081
tp4082
aasbasbasbasbasbasbasbag61
(g77
g63
NtRp4083
(dp4084
g66
(dp4085
sg75
g3840
sg68
(lp4086
g61
(g82
g63
NtRp4087
(dp4088
g66
(dp4089
sg75
g4083
sg68
(lp4090
g61
(g62
g63
NtRp4091
(dp4092
g66
(dp4093
g74
I2
ssg75
g4087
sg68
(lp4094
g61
(g70
g63
NtRp4095
(dp4096
g66
(dp4097
g74
I1
ssg75
Nsg68
(lp4098
g61
(g77
g63
NtRp4099
(dp4100
g66
(dp4101
sg75
g4095
sg68
(lp4102
g61
(g82
g63
NtRp4103
(dp4104
g66
(dp4105
sg75
g4099
sg68
(lp4106
g61
(g62
g63
NtRp4107
(dp4108
g66
(dp4109
g74
I1
ssg75
g4103
sg68
(lp4110
g3726
(S's\r\x00\x00\x00Documentation'
tRp4111
asbasbasbag61
(g77
g63
NtRp4112
(dp4113
g66
(dp4114
sg75
g4095
sg68
(lp4115
g61
(g82
g63
NtRp4116
(dp4117
g66
(dp4118
sg75
g4112
sg68
(lp4119
g61
(g62
g63
NtRp4120
(dp4121
g66
(dp4122
g74
I1
ssg75
g4116
sg68
(lp4123
I00
asbasbasbag61
(g77
g63
NtRp4124
(dp4125
g66
(dp4126
sg75
g4095
sg68
(lp4127
g61
(g82
g63
NtRp4128
(dp4129
g66
(dp4130
sg75
g4124
sg68
(lp4131
g61
(g62
g63
NtRp4132
(dp4133
g66
(dp4134
g74
I1
ssg75
g4128
sg68
(lp4135
S'http://www.web2py.com/book'
p4136
asbasbasbag61
(g77
g63
NtRp4137
(dp4138
g66
(dp4139
sg75
g4095
sg68
(lp4140
g61
(g82
g63
NtRp4141
(dp4142
g66
(dp4143
sg75
g4137
sg68
(lp4144
g61
(g62
g63
NtRp4145
(dp4146
g66
(dp4147
g74
I1
ssg75
g4141
sg68
(lp4148
(lp4149
(g3726
(S's\x07\x00\x00\x00Preface'
tRp4150
I00
S'http://www.web2py.com/book/default/chapter/00'
p4151
tp4152
a(g3726
(S's\x0c\x00\x00\x00Introduction'
tRp4153
I00
S'http://www.web2py.com/book/default/chapter/01'
p4154
tp4155
a(g3726
(S's\x06\x00\x00\x00Python'
tRp4156
I00
S'http://www.web2py.com/book/default/chapter/02'
p4157
tp4158
a(g3726
(S's\x08\x00\x00\x00Overview'
tRp4159
I00
S'http://www.web2py.com/book/default/chapter/03'
p4160
tp4161
a(g3726
(S's\x08\x00\x00\x00The Core'
tRp4162
I00
S'http://www.web2py.com/book/default/chapter/04'
p4163
tp4164
a(g3726
(S's\t\x00\x00\x00The Views'
tRp4165
I00
S'http://www.web2py.com/book/default/chapter/05'
p4166
tp4167
a(g3726
(S's\x08\x00\x00\x00Database'
tRp4168
I00
S'http://www.web2py.com/book/default/chapter/06'
p4169
tp4170
a(g3726
(S's\x14\x00\x00\x00Forms and Validators'
tRp4171
I00
S'http://www.web2py.com/book/default/chapter/07'
p4172
tp4173
a(g3726
(S's\r\x00\x00\x00Email and SMS'
tRp4174
I00
S'http://www.web2py.com/book/default/chapter/08'
p4175
tp4176
a(g3726
(S's\x0e\x00\x00\x00Access Control'
tRp4177
I00
S'http://www.web2py.com/book/default/chapter/09'
p4178
tp4179
a(g3726
(S's\x08\x00\x00\x00Services'
tRp4180
I00
S'http://www.web2py.com/book/default/chapter/10'
p4181
tp4182
a(g3726
(S's\x0c\x00\x00\x00Ajax Recipes'
tRp4183
I00
S'http://www.web2py.com/book/default/chapter/11'
p4184
tp4185
a(g3726
(S's\x16\x00\x00\x00Components and Plugins'
tRp4186
I00
S'http://www.web2py.com/book/default/chapter/12'
p4187
tp4188
a(g3726
(S's\x12\x00\x00\x00Deployment Recipes'
tRp4189
I00
S'http://www.web2py.com/book/default/chapter/13'
p4190
tp4191
a(g3726
(S's\r\x00\x00\x00Other Recipes'
tRp4192
I00
S'http://www.web2py.com/book/default/chapter/14'
p4193
tp4194
a(g3726
(S's\r\x00\x00\x00Buy this book'
tRp4195
I00
S'http://stores.lulu.com/web2py'
p4196
tp4197
aasbasbasbasbasbasbasbag61
(g77
g63
NtRp4198
(dp4199
g66
(dp4200
sg75
g3840
sg68
(lp4201
g61
(g82
g63
NtRp4202
(dp4203
g66
(dp4204
sg75
g4198
sg68
(lp4205
g61
(g62
g63
NtRp4206
(dp4207
g66
(dp4208
g74
I2
ssg75
g4202
sg68
(lp4209
g61
(g70
g63
NtRp4210
(dp4211
g66
(dp4212
g74
I1
ssg75
Nsg68
(lp4213
g61
(g77
g63
NtRp4214
(dp4215
g66
(dp4216
sg75
g4210
sg68
(lp4217
g61
(g82
g63
NtRp4218
(dp4219
g66
(dp4220
sg75
g4214
sg68
(lp4221
g61
(g62
g63
NtRp4222
(dp4223
g66
(dp4224
g74
I1
ssg75
g4218
sg68
(lp4225
g3726
(S's\t\x00\x00\x00Community'
tRp4226
asbasbasbag61
(g77
g63
NtRp4227
(dp4228
g66
(dp4229
sg75
g4210
sg68
(lp4230
g61
(g82
g63
NtRp4231
(dp4232
g66
(dp4233
sg75
g4227
sg68
(lp4234
g61
(g62
g63
NtRp4235
(dp4236
g66
(dp4237
g74
I1
ssg75
g4231
sg68
(lp4238
I00
asbasbasbag61
(g77
g63
NtRp4239
(dp4240
g66
(dp4241
sg75
g4210
sg68
(lp4242
g61
(g82
g63
NtRp4243
(dp4244
g66
(dp4245
sg75
g4239
sg68
(lp4246
g61
(g62
g63
NtRp4247
(dp4248
g66
(dp4249
g74
I1
ssg75
g4243
sg68
(lp4250
Nasbasbasbag61
(g77
g63
NtRp4251
(dp4252
g66
(dp4253
sg75
g4210
sg68
(lp4254
g61
(g82
g63
NtRp4255
(dp4256
g66
(dp4257
sg75
g4251
sg68
(lp4258
g61
(g62
g63
NtRp4259
(dp4260
g66
(dp4261
g74
I1
ssg75
g4255
sg68
(lp4262
(lp4263
(g3726
(S's\x06\x00\x00\x00Groups'
tRp4264
I00
S'http://www.web2py.com/examples/default/usergroups'
p4265
tp4266
a(g3726
(S's\x07\x00\x00\x00Twitter'
tRp4267
I00
S'http://twitter.com/web2py'
p4268
tp4269
a(g3726
(S's\t\x00\x00\x00Live Chat'
tRp4270
I00
S'http://webchat.freenode.net/?channels=web2py'
p4271
tp4272
aasbasbasbasbasbasbasbag61
(g77
g63
NtRp4273
(dp4274
g66
(dp4275
sg75
g3840
sg68
(lp4276
g61
(g82
g63
NtRp4277
(dp4278
g66
(dp4279
sg75
g4273
sg68
(lp4280
g61
(g62
g63
NtRp4281
(dp4282
g66
(dp4283
g74
I2
ssg75
g4277
sg68
(lp4284
g61
(g70
g63
NtRp4285
(dp4286
g66
(dp4287
g74
I1
ssg75
Nsg68
(lp4288
g61
(g77
g63
NtRp4289
(dp4290
g66
(dp4291
sg75
g4285
sg68
(lp4292
g61
(g82
g63
NtRp4293
(dp4294
g66
(dp4295
sg75
g4289
sg68
(lp4296
g61
(g62
g63
NtRp4297
(dp4298
g66
(dp4299
g74
I1
ssg75
g4293
sg68
(lp4300
g3726
(S's\x07\x00\x00\x00Plugins'
tRp4301
asbasbasbag61
(g77
g63
NtRp4302
(dp4303
g66
(dp4304
sg75
g4285
sg68
(lp4305
g61
(g82
g63
NtRp4306
(dp4307
g66
(dp4308
sg75
g4302
sg68
(lp4309
g61
(g62
g63
NtRp4310
(dp4311
g66
(dp4312
g74
I1
ssg75
g4306
sg68
(lp4313
I00
asbasbasbag61
(g77
g63
NtRp4314
(dp4315
g66
(dp4316
sg75
g4285
sg68
(lp4317
g61
(g82
g63
NtRp4318
(dp4319
g66
(dp4320
sg75
g4314
sg68
(lp4321
g61
(g62
g63
NtRp4322
(dp4323
g66
(dp4324
g74
I1
ssg75
g4318
sg68
(lp4325
Nasbasbasbag61
(g77
g63
NtRp4326
(dp4327
g66
(dp4328
sg75
g4285
sg68
(lp4329
g61
(g82
g63
NtRp4330
(dp4331
g66
(dp4332
sg75
g4326
sg68
(lp4333
g61
(g62
g63
NtRp4334
(dp4335
g66
(dp4336
g74
I1
ssg75
g4330
sg68
(lp4337
(lp4338
(S'plugin_wiki'
p4339
I00
S'http://web2py.com/examples/default/download'
p4340
tp4341
a(g3726
(S's\r\x00\x00\x00Other Plugins'
tRp4342
I00
g4072
tp4343
a(g3726
(S's\x0e\x00\x00\x00Layout Plugins'
tRp4344
I00
g4075
tp4345
aasbasbasbasbasbasbasbasbasbasbasbasbasbasbasbasbasbasbasbag61
(g77
g63
NtRp4346
(dp4347
g66
(dp4348
sg75
g3190
sg68
(lp4349
g61
(g82
g63
NtRp4350
(dp4351
g66
(dp4352
g86
g87
ssg75
g4346
sg68
(lp4353
S'meta'
p4354
asbag61
(g82
g63
NtRp4355
(dp4356
g66
(dp4357
g93
g94
ssg75
g4346
sg68
(lp4358
S':'
asbag61
(g82
g63
NtRp4359
(dp4360
g66
(dp4361
sg75
g4346
sg68
(lp4362
g61
(g62
g63
NtRp4363
(dp4364
g66
(dp4365
g74
I5
ssg75
g4359
sg68
(lp4366
g61
(g70
g63
NtRp4367
(dp4368
g66
(dp4369
g74
I4
ssg75
Nsg68
(lp4370
g61
(g77
g63
NtRp4371
(dp4372
g66
(dp4373
sg75
g4367
sg68
(lp4374
g61
(g82
g63
NtRp4375
(dp4376
g66
(dp4377
g86
g87
ssg75
g4371
sg68
(lp4378
S'author'
p4379
asbag61
(g82
g63
NtRp4380
(dp4381
g66
(dp4382
g93
g94
ssg75
g4371
sg68
(lp4383
S':'
asbag61
(g82
g63
NtRp4384
(dp4385
g66
(dp4386
sg75
g4371
sg68
(lp4387
g61
(g62
g63
NtRp4388
(dp4389
g66
(dp4390
g74
I4
ssg75
g4384
sg68
(lp4391
S'Your Name <you@example.com>'
p4392
asbasbasbag61
(g77
g63
NtRp4393
(dp4394
g66
(dp4395
sg75
g4367
sg68
(lp4396
g61
(g82
g63
NtRp4397
(dp4398
g66
(dp4399
g86
g87
ssg75
g4393
sg68
(lp4400
S'copyright'
p4401
asbag61
(g82
g63
NtRp4402
(dp4403
g66
(dp4404
g93
g94
ssg75
g4393
sg68
(lp4405
S':'
asbag61
(g82
g63
NtRp4406
(dp4407
g66
(dp4408
sg75
g4393
sg68
(lp4409
g61
(g62
g63
NtRp4410
(dp4411
g66
(dp4412
g74
I4
ssg75
g4406
sg68
(lp4413
S'Copyright 2011'
p4414
asbasbasbag61
(g77
g63
NtRp4415
(dp4416
g66
(dp4417
sg75
g4367
sg68
(lp4418
g61
(g82
g63
NtRp4419
(dp4420
g66
(dp4421
g86
g87
ssg75
g4415
sg68
(lp4422
S'description'
p4423
asbag61
(g82
g63
NtRp4424
(dp4425
g66
(dp4426
g93
g94
ssg75
g4415
sg68
(lp4427
S':'
asbag61
(g82
g63
NtRp4428
(dp4429
g66
(dp4430
sg75
g4415
sg68
(lp4431
g61
(g62
g63
NtRp4432
(dp4433
g66
(dp4434
g74
I4
ssg75
g4428
sg68
(lp4435
S'a cool new app'
p4436
asbasbasbag61
(g77
g63
NtRp4437
(dp4438
g66
(dp4439
sg75
g4367
sg68
(lp4440
g61
(g82
g63
NtRp4441
(dp4442
g66
(dp4443
g86
g87
ssg75
g4437
sg68
(lp4444
S'generator'
p4445
asbag61
(g82
g63
NtRp4446
(dp4447
g66
(dp4448
g93
g94
ssg75
g4437
sg68
(lp4449
S':'
asbag61
(g82
g63
NtRp4450
(dp4451
g66
(dp4452
sg75
g4437
sg68
(lp4453
g61
(g62
g63
NtRp4454
(dp4455
g66
(dp4456
g74
I4
ssg75
g4450
sg68
(lp4457
S'Web2py Web Framework'
p4458
asbasbasbag61
(g77
g63
NtRp4459
(dp4460
g66
(dp4461
sg75
g4367
sg68
(lp4462
g61
(g82
g63
NtRp4463
(dp4464
g66
(dp4465
g86
g87
ssg75
g4459
sg68
(lp4466
S'keywords'
p4467
asbag61
(g82
g63
NtRp4468
(dp4469
g66
(dp4470
g93
g94
ssg75
g4459
sg68
(lp4471
S':'
asbag61
(g82
g63
NtRp4472
(dp4473
g66
(dp4474
sg75
g4459
sg68
(lp4475
g61
(g62
g63
NtRp4476
(dp4477
g66
(dp4478
g74
I4
ssg75
g4472
sg68
(lp4479
S'web2py, python, framework'
p4480
asbasbasbasbasbasbasbag61
(g77
g63
NtRp4481
(dp4482
g66
(dp4483
sg75
g3190
sg68
(lp4484
g61
(g82
g63
NtRp4485
(dp4486
g66
(dp4487
g86
g87
ssg75
g4481
sg68
(lp4488
S'postprocessing'
p4489
asbag61
(g82
g63
NtRp4490
(dp4491
g66
(dp4492
g93
g94
ssg75
g4481
sg68
(lp4493
S':'
asbag61
(g82
g63
NtRp4494
(dp4495
g66
(dp4496
sg75
g4481
sg68
(lp4497
g61
(g62
g63
NtRp4498
(dp4499
g66
(dp4500
g74
I5
ssg75
g4494
sg68
(lp4501
g61
(g70
g63
NtRp4502
(dp4503
g66
(dp4504
g74
I4
ssg75
Nsg68
(lp4505
sbasbasbasbag61
(g77
g63
NtRp4506
(dp4507
g66
(dp4508
sg75
g3190
sg68
(lp4509
g61
(g82
g63
NtRp4510
(dp4511
g66
(dp4512
g86
g87
ssg75
g4506
sg68
(lp4513
S'session_db'
p4514
asbag61
(g82
g63
NtRp4515
(dp4516
g66
(dp4517
g93
g94
ssg75
g4506
sg68
(lp4518
S':'
asbag61
(g82
g63
NtRp4519
(dp4520
g66
(dp4521
sg75
g4506
sg68
(lp4522
g61
(g62
g63
NtRp4523
(dp4524
g66
(dp4525
g74
I5
ssg75
g4519
sg68
(lp4526
g738
asbasbasbag61
(g77
g63
NtRp4527
(dp4528
g66
(dp4529
sg75
g3190
sg68
(lp4530
g61
(g82
g63
NtRp4531
(dp4532
g66
(dp4533
g86
g87
ssg75
g4527
sg68
(lp4534
S'session_id'
p4535
asbag61
(g82
g63
NtRp4536
(dp4537
g66
(dp4538
g93
g94
ssg75
g4527
sg68
(lp4539
S':'
asbag61
(g82
g63
NtRp4540
(dp4541
g66
(dp4542
sg75
g4527
sg68
(lp4543
g61
(g62
g63
NtRp4544
(dp4545
g66
(dp4546
g74
I5
ssg75
g4540
sg68
(lp4547
S'24:fc940c53-63d4-4b03-b7eb-6ddd9cd731aa'
p4548
asbasbasbag61
(g77
g63
NtRp4549
(dp4550
g66
(dp4551
sg75
g3190
sg68
(lp4552
g61
(g82
g63
NtRp4553
(dp4554
g66
(dp4555
g86
g87
ssg75
g4549
sg68
(lp4556
S'session_id_name'
p4557
asbag61
(g82
g63
NtRp4558
(dp4559
g66
(dp4560
g93
g94
ssg75
g4549
sg68
(lp4561
S':'
asbag61
(g82
g63
NtRp4562
(dp4563
g66
(dp4564
sg75
g4549
sg68
(lp4565
g61
(g62
g63
NtRp4566
(dp4567
g66
(dp4568
g74
I5
ssg75
g4562
sg68
(lp4569
S'session_id_init'
p4570
asbasbasbag61
(g77
g63
NtRp4571
(dp4572
g66
(dp4573
sg75
g3190
sg68
(lp4574
g61
(g82
g63
NtRp4575
(dp4576
g66
(dp4577
g86
g87
ssg75
g4571
sg68
(lp4578
S'status'
p4579
asbag61
(g82
g63
NtRp4580
(dp4581
g66
(dp4582
g93
g94
ssg75
g4571
sg68
(lp4583
S':'
asbag61
(g82
g63
NtRp4584
(dp4585
g66
(dp4586
sg75
g4571
sg68
(lp4587
g61
(g62
g63
NtRp4588
(dp4589
g66
(dp4590
g74
I5
ssg75
g4584
sg68
(lp4591
S'200'
p4592
asbasbasbag61
(g77
g63
NtRp4593
(dp4594
g66
(dp4595
sg75
g3190
sg68
(lp4596
g61
(g82
g63
NtRp4597
(dp4598
g66
(dp4599
g86
g87
ssg75
g4593
sg68
(lp4600
S'subtitle'
p4601
asbag61
(g82
g63
NtRp4602
(dp4603
g66
(dp4604
g93
g94
ssg75
g4593
sg68
(lp4605
S':'
asbag61
(g82
g63
NtRp4606
(dp4607
g66
(dp4608
sg75
g4593
sg68
(lp4609
g61
(g62
g63
NtRp4610
(dp4611
g66
(dp4612
g74
I5
ssg75
g4606
sg68
(lp4613
g3726
(S's\r\x00\x00\x00customize me!'
tRp4614
asbasbasbag61
(g77
g63
NtRp4615
(dp4616
g66
(dp4617
sg75
g3190
sg68
(lp4618
g61
(g82
g63
NtRp4619
(dp4620
g66
(dp4621
g86
g87
ssg75
g4615
sg68
(lp4622
S'title'
p4623
asbag61
(g82
g63
NtRp4624
(dp4625
g66
(dp4626
g93
g94
ssg75
g4615
sg68
(lp4627
S':'
asbag61
(g82
g63
NtRp4628
(dp4629
g66
(dp4630
sg75
g4615
sg68
(lp4631
g61
(g62
g63
NtRp4632
(dp4633
g66
(dp4634
g74
I5
ssg75
g4628
sg68
(lp4635
S'Init'
p4636
asbasbasbag61
(g77
g63
NtRp4637
(dp4638
g66
(dp4639
sg75
g3190
sg68
(lp4640
g61
(g82
g63
NtRp4641
(dp4642
g66
(dp4643
g86
g87
ssg75
g4637
sg68
(lp4644
g2142
asbag61
(g82
g63
NtRp4645
(dp4646
g66
(dp4647
g93
g94
ssg75
g4637
sg68
(lp4648
S':'
asbag61
(g82
g63
NtRp4649
(dp4650
g66
(dp4651
sg75
g4637
sg68
(lp4652
g61
(g62
g63
NtRp4653
(dp4654
g66
(dp4655
g74
I5
ssg75
g4649
sg68
(lp4656
g2155
asbasbasbag61
(g77
g63
NtRp4657
(dp4658
g66
(dp4659
sg75
g3190
sg68
(lp4660
g61
(g82
g63
NtRp4661
(dp4662
g66
(dp4663
g86
g87
ssg75
g4657
sg68
(lp4664
S'view'
p4665
asbag61
(g82
g63
NtRp4666
(dp4667
g66
(dp4668
g93
g94
ssg75
g4657
sg68
(lp4669
S':'
asbag61
(g82
g63
NtRp4670
(dp4671
g66
(dp4672
sg75
g4657
sg68
(lp4673
g61
(g62
g63
NtRp4674
(dp4675
g66
(dp4676
g74
I5
ssg75
g4670
sg68
(lp4677
S'default/inscriptioninvit.html'
p4678
asbasbasbasbasbsS'locals'
p4679
(dp4680
g4
S"r'C:\\Users\\Bussiere\\Dropbox\\Projets\\jackpoint\\web2py\\applications\\init\\controllers/default.py'"
p4681
sg6
S"'\\xef\\xbb\\xbf# -*- coding: utf-8 -*-\\n# this file is releas...esponse._vars=response._caller(inscriptioninvit)\\n'"
p4682
sssS'traceback'
p4683
S'Traceback (most recent call last):\n  File "gluon/restricted.py", line 204, in restricted\n  File "gluon/restricted.py", line 189, in compile2\n  File "C:\\Users\\Bussiere\\Dropbox\\Projets\\jackpoint\\web2py\\applications\\init\\controllers/default.py", line 401\n    _colspan=4)\n           ^\nSyntaxError: invalid syntax\n'
p4684
s.