(dp1
S'output'
p2
S"<type 'exceptions.NameError'> global name 'db' is not defined"
p3
sS'layer'
p4
S'D:\\Documents\\Workspace\\Jack\\web2py\\applications\\init\\models\\A_widget.py'
p5
sS'code'
p6
S'from gluon.sqlhtml import *\n\nif 0: \n    import gluon\n    global cache; cache = gluon.cache.Cache()\n    global LOAD; LOAD  = gluon.compileapp.LoadFactory()\n    import gluon.compileapp.local_import_aux as local_import #@UnusedImport\n    from gluon.contrib.gql import GQLDB #@UnusedImport\n    from gluon.dal import Field #@UnusedImport\n    global request; request = gluon.globals.Request()\n    global response; response = gluon.globals.Response()\n    global session; session = gluon.globals.Session()\n    from gluon.html import A #@UnusedImport\n    from gluon.html import B #@UnusedImport\n    from gluon.html import BEAUTIFY #@UnusedImport\n    from gluon.html import BODY #@UnusedImport\n    from gluon.html import BR #@UnusedImport\n    from gluon.html import CENTER #@UnusedImport\n    from gluon.html import CODE #@UnusedImport\n    from gluon.html import DIV #@UnusedImport\n    from gluon.html import EM #@UnusedImport\n    from gluon.html import EMBED #@UnusedImport\n    from gluon.html import embed64 #@UnusedImport\n    from gluon.html import FIELDSET #@UnusedImport\n    from gluon.html import FORM #@UnusedImport\n    from gluon.html import H1 #@UnusedImport\n    from gluon.html import H2 #@UnusedImport\n    from gluon.html import H3 #@UnusedImport\n    from gluon.html import H4 #@UnusedImport\n    from gluon.html import H5 #@UnusedImport\n    from gluon.html import H6 #@UnusedImport\n    from gluon.html import HEAD #@UnusedImport\n    from gluon.html import HR #@UnusedImport\n    from gluon.html import HTML #@UnusedImport\n    from gluon.html import I #@UnusedImport\n    from gluon.html import IFRAME #@UnusedImport\n    from gluon.html import IMG #@UnusedImport\n    from gluon.html import INPUT #@UnusedImport\n    from gluon.html import LABEL #@UnusedImport\n    from gluon.html import LEGEND #@UnusedImport\n    from gluon.html import LI #@UnusedImport\n    from gluon.html import LINK #@UnusedImport\n    from gluon.html import MARKMIN #@UnusedImport\n    from gluon.html import MENU #@UnusedImport\n    from gluon.html import META #@UnusedImport\n    from gluon.html import OBJECT #@UnusedImport\n    from gluon.html import OL #@UnusedImport\n    from gluon.html import ON #@UnusedImport\n    from gluon.html import OPTGROUP #@UnusedImport\n    from gluon.html import OPTION #@UnusedImport\n    from gluon.html import P #@UnusedImport\n    from gluon.html import PRE #@UnusedImport\n    from gluon.html import STYLE #@UnusedImport\n    from gluon.html import SCRIPT #@UnusedImport\n    from gluon.html import SELECT #@UnusedImport\n    from gluon.html import SPAN #@UnusedImport\n    from gluon.html import TABLE #@UnusedImport\n    from gluon.html import TAG #@UnusedImport\n    from gluon.html import TBODY #@UnusedImport\n    from gluon.html import TD #@UnusedImport\n    from gluon.html import TEXTAREA #@UnusedImport\n    from gluon.html import TFOOT #@UnusedImport\n    from gluon.html import TH  #@UnusedImport\n    from gluon.html import THEAD #@UnusedImport\n    from gluon.html import TITLE #@UnusedImport\n    from gluon.html import TR #@UnusedImport\n    from gluon.html import TT #@UnusedImport\n    from gluon.html import UL #@UnusedImport\n    from gluon.html import URL #@UnusedImport\n    from gluon.html import XHTML #@UnusedImport\n    from gluon.html import XML #@UnusedImport\n    from gluon.html import xmlescape #@UnusedImport\n    from gluon.http import HTTP #@UnusedImport\n    from gluon.http import redirect #@UnusedImport\n    import gluon.languages.translator as T #@UnusedImport\n    from gluon.sql import DAL\n    global db; db = DAL()\n    from gluon.sql import SQLDB #@UnusedImport\n    from gluon.sql import SQLField #@UnusedImport\n    from gluon.sqlhtml import SQLFORM #@UnusedImport\n    from gluon.sqlhtml import SQLTABLE #@UnusedImport\n    from gluon.tools import  Auth\n    global auth; auth = Auth()\n    from gluon.tools import Crud\n    global crud; crud = Crud()\n    from gluon.tools import fetch #@UnusedImport\n    from gluon.tools import geocode #@UnusedImport\n    from gluon.tools import Mail\n    global mail; mail = Mail()\n    from gluon.tools import PluginManager\n    global plugins; plugins = PluginManager()\n    from gluon.tools import prettydate #@UnusedImport\n    from gluon.tools import Recaptcha #@UnusedImport\n    from gluon.tools import Service\n    global service; service = Service()\n    from gluon.validators import CLEANUP  #@UnusedImport\n    from gluon.validators import CRYPT #@UnusedImport\n    from gluon.validators import IS_ALPHANUMERIC #@UnusedImport\n    from gluon.validators import IS_DATE #@UnusedImport\n    from gluon.validators import IS_DATE_IN_RANGE #@UnusedImport\n    from gluon.validators import IS_DATETIME #@UnusedImport\n    from gluon.validators import IS_DATETIME_IN_RANGE #@UnusedImport\n    from gluon.validators import IS_DECIMAL_IN_RANGE #@UnusedImport\n    from gluon.validators import IS_EMAIL #@UnusedImport\n    from gluon.validators import IS_EMPTY_OR #@UnusedImport\n    from gluon.validators import IS_EQUAL_TO #@UnusedImport\n    from gluon.validators import IS_EXPR #@UnusedImport\n    from gluon.validators import IS_FLOAT_IN_RANGE #@UnusedImport\n    from gluon.validators import IS_IMAGE #@UnusedImport\n    from gluon.validators import IS_IN_DB #@UnusedImport\n    from gluon.validators import IS_IN_SET #@UnusedImport\n    from gluon.validators import IS_INT_IN_RANGE #@UnusedImport\n    from gluon.validators import IS_IPV4 #@UnusedImport\n    from gluon.validators import IS_LENGTH #@UnusedImport\n    from gluon.validators import IS_LIST_OF #@UnusedImport\n    from gluon.validators import IS_LOWER #@UnusedImport\n    from gluon.validators import IS_MATCH #@UnusedImport\n    from gluon.validators import IS_NOT_EMPTY #@UnusedImport\n    from gluon.validators import IS_NOT_IN_DB #@UnusedImport\n    from gluon.validators import IS_NULL_OR #@UnusedImport\n    from gluon.validators import IS_SLUG #@UnusedImport\n    from gluon.validators import IS_STRONG  #@UnusedImport\n    from gluon.validators import IS_TIME #@UnusedImport\n    from gluon.validators import IS_UPLOAD_FILENAME #@UnusedImport\n    from gluon.validators import IS_UPPER #@UnusedImport\n    from gluon.validators import IS_URL #@UnusedImport\n\n\nclass SELECT_OR_ADD_OPTION(object):\n\n    def __init__(self, controller=None, function=None, form_title=None, button_text = None, dialog_width=450):\n        if form_title == None:\n            self.form_title = T(\'Add New\')\n        else:\n            self.form_title = T(form_title)\n        if button_text == None:\n            self.button_text = T(\'Add\')\n        else:\n            self.button_text = T(button_text)\n        self.dialog_width = dialog_width\n\n        self.controller = controller\n        self.function = function\n    def widget(self, field, value):\n        #generate the standard widget for this field\n        select_widget = OptionsWidget.widget(field, value)\n\n        #get the widget\'s id (need to know later on so can tell receiving controller what to update)\n        my_select_id = select_widget.attributes.get(\'_id\', None) \n        add_args = [my_select_id] \n        #create a div that will load the specified controller via ajax\n        form_loader_div = DIV(LOAD(c=self.controller, f=self.function, args=add_args,ajax=True), _id=my_select_id+"_dialog-form", _title=self.form_title)\n        #generate the "add" button that will appear next the options widget and open our dialog\n        activator_button = A(T(self.button_text), _id=my_select_id+"_option_add_trigger")\n        #create javascript for creating and opening the dialog\n        js = \'$( "#%s_dialog-form" ).dialog({autoOpen: false, show: "blind", hide: "explode", width: %s});\' % (my_select_id, self.dialog_width)\n        js += \'$( "#%s_option_add_trigger" ).click(function() { $( "#%s_dialog-form" ).dialog( "open" );return false;}); \' % (my_select_id, my_select_id)        #decorate our activator button for good measure\n        js += \'$(function() { $( "#%s_option_add_trigger" ).button({text: true, icons: { primary: "ui-icon-circle-plus"} }); });\' % (my_select_id) \n        jq_script=SCRIPT(js, _type="text/javascript")\n\n        wrapper = DIV(_id=my_select_id+"_adder_wrapper")\n        wrapper.components.extend([select_widget, form_loader_div, activator_button, jq_script])\n        return wrapper\n#You assign the widget to a field using\n\n#Initialize the widget\nadd_option = SELECT_OR_ADD_OPTION(form_title="Add a new something", controller="product", function="add_category", button_text = "Add New", dialog_width=500)\n#assign widget to field\ndb.product.category_id.widget = add_option.widget\n'
p7
sS'snapshot'
p8
(dp9
S'exception'
p10
(dp11
S'__hash__'
p12
S"<method-wrapper '__hash__' of exceptions.NameError object at 0x0225F378>"
p13
sS'__setattr__'
p14
S"<method-wrapper '__setattr__' of exceptions.NameError object at 0x0225F378>"
p15
sS'__reduce_ex__'
p16
S'<built-in method __reduce_ex__ of exceptions.NameError object at 0x0225F378>'
p17
sS'__getslice__'
p18
S"<method-wrapper '__getslice__' of exceptions.NameError object at 0x0225F378>"
p19
sS'__getitem__'
p20
S"<method-wrapper '__getitem__' of exceptions.NameError object at 0x0225F378>"
p21
sS'__setstate__'
p22
S'<built-in method __setstate__ of exceptions.NameError object at 0x0225F378>'
p23
sS'__reduce__'
p24
S'<built-in method __reduce__ of exceptions.NameError object at 0x0225F378>'
p25
sS'__str__'
p26
S"<method-wrapper '__str__' of exceptions.NameError object at 0x0225F378>"
p27
sS'args'
p28
S'("global name \'db\' is not defined",)'
p29
sS'__getattribute__'
p30
S"<method-wrapper '__getattribute__' of exceptions.NameError object at 0x0225F378>"
p31
sS'__class__'
p32
S"<type 'exceptions.NameError'>"
p33
sS'__delattr__'
p34
S"<method-wrapper '__delattr__' of exceptions.NameError object at 0x0225F378>"
p35
sS'__repr__'
p36
S"<method-wrapper '__repr__' of exceptions.NameError object at 0x0225F378>"
p37
sS'__dict__'
p38
S'{}'
p39
sS'__doc__'
p40
S"'Name not found globally.'"
p41
sS'__init__'
p42
S"<method-wrapper '__init__' of exceptions.NameError object at 0x0225F378>"
p43
sS'__new__'
p44
S'<built-in method __new__ of type object at 0x1E1CD8D8>'
p45
ssS'evalue'
p46
S"global name 'db' is not defined"
p47
sS'request'
p48
ccopy_reg
_reconstructor
p49
(cgluon.html
BEAUTIFY
p50
c__builtin__
object
p51
NtRp52
(dp53
S'attributes'
p54
(dp55
sS'components'
p56
(lp57
g49
(cgluon.html
TABLE
p58
g51
NtRp59
(dp60
g54
(dp61
S'level'
p62
I5
ssS'parent'
p63
Nsg56
(lp64
g49
(cgluon.html
TR
p65
g51
NtRp66
(dp67
g54
(dp68
sg63
g59
sg56
(lp69
g49
(cgluon.html
TD
p70
g51
NtRp71
(dp72
g54
(dp73
S'_style'
p74
S'font-weight:bold;vertical-align:top'
p75
ssg63
g66
sg56
(lp76
S'ajax'
p77
asbag49
(g70
g51
NtRp78
(dp79
g54
(dp80
S'_valign'
p81
S'top'
p82
ssg63
g66
sg56
(lp83
S':'
asbag49
(g70
g51
NtRp84
(dp85
g54
(dp86
sg63
g66
sg56
(lp87
g49
(g50
g51
NtRp88
(dp89
g54
(dp90
g62
I5
ssg63
g84
sg56
(lp91
S'False'
p92
asbasbasbag49
(g65
g51
NtRp93
(dp94
g54
(dp95
sg63
g59
sg56
(lp96
g49
(g70
g51
NtRp97
(dp98
g54
(dp99
g74
g75
ssg63
g93
sg56
(lp100
S'application'
p101
asbag49
(g70
g51
NtRp102
(dp103
g54
(dp104
g81
g82
ssg63
g93
sg56
(lp105
S':'
asbag49
(g70
g51
NtRp106
(dp107
g54
(dp108
sg63
g93
sg56
(lp109
g49
(g50
g51
NtRp110
(dp111
g54
(dp112
g62
I5
ssg63
g106
sg56
(lp113
S'init'
p114
asbasbasbag49
(g65
g51
NtRp115
(dp116
g54
(dp117
sg63
g59
sg56
(lp118
g49
(g70
g51
NtRp119
(dp120
g54
(dp121
g74
g75
ssg63
g115
sg56
(lp122
g28
asbag49
(g70
g51
NtRp123
(dp124
g54
(dp125
g81
g82
ssg63
g115
sg56
(lp126
S':'
asbag49
(g70
g51
NtRp127
(dp128
g54
(dp129
sg63
g115
sg56
(lp130
g49
(g50
g51
NtRp131
(dp132
g54
(dp133
g62
I5
ssg63
g127
sg56
(lp134
g49
(g58
g51
NtRp135
(dp136
g54
(dp137
g62
I4
ssg63
Nsg56
(lp138
sbasbasbasbag49
(g65
g51
NtRp139
(dp140
g54
(dp141
sg63
g59
sg56
(lp142
g49
(g70
g51
NtRp143
(dp144
g54
(dp145
g74
g75
ssg63
g139
sg56
(lp146
S'body'
p147
asbag49
(g70
g51
NtRp148
(dp149
g54
(dp150
g81
g82
ssg63
g139
sg56
(lp151
S':'
asbag49
(g70
g51
NtRp152
(dp153
g54
(dp154
sg63
g139
sg56
(lp155
g49
(g50
g51
NtRp156
(dp157
g54
(dp158
g62
I5
ssg63
g152
sg56
(lp159
S'<cStringIO.StringO object at 0x022564E0>'
p160
asbasbasbag49
(g65
g51
NtRp161
(dp162
g54
(dp163
sg63
g59
sg56
(lp164
g49
(g70
g51
NtRp165
(dp166
g54
(dp167
g74
g75
ssg63
g161
sg56
(lp168
S'client'
p169
asbag49
(g70
g51
NtRp170
(dp171
g54
(dp172
g81
g82
ssg63
g161
sg56
(lp173
S':'
asbag49
(g70
g51
NtRp174
(dp175
g54
(dp176
sg63
g161
sg56
(lp177
g49
(g50
g51
NtRp178
(dp179
g54
(dp180
g62
I5
ssg63
g174
sg56
(lp181
S'127.0.0.1'
p182
asbasbasbag49
(g65
g51
NtRp183
(dp184
g54
(dp185
sg63
g59
sg56
(lp186
g49
(g70
g51
NtRp187
(dp188
g54
(dp189
g74
g75
ssg63
g183
sg56
(lp190
S'controller'
p191
asbag49
(g70
g51
NtRp192
(dp193
g54
(dp194
g81
g82
ssg63
g183
sg56
(lp195
S':'
asbag49
(g70
g51
NtRp196
(dp197
g54
(dp198
sg63
g183
sg56
(lp199
g49
(g50
g51
NtRp200
(dp201
g54
(dp202
g62
I5
ssg63
g196
sg56
(lp203
S'default'
p204
asbasbasbag49
(g65
g51
NtRp205
(dp206
g54
(dp207
sg63
g59
sg56
(lp208
g49
(g70
g51
NtRp209
(dp210
g54
(dp211
g74
g75
ssg63
g205
sg56
(lp212
S'cookies'
p213
asbag49
(g70
g51
NtRp214
(dp215
g54
(dp216
g81
g82
ssg63
g205
sg56
(lp217
S':'
asbag49
(g70
g51
NtRp218
(dp219
g54
(dp220
sg63
g205
sg56
(lp221
g49
(g50
g51
NtRp222
(dp223
g54
(dp224
g62
I5
ssg63
g218
sg56
(lp225
g49
(g58
g51
NtRp226
(dp227
g54
(dp228
g62
I4
ssg63
Nsg56
(lp229
g49
(g65
g51
NtRp230
(dp231
g54
(dp232
sg63
g226
sg56
(lp233
g49
(g70
g51
NtRp234
(dp235
g54
(dp236
g74
g75
ssg63
g230
sg56
(lp237
S'csrftoken'
p238
asbag49
(g70
g51
NtRp239
(dp240
g54
(dp241
g81
g82
ssg63
g230
sg56
(lp242
S':'
asbag49
(g70
g51
NtRp243
(dp244
g54
(dp245
sg63
g230
sg56
(lp246
g49
(g50
g51
NtRp247
(dp248
g54
(dp249
g62
I4
ssg63
g243
sg56
(lp250
g49
(g58
g51
NtRp251
(dp252
g54
(dp253
g62
I3
ssg63
Nsg56
(lp254
g49
(g65
g51
NtRp255
(dp256
g54
(dp257
sg63
g251
sg56
(lp258
g49
(g70
g51
NtRp259
(dp260
g54
(dp261
g74
g75
ssg63
g255
sg56
(lp262
S'comment'
p263
asbag49
(g70
g51
NtRp264
(dp265
g54
(dp266
g81
g82
ssg63
g255
sg56
(lp267
S':'
asbag49
(g70
g51
NtRp268
(dp269
g54
(dp270
sg63
g255
sg56
(lp271
g49
(g50
g51
NtRp272
(dp273
g54
(dp274
g62
I3
ssg63
g268
sg56
(lp275
S''
asbasbasbag49
(g65
g51
NtRp276
(dp277
g54
(dp278
sg63
g251
sg56
(lp279
g49
(g70
g51
NtRp280
(dp281
g54
(dp282
g74
g75
ssg63
g276
sg56
(lp283
S'domain'
p284
asbag49
(g70
g51
NtRp285
(dp286
g54
(dp287
g81
g82
ssg63
g276
sg56
(lp288
S':'
asbag49
(g70
g51
NtRp289
(dp290
g54
(dp291
sg63
g276
sg56
(lp292
g49
(g50
g51
NtRp293
(dp294
g54
(dp295
g62
I3
ssg63
g289
sg56
(lp296
S''
asbasbasbag49
(g65
g51
NtRp297
(dp298
g54
(dp299
sg63
g251
sg56
(lp300
g49
(g70
g51
NtRp301
(dp302
g54
(dp303
g74
g75
ssg63
g297
sg56
(lp304
S'expires'
p305
asbag49
(g70
g51
NtRp306
(dp307
g54
(dp308
g81
g82
ssg63
g297
sg56
(lp309
S':'
asbag49
(g70
g51
NtRp310
(dp311
g54
(dp312
sg63
g297
sg56
(lp313
g49
(g50
g51
NtRp314
(dp315
g54
(dp316
g62
I3
ssg63
g310
sg56
(lp317
S''
asbasbasbag49
(g65
g51
NtRp318
(dp319
g54
(dp320
sg63
g251
sg56
(lp321
g49
(g70
g51
NtRp322
(dp323
g54
(dp324
g74
g75
ssg63
g318
sg56
(lp325
S'max-age'
p326
asbag49
(g70
g51
NtRp327
(dp328
g54
(dp329
g81
g82
ssg63
g318
sg56
(lp330
S':'
asbag49
(g70
g51
NtRp331
(dp332
g54
(dp333
sg63
g318
sg56
(lp334
g49
(g50
g51
NtRp335
(dp336
g54
(dp337
g62
I3
ssg63
g331
sg56
(lp338
S''
asbasbasbag49
(g65
g51
NtRp339
(dp340
g54
(dp341
sg63
g251
sg56
(lp342
g49
(g70
g51
NtRp343
(dp344
g54
(dp345
g74
g75
ssg63
g339
sg56
(lp346
S'path'
p347
asbag49
(g70
g51
NtRp348
(dp349
g54
(dp350
g81
g82
ssg63
g339
sg56
(lp351
S':'
asbag49
(g70
g51
NtRp352
(dp353
g54
(dp354
sg63
g339
sg56
(lp355
g49
(g50
g51
NtRp356
(dp357
g54
(dp358
g62
I3
ssg63
g352
sg56
(lp359
S''
asbasbasbag49
(g65
g51
NtRp360
(dp361
g54
(dp362
sg63
g251
sg56
(lp363
g49
(g70
g51
NtRp364
(dp365
g54
(dp366
g74
g75
ssg63
g360
sg56
(lp367
S'secure'
p368
asbag49
(g70
g51
NtRp369
(dp370
g54
(dp371
g81
g82
ssg63
g360
sg56
(lp372
S':'
asbag49
(g70
g51
NtRp373
(dp374
g54
(dp375
sg63
g360
sg56
(lp376
g49
(g50
g51
NtRp377
(dp378
g54
(dp379
g62
I3
ssg63
g373
sg56
(lp380
S''
asbasbasbag49
(g65
g51
NtRp381
(dp382
g54
(dp383
sg63
g251
sg56
(lp384
g49
(g70
g51
NtRp385
(dp386
g54
(dp387
g74
g75
ssg63
g381
sg56
(lp388
S'version'
p389
asbag49
(g70
g51
NtRp390
(dp391
g54
(dp392
g81
g82
ssg63
g381
sg56
(lp393
S':'
asbag49
(g70
g51
NtRp394
(dp395
g54
(dp396
sg63
g381
sg56
(lp397
g49
(g50
g51
NtRp398
(dp399
g54
(dp400
g62
I3
ssg63
g394
sg56
(lp401
S''
asbasbasbasbasbasbasbasbasbasbasbag49
(g65
g51
NtRp402
(dp403
g54
(dp404
sg63
g59
sg56
(lp405
g49
(g70
g51
NtRp406
(dp407
g54
(dp408
g74
g75
ssg63
g402
sg56
(lp409
S'env'
p410
asbag49
(g70
g51
NtRp411
(dp412
g54
(dp413
g81
g82
ssg63
g402
sg56
(lp414
S':'
asbag49
(g70
g51
NtRp415
(dp416
g54
(dp417
sg63
g402
sg56
(lp418
g49
(g50
g51
NtRp419
(dp420
g54
(dp421
g62
I5
ssg63
g415
sg56
(lp422
g49
(g58
g51
NtRp423
(dp424
g54
(dp425
g62
I4
ssg63
Nsg56
(lp426
g49
(g65
g51
NtRp427
(dp428
g54
(dp429
sg63
g423
sg56
(lp430
g49
(g70
g51
NtRp431
(dp432
g54
(dp433
g74
g75
ssg63
g427
sg56
(lp434
S'app_folders'
p435
asbag49
(g70
g51
NtRp436
(dp437
g54
(dp438
g81
g82
ssg63
g427
sg56
(lp439
S':'
asbag49
(g70
g51
NtRp440
(dp441
g54
(dp442
sg63
g427
sg56
(lp443
g49
(g50
g51
NtRp444
(dp445
g54
(dp446
g62
I4
ssg63
g440
sg56
(lp447
S"set(['D:\\\\Documents\\\\Workspace\\\\Jack\\\\web2py\\\\applications\\\\init\\\\'])"
p448
asbasbasbag49
(g65
g51
NtRp449
(dp450
g54
(dp451
sg63
g423
sg56
(lp452
g49
(g70
g51
NtRp453
(dp454
g54
(dp455
g74
g75
ssg63
g449
sg56
(lp456
S'applications_parent'
p457
asbag49
(g70
g51
NtRp458
(dp459
g54
(dp460
g81
g82
ssg63
g449
sg56
(lp461
S':'
asbag49
(g70
g51
NtRp462
(dp463
g54
(dp464
sg63
g449
sg56
(lp465
g49
(g50
g51
NtRp466
(dp467
g54
(dp468
g62
I4
ssg63
g462
sg56
(lp469
S'D:\\Documents\\Workspace\\Jack\\web2py'
p470
asbasbasbag49
(g65
g51
NtRp471
(dp472
g54
(dp473
sg63
g423
sg56
(lp474
g49
(g70
g51
NtRp475
(dp476
g54
(dp477
g74
g75
ssg63
g471
sg56
(lp478
S'cmd_args'
p479
asbag49
(g70
g51
NtRp480
(dp481
g54
(dp482
g81
g82
ssg63
g471
sg56
(lp483
S':'
asbag49
(g70
g51
NtRp484
(dp485
g54
(dp486
sg63
g471
sg56
(lp487
g49
(g50
g51
NtRp488
(dp489
g54
(dp490
g62
I4
ssg63
g484
sg56
(lp491
g49
(g58
g51
NtRp492
(dp493
g54
(dp494
g62
I3
ssg63
Nsg56
(lp495
sbasbasbasbag49
(g65
g51
NtRp496
(dp497
g54
(dp498
sg63
g423
sg56
(lp499
g49
(g70
g51
NtRp500
(dp501
g54
(dp502
g74
g75
ssg63
g496
sg56
(lp503
S'cmd_options'
p504
asbag49
(g70
g51
NtRp505
(dp506
g54
(dp507
g81
g82
ssg63
g496
sg56
(lp508
S':'
asbag49
(g70
g51
NtRp509
(dp510
g54
(dp511
sg63
g496
sg56
(lp512
g49
(g50
g51
NtRp513
(dp514
g54
(dp515
g62
I4
ssg63
g509
sg56
(lp516
S"<Values at 0x224ec60: {'verbose': False, 'ip': '127.0.0.1', 'shutdown_timeout': 5, 'taskbar': False, 'nocron': False, 'pid_filename': 'httpserver.pid', 'maxthreads': None, 'softcron': False, 'server_name': 'Pixies', 'bpython': False, 'nogui': False, 'port': 8000, 'extcron': False, 'debuglevel': 30, 'test': None, 'folder': 'D:\\\\Documents\\\\Workspace\\\\Jack\\\\web2py', 'config': '', 'import_models': False, 'winservice': '', 'shell': None, 'run': '', 'log_filename': 'httpserver.log', 'args': [''], 'socket_timeout': 5, 'ssl_ca_certificate': None, 'scheduler': None, 'profiler_filename': None, 'ssl_private_key': '', 'password': '<ask>', 'request_queue_size': 5, 'ssl_certificate': '', 'cronjob': False, 'numthreads': None, 'quiet': False, 'interfaces': None, 'minthreads': None, 'timeout': 10, 'plain': False, 'nobanner': False}>"
p517
asbasbasbag49
(g65
g51
NtRp518
(dp519
g54
(dp520
sg63
g423
sg56
(lp521
g49
(g70
g51
NtRp522
(dp523
g54
(dp524
g74
g75
ssg63
g518
sg56
(lp525
S'db_sessions'
p526
asbag49
(g70
g51
NtRp527
(dp528
g54
(dp529
g81
g82
ssg63
g518
sg56
(lp530
S':'
asbag49
(g70
g51
NtRp531
(dp532
g54
(dp533
sg63
g518
sg56
(lp534
g49
(g50
g51
NtRp535
(dp536
g54
(dp537
g62
I4
ssg63
g531
sg56
(lp538
S'set([])'
p539
asbasbasbag49
(g65
g51
NtRp540
(dp541
g54
(dp542
sg63
g423
sg56
(lp543
g49
(g70
g51
NtRp544
(dp545
g54
(dp546
g74
g75
ssg63
g540
sg56
(lp547
S'debugging'
p548
asbag49
(g70
g51
NtRp549
(dp550
g54
(dp551
g81
g82
ssg63
g540
sg56
(lp552
S':'
asbag49
(g70
g51
NtRp553
(dp554
g54
(dp555
sg63
g540
sg56
(lp556
g49
(g50
g51
NtRp557
(dp558
g54
(dp559
g62
I4
ssg63
g553
sg56
(lp560
S'True'
p561
asbasbasbag49
(g65
g51
NtRp562
(dp563
g54
(dp564
sg63
g423
sg56
(lp565
g49
(g70
g51
NtRp566
(dp567
g54
(dp568
g74
g75
ssg63
g562
sg56
(lp569
S'gluon_parent'
p570
asbag49
(g70
g51
NtRp571
(dp572
g54
(dp573
g81
g82
ssg63
g562
sg56
(lp574
S':'
asbag49
(g70
g51
NtRp575
(dp576
g54
(dp577
sg63
g562
sg56
(lp578
g49
(g50
g51
NtRp579
(dp580
g54
(dp581
g62
I4
ssg63
g575
sg56
(lp582
S'D:\\Documents\\Workspace\\Jack\\web2py'
p583
asbasbasbag49
(g65
g51
NtRp584
(dp585
g54
(dp586
sg63
g423
sg56
(lp587
g49
(g70
g51
NtRp588
(dp589
g54
(dp590
g74
g75
ssg63
g584
sg56
(lp591
S'http_accept'
p592
asbag49
(g70
g51
NtRp593
(dp594
g54
(dp595
g81
g82
ssg63
g584
sg56
(lp596
S':'
asbag49
(g70
g51
NtRp597
(dp598
g54
(dp599
sg63
g584
sg56
(lp600
g49
(g50
g51
NtRp601
(dp602
g54
(dp603
g62
I4
ssg63
g597
sg56
(lp604
S'text/html,application/xhtml+xml,application/xml;q=0.9,*/*;q=0.8'
p605
asbasbasbag49
(g65
g51
NtRp606
(dp607
g54
(dp608
sg63
g423
sg56
(lp609
g49
(g70
g51
NtRp610
(dp611
g54
(dp612
g74
g75
ssg63
g606
sg56
(lp613
S'http_accept_charset'
p614
asbag49
(g70
g51
NtRp615
(dp616
g54
(dp617
g81
g82
ssg63
g606
sg56
(lp618
S':'
asbag49
(g70
g51
NtRp619
(dp620
g54
(dp621
sg63
g606
sg56
(lp622
g49
(g50
g51
NtRp623
(dp624
g54
(dp625
g62
I4
ssg63
g619
sg56
(lp626
S'ISO-8859-1,utf-8;q=0.7,*;q=0.3'
p627
asbasbasbag49
(g65
g51
NtRp628
(dp629
g54
(dp630
sg63
g423
sg56
(lp631
g49
(g70
g51
NtRp632
(dp633
g54
(dp634
g74
g75
ssg63
g628
sg56
(lp635
S'http_accept_encoding'
p636
asbag49
(g70
g51
NtRp637
(dp638
g54
(dp639
g81
g82
ssg63
g628
sg56
(lp640
S':'
asbag49
(g70
g51
NtRp641
(dp642
g54
(dp643
sg63
g628
sg56
(lp644
g49
(g50
g51
NtRp645
(dp646
g54
(dp647
g62
I4
ssg63
g641
sg56
(lp648
S'gzip,deflate,sdch'
p649
asbasbasbag49
(g65
g51
NtRp650
(dp651
g54
(dp652
sg63
g423
sg56
(lp653
g49
(g70
g51
NtRp654
(dp655
g54
(dp656
g74
g75
ssg63
g650
sg56
(lp657
S'http_accept_language'
p658
asbag49
(g70
g51
NtRp659
(dp660
g54
(dp661
g81
g82
ssg63
g650
sg56
(lp662
S':'
asbag49
(g70
g51
NtRp663
(dp664
g54
(dp665
sg63
g650
sg56
(lp666
g49
(g50
g51
NtRp667
(dp668
g54
(dp669
g62
I4
ssg63
g663
sg56
(lp670
S'fr-FR,fr;q=0.8,en-US;q=0.6,en;q=0.4'
p671
asbasbasbag49
(g65
g51
NtRp672
(dp673
g54
(dp674
sg63
g423
sg56
(lp675
g49
(g70
g51
NtRp676
(dp677
g54
(dp678
g74
g75
ssg63
g672
sg56
(lp679
S'http_connection'
p680
asbag49
(g70
g51
NtRp681
(dp682
g54
(dp683
g81
g82
ssg63
g672
sg56
(lp684
S':'
asbag49
(g70
g51
NtRp685
(dp686
g54
(dp687
sg63
g672
sg56
(lp688
g49
(g50
g51
NtRp689
(dp690
g54
(dp691
g62
I4
ssg63
g685
sg56
(lp692
S'keep-alive'
p693
asbasbasbag49
(g65
g51
NtRp694
(dp695
g54
(dp696
sg63
g423
sg56
(lp697
g49
(g70
g51
NtRp698
(dp699
g54
(dp700
g74
g75
ssg63
g694
sg56
(lp701
S'http_cookie'
p702
asbag49
(g70
g51
NtRp703
(dp704
g54
(dp705
g81
g82
ssg63
g694
sg56
(lp706
S':'
asbag49
(g70
g51
NtRp707
(dp708
g54
(dp709
sg63
g694
sg56
(lp710
g49
(g50
g51
NtRp711
(dp712
g54
(dp713
g62
I4
ssg63
g707
sg56
(lp714
S'csrftoken=a9298ec1ad3611c6542175ca18cd07d7'
p715
asbasbasbag49
(g65
g51
NtRp716
(dp717
g54
(dp718
sg63
g423
sg56
(lp719
g49
(g70
g51
NtRp720
(dp721
g54
(dp722
g74
g75
ssg63
g716
sg56
(lp723
S'http_host'
p724
asbag49
(g70
g51
NtRp725
(dp726
g54
(dp727
g81
g82
ssg63
g716
sg56
(lp728
S':'
asbag49
(g70
g51
NtRp729
(dp730
g54
(dp731
sg63
g716
sg56
(lp732
g49
(g50
g51
NtRp733
(dp734
g54
(dp735
g62
I4
ssg63
g729
sg56
(lp736
S'127.0.0.1:8000'
p737
asbasbasbag49
(g65
g51
NtRp738
(dp739
g54
(dp740
sg63
g423
sg56
(lp741
g49
(g70
g51
NtRp742
(dp743
g54
(dp744
g74
g75
ssg63
g738
sg56
(lp745
S'http_user_agent'
p746
asbag49
(g70
g51
NtRp747
(dp748
g54
(dp749
g81
g82
ssg63
g738
sg56
(lp750
S':'
asbag49
(g70
g51
NtRp751
(dp752
g54
(dp753
sg63
g738
sg56
(lp754
g49
(g50
g51
NtRp755
(dp756
g54
(dp757
g62
I4
ssg63
g751
sg56
(lp758
S'Mozilla/5.0 (Windows NT 5.1) AppleWebKit/535.11 (KHTML, like Gecko) Chrome/17.0.963.83 Safari/535.11'
p759
asbasbasbag49
(g65
g51
NtRp760
(dp761
g54
(dp762
sg63
g423
sg56
(lp763
g49
(g70
g51
NtRp764
(dp765
g54
(dp766
g74
g75
ssg63
g760
sg56
(lp767
S'is_jython'
p768
asbag49
(g70
g51
NtRp769
(dp770
g54
(dp771
g81
g82
ssg63
g760
sg56
(lp772
S':'
asbag49
(g70
g51
NtRp773
(dp774
g54
(dp775
sg63
g760
sg56
(lp776
g49
(g50
g51
NtRp777
(dp778
g54
(dp779
g62
I4
ssg63
g773
sg56
(lp780
g92
asbasbasbag49
(g65
g51
NtRp781
(dp782
g54
(dp783
sg63
g423
sg56
(lp784
g49
(g70
g51
NtRp785
(dp786
g54
(dp787
g74
g75
ssg63
g781
sg56
(lp788
S'is_pypy'
p789
asbag49
(g70
g51
NtRp790
(dp791
g54
(dp792
g81
g82
ssg63
g781
sg56
(lp793
S':'
asbag49
(g70
g51
NtRp794
(dp795
g54
(dp796
sg63
g781
sg56
(lp797
g49
(g50
g51
NtRp798
(dp799
g54
(dp800
g62
I4
ssg63
g794
sg56
(lp801
g92
asbasbasbag49
(g65
g51
NtRp802
(dp803
g54
(dp804
sg63
g423
sg56
(lp805
g49
(g70
g51
NtRp806
(dp807
g54
(dp808
g74
g75
ssg63
g802
sg56
(lp809
S'path_info'
p810
asbag49
(g70
g51
NtRp811
(dp812
g54
(dp813
g81
g82
ssg63
g802
sg56
(lp814
S':'
asbag49
(g70
g51
NtRp815
(dp816
g54
(dp817
sg63
g802
sg56
(lp818
g49
(g50
g51
NtRp819
(dp820
g54
(dp821
g62
I4
ssg63
g815
sg56
(lp822
S'/'
asbasbasbag49
(g65
g51
NtRp823
(dp824
g54
(dp825
sg63
g423
sg56
(lp826
g49
(g70
g51
NtRp827
(dp828
g54
(dp829
g74
g75
ssg63
g823
sg56
(lp830
S'query_string'
p831
asbag49
(g70
g51
NtRp832
(dp833
g54
(dp834
g81
g82
ssg63
g823
sg56
(lp835
S':'
asbag49
(g70
g51
NtRp836
(dp837
g54
(dp838
sg63
g823
sg56
(lp839
g49
(g50
g51
NtRp840
(dp841
g54
(dp842
g62
I4
ssg63
g836
sg56
(lp843
S''
asbasbasbag49
(g65
g51
NtRp844
(dp845
g54
(dp846
sg63
g423
sg56
(lp847
g49
(g70
g51
NtRp848
(dp849
g54
(dp850
g74
g75
ssg63
g844
sg56
(lp851
S'remote_addr'
p852
asbag49
(g70
g51
NtRp853
(dp854
g54
(dp855
g81
g82
ssg63
g844
sg56
(lp856
S':'
asbag49
(g70
g51
NtRp857
(dp858
g54
(dp859
sg63
g844
sg56
(lp860
g49
(g50
g51
NtRp861
(dp862
g54
(dp863
g62
I4
ssg63
g857
sg56
(lp864
g182
asbasbasbag49
(g65
g51
NtRp865
(dp866
g54
(dp867
sg63
g423
sg56
(lp868
g49
(g70
g51
NtRp869
(dp870
g54
(dp871
g74
g75
ssg63
g865
sg56
(lp872
S'remote_port'
p873
asbag49
(g70
g51
NtRp874
(dp875
g54
(dp876
g81
g82
ssg63
g865
sg56
(lp877
S':'
asbag49
(g70
g51
NtRp878
(dp879
g54
(dp880
sg63
g865
sg56
(lp881
g49
(g50
g51
NtRp882
(dp883
g54
(dp884
g62
I4
ssg63
g878
sg56
(lp885
S'1688'
p886
asbasbasbag49
(g65
g51
NtRp887
(dp888
g54
(dp889
sg63
g423
sg56
(lp890
g49
(g70
g51
NtRp891
(dp892
g54
(dp893
g74
g75
ssg63
g887
sg56
(lp894
S'request_method'
p895
asbag49
(g70
g51
NtRp896
(dp897
g54
(dp898
g81
g82
ssg63
g887
sg56
(lp899
S':'
asbag49
(g70
g51
NtRp900
(dp901
g54
(dp902
sg63
g887
sg56
(lp903
g49
(g50
g51
NtRp904
(dp905
g54
(dp906
g62
I4
ssg63
g900
sg56
(lp907
S'GET'
p908
asbasbasbag49
(g65
g51
NtRp909
(dp910
g54
(dp911
sg63
g423
sg56
(lp912
g49
(g70
g51
NtRp913
(dp914
g54
(dp915
g74
g75
ssg63
g909
sg56
(lp916
S'script_name'
p917
asbag49
(g70
g51
NtRp918
(dp919
g54
(dp920
g81
g82
ssg63
g909
sg56
(lp921
S':'
asbag49
(g70
g51
NtRp922
(dp923
g54
(dp924
sg63
g909
sg56
(lp925
g49
(g50
g51
NtRp926
(dp927
g54
(dp928
g62
I4
ssg63
g922
sg56
(lp929
S''
asbasbasbag49
(g65
g51
NtRp930
(dp931
g54
(dp932
sg63
g423
sg56
(lp933
g49
(g70
g51
NtRp934
(dp935
g54
(dp936
g74
g75
ssg63
g930
sg56
(lp937
S'server_name'
p938
asbag49
(g70
g51
NtRp939
(dp940
g54
(dp941
g81
g82
ssg63
g930
sg56
(lp942
S':'
asbag49
(g70
g51
NtRp943
(dp944
g54
(dp945
sg63
g930
sg56
(lp946
g49
(g50
g51
NtRp947
(dp948
g54
(dp949
g62
I4
ssg63
g943
sg56
(lp950
S'Pixies'
p951
asbasbasbag49
(g65
g51
NtRp952
(dp953
g54
(dp954
sg63
g423
sg56
(lp955
g49
(g70
g51
NtRp956
(dp957
g54
(dp958
g74
g75
ssg63
g952
sg56
(lp959
S'server_port'
p960
asbag49
(g70
g51
NtRp961
(dp962
g54
(dp963
g81
g82
ssg63
g952
sg56
(lp964
S':'
asbag49
(g70
g51
NtRp965
(dp966
g54
(dp967
sg63
g952
sg56
(lp968
g49
(g50
g51
NtRp969
(dp970
g54
(dp971
g62
I4
ssg63
g965
sg56
(lp972
S'8000'
p973
asbasbasbag49
(g65
g51
NtRp974
(dp975
g54
(dp976
sg63
g423
sg56
(lp977
g49
(g70
g51
NtRp978
(dp979
g54
(dp980
g74
g75
ssg63
g974
sg56
(lp981
S'server_protocol'
p982
asbag49
(g70
g51
NtRp983
(dp984
g54
(dp985
g81
g82
ssg63
g974
sg56
(lp986
S':'
asbag49
(g70
g51
NtRp987
(dp988
g54
(dp989
sg63
g974
sg56
(lp990
g49
(g50
g51
NtRp991
(dp992
g54
(dp993
g62
I4
ssg63
g987
sg56
(lp994
S'HTTP/1.1'
p995
asbasbasbag49
(g65
g51
NtRp996
(dp997
g54
(dp998
sg63
g423
sg56
(lp999
g49
(g70
g51
NtRp1000
(dp1001
g54
(dp1002
g74
g75
ssg63
g996
sg56
(lp1003
S'server_software'
p1004
asbag49
(g70
g51
NtRp1005
(dp1006
g54
(dp1007
g81
g82
ssg63
g996
sg56
(lp1008
S':'
asbag49
(g70
g51
NtRp1009
(dp1010
g54
(dp1011
sg63
g996
sg56
(lp1012
g49
(g50
g51
NtRp1013
(dp1014
g54
(dp1015
g62
I4
ssg63
g1009
sg56
(lp1016
S'Rocket 1.2.4'
p1017
asbasbasbag49
(g65
g51
NtRp1018
(dp1019
g54
(dp1020
sg63
g423
sg56
(lp1021
g49
(g70
g51
NtRp1022
(dp1023
g54
(dp1024
g74
g75
ssg63
g1018
sg56
(lp1025
S'web2py_crontype'
p1026
asbag49
(g70
g51
NtRp1027
(dp1028
g54
(dp1029
g81
g82
ssg63
g1018
sg56
(lp1030
S':'
asbag49
(g70
g51
NtRp1031
(dp1032
g54
(dp1033
sg63
g1018
sg56
(lp1034
g49
(g50
g51
NtRp1035
(dp1036
g54
(dp1037
g62
I4
ssg63
g1031
sg56
(lp1038
S'hard'
p1039
asbasbasbag49
(g65
g51
NtRp1040
(dp1041
g54
(dp1042
sg63
g423
sg56
(lp1043
g49
(g70
g51
NtRp1044
(dp1045
g54
(dp1046
g74
g75
ssg63
g1040
sg56
(lp1047
S'web2py_path'
p1048
asbag49
(g70
g51
NtRp1049
(dp1050
g54
(dp1051
g81
g82
ssg63
g1040
sg56
(lp1052
S':'
asbag49
(g70
g51
NtRp1053
(dp1054
g54
(dp1055
sg63
g1040
sg56
(lp1056
g49
(g50
g51
NtRp1057
(dp1058
g54
(dp1059
g62
I4
ssg63
g1053
sg56
(lp1060
g470
asbasbasbag49
(g65
g51
NtRp1061
(dp1062
g54
(dp1063
sg63
g423
sg56
(lp1064
g49
(g70
g51
NtRp1065
(dp1066
g54
(dp1067
g74
g75
ssg63
g1061
sg56
(lp1068
S'web2py_version'
p1069
asbag49
(g70
g51
NtRp1070
(dp1071
g54
(dp1072
g81
g82
ssg63
g1061
sg56
(lp1073
S':'
asbag49
(g70
g51
NtRp1074
(dp1075
g54
(dp1076
sg63
g1061
sg56
(lp1077
g49
(g50
g51
NtRp1078
(dp1079
g54
(dp1080
g62
I4
ssg63
g1074
sg56
(lp1081
g49
(g58
g51
NtRp1082
(dp1083
g54
(dp1084
g62
I3
ssg63
Nsg56
(lp1085
g49
(g65
g51
NtRp1086
(dp1087
g54
(dp1088
sg63
g1082
sg56
(lp1089
g49
(g70
g51
NtRp1090
(dp1091
g54
(dp1092
sg63
g1086
sg56
(lp1093
g49
(g50
g51
NtRp1094
(dp1095
g54
(dp1096
g62
I3
ssg63
g1090
sg56
(lp1097
S'1'
asbasbasbag49
(g65
g51
NtRp1098
(dp1099
g54
(dp1100
sg63
g1082
sg56
(lp1101
g49
(g70
g51
NtRp1102
(dp1103
g54
(dp1104
sg63
g1098
sg56
(lp1105
g49
(g50
g51
NtRp1106
(dp1107
g54
(dp1108
g62
I3
ssg63
g1102
sg56
(lp1109
S'99'
p1110
asbasbasbag49
(g65
g51
NtRp1111
(dp1112
g54
(dp1113
sg63
g1082
sg56
(lp1114
g49
(g70
g51
NtRp1115
(dp1116
g54
(dp1117
sg63
g1111
sg56
(lp1118
g49
(g50
g51
NtRp1119
(dp1120
g54
(dp1121
g62
I3
ssg63
g1115
sg56
(lp1122
S'7'
asbasbasbag49
(g65
g51
NtRp1123
(dp1124
g54
(dp1125
sg63
g1082
sg56
(lp1126
g49
(g70
g51
NtRp1127
(dp1128
g54
(dp1129
sg63
g1123
sg56
(lp1130
g49
(g50
g51
NtRp1131
(dp1132
g54
(dp1133
g62
I3
ssg63
g1127
sg56
(lp1134
S'datetime.datetime(2012, 3, 4, 22, 12, 8)'
p1135
asbasbasbag49
(g65
g51
NtRp1136
(dp1137
g54
(dp1138
sg63
g1082
sg56
(lp1139
g49
(g70
g51
NtRp1140
(dp1141
g54
(dp1142
sg63
g1136
sg56
(lp1143
g49
(g50
g51
NtRp1144
(dp1145
g54
(dp1146
g62
I3
ssg63
g1140
sg56
(lp1147
S'stable'
p1148
asbasbasbasbasbasbasbag49
(g65
g51
NtRp1149
(dp1150
g54
(dp1151
sg63
g423
sg56
(lp1152
g49
(g70
g51
NtRp1153
(dp1154
g54
(dp1155
g74
g75
ssg63
g1149
sg56
(lp1156
S'wsgi_errors'
p1157
asbag49
(g70
g51
NtRp1158
(dp1159
g54
(dp1160
g81
g82
ssg63
g1149
sg56
(lp1161
S':'
asbag49
(g70
g51
NtRp1162
(dp1163
g54
(dp1164
sg63
g1149
sg56
(lp1165
g49
(g50
g51
NtRp1166
(dp1167
g54
(dp1168
g62
I4
ssg63
g1162
sg56
(lp1169
S"<open file '<stderr>', mode 'w' at 0x009000B0>"
p1170
asbasbasbag49
(g65
g51
NtRp1171
(dp1172
g54
(dp1173
sg63
g423
sg56
(lp1174
g49
(g70
g51
NtRp1175
(dp1176
g54
(dp1177
g74
g75
ssg63
g1171
sg56
(lp1178
S'wsgi_file_wrapper'
p1179
asbag49
(g70
g51
NtRp1180
(dp1181
g54
(dp1182
g81
g82
ssg63
g1171
sg56
(lp1183
S':'
asbag49
(g70
g51
NtRp1184
(dp1185
g54
(dp1186
sg63
g1171
sg56
(lp1187
g49
(g50
g51
NtRp1188
(dp1189
g54
(dp1190
g62
I4
ssg63
g1184
sg56
(lp1191
S'<class wsgiref.util.FileWrapper at 0x015E4600>'
p1192
asbasbasbag49
(g65
g51
NtRp1193
(dp1194
g54
(dp1195
sg63
g423
sg56
(lp1196
g49
(g70
g51
NtRp1197
(dp1198
g54
(dp1199
g74
g75
ssg63
g1193
sg56
(lp1200
S'wsgi_input'
p1201
asbag49
(g70
g51
NtRp1202
(dp1203
g54
(dp1204
g81
g82
ssg63
g1193
sg56
(lp1205
S':'
asbag49
(g70
g51
NtRp1206
(dp1207
g54
(dp1208
sg63
g1193
sg56
(lp1209
g49
(g50
g51
NtRp1210
(dp1211
g54
(dp1212
g62
I4
ssg63
g1206
sg56
(lp1213
S'<socket._fileobject object at 0x0224D770>'
p1214
asbasbasbag49
(g65
g51
NtRp1215
(dp1216
g54
(dp1217
sg63
g423
sg56
(lp1218
g49
(g70
g51
NtRp1219
(dp1220
g54
(dp1221
g74
g75
ssg63
g1215
sg56
(lp1222
S'wsgi_multiprocess'
p1223
asbag49
(g70
g51
NtRp1224
(dp1225
g54
(dp1226
g81
g82
ssg63
g1215
sg56
(lp1227
S':'
asbag49
(g70
g51
NtRp1228
(dp1229
g54
(dp1230
sg63
g1215
sg56
(lp1231
g49
(g50
g51
NtRp1232
(dp1233
g54
(dp1234
g62
I4
ssg63
g1228
sg56
(lp1235
g92
asbasbasbag49
(g65
g51
NtRp1236
(dp1237
g54
(dp1238
sg63
g423
sg56
(lp1239
g49
(g70
g51
NtRp1240
(dp1241
g54
(dp1242
g74
g75
ssg63
g1236
sg56
(lp1243
S'wsgi_multithread'
p1244
asbag49
(g70
g51
NtRp1245
(dp1246
g54
(dp1247
g81
g82
ssg63
g1236
sg56
(lp1248
S':'
asbag49
(g70
g51
NtRp1249
(dp1250
g54
(dp1251
sg63
g1236
sg56
(lp1252
g49
(g50
g51
NtRp1253
(dp1254
g54
(dp1255
g62
I4
ssg63
g1249
sg56
(lp1256
g561
asbasbasbag49
(g65
g51
NtRp1257
(dp1258
g54
(dp1259
sg63
g423
sg56
(lp1260
g49
(g70
g51
NtRp1261
(dp1262
g54
(dp1263
g74
g75
ssg63
g1257
sg56
(lp1264
S'wsgi_run_once'
p1265
asbag49
(g70
g51
NtRp1266
(dp1267
g54
(dp1268
g81
g82
ssg63
g1257
sg56
(lp1269
S':'
asbag49
(g70
g51
NtRp1270
(dp1271
g54
(dp1272
sg63
g1257
sg56
(lp1273
g49
(g50
g51
NtRp1274
(dp1275
g54
(dp1276
g62
I4
ssg63
g1270
sg56
(lp1277
g92
asbasbasbag49
(g65
g51
NtRp1278
(dp1279
g54
(dp1280
sg63
g423
sg56
(lp1281
g49
(g70
g51
NtRp1282
(dp1283
g54
(dp1284
g74
g75
ssg63
g1278
sg56
(lp1285
S'wsgi_url_scheme'
p1286
asbag49
(g70
g51
NtRp1287
(dp1288
g54
(dp1289
g81
g82
ssg63
g1278
sg56
(lp1290
S':'
asbag49
(g70
g51
NtRp1291
(dp1292
g54
(dp1293
sg63
g1278
sg56
(lp1294
g49
(g50
g51
NtRp1295
(dp1296
g54
(dp1297
g62
I4
ssg63
g1291
sg56
(lp1298
S'http'
p1299
asbasbasbag49
(g65
g51
NtRp1300
(dp1301
g54
(dp1302
sg63
g423
sg56
(lp1303
g49
(g70
g51
NtRp1304
(dp1305
g54
(dp1306
g74
g75
ssg63
g1300
sg56
(lp1307
S'wsgi_version'
p1308
asbag49
(g70
g51
NtRp1309
(dp1310
g54
(dp1311
g81
g82
ssg63
g1300
sg56
(lp1312
S':'
asbag49
(g70
g51
NtRp1313
(dp1314
g54
(dp1315
sg63
g1300
sg56
(lp1316
g49
(g50
g51
NtRp1317
(dp1318
g54
(dp1319
g62
I4
ssg63
g1313
sg56
(lp1320
g49
(g58
g51
NtRp1321
(dp1322
g54
(dp1323
g62
I3
ssg63
Nsg56
(lp1324
g49
(g65
g51
NtRp1325
(dp1326
g54
(dp1327
sg63
g1321
sg56
(lp1328
g49
(g70
g51
NtRp1329
(dp1330
g54
(dp1331
sg63
g1325
sg56
(lp1332
g49
(g50
g51
NtRp1333
(dp1334
g54
(dp1335
g62
I3
ssg63
g1329
sg56
(lp1336
S'1'
asbasbasbag49
(g65
g51
NtRp1337
(dp1338
g54
(dp1339
sg63
g1321
sg56
(lp1340
g49
(g70
g51
NtRp1341
(dp1342
g54
(dp1343
sg63
g1337
sg56
(lp1344
g49
(g50
g51
NtRp1345
(dp1346
g54
(dp1347
g62
I3
ssg63
g1341
sg56
(lp1348
S'0'
asbasbasbasbasbasbasbasbasbasbasbag49
(g65
g51
NtRp1349
(dp1350
g54
(dp1351
sg63
g59
sg56
(lp1352
g49
(g70
g51
NtRp1353
(dp1354
g54
(dp1355
g74
g75
ssg63
g1349
sg56
(lp1356
S'extension'
p1357
asbag49
(g70
g51
NtRp1358
(dp1359
g54
(dp1360
g81
g82
ssg63
g1349
sg56
(lp1361
S':'
asbag49
(g70
g51
NtRp1362
(dp1363
g54
(dp1364
sg63
g1349
sg56
(lp1365
g49
(g50
g51
NtRp1366
(dp1367
g54
(dp1368
g62
I5
ssg63
g1362
sg56
(lp1369
S'html'
p1370
asbasbasbag49
(g65
g51
NtRp1371
(dp1372
g54
(dp1373
sg63
g59
sg56
(lp1374
g49
(g70
g51
NtRp1375
(dp1376
g54
(dp1377
g74
g75
ssg63
g1371
sg56
(lp1378
S'folder'
p1379
asbag49
(g70
g51
NtRp1380
(dp1381
g54
(dp1382
g81
g82
ssg63
g1371
sg56
(lp1383
S':'
asbag49
(g70
g51
NtRp1384
(dp1385
g54
(dp1386
sg63
g1371
sg56
(lp1387
g49
(g50
g51
NtRp1388
(dp1389
g54
(dp1390
g62
I5
ssg63
g1384
sg56
(lp1391
S'D:\\Documents\\Workspace\\Jack\\web2py\\applications\\init\\'
p1392
asbasbasbag49
(g65
g51
NtRp1393
(dp1394
g54
(dp1395
sg63
g59
sg56
(lp1396
g49
(g70
g51
NtRp1397
(dp1398
g54
(dp1399
g74
g75
ssg63
g1393
sg56
(lp1400
S'function'
p1401
asbag49
(g70
g51
NtRp1402
(dp1403
g54
(dp1404
g81
g82
ssg63
g1393
sg56
(lp1405
S':'
asbag49
(g70
g51
NtRp1406
(dp1407
g54
(dp1408
sg63
g1393
sg56
(lp1409
g49
(g50
g51
NtRp1410
(dp1411
g54
(dp1412
g62
I5
ssg63
g1406
sg56
(lp1413
S'index'
p1414
asbasbasbag49
(g65
g51
NtRp1415
(dp1416
g54
(dp1417
sg63
g59
sg56
(lp1418
g49
(g70
g51
NtRp1419
(dp1420
g54
(dp1421
g74
g75
ssg63
g1415
sg56
(lp1422
S'get_vars'
p1423
asbag49
(g70
g51
NtRp1424
(dp1425
g54
(dp1426
g81
g82
ssg63
g1415
sg56
(lp1427
S':'
asbag49
(g70
g51
NtRp1428
(dp1429
g54
(dp1430
sg63
g1415
sg56
(lp1431
g49
(g50
g51
NtRp1432
(dp1433
g54
(dp1434
g62
I5
ssg63
g1428
sg56
(lp1435
g49
(g58
g51
NtRp1436
(dp1437
g54
(dp1438
g62
I4
ssg63
Nsg56
(lp1439
sbasbasbasbag49
(g65
g51
NtRp1440
(dp1441
g54
(dp1442
sg63
g59
sg56
(lp1443
g49
(g70
g51
NtRp1444
(dp1445
g54
(dp1446
g74
g75
ssg63
g1440
sg56
(lp1447
S'global_settings'
p1448
asbag49
(g70
g51
NtRp1449
(dp1450
g54
(dp1451
g81
g82
ssg63
g1440
sg56
(lp1452
S':'
asbag49
(g70
g51
NtRp1453
(dp1454
g54
(dp1455
sg63
g1440
sg56
(lp1456
g49
(g50
g51
NtRp1457
(dp1458
g54
(dp1459
g62
I5
ssg63
g1453
sg56
(lp1460
g49
(g58
g51
NtRp1461
(dp1462
g54
(dp1463
g62
I4
ssg63
Nsg56
(lp1464
g49
(g65
g51
NtRp1465
(dp1466
g54
(dp1467
sg63
g1461
sg56
(lp1468
g49
(g70
g51
NtRp1469
(dp1470
g54
(dp1471
g74
g75
ssg63
g1465
sg56
(lp1472
g435
asbag49
(g70
g51
NtRp1473
(dp1474
g54
(dp1475
g81
g82
ssg63
g1465
sg56
(lp1476
S':'
asbag49
(g70
g51
NtRp1477
(dp1478
g54
(dp1479
sg63
g1465
sg56
(lp1480
g49
(g50
g51
NtRp1481
(dp1482
g54
(dp1483
g62
I4
ssg63
g1477
sg56
(lp1484
S"set(['D:\\\\Documents\\\\Workspace\\\\Jack\\\\web2py\\\\applications\\\\init\\\\'])"
p1485
asbasbasbag49
(g65
g51
NtRp1486
(dp1487
g54
(dp1488
sg63
g1461
sg56
(lp1489
g49
(g70
g51
NtRp1490
(dp1491
g54
(dp1492
g74
g75
ssg63
g1486
sg56
(lp1493
g457
asbag49
(g70
g51
NtRp1494
(dp1495
g54
(dp1496
g81
g82
ssg63
g1486
sg56
(lp1497
S':'
asbag49
(g70
g51
NtRp1498
(dp1499
g54
(dp1500
sg63
g1486
sg56
(lp1501
g49
(g50
g51
NtRp1502
(dp1503
g54
(dp1504
g62
I4
ssg63
g1498
sg56
(lp1505
g470
asbasbasbag49
(g65
g51
NtRp1506
(dp1507
g54
(dp1508
sg63
g1461
sg56
(lp1509
g49
(g70
g51
NtRp1510
(dp1511
g54
(dp1512
g74
g75
ssg63
g1506
sg56
(lp1513
g479
asbag49
(g70
g51
NtRp1514
(dp1515
g54
(dp1516
g81
g82
ssg63
g1506
sg56
(lp1517
S':'
asbag49
(g70
g51
NtRp1518
(dp1519
g54
(dp1520
sg63
g1506
sg56
(lp1521
g49
(g50
g51
NtRp1522
(dp1523
g54
(dp1524
g62
I4
ssg63
g1518
sg56
(lp1525
g49
(g58
g51
NtRp1526
(dp1527
g54
(dp1528
g62
I3
ssg63
Nsg56
(lp1529
sbasbasbasbag49
(g65
g51
NtRp1530
(dp1531
g54
(dp1532
sg63
g1461
sg56
(lp1533
g49
(g70
g51
NtRp1534
(dp1535
g54
(dp1536
g74
g75
ssg63
g1530
sg56
(lp1537
g504
asbag49
(g70
g51
NtRp1538
(dp1539
g54
(dp1540
g81
g82
ssg63
g1530
sg56
(lp1541
S':'
asbag49
(g70
g51
NtRp1542
(dp1543
g54
(dp1544
sg63
g1530
sg56
(lp1545
g49
(g50
g51
NtRp1546
(dp1547
g54
(dp1548
g62
I4
ssg63
g1542
sg56
(lp1549
S"<Values at 0x224ec60: {'verbose': False, 'ip': '127.0.0.1', 'shutdown_timeout': 5, 'taskbar': False, 'nocron': False, 'pid_filename': 'httpserver.pid', 'maxthreads': None, 'softcron': False, 'server_name': 'Pixies', 'bpython': False, 'nogui': False, 'port': 8000, 'extcron': False, 'debuglevel': 30, 'test': None, 'folder': 'D:\\\\Documents\\\\Workspace\\\\Jack\\\\web2py', 'config': '', 'import_models': False, 'winservice': '', 'shell': None, 'run': '', 'log_filename': 'httpserver.log', 'args': [''], 'socket_timeout': 5, 'ssl_ca_certificate': None, 'scheduler': None, 'profiler_filename': None, 'ssl_private_key': '', 'password': '<ask>', 'request_queue_size': 5, 'ssl_certificate': '', 'cronjob': False, 'numthreads': None, 'quiet': False, 'interfaces': None, 'minthreads': None, 'timeout': 10, 'plain': False, 'nobanner': False}>"
p1550
asbasbasbag49
(g65
g51
NtRp1551
(dp1552
g54
(dp1553
sg63
g1461
sg56
(lp1554
g49
(g70
g51
NtRp1555
(dp1556
g54
(dp1557
g74
g75
ssg63
g1551
sg56
(lp1558
g526
asbag49
(g70
g51
NtRp1559
(dp1560
g54
(dp1561
g81
g82
ssg63
g1551
sg56
(lp1562
S':'
asbag49
(g70
g51
NtRp1563
(dp1564
g54
(dp1565
sg63
g1551
sg56
(lp1566
g49
(g50
g51
NtRp1567
(dp1568
g54
(dp1569
g62
I4
ssg63
g1563
sg56
(lp1570
S'set([])'
p1571
asbasbasbag49
(g65
g51
NtRp1572
(dp1573
g54
(dp1574
sg63
g1461
sg56
(lp1575
g49
(g70
g51
NtRp1576
(dp1577
g54
(dp1578
g74
g75
ssg63
g1572
sg56
(lp1579
g548
asbag49
(g70
g51
NtRp1580
(dp1581
g54
(dp1582
g81
g82
ssg63
g1572
sg56
(lp1583
S':'
asbag49
(g70
g51
NtRp1584
(dp1585
g54
(dp1586
sg63
g1572
sg56
(lp1587
g49
(g50
g51
NtRp1588
(dp1589
g54
(dp1590
g62
I4
ssg63
g1584
sg56
(lp1591
g561
asbasbasbag49
(g65
g51
NtRp1592
(dp1593
g54
(dp1594
sg63
g1461
sg56
(lp1595
g49
(g70
g51
NtRp1596
(dp1597
g54
(dp1598
g74
g75
ssg63
g1592
sg56
(lp1599
g570
asbag49
(g70
g51
NtRp1600
(dp1601
g54
(dp1602
g81
g82
ssg63
g1592
sg56
(lp1603
S':'
asbag49
(g70
g51
NtRp1604
(dp1605
g54
(dp1606
sg63
g1592
sg56
(lp1607
g49
(g50
g51
NtRp1608
(dp1609
g54
(dp1610
g62
I4
ssg63
g1604
sg56
(lp1611
g583
asbasbasbag49
(g65
g51
NtRp1612
(dp1613
g54
(dp1614
sg63
g1461
sg56
(lp1615
g49
(g70
g51
NtRp1616
(dp1617
g54
(dp1618
g74
g75
ssg63
g1612
sg56
(lp1619
g768
asbag49
(g70
g51
NtRp1620
(dp1621
g54
(dp1622
g81
g82
ssg63
g1612
sg56
(lp1623
S':'
asbag49
(g70
g51
NtRp1624
(dp1625
g54
(dp1626
sg63
g1612
sg56
(lp1627
g49
(g50
g51
NtRp1628
(dp1629
g54
(dp1630
g62
I4
ssg63
g1624
sg56
(lp1631
g92
asbasbasbag49
(g65
g51
NtRp1632
(dp1633
g54
(dp1634
sg63
g1461
sg56
(lp1635
g49
(g70
g51
NtRp1636
(dp1637
g54
(dp1638
g74
g75
ssg63
g1632
sg56
(lp1639
g789
asbag49
(g70
g51
NtRp1640
(dp1641
g54
(dp1642
g81
g82
ssg63
g1632
sg56
(lp1643
S':'
asbag49
(g70
g51
NtRp1644
(dp1645
g54
(dp1646
sg63
g1632
sg56
(lp1647
g49
(g50
g51
NtRp1648
(dp1649
g54
(dp1650
g62
I4
ssg63
g1644
sg56
(lp1651
g92
asbasbasbag49
(g65
g51
NtRp1652
(dp1653
g54
(dp1654
sg63
g1461
sg56
(lp1655
g49
(g70
g51
NtRp1656
(dp1657
g54
(dp1658
g74
g75
ssg63
g1652
sg56
(lp1659
g1026
asbag49
(g70
g51
NtRp1660
(dp1661
g54
(dp1662
g81
g82
ssg63
g1652
sg56
(lp1663
S':'
asbag49
(g70
g51
NtRp1664
(dp1665
g54
(dp1666
sg63
g1652
sg56
(lp1667
g49
(g50
g51
NtRp1668
(dp1669
g54
(dp1670
g62
I4
ssg63
g1664
sg56
(lp1671
g1039
asbasbasbag49
(g65
g51
NtRp1672
(dp1673
g54
(dp1674
sg63
g1461
sg56
(lp1675
g49
(g70
g51
NtRp1676
(dp1677
g54
(dp1678
g74
g75
ssg63
g1672
sg56
(lp1679
g1069
asbag49
(g70
g51
NtRp1680
(dp1681
g54
(dp1682
g81
g82
ssg63
g1672
sg56
(lp1683
S':'
asbag49
(g70
g51
NtRp1684
(dp1685
g54
(dp1686
sg63
g1672
sg56
(lp1687
g49
(g50
g51
NtRp1688
(dp1689
g54
(dp1690
g62
I4
ssg63
g1684
sg56
(lp1691
g49
(g58
g51
NtRp1692
(dp1693
g54
(dp1694
g62
I3
ssg63
Nsg56
(lp1695
g49
(g65
g51
NtRp1696
(dp1697
g54
(dp1698
sg63
g1692
sg56
(lp1699
g49
(g70
g51
NtRp1700
(dp1701
g54
(dp1702
sg63
g1696
sg56
(lp1703
g49
(g50
g51
NtRp1704
(dp1705
g54
(dp1706
g62
I3
ssg63
g1700
sg56
(lp1707
S'1'
asbasbasbag49
(g65
g51
NtRp1708
(dp1709
g54
(dp1710
sg63
g1692
sg56
(lp1711
g49
(g70
g51
NtRp1712
(dp1713
g54
(dp1714
sg63
g1708
sg56
(lp1715
g49
(g50
g51
NtRp1716
(dp1717
g54
(dp1718
g62
I3
ssg63
g1712
sg56
(lp1719
S'99'
p1720
asbasbasbag49
(g65
g51
NtRp1721
(dp1722
g54
(dp1723
sg63
g1692
sg56
(lp1724
g49
(g70
g51
NtRp1725
(dp1726
g54
(dp1727
sg63
g1721
sg56
(lp1728
g49
(g50
g51
NtRp1729
(dp1730
g54
(dp1731
g62
I3
ssg63
g1725
sg56
(lp1732
S'7'
asbasbasbag49
(g65
g51
NtRp1733
(dp1734
g54
(dp1735
sg63
g1692
sg56
(lp1736
g49
(g70
g51
NtRp1737
(dp1738
g54
(dp1739
sg63
g1733
sg56
(lp1740
g49
(g50
g51
NtRp1741
(dp1742
g54
(dp1743
g62
I3
ssg63
g1737
sg56
(lp1744
S'datetime.datetime(2012, 3, 4, 22, 12, 8)'
p1745
asbasbasbag49
(g65
g51
NtRp1746
(dp1747
g54
(dp1748
sg63
g1692
sg56
(lp1749
g49
(g70
g51
NtRp1750
(dp1751
g54
(dp1752
sg63
g1746
sg56
(lp1753
g49
(g50
g51
NtRp1754
(dp1755
g54
(dp1756
g62
I3
ssg63
g1750
sg56
(lp1757
g1148
asbasbasbasbasbasbasbasbasbasbasbag49
(g65
g51
NtRp1758
(dp1759
g54
(dp1760
sg63
g59
sg56
(lp1761
g49
(g70
g51
NtRp1762
(dp1763
g54
(dp1764
g74
g75
ssg63
g1758
sg56
(lp1765
S'is_https'
p1766
asbag49
(g70
g51
NtRp1767
(dp1768
g54
(dp1769
g81
g82
ssg63
g1758
sg56
(lp1770
S':'
asbag49
(g70
g51
NtRp1771
(dp1772
g54
(dp1773
sg63
g1758
sg56
(lp1774
g49
(g50
g51
NtRp1775
(dp1776
g54
(dp1777
g62
I5
ssg63
g1771
sg56
(lp1778
g92
asbasbasbag49
(g65
g51
NtRp1779
(dp1780
g54
(dp1781
sg63
g59
sg56
(lp1782
g49
(g70
g51
NtRp1783
(dp1784
g54
(dp1785
g74
g75
ssg63
g1779
sg56
(lp1786
S'is_local'
p1787
asbag49
(g70
g51
NtRp1788
(dp1789
g54
(dp1790
g81
g82
ssg63
g1779
sg56
(lp1791
S':'
asbag49
(g70
g51
NtRp1792
(dp1793
g54
(dp1794
sg63
g1779
sg56
(lp1795
g49
(g50
g51
NtRp1796
(dp1797
g54
(dp1798
g62
I5
ssg63
g1792
sg56
(lp1799
g561
asbasbasbag49
(g65
g51
NtRp1800
(dp1801
g54
(dp1802
sg63
g59
sg56
(lp1803
g49
(g70
g51
NtRp1804
(dp1805
g54
(dp1806
g74
g75
ssg63
g1800
sg56
(lp1807
S'is_restful'
p1808
asbag49
(g70
g51
NtRp1809
(dp1810
g54
(dp1811
g81
g82
ssg63
g1800
sg56
(lp1812
S':'
asbag49
(g70
g51
NtRp1813
(dp1814
g54
(dp1815
sg63
g1800
sg56
(lp1816
g49
(g50
g51
NtRp1817
(dp1818
g54
(dp1819
g62
I5
ssg63
g1813
sg56
(lp1820
g92
asbasbasbag49
(g65
g51
NtRp1821
(dp1822
g54
(dp1823
sg63
g59
sg56
(lp1824
g49
(g70
g51
NtRp1825
(dp1826
g54
(dp1827
g74
g75
ssg63
g1821
sg56
(lp1828
S'now'
p1829
asbag49
(g70
g51
NtRp1830
(dp1831
g54
(dp1832
g81
g82
ssg63
g1821
sg56
(lp1833
S':'
asbag49
(g70
g51
NtRp1834
(dp1835
g54
(dp1836
sg63
g1821
sg56
(lp1837
g49
(g50
g51
NtRp1838
(dp1839
g54
(dp1840
g62
I5
ssg63
g1834
sg56
(lp1841
S'datetime.datetime(2012, 3, 22, 17, 6, 16, 687000)'
p1842
asbasbasbag49
(g65
g51
NtRp1843
(dp1844
g54
(dp1845
sg63
g59
sg56
(lp1846
g49
(g70
g51
NtRp1847
(dp1848
g54
(dp1849
g74
g75
ssg63
g1843
sg56
(lp1850
S'post_vars'
p1851
asbag49
(g70
g51
NtRp1852
(dp1853
g54
(dp1854
g81
g82
ssg63
g1843
sg56
(lp1855
S':'
asbag49
(g70
g51
NtRp1856
(dp1857
g54
(dp1858
sg63
g1843
sg56
(lp1859
g49
(g50
g51
NtRp1860
(dp1861
g54
(dp1862
g62
I5
ssg63
g1856
sg56
(lp1863
g49
(g58
g51
NtRp1864
(dp1865
g54
(dp1866
g62
I4
ssg63
Nsg56
(lp1867
sbasbasbasbag49
(g65
g51
NtRp1868
(dp1869
g54
(dp1870
sg63
g59
sg56
(lp1871
g49
(g70
g51
NtRp1872
(dp1873
g54
(dp1874
g74
g75
ssg63
g1868
sg56
(lp1875
S'url'
p1876
asbag49
(g70
g51
NtRp1877
(dp1878
g54
(dp1879
g81
g82
ssg63
g1868
sg56
(lp1880
S':'
asbag49
(g70
g51
NtRp1881
(dp1882
g54
(dp1883
sg63
g1868
sg56
(lp1884
g49
(g50
g51
NtRp1885
(dp1886
g54
(dp1887
g62
I5
ssg63
g1881
sg56
(lp1888
S'/init/default/index'
p1889
asbasbasbag49
(g65
g51
NtRp1890
(dp1891
g54
(dp1892
sg63
g59
sg56
(lp1893
g49
(g70
g51
NtRp1894
(dp1895
g54
(dp1896
g74
g75
ssg63
g1890
sg56
(lp1897
S'utcnow'
p1898
asbag49
(g70
g51
NtRp1899
(dp1900
g54
(dp1901
g81
g82
ssg63
g1890
sg56
(lp1902
S':'
asbag49
(g70
g51
NtRp1903
(dp1904
g54
(dp1905
sg63
g1890
sg56
(lp1906
g49
(g50
g51
NtRp1907
(dp1908
g54
(dp1909
g62
I5
ssg63
g1903
sg56
(lp1910
S'datetime.datetime(2012, 3, 22, 16, 6, 16, 687000)'
p1911
asbasbasbag49
(g65
g51
NtRp1912
(dp1913
g54
(dp1914
sg63
g59
sg56
(lp1915
g49
(g70
g51
NtRp1916
(dp1917
g54
(dp1918
g74
g75
ssg63
g1912
sg56
(lp1919
S'uuid'
p1920
asbag49
(g70
g51
NtRp1921
(dp1922
g54
(dp1923
g81
g82
ssg63
g1912
sg56
(lp1924
S':'
asbag49
(g70
g51
NtRp1925
(dp1926
g54
(dp1927
sg63
g1912
sg56
(lp1928
g49
(g50
g51
NtRp1929
(dp1930
g54
(dp1931
g62
I5
ssg63
g1925
sg56
(lp1932
S'init/127.0.0.1.2012-03-22.17-06-16.8cc5054f-16db-409f-aa49-096565abddfd'
p1933
asbasbasbag49
(g65
g51
NtRp1934
(dp1935
g54
(dp1936
sg63
g59
sg56
(lp1937
g49
(g70
g51
NtRp1938
(dp1939
g54
(dp1940
g74
g75
ssg63
g1934
sg56
(lp1941
S'vars'
p1942
asbag49
(g70
g51
NtRp1943
(dp1944
g54
(dp1945
g81
g82
ssg63
g1934
sg56
(lp1946
S':'
asbag49
(g70
g51
NtRp1947
(dp1948
g54
(dp1949
sg63
g1934
sg56
(lp1950
g49
(g50
g51
NtRp1951
(dp1952
g54
(dp1953
g62
I5
ssg63
g1947
sg56
(lp1954
g49
(g58
g51
NtRp1955
(dp1956
g54
(dp1957
g62
I4
ssg63
Nsg56
(lp1958
sbasbasbasbag49
(g65
g51
NtRp1959
(dp1960
g54
(dp1961
sg63
g59
sg56
(lp1962
g49
(g70
g51
NtRp1963
(dp1964
g54
(dp1965
g74
g75
ssg63
g1959
sg56
(lp1966
S'wsgi'
p1967
asbag49
(g70
g51
NtRp1968
(dp1969
g54
(dp1970
g81
g82
ssg63
g1959
sg56
(lp1971
S':'
asbag49
(g70
g51
NtRp1972
(dp1973
g54
(dp1974
sg63
g1959
sg56
(lp1975
g49
(g50
g51
NtRp1976
(dp1977
g54
(dp1978
g62
I5
ssg63
g1972
sg56
(lp1979
g49
(g58
g51
NtRp1980
(dp1981
g54
(dp1982
g62
I4
ssg63
Nsg56
(lp1983
g49
(g65
g51
NtRp1984
(dp1985
g54
(dp1986
sg63
g1980
sg56
(lp1987
g49
(g70
g51
NtRp1988
(dp1989
g54
(dp1990
g74
g75
ssg63
g1984
sg56
(lp1991
S'environ'
p1992
asbag49
(g70
g51
NtRp1993
(dp1994
g54
(dp1995
g81
g82
ssg63
g1984
sg56
(lp1996
S':'
asbag49
(g70
g51
NtRp1997
(dp1998
g54
(dp1999
sg63
g1984
sg56
(lp2000
g49
(g50
g51
NtRp2001
(dp2002
g54
(dp2003
g62
I4
ssg63
g1997
sg56
(lp2004
g49
(g58
g51
NtRp2005
(dp2006
g54
(dp2007
g62
I3
ssg63
Nsg56
(lp2008
g49
(g65
g51
NtRp2009
(dp2010
g54
(dp2011
sg63
g2005
sg56
(lp2012
g49
(g70
g51
NtRp2013
(dp2014
g54
(dp2015
g74
g75
ssg63
g2009
sg56
(lp2016
S'HTTP_ACCEPT'
p2017
asbag49
(g70
g51
NtRp2018
(dp2019
g54
(dp2020
g81
g82
ssg63
g2009
sg56
(lp2021
S':'
asbag49
(g70
g51
NtRp2022
(dp2023
g54
(dp2024
sg63
g2009
sg56
(lp2025
g49
(g50
g51
NtRp2026
(dp2027
g54
(dp2028
g62
I3
ssg63
g2022
sg56
(lp2029
g605
asbasbasbag49
(g65
g51
NtRp2030
(dp2031
g54
(dp2032
sg63
g2005
sg56
(lp2033
g49
(g70
g51
NtRp2034
(dp2035
g54
(dp2036
g74
g75
ssg63
g2030
sg56
(lp2037
S'HTTP_ACCEPT_CHARSET'
p2038
asbag49
(g70
g51
NtRp2039
(dp2040
g54
(dp2041
g81
g82
ssg63
g2030
sg56
(lp2042
S':'
asbag49
(g70
g51
NtRp2043
(dp2044
g54
(dp2045
sg63
g2030
sg56
(lp2046
g49
(g50
g51
NtRp2047
(dp2048
g54
(dp2049
g62
I3
ssg63
g2043
sg56
(lp2050
g627
asbasbasbag49
(g65
g51
NtRp2051
(dp2052
g54
(dp2053
sg63
g2005
sg56
(lp2054
g49
(g70
g51
NtRp2055
(dp2056
g54
(dp2057
g74
g75
ssg63
g2051
sg56
(lp2058
S'HTTP_ACCEPT_ENCODING'
p2059
asbag49
(g70
g51
NtRp2060
(dp2061
g54
(dp2062
g81
g82
ssg63
g2051
sg56
(lp2063
S':'
asbag49
(g70
g51
NtRp2064
(dp2065
g54
(dp2066
sg63
g2051
sg56
(lp2067
g49
(g50
g51
NtRp2068
(dp2069
g54
(dp2070
g62
I3
ssg63
g2064
sg56
(lp2071
g649
asbasbasbag49
(g65
g51
NtRp2072
(dp2073
g54
(dp2074
sg63
g2005
sg56
(lp2075
g49
(g70
g51
NtRp2076
(dp2077
g54
(dp2078
g74
g75
ssg63
g2072
sg56
(lp2079
S'HTTP_ACCEPT_LANGUAGE'
p2080
asbag49
(g70
g51
NtRp2081
(dp2082
g54
(dp2083
g81
g82
ssg63
g2072
sg56
(lp2084
S':'
asbag49
(g70
g51
NtRp2085
(dp2086
g54
(dp2087
sg63
g2072
sg56
(lp2088
g49
(g50
g51
NtRp2089
(dp2090
g54
(dp2091
g62
I3
ssg63
g2085
sg56
(lp2092
g671
asbasbasbag49
(g65
g51
NtRp2093
(dp2094
g54
(dp2095
sg63
g2005
sg56
(lp2096
g49
(g70
g51
NtRp2097
(dp2098
g54
(dp2099
g74
g75
ssg63
g2093
sg56
(lp2100
S'HTTP_CONNECTION'
p2101
asbag49
(g70
g51
NtRp2102
(dp2103
g54
(dp2104
g81
g82
ssg63
g2093
sg56
(lp2105
S':'
asbag49
(g70
g51
NtRp2106
(dp2107
g54
(dp2108
sg63
g2093
sg56
(lp2109
g49
(g50
g51
NtRp2110
(dp2111
g54
(dp2112
g62
I3
ssg63
g2106
sg56
(lp2113
g693
asbasbasbag49
(g65
g51
NtRp2114
(dp2115
g54
(dp2116
sg63
g2005
sg56
(lp2117
g49
(g70
g51
NtRp2118
(dp2119
g54
(dp2120
g74
g75
ssg63
g2114
sg56
(lp2121
S'HTTP_COOKIE'
p2122
asbag49
(g70
g51
NtRp2123
(dp2124
g54
(dp2125
g81
g82
ssg63
g2114
sg56
(lp2126
S':'
asbag49
(g70
g51
NtRp2127
(dp2128
g54
(dp2129
sg63
g2114
sg56
(lp2130
g49
(g50
g51
NtRp2131
(dp2132
g54
(dp2133
g62
I3
ssg63
g2127
sg56
(lp2134
g715
asbasbasbag49
(g65
g51
NtRp2135
(dp2136
g54
(dp2137
sg63
g2005
sg56
(lp2138
g49
(g70
g51
NtRp2139
(dp2140
g54
(dp2141
g74
g75
ssg63
g2135
sg56
(lp2142
S'HTTP_HOST'
p2143
asbag49
(g70
g51
NtRp2144
(dp2145
g54
(dp2146
g81
g82
ssg63
g2135
sg56
(lp2147
S':'
asbag49
(g70
g51
NtRp2148
(dp2149
g54
(dp2150
sg63
g2135
sg56
(lp2151
g49
(g50
g51
NtRp2152
(dp2153
g54
(dp2154
g62
I3
ssg63
g2148
sg56
(lp2155
g737
asbasbasbag49
(g65
g51
NtRp2156
(dp2157
g54
(dp2158
sg63
g2005
sg56
(lp2159
g49
(g70
g51
NtRp2160
(dp2161
g54
(dp2162
g74
g75
ssg63
g2156
sg56
(lp2163
S'HTTP_USER_AGENT'
p2164
asbag49
(g70
g51
NtRp2165
(dp2166
g54
(dp2167
g81
g82
ssg63
g2156
sg56
(lp2168
S':'
asbag49
(g70
g51
NtRp2169
(dp2170
g54
(dp2171
sg63
g2156
sg56
(lp2172
g49
(g50
g51
NtRp2173
(dp2174
g54
(dp2175
g62
I3
ssg63
g2169
sg56
(lp2176
g759
asbasbasbag49
(g65
g51
NtRp2177
(dp2178
g54
(dp2179
sg63
g2005
sg56
(lp2180
g49
(g70
g51
NtRp2181
(dp2182
g54
(dp2183
g74
g75
ssg63
g2177
sg56
(lp2184
S'PATH_INFO'
p2185
asbag49
(g70
g51
NtRp2186
(dp2187
g54
(dp2188
g81
g82
ssg63
g2177
sg56
(lp2189
S':'
asbag49
(g70
g51
NtRp2190
(dp2191
g54
(dp2192
sg63
g2177
sg56
(lp2193
g49
(g50
g51
NtRp2194
(dp2195
g54
(dp2196
g62
I3
ssg63
g2190
sg56
(lp2197
S'/'
asbasbasbag49
(g65
g51
NtRp2198
(dp2199
g54
(dp2200
sg63
g2005
sg56
(lp2201
g49
(g70
g51
NtRp2202
(dp2203
g54
(dp2204
g74
g75
ssg63
g2198
sg56
(lp2205
S'QUERY_STRING'
p2206
asbag49
(g70
g51
NtRp2207
(dp2208
g54
(dp2209
g81
g82
ssg63
g2198
sg56
(lp2210
S':'
asbag49
(g70
g51
NtRp2211
(dp2212
g54
(dp2213
sg63
g2198
sg56
(lp2214
g49
(g50
g51
NtRp2215
(dp2216
g54
(dp2217
g62
I3
ssg63
g2211
sg56
(lp2218
S''
asbasbasbag49
(g65
g51
NtRp2219
(dp2220
g54
(dp2221
sg63
g2005
sg56
(lp2222
g49
(g70
g51
NtRp2223
(dp2224
g54
(dp2225
g74
g75
ssg63
g2219
sg56
(lp2226
S'REMOTE_ADDR'
p2227
asbag49
(g70
g51
NtRp2228
(dp2229
g54
(dp2230
g81
g82
ssg63
g2219
sg56
(lp2231
S':'
asbag49
(g70
g51
NtRp2232
(dp2233
g54
(dp2234
sg63
g2219
sg56
(lp2235
g49
(g50
g51
NtRp2236
(dp2237
g54
(dp2238
g62
I3
ssg63
g2232
sg56
(lp2239
g182
asbasbasbag49
(g65
g51
NtRp2240
(dp2241
g54
(dp2242
sg63
g2005
sg56
(lp2243
g49
(g70
g51
NtRp2244
(dp2245
g54
(dp2246
g74
g75
ssg63
g2240
sg56
(lp2247
S'REMOTE_PORT'
p2248
asbag49
(g70
g51
NtRp2249
(dp2250
g54
(dp2251
g81
g82
ssg63
g2240
sg56
(lp2252
S':'
asbag49
(g70
g51
NtRp2253
(dp2254
g54
(dp2255
sg63
g2240
sg56
(lp2256
g49
(g50
g51
NtRp2257
(dp2258
g54
(dp2259
g62
I3
ssg63
g2253
sg56
(lp2260
g886
asbasbasbag49
(g65
g51
NtRp2261
(dp2262
g54
(dp2263
sg63
g2005
sg56
(lp2264
g49
(g70
g51
NtRp2265
(dp2266
g54
(dp2267
g74
g75
ssg63
g2261
sg56
(lp2268
S'REQUEST_METHOD'
p2269
asbag49
(g70
g51
NtRp2270
(dp2271
g54
(dp2272
g81
g82
ssg63
g2261
sg56
(lp2273
S':'
asbag49
(g70
g51
NtRp2274
(dp2275
g54
(dp2276
sg63
g2261
sg56
(lp2277
g49
(g50
g51
NtRp2278
(dp2279
g54
(dp2280
g62
I3
ssg63
g2274
sg56
(lp2281
g908
asbasbasbag49
(g65
g51
NtRp2282
(dp2283
g54
(dp2284
sg63
g2005
sg56
(lp2285
g49
(g70
g51
NtRp2286
(dp2287
g54
(dp2288
g74
g75
ssg63
g2282
sg56
(lp2289
S'SCRIPT_NAME'
p2290
asbag49
(g70
g51
NtRp2291
(dp2292
g54
(dp2293
g81
g82
ssg63
g2282
sg56
(lp2294
S':'
asbag49
(g70
g51
NtRp2295
(dp2296
g54
(dp2297
sg63
g2282
sg56
(lp2298
g49
(g50
g51
NtRp2299
(dp2300
g54
(dp2301
g62
I3
ssg63
g2295
sg56
(lp2302
S''
asbasbasbag49
(g65
g51
NtRp2303
(dp2304
g54
(dp2305
sg63
g2005
sg56
(lp2306
g49
(g70
g51
NtRp2307
(dp2308
g54
(dp2309
g74
g75
ssg63
g2303
sg56
(lp2310
S'SERVER_NAME'
p2311
asbag49
(g70
g51
NtRp2312
(dp2313
g54
(dp2314
g81
g82
ssg63
g2303
sg56
(lp2315
S':'
asbag49
(g70
g51
NtRp2316
(dp2317
g54
(dp2318
sg63
g2303
sg56
(lp2319
g49
(g50
g51
NtRp2320
(dp2321
g54
(dp2322
g62
I3
ssg63
g2316
sg56
(lp2323
g951
asbasbasbag49
(g65
g51
NtRp2324
(dp2325
g54
(dp2326
sg63
g2005
sg56
(lp2327
g49
(g70
g51
NtRp2328
(dp2329
g54
(dp2330
g74
g75
ssg63
g2324
sg56
(lp2331
S'SERVER_PORT'
p2332
asbag49
(g70
g51
NtRp2333
(dp2334
g54
(dp2335
g81
g82
ssg63
g2324
sg56
(lp2336
S':'
asbag49
(g70
g51
NtRp2337
(dp2338
g54
(dp2339
sg63
g2324
sg56
(lp2340
g49
(g50
g51
NtRp2341
(dp2342
g54
(dp2343
g62
I3
ssg63
g2337
sg56
(lp2344
g973
asbasbasbag49
(g65
g51
NtRp2345
(dp2346
g54
(dp2347
sg63
g2005
sg56
(lp2348
g49
(g70
g51
NtRp2349
(dp2350
g54
(dp2351
g74
g75
ssg63
g2345
sg56
(lp2352
S'SERVER_PROTOCOL'
p2353
asbag49
(g70
g51
NtRp2354
(dp2355
g54
(dp2356
g81
g82
ssg63
g2345
sg56
(lp2357
S':'
asbag49
(g70
g51
NtRp2358
(dp2359
g54
(dp2360
sg63
g2345
sg56
(lp2361
g49
(g50
g51
NtRp2362
(dp2363
g54
(dp2364
g62
I3
ssg63
g2358
sg56
(lp2365
g995
asbasbasbag49
(g65
g51
NtRp2366
(dp2367
g54
(dp2368
sg63
g2005
sg56
(lp2369
g49
(g70
g51
NtRp2370
(dp2371
g54
(dp2372
g74
g75
ssg63
g2366
sg56
(lp2373
S'SERVER_SOFTWARE'
p2374
asbag49
(g70
g51
NtRp2375
(dp2376
g54
(dp2377
g81
g82
ssg63
g2366
sg56
(lp2378
S':'
asbag49
(g70
g51
NtRp2379
(dp2380
g54
(dp2381
sg63
g2366
sg56
(lp2382
g49
(g50
g51
NtRp2383
(dp2384
g54
(dp2385
g62
I3
ssg63
g2379
sg56
(lp2386
g1017
asbasbasbag49
(g65
g51
NtRp2387
(dp2388
g54
(dp2389
sg63
g2005
sg56
(lp2390
g49
(g70
g51
NtRp2391
(dp2392
g54
(dp2393
g74
g75
ssg63
g2387
sg56
(lp2394
S'wsgi.errors'
p2395
asbag49
(g70
g51
NtRp2396
(dp2397
g54
(dp2398
g81
g82
ssg63
g2387
sg56
(lp2399
S':'
asbag49
(g70
g51
NtRp2400
(dp2401
g54
(dp2402
sg63
g2387
sg56
(lp2403
g49
(g50
g51
NtRp2404
(dp2405
g54
(dp2406
g62
I3
ssg63
g2400
sg56
(lp2407
S"<open file '<stderr>', mode 'w' at 0x009000B0>"
p2408
asbasbasbag49
(g65
g51
NtRp2409
(dp2410
g54
(dp2411
sg63
g2005
sg56
(lp2412
g49
(g70
g51
NtRp2413
(dp2414
g54
(dp2415
g74
g75
ssg63
g2409
sg56
(lp2416
S'wsgi.file_wrapper'
p2417
asbag49
(g70
g51
NtRp2418
(dp2419
g54
(dp2420
g81
g82
ssg63
g2409
sg56
(lp2421
S':'
asbag49
(g70
g51
NtRp2422
(dp2423
g54
(dp2424
sg63
g2409
sg56
(lp2425
g49
(g50
g51
NtRp2426
(dp2427
g54
(dp2428
g62
I3
ssg63
g2422
sg56
(lp2429
S'<class wsgiref.util.FileWrapper at 0x015E4600>'
p2430
asbasbasbag49
(g65
g51
NtRp2431
(dp2432
g54
(dp2433
sg63
g2005
sg56
(lp2434
g49
(g70
g51
NtRp2435
(dp2436
g54
(dp2437
g74
g75
ssg63
g2431
sg56
(lp2438
S'wsgi.input'
p2439
asbag49
(g70
g51
NtRp2440
(dp2441
g54
(dp2442
g81
g82
ssg63
g2431
sg56
(lp2443
S':'
asbag49
(g70
g51
NtRp2444
(dp2445
g54
(dp2446
sg63
g2431
sg56
(lp2447
g49
(g50
g51
NtRp2448
(dp2449
g54
(dp2450
g62
I3
ssg63
g2444
sg56
(lp2451
S'<cStringIO.StringO object at 0x022564E0>'
p2452
asbasbasbag49
(g65
g51
NtRp2453
(dp2454
g54
(dp2455
sg63
g2005
sg56
(lp2456
g49
(g70
g51
NtRp2457
(dp2458
g54
(dp2459
g74
g75
ssg63
g2453
sg56
(lp2460
S'wsgi.multiprocess'
p2461
asbag49
(g70
g51
NtRp2462
(dp2463
g54
(dp2464
g81
g82
ssg63
g2453
sg56
(lp2465
S':'
asbag49
(g70
g51
NtRp2466
(dp2467
g54
(dp2468
sg63
g2453
sg56
(lp2469
g49
(g50
g51
NtRp2470
(dp2471
g54
(dp2472
g62
I3
ssg63
g2466
sg56
(lp2473
g92
asbasbasbag49
(g65
g51
NtRp2474
(dp2475
g54
(dp2476
sg63
g2005
sg56
(lp2477
g49
(g70
g51
NtRp2478
(dp2479
g54
(dp2480
g74
g75
ssg63
g2474
sg56
(lp2481
S'wsgi.multithread'
p2482
asbag49
(g70
g51
NtRp2483
(dp2484
g54
(dp2485
g81
g82
ssg63
g2474
sg56
(lp2486
S':'
asbag49
(g70
g51
NtRp2487
(dp2488
g54
(dp2489
sg63
g2474
sg56
(lp2490
g49
(g50
g51
NtRp2491
(dp2492
g54
(dp2493
g62
I3
ssg63
g2487
sg56
(lp2494
g561
asbasbasbag49
(g65
g51
NtRp2495
(dp2496
g54
(dp2497
sg63
g2005
sg56
(lp2498
g49
(g70
g51
NtRp2499
(dp2500
g54
(dp2501
g74
g75
ssg63
g2495
sg56
(lp2502
S'wsgi.run_once'
p2503
asbag49
(g70
g51
NtRp2504
(dp2505
g54
(dp2506
g81
g82
ssg63
g2495
sg56
(lp2507
S':'
asbag49
(g70
g51
NtRp2508
(dp2509
g54
(dp2510
sg63
g2495
sg56
(lp2511
g49
(g50
g51
NtRp2512
(dp2513
g54
(dp2514
g62
I3
ssg63
g2508
sg56
(lp2515
g92
asbasbasbag49
(g65
g51
NtRp2516
(dp2517
g54
(dp2518
sg63
g2005
sg56
(lp2519
g49
(g70
g51
NtRp2520
(dp2521
g54
(dp2522
g74
g75
ssg63
g2516
sg56
(lp2523
S'wsgi.url_scheme'
p2524
asbag49
(g70
g51
NtRp2525
(dp2526
g54
(dp2527
g81
g82
ssg63
g2516
sg56
(lp2528
S':'
asbag49
(g70
g51
NtRp2529
(dp2530
g54
(dp2531
sg63
g2516
sg56
(lp2532
g49
(g50
g51
NtRp2533
(dp2534
g54
(dp2535
g62
I3
ssg63
g2529
sg56
(lp2536
g1299
asbasbasbag49
(g65
g51
NtRp2537
(dp2538
g54
(dp2539
sg63
g2005
sg56
(lp2540
g49
(g70
g51
NtRp2541
(dp2542
g54
(dp2543
g74
g75
ssg63
g2537
sg56
(lp2544
S'wsgi.version'
p2545
asbag49
(g70
g51
NtRp2546
(dp2547
g54
(dp2548
g81
g82
ssg63
g2537
sg56
(lp2549
S':'
asbag49
(g70
g51
NtRp2550
(dp2551
g54
(dp2552
sg63
g2537
sg56
(lp2553
g49
(g50
g51
NtRp2554
(dp2555
g54
(dp2556
g62
I3
ssg63
g2550
sg56
(lp2557
S'1'
asbasbasbasbasbasbasbasbasbasbasbasbasbsS'frames'
p2558
(lp2559
(dp2560
S'file'
p2561
S'D:\\Documents\\Workspace\\Jack\\web2py\\gluon\\restricted.py'
p2562
sS'dump'
p2563
(dp2564
sS'lnum'
p2565
I205
sS'lines'
p2566
(dp2567
I200
S'    try:'
p2568
sI201
S'        if type(code) == types.CodeType:'
p2569
sI202
S'            ccode = code'
p2570
sI203
S'        else:'
p2571
sI204
S'            ccode = compile2(code,layer)'
p2572
sI205
S'        exec ccode in environment'
p2573
sI206
S'    except HTTP:'
p2574
sI207
S'        raise'
p2575
sI208
S'    except RestrictedError:'
p2576
sI209
S'        # do not encapsulate (obfuscate) the original RestrictedError'
p2577
ssS'call'
p2578
S"(code='from gluon.sqlhtml import *\\n\\nif 0: \\n    import g...b.product.category_id.widget = add_option.widget\\n', environment={'A': <class 'gluon.html.A'>, 'AutocompleteWidget': <class 'gluon.sqlhtml.AutocompleteWidget'>, 'B': <class 'gluon.html.B'>, 'BEAUTIFY': <class 'gluon.html.BEAUTIFY'>, 'BODY': <class 'gluon.html.BODY'>, 'BR': <class 'gluon.html.BR'>, 'BUTTON': <class 'gluon.html.BUTTON'>, 'BooleanWidget': <class 'gluon.sqlhtml.BooleanWidget'>, 'CALLABLETYPES': (<type 'function'>, <type 'function'>, <type 'builtin_function_or_method'>, <type 'instancemethod'>, <type 'builtin_function_or_method'>), 'CAT': <class 'gluon.html.CAT'>, ...}, layer=r'D:\\Documents\\Workspace\\Jack\\web2py\\applications\\init\\models\\A_widget.py')"
p2579
sS'func'
p2580
S'restricted'
p2581
sa(dp2582
g2561
S'D:\\Documents\\Workspace\\Jack\\web2py\\applications\\init\\models\\A_widget.py'
p2583
sg2563
(dp2584
sg2565
I169
sg2566
(dp2585
I160
S''
sI161
S'        wrapper = DIV(_id=my_select_id+"_adder_wrapper")'
p2586
sI162
S'        wrapper.components.extend([select_widget, form_loader_div, activator_button, jq_script])'
p2587
sI163
S'        return wrapper'
p2588
sI164
S'#You assign the widget to a field using'
p2589
sI165
S''
sI166
S'#Initialize the widget'
p2590
sI167
S'add_option = SELECT_OR_ADD_OPTION(form_title="Add a new something", controller="product", function="add_category", button_text = "Add New", dialog_width=500)'
p2591
sI168
S'#assign widget to field'
p2592
sI169
S'db.product.category_id.widget = add_option.widget'
p2593
ssg2578
S'()'
p2594
sg2580
S'<module>'
p2595
sasS'pyver'
p2596
S'Python 2.5.4: D:\\Documents\\Workspace\\Jack\\web2py\\web2py.exe'
p2597
sS'session'
p2598
g49
(g50
g51
NtRp2599
(dp2600
g54
(dp2601
sg56
(lp2602
g49
(g58
g51
NtRp2603
(dp2604
g54
(dp2605
g62
I5
ssg63
Nsg56
(lp2606
sbasbsS'etype'
p2607
S"<type 'exceptions.NameError'>"
p2608
sS'date'
p2609
S'Thu Mar 22 17:06:16 2012'
p2610
sS'response'
p2611
g49
(g50
g51
NtRp2612
(dp2613
g54
(dp2614
sg56
(lp2615
g49
(g58
g51
NtRp2616
(dp2617
g54
(dp2618
g62
I5
ssg63
Nsg56
(lp2619
g49
(g65
g51
NtRp2620
(dp2621
g54
(dp2622
sg63
g2616
sg56
(lp2623
g49
(g70
g51
NtRp2624
(dp2625
g54
(dp2626
g74
g75
ssg63
g2620
sg56
(lp2627
g147
asbag49
(g70
g51
NtRp2628
(dp2629
g54
(dp2630
g81
g82
ssg63
g2620
sg56
(lp2631
S':'
asbag49
(g70
g51
NtRp2632
(dp2633
g54
(dp2634
sg63
g2620
sg56
(lp2635
g49
(g50
g51
NtRp2636
(dp2637
g54
(dp2638
g62
I5
ssg63
g2632
sg56
(lp2639
S'<cStringIO.StringO object at 0x02256440>'
p2640
asbasbasbag49
(g65
g51
NtRp2641
(dp2642
g54
(dp2643
sg63
g2616
sg56
(lp2644
g49
(g70
g51
NtRp2645
(dp2646
g54
(dp2647
g74
g75
ssg63
g2641
sg56
(lp2648
g213
asbag49
(g70
g51
NtRp2649
(dp2650
g54
(dp2651
g81
g82
ssg63
g2641
sg56
(lp2652
S':'
asbag49
(g70
g51
NtRp2653
(dp2654
g54
(dp2655
sg63
g2641
sg56
(lp2656
g49
(g50
g51
NtRp2657
(dp2658
g54
(dp2659
g62
I5
ssg63
g2653
sg56
(lp2660
g49
(g58
g51
NtRp2661
(dp2662
g54
(dp2663
g62
I4
ssg63
Nsg56
(lp2664
g49
(g65
g51
NtRp2665
(dp2666
g54
(dp2667
sg63
g2661
sg56
(lp2668
g49
(g70
g51
NtRp2669
(dp2670
g54
(dp2671
g74
g75
ssg63
g2665
sg56
(lp2672
S'session_id_init'
p2673
asbag49
(g70
g51
NtRp2674
(dp2675
g54
(dp2676
g81
g82
ssg63
g2665
sg56
(lp2677
S':'
asbag49
(g70
g51
NtRp2678
(dp2679
g54
(dp2680
sg63
g2665
sg56
(lp2681
g49
(g50
g51
NtRp2682
(dp2683
g54
(dp2684
g62
I4
ssg63
g2678
sg56
(lp2685
g49
(g58
g51
NtRp2686
(dp2687
g54
(dp2688
g62
I3
ssg63
Nsg56
(lp2689
g49
(g65
g51
NtRp2690
(dp2691
g54
(dp2692
sg63
g2686
sg56
(lp2693
g49
(g70
g51
NtRp2694
(dp2695
g54
(dp2696
g74
g75
ssg63
g2690
sg56
(lp2697
g263
asbag49
(g70
g51
NtRp2698
(dp2699
g54
(dp2700
g81
g82
ssg63
g2690
sg56
(lp2701
S':'
asbag49
(g70
g51
NtRp2702
(dp2703
g54
(dp2704
sg63
g2690
sg56
(lp2705
g49
(g50
g51
NtRp2706
(dp2707
g54
(dp2708
g62
I3
ssg63
g2702
sg56
(lp2709
S''
asbasbasbag49
(g65
g51
NtRp2710
(dp2711
g54
(dp2712
sg63
g2686
sg56
(lp2713
g49
(g70
g51
NtRp2714
(dp2715
g54
(dp2716
g74
g75
ssg63
g2710
sg56
(lp2717
g284
asbag49
(g70
g51
NtRp2718
(dp2719
g54
(dp2720
g81
g82
ssg63
g2710
sg56
(lp2721
S':'
asbag49
(g70
g51
NtRp2722
(dp2723
g54
(dp2724
sg63
g2710
sg56
(lp2725
g49
(g50
g51
NtRp2726
(dp2727
g54
(dp2728
g62
I3
ssg63
g2722
sg56
(lp2729
S''
asbasbasbag49
(g65
g51
NtRp2730
(dp2731
g54
(dp2732
sg63
g2686
sg56
(lp2733
g49
(g70
g51
NtRp2734
(dp2735
g54
(dp2736
g74
g75
ssg63
g2730
sg56
(lp2737
g305
asbag49
(g70
g51
NtRp2738
(dp2739
g54
(dp2740
g81
g82
ssg63
g2730
sg56
(lp2741
S':'
asbag49
(g70
g51
NtRp2742
(dp2743
g54
(dp2744
sg63
g2730
sg56
(lp2745
g49
(g50
g51
NtRp2746
(dp2747
g54
(dp2748
g62
I3
ssg63
g2742
sg56
(lp2749
S''
asbasbasbag49
(g65
g51
NtRp2750
(dp2751
g54
(dp2752
sg63
g2686
sg56
(lp2753
g49
(g70
g51
NtRp2754
(dp2755
g54
(dp2756
g74
g75
ssg63
g2750
sg56
(lp2757
g326
asbag49
(g70
g51
NtRp2758
(dp2759
g54
(dp2760
g81
g82
ssg63
g2750
sg56
(lp2761
S':'
asbag49
(g70
g51
NtRp2762
(dp2763
g54
(dp2764
sg63
g2750
sg56
(lp2765
g49
(g50
g51
NtRp2766
(dp2767
g54
(dp2768
g62
I3
ssg63
g2762
sg56
(lp2769
S''
asbasbasbag49
(g65
g51
NtRp2770
(dp2771
g54
(dp2772
sg63
g2686
sg56
(lp2773
g49
(g70
g51
NtRp2774
(dp2775
g54
(dp2776
g74
g75
ssg63
g2770
sg56
(lp2777
g347
asbag49
(g70
g51
NtRp2778
(dp2779
g54
(dp2780
g81
g82
ssg63
g2770
sg56
(lp2781
S':'
asbag49
(g70
g51
NtRp2782
(dp2783
g54
(dp2784
sg63
g2770
sg56
(lp2785
g49
(g50
g51
NtRp2786
(dp2787
g54
(dp2788
g62
I3
ssg63
g2782
sg56
(lp2789
S'/'
asbasbasbag49
(g65
g51
NtRp2790
(dp2791
g54
(dp2792
sg63
g2686
sg56
(lp2793
g49
(g70
g51
NtRp2794
(dp2795
g54
(dp2796
g74
g75
ssg63
g2790
sg56
(lp2797
g368
asbag49
(g70
g51
NtRp2798
(dp2799
g54
(dp2800
g81
g82
ssg63
g2790
sg56
(lp2801
S':'
asbag49
(g70
g51
NtRp2802
(dp2803
g54
(dp2804
sg63
g2790
sg56
(lp2805
g49
(g50
g51
NtRp2806
(dp2807
g54
(dp2808
g62
I3
ssg63
g2802
sg56
(lp2809
S''
asbasbasbag49
(g65
g51
NtRp2810
(dp2811
g54
(dp2812
sg63
g2686
sg56
(lp2813
g49
(g70
g51
NtRp2814
(dp2815
g54
(dp2816
g74
g75
ssg63
g2810
sg56
(lp2817
g389
asbag49
(g70
g51
NtRp2818
(dp2819
g54
(dp2820
g81
g82
ssg63
g2810
sg56
(lp2821
S':'
asbag49
(g70
g51
NtRp2822
(dp2823
g54
(dp2824
sg63
g2810
sg56
(lp2825
g49
(g50
g51
NtRp2826
(dp2827
g54
(dp2828
g62
I3
ssg63
g2822
sg56
(lp2829
S''
asbasbasbasbasbasbasbasbasbasbasbag49
(g65
g51
NtRp2830
(dp2831
g54
(dp2832
sg63
g2616
sg56
(lp2833
g49
(g70
g51
NtRp2834
(dp2835
g54
(dp2836
g74
g75
ssg63
g2830
sg56
(lp2837
S'delimiters'
p2838
asbag49
(g70
g51
NtRp2839
(dp2840
g54
(dp2841
g81
g82
ssg63
g2830
sg56
(lp2842
S':'
asbag49
(g70
g51
NtRp2843
(dp2844
g54
(dp2845
sg63
g2830
sg56
(lp2846
g49
(g50
g51
NtRp2847
(dp2848
g54
(dp2849
g62
I5
ssg63
g2843
sg56
(lp2850
g49
(g58
g51
NtRp2851
(dp2852
g54
(dp2853
g62
I4
ssg63
Nsg56
(lp2854
g49
(g65
g51
NtRp2855
(dp2856
g54
(dp2857
sg63
g2851
sg56
(lp2858
g49
(g70
g51
NtRp2859
(dp2860
g54
(dp2861
sg63
g2855
sg56
(lp2862
g49
(g50
g51
NtRp2863
(dp2864
g54
(dp2865
g62
I4
ssg63
g2859
sg56
(lp2866
S'{{'
p2867
asbasbasbag49
(g65
g51
NtRp2868
(dp2869
g54
(dp2870
sg63
g2851
sg56
(lp2871
g49
(g70
g51
NtRp2872
(dp2873
g54
(dp2874
sg63
g2868
sg56
(lp2875
g49
(g50
g51
NtRp2876
(dp2877
g54
(dp2878
g62
I4
ssg63
g2872
sg56
(lp2879
S'}}'
p2880
asbasbasbasbasbasbasbag49
(g65
g51
NtRp2881
(dp2882
g54
(dp2883
sg63
g2616
sg56
(lp2884
g49
(g70
g51
NtRp2885
(dp2886
g54
(dp2887
g74
g75
ssg63
g2881
sg56
(lp2888
S'files'
p2889
asbag49
(g70
g51
NtRp2890
(dp2891
g54
(dp2892
g81
g82
ssg63
g2881
sg56
(lp2893
S':'
asbag49
(g70
g51
NtRp2894
(dp2895
g54
(dp2896
sg63
g2881
sg56
(lp2897
g49
(g50
g51
NtRp2898
(dp2899
g54
(dp2900
g62
I5
ssg63
g2894
sg56
(lp2901
g49
(g58
g51
NtRp2902
(dp2903
g54
(dp2904
g62
I4
ssg63
Nsg56
(lp2905
sbasbasbasbag49
(g65
g51
NtRp2906
(dp2907
g54
(dp2908
sg63
g2616
sg56
(lp2909
g49
(g70
g51
NtRp2910
(dp2911
g54
(dp2912
g74
g75
ssg63
g2906
sg56
(lp2913
S'flash'
p2914
asbag49
(g70
g51
NtRp2915
(dp2916
g54
(dp2917
g81
g82
ssg63
g2906
sg56
(lp2918
S':'
asbag49
(g70
g51
NtRp2919
(dp2920
g54
(dp2921
sg63
g2906
sg56
(lp2922
g49
(g50
g51
NtRp2923
(dp2924
g54
(dp2925
g62
I5
ssg63
g2919
sg56
(lp2926
S''
asbasbasbag49
(g65
g51
NtRp2927
(dp2928
g54
(dp2929
sg63
g2616
sg56
(lp2930
g49
(g70
g51
NtRp2931
(dp2932
g54
(dp2933
g74
g75
ssg63
g2927
sg56
(lp2934
S'generic_patterns'
p2935
asbag49
(g70
g51
NtRp2936
(dp2937
g54
(dp2938
g81
g82
ssg63
g2927
sg56
(lp2939
S':'
asbag49
(g70
g51
NtRp2940
(dp2941
g54
(dp2942
sg63
g2927
sg56
(lp2943
g49
(g50
g51
NtRp2944
(dp2945
g54
(dp2946
g62
I5
ssg63
g2940
sg56
(lp2947
g49
(g58
g51
NtRp2948
(dp2949
g54
(dp2950
g62
I4
ssg63
Nsg56
(lp2951
sbasbasbasbag49
(g65
g51
NtRp2952
(dp2953
g54
(dp2954
sg63
g2616
sg56
(lp2955
g49
(g70
g51
NtRp2956
(dp2957
g54
(dp2958
g74
g75
ssg63
g2952
sg56
(lp2959
S'headers'
p2960
asbag49
(g70
g51
NtRp2961
(dp2962
g54
(dp2963
g81
g82
ssg63
g2952
sg56
(lp2964
S':'
asbag49
(g70
g51
NtRp2965
(dp2966
g54
(dp2967
sg63
g2952
sg56
(lp2968
g49
(g50
g51
NtRp2969
(dp2970
g54
(dp2971
g62
I5
ssg63
g2965
sg56
(lp2972
g49
(g58
g51
NtRp2973
(dp2974
g54
(dp2975
g62
I4
ssg63
Nsg56
(lp2976
g49
(g65
g51
NtRp2977
(dp2978
g54
(dp2979
sg63
g2973
sg56
(lp2980
g49
(g70
g51
NtRp2981
(dp2982
g54
(dp2983
g74
g75
ssg63
g2977
sg56
(lp2984
S'Cache-Control'
p2985
asbag49
(g70
g51
NtRp2986
(dp2987
g54
(dp2988
g81
g82
ssg63
g2977
sg56
(lp2989
S':'
asbag49
(g70
g51
NtRp2990
(dp2991
g54
(dp2992
sg63
g2977
sg56
(lp2993
g49
(g50
g51
NtRp2994
(dp2995
g54
(dp2996
g62
I4
ssg63
g2990
sg56
(lp2997
S'no-store, no-cache, must-revalidate, post-check=0, pre-check=0'
p2998
asbasbasbag49
(g65
g51
NtRp2999
(dp3000
g54
(dp3001
sg63
g2973
sg56
(lp3002
g49
(g70
g51
NtRp3003
(dp3004
g54
(dp3005
g74
g75
ssg63
g2999
sg56
(lp3006
S'Content-Type'
p3007
asbag49
(g70
g51
NtRp3008
(dp3009
g54
(dp3010
g81
g82
ssg63
g2999
sg56
(lp3011
S':'
asbag49
(g70
g51
NtRp3012
(dp3013
g54
(dp3014
sg63
g2999
sg56
(lp3015
g49
(g50
g51
NtRp3016
(dp3017
g54
(dp3018
g62
I4
ssg63
g3012
sg56
(lp3019
S'text/html; charset=utf-8'
p3020
asbasbasbag49
(g65
g51
NtRp3021
(dp3022
g54
(dp3023
sg63
g2973
sg56
(lp3024
g49
(g70
g51
NtRp3025
(dp3026
g54
(dp3027
g74
g75
ssg63
g3021
sg56
(lp3028
S'Expires'
p3029
asbag49
(g70
g51
NtRp3030
(dp3031
g54
(dp3032
g81
g82
ssg63
g3021
sg56
(lp3033
S':'
asbag49
(g70
g51
NtRp3034
(dp3035
g54
(dp3036
sg63
g3021
sg56
(lp3037
g49
(g50
g51
NtRp3038
(dp3039
g54
(dp3040
g62
I4
ssg63
g3034
sg56
(lp3041
S'Thu, 22 Mar 2012 16:06:16 GMT'
p3042
asbasbasbag49
(g65
g51
NtRp3043
(dp3044
g54
(dp3045
sg63
g2973
sg56
(lp3046
g49
(g70
g51
NtRp3047
(dp3048
g54
(dp3049
g74
g75
ssg63
g3043
sg56
(lp3050
S'Pragma'
p3051
asbag49
(g70
g51
NtRp3052
(dp3053
g54
(dp3054
g81
g82
ssg63
g3043
sg56
(lp3055
S':'
asbag49
(g70
g51
NtRp3056
(dp3057
g54
(dp3058
sg63
g3043
sg56
(lp3059
g49
(g50
g51
NtRp3060
(dp3061
g54
(dp3062
g62
I4
ssg63
g3056
sg56
(lp3063
S'no-cache'
p3064
asbasbasbag49
(g65
g51
NtRp3065
(dp3066
g54
(dp3067
sg63
g2973
sg56
(lp3068
g49
(g70
g51
NtRp3069
(dp3070
g54
(dp3071
g74
g75
ssg63
g3065
sg56
(lp3072
S'X-Powered-By'
p3073
asbag49
(g70
g51
NtRp3074
(dp3075
g54
(dp3076
g81
g82
ssg63
g3065
sg56
(lp3077
S':'
asbag49
(g70
g51
NtRp3078
(dp3079
g54
(dp3080
sg63
g3065
sg56
(lp3081
g49
(g50
g51
NtRp3082
(dp3083
g54
(dp3084
g62
I4
ssg63
g3078
sg56
(lp3085
S'web2py'
p3086
asbasbasbasbasbasbasbag49
(g65
g51
NtRp3087
(dp3088
g54
(dp3089
sg63
g2616
sg56
(lp3090
g49
(g70
g51
NtRp3091
(dp3092
g54
(dp3093
g74
g75
ssg63
g3087
sg56
(lp3094
S'menu'
p3095
asbag49
(g70
g51
NtRp3096
(dp3097
g54
(dp3098
g81
g82
ssg63
g3087
sg56
(lp3099
S':'
asbag49
(g70
g51
NtRp3100
(dp3101
g54
(dp3102
sg63
g3087
sg56
(lp3103
g49
(g50
g51
NtRp3104
(dp3105
g54
(dp3106
g62
I5
ssg63
g3100
sg56
(lp3107
g49
(g58
g51
NtRp3108
(dp3109
g54
(dp3110
g62
I4
ssg63
Nsg56
(lp3111
sbasbasbasbag49
(g65
g51
NtRp3112
(dp3113
g54
(dp3114
sg63
g2616
sg56
(lp3115
g49
(g70
g51
NtRp3116
(dp3117
g54
(dp3118
g74
g75
ssg63
g3112
sg56
(lp3119
S'meta'
p3120
asbag49
(g70
g51
NtRp3121
(dp3122
g54
(dp3123
g81
g82
ssg63
g3112
sg56
(lp3124
S':'
asbag49
(g70
g51
NtRp3125
(dp3126
g54
(dp3127
sg63
g3112
sg56
(lp3128
g49
(g50
g51
NtRp3129
(dp3130
g54
(dp3131
g62
I5
ssg63
g3125
sg56
(lp3132
g49
(g58
g51
NtRp3133
(dp3134
g54
(dp3135
g62
I4
ssg63
Nsg56
(lp3136
sbasbasbasbag49
(g65
g51
NtRp3137
(dp3138
g54
(dp3139
sg63
g2616
sg56
(lp3140
g49
(g70
g51
NtRp3141
(dp3142
g54
(dp3143
g74
g75
ssg63
g3137
sg56
(lp3144
S'postprocessing'
p3145
asbag49
(g70
g51
NtRp3146
(dp3147
g54
(dp3148
g81
g82
ssg63
g3137
sg56
(lp3149
S':'
asbag49
(g70
g51
NtRp3150
(dp3151
g54
(dp3152
sg63
g3137
sg56
(lp3153
g49
(g50
g51
NtRp3154
(dp3155
g54
(dp3156
g62
I5
ssg63
g3150
sg56
(lp3157
g49
(g58
g51
NtRp3158
(dp3159
g54
(dp3160
g62
I4
ssg63
Nsg56
(lp3161
sbasbasbasbag49
(g65
g51
NtRp3162
(dp3163
g54
(dp3164
sg63
g2616
sg56
(lp3165
g49
(g70
g51
NtRp3166
(dp3167
g54
(dp3168
g74
g75
ssg63
g3162
sg56
(lp3169
S'session_filename'
p3170
asbag49
(g70
g51
NtRp3171
(dp3172
g54
(dp3173
g81
g82
ssg63
g3162
sg56
(lp3174
S':'
asbag49
(g70
g51
NtRp3175
(dp3176
g54
(dp3177
sg63
g3162
sg56
(lp3178
g49
(g50
g51
NtRp3179
(dp3180
g54
(dp3181
g62
I5
ssg63
g3175
sg56
(lp3182
S'D:\\Documents\\Workspace\\Jack\\web2py\\applications\\init\\sessions\\127.0.0.1-8afd5728-9bdb-4378-8dc8-6f3b574282bd'
p3183
asbasbasbag49
(g65
g51
NtRp3184
(dp3185
g54
(dp3186
sg63
g2616
sg56
(lp3187
g49
(g70
g51
NtRp3188
(dp3189
g54
(dp3190
g74
g75
ssg63
g3184
sg56
(lp3191
S'session_id'
p3192
asbag49
(g70
g51
NtRp3193
(dp3194
g54
(dp3195
g81
g82
ssg63
g3184
sg56
(lp3196
S':'
asbag49
(g70
g51
NtRp3197
(dp3198
g54
(dp3199
sg63
g3184
sg56
(lp3200
g49
(g50
g51
NtRp3201
(dp3202
g54
(dp3203
g62
I5
ssg63
g3197
sg56
(lp3204
S'127.0.0.1-8afd5728-9bdb-4378-8dc8-6f3b574282bd'
p3205
asbasbasbag49
(g65
g51
NtRp3206
(dp3207
g54
(dp3208
sg63
g2616
sg56
(lp3209
g49
(g70
g51
NtRp3210
(dp3211
g54
(dp3212
g74
g75
ssg63
g3206
sg56
(lp3213
S'session_id_name'
p3214
asbag49
(g70
g51
NtRp3215
(dp3216
g54
(dp3217
g81
g82
ssg63
g3206
sg56
(lp3218
S':'
asbag49
(g70
g51
NtRp3219
(dp3220
g54
(dp3221
sg63
g3206
sg56
(lp3222
g49
(g50
g51
NtRp3223
(dp3224
g54
(dp3225
g62
I5
ssg63
g3219
sg56
(lp3226
g2673
asbasbasbag49
(g65
g51
NtRp3227
(dp3228
g54
(dp3229
sg63
g2616
sg56
(lp3230
g49
(g70
g51
NtRp3231
(dp3232
g54
(dp3233
g74
g75
ssg63
g3227
sg56
(lp3234
S'session_new'
p3235
asbag49
(g70
g51
NtRp3236
(dp3237
g54
(dp3238
g81
g82
ssg63
g3227
sg56
(lp3239
S':'
asbag49
(g70
g51
NtRp3240
(dp3241
g54
(dp3242
sg63
g3227
sg56
(lp3243
g49
(g50
g51
NtRp3244
(dp3245
g54
(dp3246
g62
I5
ssg63
g3240
sg56
(lp3247
g561
asbasbasbag49
(g65
g51
NtRp3248
(dp3249
g54
(dp3250
sg63
g2616
sg56
(lp3251
g49
(g70
g51
NtRp3252
(dp3253
g54
(dp3254
g74
g75
ssg63
g3248
sg56
(lp3255
S'status'
p3256
asbag49
(g70
g51
NtRp3257
(dp3258
g54
(dp3259
g81
g82
ssg63
g3248
sg56
(lp3260
S':'
asbag49
(g70
g51
NtRp3261
(dp3262
g54
(dp3263
sg63
g3248
sg56
(lp3264
g49
(g50
g51
NtRp3265
(dp3266
g54
(dp3267
g62
I5
ssg63
g3261
sg56
(lp3268
S'200'
p3269
asbasbasbag49
(g65
g51
NtRp3270
(dp3271
g54
(dp3272
sg63
g2616
sg56
(lp3273
g49
(g70
g51
NtRp3274
(dp3275
g54
(dp3276
g74
g75
ssg63
g3270
sg56
(lp3277
g1920
asbag49
(g70
g51
NtRp3278
(dp3279
g54
(dp3280
g81
g82
ssg63
g3270
sg56
(lp3281
S':'
asbag49
(g70
g51
NtRp3282
(dp3283
g54
(dp3284
sg63
g3270
sg56
(lp3285
g49
(g50
g51
NtRp3286
(dp3287
g54
(dp3288
g62
I5
ssg63
g3282
sg56
(lp3289
g1933
asbasbasbag49
(g65
g51
NtRp3290
(dp3291
g54
(dp3292
sg63
g2616
sg56
(lp3293
g49
(g70
g51
NtRp3294
(dp3295
g54
(dp3296
g74
g75
ssg63
g3290
sg56
(lp3297
S'view'
p3298
asbag49
(g70
g51
NtRp3299
(dp3300
g54
(dp3301
g81
g82
ssg63
g3290
sg56
(lp3302
S':'
asbag49
(g70
g51
NtRp3303
(dp3304
g54
(dp3305
sg63
g3290
sg56
(lp3306
g49
(g50
g51
NtRp3307
(dp3308
g54
(dp3309
g62
I5
ssg63
g3303
sg56
(lp3310
S'default/index.html'
p3311
asbasbasbasbasbsS'locals'
p3312
(dp3313
S'represent'
p3314
S'<function represent at 0x01055030>'
p3315
sS'OBJECT'
p3316
S"<class 'gluon.html.OBJECT'>"
p3317
sS'SQLDB'
p3318
S"<class 'gluon.dal.DAL'>"
p3319
sg2598
S"<Storage {'_Session__hash': '\\xc8[\\xd5\\xc1#\\xd8e\\x10\\xe3\\x06\\x0ba\\xddT\\x92m'}>"
p3320
sS'LINK'
p3321
S"<class 'gluon.html.LINK'>"
p3322
sS'urllib'
p3323
S"<module 'urllib' from 'D:\\Documents\\Workspace\\Jack\\web2py\\library.zip\\urllib.pyc'>"
p3324
sS'BR'
p3325
S"<class 'gluon.html.BR'>"
p3326
sS'local_import'
p3327
S'<function <lambda> at 0x0224DA70>'
p3328
sS'OPTGROUP'
p3329
S"<class 'gluon.html.OPTGROUP'>"
p3330
sS'LI'
p3331
S"<class 'gluon.html.LI'>"
p3332
sS'PRE'
p3333
S"<class 'gluon.html.PRE'>"
p3334
sS'IS_INT_IN_RANGE'
p3335
S"<class 'gluon.validators.IS_INT_IN_RANGE'>"
p3336
sS'IS_LOWER'
p3337
S"<class 'gluon.validators.IS_LOWER'>"
p3338
sS'IS_STRONG'
p3339
S"<class 'gluon.validators.IS_STRONG'>"
p3340
sS'cache'
p3341
S'<gluon.cache.Cache object at 0x02256650>'
p3342
sS'IS_IN_DB'
p3343
S"<class 'gluon.validators.IS_IN_DB'>"
p3344
sS'table_field'
p3345
S'<_sre.SRE_Pattern object at 0x00E83720>'
p3346
sS'TAG'
p3347
S'<gluon.html.__TAG__ object at 0x00E17050>'
p3348
sS'SQLField'
p3349
S"<class 'gluon.dal.Field'>"
p3350
sS'BODY'
p3351
S"<class 'gluon.html.BODY'>"
p3352
sS'IS_DATE_IN_RANGE'
p3353
S"<class 'gluon.validators.IS_DATE_IN_RANGE'>"
p3354
sS'IFRAME'
p3355
S"<class 'gluon.html.IFRAME'>"
p3356
sS'URL'
p3357
S'<function URL at 0x00E1FE30>'
p3358
sS'DatetimeWidget'
p3359
S"<class 'gluon.sqlhtml.DatetimeWidget'>"
p3360
sS'__file__'
p3361
S"r'D:\\Documents\\Workspace\\Jack\\web2py\\applications\\init\\models\\A_widget.py'"
p3362
sS'P'
S"<class 'gluon.html.P'>"
p3363
sS'TFOOT'
p3364
S"<class 'gluon.html.TFOOT'>"
p3365
sS'XHTML'
p3366
S"<class 'gluon.html.XHTML'>"
p3367
sS'IntegerWidget'
p3368
S"<class 'gluon.sqlhtml.IntegerWidget'>"
p3369
sS'ON'
p3370
g561
sS'OL'
p3371
S"<class 'gluon.html.OL'>"
p3372
sS'TEXTAREA'
p3373
S"<class 'gluon.html.TEXTAREA'>"
p3374
sS'MENU'
p3375
S"<class 'gluon.html.MENU'>"
p3376
sS'PasswordWidget'
p3377
S"<class 'gluon.sqlhtml.PasswordWidget'>"
p3378
sS'EM'
p3379
S"<class 'gluon.html.EM'>"
p3380
sS'CODE'
p3381
S"<class 'gluon.html.CODE'>"
p3382
sS'HTTP'
p3383
S"<class 'gluon.http.HTTP'>"
p3384
sS'HR'
p3385
S"<class 'gluon.html.HR'>"
p3386
sS'IS_DATETIME'
p3387
S"<class 'gluon.validators.IS_DATETIME'>"
p3388
sS'Storage'
p3389
S"<class 'gluon.storage.Storage'>"
p3390
sS'STYLE'
p3391
S"<class 'gluon.html.STYLE'>"
p3392
sS'LABEL'
p3393
S"<class 'gluon.html.LABEL'>"
p3394
sS'META'
p3395
S"<class 'gluon.html.META'>"
p3396
sS'SELECT'
p3397
S"<class 'gluon.html.SELECT'>"
p3398
sS'CENTER'
p3399
S"<class 'gluon.html.CENTER'>"
p3400
sS'BooleanWidget'
p3401
S"<class 'gluon.sqlhtml.BooleanWidget'>"
p3402
sS'safe_float'
p3403
S'<function safe_float at 0x010550B0>'
p3404
sS'DecimalWidget'
p3405
S"<class 'gluon.sqlhtml.DecimalWidget'>"
p3406
sS'HTML'
p3407
S"<class 'gluon.html.HTML'>"
p3408
sS'SQLFORM'
p3409
S"<class 'gluon.sqlhtml.SQLFORM'>"
p3410
sS'LOAD'
p3411
S'<function LOAD at 0x01069730>'
p3412
sS'redirect'
p3413
S'<function redirect at 0x00B63AF0>'
p3414
sS'FIELDSET'
p3415
S"<class 'gluon.html.FIELDSET'>"
p3416
sS'IS_EQUAL_TO'
p3417
S"<class 'gluon.validators.IS_EQUAL_TO'>"
p3418
sS'embed64'
p3419
S'<function embed64 at 0x00E2C970>'
p3420
sS'IS_LIST_OF'
p3421
S"<class 'gluon.validators.IS_LIST_OF'>"
p3422
sS'ListWidget'
p3423
S"<class 'gluon.sqlhtml.ListWidget'>"
p3424
sS'INPUT'
p3425
S"<class 'gluon.html.INPUT'>"
p3426
sS'EMBED'
p3427
S"<class 'gluon.html.EMBED'>"
p3428
sS'FORM'
p3429
S"<class 'gluon.html.FORM'>"
p3430
sS'H2'
p3431
S"<class 'gluon.html.H2'>"
p3432
sS'H3'
p3433
S"<class 'gluon.html.H3'>"
p3434
sS'BUTTON'
p3435
S"<class 'gluon.html.BUTTON'>"
p3436
sS'H1'
p3437
S"<class 'gluon.html.H1'>"
p3438
sS'H6'
p3439
S"<class 'gluon.html.H6'>"
p3440
sS'H4'
p3441
S"<class 'gluon.html.H4'>"
p3442
sS'H5'
p3443
S"<class 'gluon.html.H5'>"
p3444
sS'UL'
p3445
S"<class 'gluon.html.UL'>"
p3446
sS'IS_UPPER'
p3447
S"<class 'gluon.validators.IS_UPPER'>"
p3448
sS'xmlescape'
p3449
S'<function xmlescape at 0x00E1FDB0>'
p3450
sS'IS_TIME'
p3451
S"<class 'gluon.validators.IS_TIME'>"
p3452
sS'Row'
p3453
S"<class 'gluon.dal.Row'>"
p3454
sS'OPTION'
p3455
S"<class 'gluon.html.OPTION'>"
p3456
sS'TITLE'
p3457
S"<class 'gluon.html.TITLE'>"
p3458
sS'CRYPT'
p3459
S"<class 'gluon.validators.CRYPT'>"
p3460
sS'IS_EMPTY_OR'
p3461
S"<class 'gluon.validators.IS_EMPTY_OR'>"
p3462
sS'MARKMIN'
p3463
S"<class 'gluon.html.MARKMIN'>"
p3464
sS'__name__'
p3465
S"'__restricted__'"
p3466
sS'COL'
p3467
S"<class 'gluon.html.COL'>"
p3468
sS'IS_EMAIL'
p3469
S"<class 'gluon.validators.IS_EMAIL'>"
p3470
sS'truncate_string'
p3471
S'<function truncate_string at 0x00E1FDF0>'
p3472
sS'SCRIPT'
p3473
S"<class 'gluon.html.SCRIPT'>"
p3474
sS'DateWidget'
p3475
S"<class 'gluon.sqlhtml.DateWidget'>"
p3476
sS'TABLE'
p3477
S"<class 'gluon.html.TABLE'>"
p3478
sS'IS_IPV4'
p3479
S"<class 'gluon.validators.IS_IPV4'>"
p3480
sS'IS_LENGTH'
p3481
S"<class 'gluon.validators.IS_LENGTH'>"
p3482
sS'XML'
p3483
S"<class 'gluon.html.XML'>"
p3484
sS'B'
S"<class 'gluon.html.B'>"
p3485
sS'IMG'
p3486
S"<class 'gluon.html.IMG'>"
p3487
sS'trap_class'
p3488
S'<function trap_class at 0x0104FFB0>'
p3489
sS'SQLTABLE'
p3490
S"<class 'gluon.sqlhtml.SQLTABLE'>"
p3491
sS'IS_MATCH'
p3492
S"<class 'gluon.validators.IS_MATCH'>"
p3493
sS'IS_ALPHANUMERIC'
p3494
S"<class 'gluon.validators.IS_ALPHANUMERIC'>"
p3495
sS'TBODY'
p3496
S"<class 'gluon.html.TBODY'>"
p3497
sS'SPAN'
p3498
S"<class 'gluon.html.SPAN'>"
p3499
sS'smart_query'
p3500
S'<function smart_query at 0x0104C3F0>'
p3501
sS'IS_SLUG'
p3502
S"<class 'gluon.validators.IS_SLUG'>"
p3503
sS'CLEANUP'
p3504
S"<class 'gluon.validators.CLEANUP'>"
p3505
sS'md5_hash'
p3506
S'<function md5_hash at 0x00DFB830>'
p3507
sS'CALLABLETYPES'
p3508
S"(<type 'function'>, <type 'function'>, <type 'builtin_function_or_method'>, <type 'instancemethod'>, <type 'builtin_function_or_method'>)"
p3509
sS'CheckboxesWidget'
p3510
S"<class 'gluon.sqlhtml.CheckboxesWidget'>"
p3511
sS'OptionsWidget'
p3512
S"<class 'gluon.sqlhtml.OptionsWidget'>"
p3513
sS'IS_DATE'
p3514
S"<class 'gluon.validators.IS_DATE'>"
p3515
sS'safe_int'
p3516
S'<function safe_int at 0x01055070>'
p3517
sS'IS_NOT_EMPTY'
p3518
S"<class 'gluon.validators.IS_NOT_EMPTY'>"
p3519
sS'IS_FLOAT_IN_RANGE'
p3520
S"<class 'gluon.validators.IS_FLOAT_IN_RANGE'>"
p3521
sS'AutocompleteWidget'
p3522
S"<class 'gluon.sqlhtml.AutocompleteWidget'>"
p3523
sS'BEAUTIFY'
p3524
S"<class 'gluon.html.BEAUTIFY'>"
p3525
sS'widget_class'
p3526
S'<_sre.SRE_Pattern object at 0x00FB9F98>'
p3527
sS'CAT'
p3528
S"<class 'gluon.html.CAT'>"
p3529
sS'Field'
p3530
S"<class 'gluon.dal.Field'>"
p3531
sS'LEGEND'
p3532
S"<class 'gluon.html.LEGEND'>"
p3533
sS'RadioWidget'
p3534
S"<class 'gluon.sqlhtml.RadioWidget'>"
p3535
sS'DIV'
p3536
S"<class 'gluon.html.DIV'>"
p3537
sS'form_factory'
p3538
S'<function factory at 0x01055670>'
p3539
sS'COLGROUP'
p3540
S"<class 'gluon.html.COLGROUP'>"
p3541
sS'DAL'
p3542
S"<class 'gluon.dal.DAL'>"
p3543
sS'TT'
p3544
S"<class 'gluon.html.TT'>"
p3545
sS'TR'
p3546
S"<class 'gluon.html.TR'>"
p3547
sS'TextWidget'
p3548
S"<class 'gluon.sqlhtml.TextWidget'>"
p3549
sS'TH'
p3550
S"<class 'gluon.html.TH'>"
p3551
sS'SELECT_OR_ADD_OPTION'
p3552
S"<class '__restricted__.SELECT_OR_ADD_OPTION'>"
p3553
sS'TD'
p3554
S"<class 'gluon.html.TD'>"
p3555
sS'IS_URL'
p3556
S"<class 'gluon.validators.IS_URL'>"
p3557
sS'A'
S"<class 'gluon.html.A'>"
p3558
sS'HEAD'
p3559
S"<class 'gluon.html.HEAD'>"
p3560
sS'IS_DATETIME_IN_RANGE'
p3561
S"<class 'gluon.validators.IS_DATETIME_IN_RANGE'>"
p3562
sS'IS_IMAGE'
p3563
S"<class 'gluon.validators.IS_IMAGE'>"
p3564
sS'I'
S"<class 'gluon.html.I'>"
p3565
sS'__builtins__'
p3566
S"{'ArithmeticError': <type 'exceptions.ArithmeticError'>, 'AssertionError': <type 'exceptions.AssertionError'>, 'AttributeError': <type 'exceptions.AttributeError'>, 'BaseException': <type 'exceptions.BaseException'>, 'DeprecationWarning': <type 'exceptions.DeprecationWarning'>, 'EOFError': <type 'exceptions.EOFError'>, 'Ellipsis': Ellipsis, 'EnvironmentError': <type 'exceptions.EnvironmentError'>, 'Exception': <type 'exceptions.Exception'>, 'False': False, ...}"
p3567
sS'IS_NOT_IN_DB'
p3568
S"<class 'gluon.validators.IS_NOT_IN_DB'>"
p3569
sS'DoubleWidget'
p3570
S"<class 'gluon.sqlhtml.DoubleWidget'>"
p3571
sS'FormWidget'
p3572
S"<class 'gluon.sqlhtml.FormWidget'>"
p3573
sg2611
S"<Storage {'status': 200, 'body': <cStringIO.Stri...970>, 'files': [], 'view': 'default/index.html'}>"
p3574
sS'THEAD'
p3575
S"<class 'gluon.html.THEAD'>"
p3576
sS'IS_NULL_OR'
p3577
S"<class 'gluon.validators.IS_EMPTY_OR'>"
p3578
sS'TimeWidget'
p3579
S"<class 'gluon.sqlhtml.TimeWidget'>"
p3580
sS'StringWidget'
p3581
S"<class 'gluon.sqlhtml.StringWidget'>"
p3582
sg48
S"<Storage {'body': <cStringIO.StringO object at 0..._vars': <Storage {}>, 'post_vars': <Storage {}>}>"
p3583
sS'IS_EXPR'
p3584
S"<class 'gluon.validators.IS_EXPR'>"
p3585
sS'UploadWidget'
p3586
S"<class 'gluon.sqlhtml.UploadWidget'>"
p3587
sS'IS_IN_SET'
p3588
S"<class 'gluon.validators.IS_IN_SET'>"
p3589
sS'add_option'
p3590
S'<__restricted__.SELECT_OR_ADD_OPTION object at 0x02256B70>'
p3591
sS'IS_UPLOAD_FILENAME'
p3592
S"<class 'gluon.validators.IS_UPLOAD_FILENAME'>"
p3593
sS'MultipleOptionsWidget'
p3594
S"<class 'gluon.sqlhtml.MultipleOptionsWidget'>"
p3595
sS'cStringIO'
p3596
S"<module 'cStringIO' (built-in)>"
p3597
sS'Table'
p3598
S"<class 'gluon.dal.Table'>"
p3599
sS'IS_DECIMAL_IN_RANGE'
p3600
S"<class 'gluon.validators.IS_DECIMAL_IN_RANGE'>"
p3601
sS're'
p3602
S"<module 're' from 'D:\\Documents\\Workspace\\Jack\\web2py\\library.zip\\re.pyc'>"
p3603
sS'T'
S'<gluon.languages.translator object at 0x02256510>'
p3604
sssS'traceback'
p3605
S'Traceback (most recent call last):\n  File "gluon/restricted.py", line 205, in restricted\n  File "D:\\Documents\\Workspace\\Jack\\web2py\\applications\\init\\models\\A_widget.py", line 169, in <module>\nNameError: global name \'db\' is not defined\n'
p3606
s.