(dp1
S'output'
p2
S"<type 'exceptions.AttributeError'> 'FORM' object has no attribute 'nmbreinvit'"
p3
sS'layer'
p4
S'D:\\Documents\\Workspace\\Jack\\web2py\\applications\\init\\controllers/default.py'
p5
sS'code'
p6
S'# -*- coding: utf-8 -*-\n# this file is released under public domain and you can use without limitations\n\n#########################################################################\n## This is a samples controller\n## - index is the default action of any application\n## - user is required for authentication and authorization\n## - download is for downloading files uploaded in the db (does streaming)\n## - call exposes all registered services (none by default)\n#########################################################################\n# Static analyzer import helpers: (STATIC_IMPORT_MARK)\nif 0: \n    import gluon\n    global cache; cache = gluon.cache.Cache()\n    global LOAD; LOAD  = gluon.compileapp.LoadFactory()\n    import gluon.compileapp.local_import_aux as local_import #@UnusedImport\n    from gluon.contrib.gql import GQLDB #@UnusedImport\n    from gluon.dal import Field #@UnusedImport\n    global request; request = gluon.globals.Request()\n    global response; response = gluon.globals.Response()\n    global session; session = gluon.globals.Session()\n    from gluon.html import A #@UnusedImport\n    from gluon.html import B #@UnusedImport\n    from gluon.html import BEAUTIFY #@UnusedImport\n    from gluon.html import BODY #@UnusedImport\n    from gluon.html import BR #@UnusedImport\n    from gluon.html import CENTER #@UnusedImport\n    from gluon.html import CODE #@UnusedImport\n    from gluon.html import DIV #@UnusedImport\n    from gluon.html import EM #@UnusedImport\n    from gluon.html import EMBED #@UnusedImport\n    from gluon.html import embed64 #@UnusedImport\n    from gluon.html import FIELDSET #@UnusedImport\n    from gluon.html import FORM #@UnusedImport\n    from gluon.html import H1 #@UnusedImport\n    from gluon.html import H2 #@UnusedImport\n    from gluon.html import H3 #@UnusedImport\n    from gluon.html import H4 #@UnusedImport\n    from gluon.html import H5 #@UnusedImport\n    from gluon.html import H6 #@UnusedImport\n    from gluon.html import HEAD #@UnusedImport\n    from gluon.html import HR #@UnusedImport\n    from gluon.html import HTML #@UnusedImport\n    from gluon.html import I #@UnusedImport\n    from gluon.html import IFRAME #@UnusedImport\n    from gluon.html import IMG #@UnusedImport\n    from gluon.html import INPUT #@UnusedImport\n    from gluon.html import LABEL #@UnusedImport\n    from gluon.html import LEGEND #@UnusedImport\n    from gluon.html import LI #@UnusedImport\n    from gluon.html import LINK #@UnusedImport\n    from gluon.html import MARKMIN #@UnusedImport\n    from gluon.html import MENU #@UnusedImport\n    from gluon.html import META #@UnusedImport\n    from gluon.html import OBJECT #@UnusedImport\n    from gluon.html import OL #@UnusedImport\n    from gluon.html import ON #@UnusedImport\n    from gluon.html import OPTGROUP #@UnusedImport\n    from gluon.html import OPTION #@UnusedImport\n    from gluon.html import P #@UnusedImport\n    from gluon.html import PRE #@UnusedImport\n    from gluon.html import STYLE #@UnusedImport\n    from gluon.html import SCRIPT #@UnusedImport\n    from gluon.html import SELECT #@UnusedImport\n    from gluon.html import SPAN #@UnusedImport\n    from gluon.html import TABLE #@UnusedImport\n    from gluon.html import TAG #@UnusedImport\n    from gluon.html import TBODY #@UnusedImport\n    from gluon.html import TD #@UnusedImport\n    from gluon.html import TEXTAREA #@UnusedImport\n    from gluon.html import TFOOT #@UnusedImport\n    from gluon.html import TH  #@UnusedImport\n    from gluon.html import THEAD #@UnusedImport\n    from gluon.html import TITLE #@UnusedImport\n    from gluon.html import TR #@UnusedImport\n    from gluon.html import TT #@UnusedImport\n    from gluon.html import UL #@UnusedImport\n    from gluon.html import URL #@UnusedImport\n    from gluon.html import XHTML #@UnusedImport\n    from gluon.html import XML #@UnusedImport\n    from gluon.html import xmlescape #@UnusedImport\n    from gluon.http import HTTP #@UnusedImport\n    from gluon.http import redirect #@UnusedImport\n    import gluon.languages.translator as T #@UnusedImport\n    from gluon.sql import DAL\n    global db; db = DAL()\n    from gluon.sql import SQLDB #@UnusedImport\n    from gluon.sql import SQLField #@UnusedImport\n    from gluon.sqlhtml import SQLFORM #@UnusedImport\n    from gluon.sqlhtml import SQLTABLE #@UnusedImport\n    from gluon.tools import  Auth\n    global auth; auth = Auth()\n    from gluon.tools import Crud\n    global crud; crud = Crud()\n    from gluon.tools import fetch #@UnusedImport\n    from gluon.tools import geocode #@UnusedImport\n    from gluon.tools import Mail\n    global mail; mail = Mail()\n    from gluon.tools import PluginManager\n    global plugins; plugins = PluginManager()\n    from gluon.tools import prettydate #@UnusedImport\n    from gluon.tools import Recaptcha #@UnusedImport\n    from gluon.tools import Service\n    global service; service = Service()\n    from gluon.validators import CLEANUP  #@UnusedImport\n    from gluon.validators import CRYPT #@UnusedImport\n    from gluon.validators import IS_ALPHANUMERIC #@UnusedImport\n    from gluon.validators import IS_DATE #@UnusedImport\n    from gluon.validators import IS_DATE_IN_RANGE #@UnusedImport\n    from gluon.validators import IS_DATETIME #@UnusedImport\n    from gluon.validators import IS_DATETIME_IN_RANGE #@UnusedImport\n    from gluon.validators import IS_DECIMAL_IN_RANGE #@UnusedImport\n    from gluon.validators import IS_EMAIL #@UnusedImport\n    from gluon.validators import IS_EMPTY_OR #@UnusedImport\n    from gluon.validators import IS_EQUAL_TO #@UnusedImport\n    from gluon.validators import IS_EXPR #@UnusedImport\n    from gluon.validators import IS_FLOAT_IN_RANGE #@UnusedImport\n    from gluon.validators import IS_IMAGE #@UnusedImport\n    from gluon.validators import IS_IN_DB #@UnusedImport\n    from gluon.validators import IS_IN_SET #@UnusedImport\n    from gluon.validators import IS_INT_IN_RANGE #@UnusedImport\n    from gluon.validators import IS_IPV4 #@UnusedImport\n    from gluon.validators import IS_LENGTH #@UnusedImport\n    from gluon.validators import IS_LIST_OF #@UnusedImport\n    from gluon.validators import IS_LOWER #@UnusedImport\n    from gluon.validators import IS_MATCH #@UnusedImport\n    from gluon.validators import IS_NOT_EMPTY #@UnusedImport\n    from gluon.validators import IS_NOT_IN_DB #@UnusedImport\n    from gluon.validators import IS_NULL_OR #@UnusedImport\n    from gluon.validators import IS_SLUG #@UnusedImport\n    from gluon.validators import IS_STRONG  #@UnusedImport\n    from gluon.validators import IS_TIME #@UnusedImport\n    from gluon.validators import IS_UPLOAD_FILENAME #@UnusedImport\n    from gluon.validators import IS_UPPER #@UnusedImpor\n\n\nimport random\n\ndef index():\n    if auth.is_logged_in() :\n        return "You get the blue pills"\n    else :\n        return dict(form=auth.login(),faq=URL(\'faq\'))\n\n\n\ndef generate_invitation(number,word=4,num=1,numdigit=5):\n    code = [\n[\'BELCHER\', \'FIX\', \'EEL\', \'PANZERBOY\', \'DESK_JOCKEY\', \'CHILLED\', \'ENFORCER\', \'CHERRY_PICKING\', \'COUNTRY_CLUB\', \'BOMBSHELL\', \'PLUGGED_IN\', \'FINI\', \'LEGIT\', \'JAM\', \'BONED_OUT\', \'BLADE\', \'ROUST\', \'SAMURAI\', \'DISK\', \'INPUT\', \'POST_TIME\', \'SOUNDS\', \'SKIP\', \'FLATBACKER\', \'WILSON\', \'SHOEMAKER\', \'DELTA_SIERRA\', \'HEART\', \'CROAK\', \'HEAD_HUNTER\', \'HOSHO_KAISHA\', "DELTA\'D", "\'FACE_(also,_FACE,_EYE-FACE,_I-FACE)", \'WEEFLE\', \'DIRTGIRL\', \'KEYBOARD\', \'BRAIN_BUCKET\', \'DRYING_OUT\', \'OVERCOOK\', \'PIG\', \'COLD_TEA\', \'RECONFIG\', \'PAD\', \'LIT_UP\', \'WRAITH\', \'HANDLE\', \'L.P.\', \'PINCH\', \'TAKE_A_CAB\', \'SPILL\', \'ACE_KOOL\', \'DO\', \'BIZ\', \'BROWNIE\', \'CANDLE_AND_BLOOD\', \'BLUEBOY\', \'UP_ON_IT\', \'BURN\', \'USER_INTERFACE\', \'HOB\', \'GYRO\', \'STUFFIT\', \'THATCH\', \'ICEBREAKER\', \'ZIP_GUN\', \'PETERMAN\', \'PLAY_DOUGH\', \'TREY-EIGHT\', \'SETTLE\', "CHIPPIN\'_IN", \'MEATBALL\', \'RAFFLES\', \'YUBITSUME\', \'CROAKER\', \'SUCKER_POCKETS\', \'L.A.M.A.\', \'GEEK\', \'BUTTONHEAD\'],\n[\'TAKE\', \'TEKIYA\', \'KURUMAKU\', \'BLOC\', \'GAT\', \'JOHATSU\', \'CRYSTAL\', \'A.I.\', \'ZEROED\', \'OVER_THE_SHOULDER\', \'GRAB_GEE\', \'PANZER\', \'GO_LEO\', \'WASHED\', \'I.C.E.\', \'COPSHOP\', \'COLLATERAL_DAMAGE\', \'BIG_DARK\', \'DOUBLE-DEUCE\', \'ZONEDANCE\', \'MARK\', \'COBBERS\', \'CHIMPIRA\', \'TRIADS\', \'SHANK\', \'FRAG\', \'BREATH_VAC\', "CHARLIE\'S_ANGEL", \'MULE\', \'BURNER\', "PACKIN\'", \'HOTDOGGER\', \'BOSOZOKU\', \'RIPPERDOC\', \'THIRDMAN\', \'MAXIMUM,_MAX\', \'CHOOH2_("CHOO")\', \'CRYO_MAX\', \'HEATER\', \'SHARK\', \'JOYGIRL\', \'GURENTAI\', \'BANDIT\', \'VENICE\', \'MIZU_SHOBAI\', \'PASTA_BOYS\', \'SQUID\', \'CYBERED_UP\', \'DEAD_RECKONING\', \'POPSICLE\', \'FAUST\', \'COLLARBOY\', \'SHOES\', \'TORCH\', \'DELTAJOCK\', \'BUTTERFLY_MAN\', \'WISE_GUYS\', \'BOOST\', \'CAIN\', \'FOUR-FIVE\', \'BREAK-DOWN\', \'POLYMER_ONE-SHOT\', \'FLAG\', \'CALL_GIRL\', \'IN_THE_HUNT\', \'HYDRO\', \'DOCK\', \'FENCE\', \'SHAIKUJIN\', \'GOMI\', \'FILTER\', \'SAINT_NICK\', \'LINEFOOT\', \'CAVALRY\', \'PUKE\', \'CONVERSION\', \'FINGER\', \'CONTRACT\'],\n[\'PLASTIC\', \'CRYSTALJOCKEY,_CRYSTALJOCK\', \'SCREW\', \'TOYSTORE\', \'DREAM_TIME\', \'EXOTIC\', \'WALKABOUT\', \'DIAMOND_SEASON\', \'SARAKIN\', \'CHRISTMAS_BUNDLES\', \'SHADES\', \'BUTTON_MAN\', \'FOXTROT_UNIFORM\', \'KAI\', \'UNDER_THE_PAINT\', \'MINIMUM\', \'TRIPLE_A\', \'PIG_ON_A_WHEEL\', \'BAG_MAN\', \'DIP\', \'PIGEONS\', \'MAN\', \'ADAM_HENRY\', \'HIGH\', \'HEAT\', \'NINJO\', \'KNIFE_FIGHT\', \'MOUTHPIECE\', \'AGRIPLEX\', \'DATA_TERM\', \'LIZ\', \'CHROMER\', \'OUTPUT\', \'N.O.E.\', \'CLOSE_A_CONTRACT\', \'LASSIE\', \'FLATLINE\', \'CHIV\', \'SING\', \'AMMO\', \'RAT\', \'MATCHBOX\', \'PULL_AN_ASH\', \'BORYOKUDAN\', \'SQUEEZE\', \'RONIN\', \'HIT\', \'RAGS\', \'TAKE_OUT\', \'BEAT_THE_RAP\', \'GIRI\', \'RUNNING_THE_LINE\', \'HARNESS\', \'GRAVEROBBER\', \'DROP_A_DIME\', \'BADGE_ON_A_BEAVER\', \'FLETCHER\', \'AMPED-OUT\', \'NEUTRALIZE\', \'PETER\', \'CONFIG\', \'HARDFIRE\', \'B.A.M.A.\', \'CHROMATIC_ROCK\', \'MOLDED\', \'RAD\', \'CREASED\', \'CHATTER_BOX\', \'HAND_CANNON\', \'NIPPERS\', \'SIERRA_HOTEL\', \'HOOK_UP\', \'-JOCKEY,_-JOCK\', \'BUG\', \'BATMAN_AND_ROBIN\', \'BLACK_OPERATIONS\', "D.C.\'S", \'SO_KA\'],\n[\'_A.A.A.\', \'HOME_PLATE\', \'LITEJACK\', \'PINEAPPLE\', \'MAKE\', \'THE_STREET\', \'SITREP\', \'HANGING_PAPER\', \'PAINT_BOYS\', \'WETWORK\', \'NINER\', \'BOOKIE\', \'WHIPLASH\', \'TORPEDO\', \'HEATWAVE\', \'SOLAR_WIND\', \'QUIFF\', \'BIKE\', \'TRAFFIC\', \'WIRE_ROOM\', \'OYABUN\', \'COWBOY\', \'KOBUN\', \'MUDBOY\', \'COP_OUT\', \'SOKAIYA\', "\'DORPH", \'JOYBOY\', \'DIRTY\', \'BOAT\', \'DROP\', \'GRAV_or_GEE\', \'APOGEE\', \'BOOSTER\', \'BOOK\', \'FRY\', \'PULLING_TEETH\', \'ONE_LARGE\', \'COMBAT_DRUGS\', \'THRASH\', \'DO_A_GHOST\', \'DELTA\', \'RIN_TIN_TIN\', \'DROP_OUT\', \'GUMI\', \'ROCKERBOY/GIRL\', \'BULLET\', \'DEB\', \'THREADING_THE_NEEDLE\', \'MOTOR\', \'BLEEDER\', \'ARC\', \'BOPPER\', \'WASTE\', \'_______DEMUKAI\', \'BREAK\', \'HOLDING_DOWN\', \'FEDS\', \'GAP\', \'RABBI\', \'BAKUTO\', \'CHOMBATTA_(CHOOMBA)\', \'BIG_HATS\', \'MR._JOHNSON\', \'EXEC\', \'BULL\', \'BULLSEYE\', \'POSERGANG\', \'CHAOL\', \'GEISHA\', \'SLAMMIT_ON\', \'POP_CAPS\', \'HARD_TIME\', \'BENJI\', \'MAKING_BANK\', \'PAPERHANGER\', \'NETRUN\', \'BOGEY\'],\n]     \n    i = 0\n    invits = []\n    while (i < number):\n        invit = ""\n        j = 0\n        while (j < word):\n            debut = random.randint(0,len(code)-1)\n            codepick = code[debut][random.randint(0,len(code[debut])-1)]\n            j += 1\n            invit += codepick+"-"\n        j = 0\n        while (j < num):\n            invit += randomdig(numdigit)+"-"\n            j += 1\n        i+= 1\n        invit = invit[:-1]\n        if invit not in invits :\n            invits.append(invit[:-1])\n    return invits\n        \ndef randomdig(number):\n    max = "9"*number\n    max = int(max)\n    rand =  random.randint(0,max)\n    rand = str(rand)\n    rand = "0"*(number-len(rand))+rand\n    return rand\n\n@auth.requires_login()\ndef inscription():\n    form = SQLFORM(db[auth.settings.table_user_name])\n    return dict(form=form)\n\ndef liste_invitations():\n    return dict(rows = db().select(db.Invitation.ALL).select())\n\n#@auth.requires_membership(\'manager\')\ndef generate_invitationpage():\n   \n   form=FORM("Nombre d\'invit a g\xc3\xa9n\xc3\xa9rer:", INPUT(_name=\'nmbreinvit\'), INPUT(_type=\'submit\'))\n   if form.process().accepted:\n       invitsgenere = generate_invitation(form.nmbreinvit)\n       for invit in invitsgenere :\n           db.Invitation.insert(Code=invit)\n           db.commit()\n       session.flash = \'invitation inserted\'\n   return dict(form=form)\n\ndef verif_invitation(form):\n    pass\n\ndef invitation():\n    form = SQLFORM(db.Invitation)\n    if form.process(onvalidation=verif_invitation) :\n        redirect(URL(\'inscription\'))\n    return dict(form=form)\n\ndef faq():\n\n    return dict()\ndef user():\n    """\n    exposes:\n    http://..../[app]/default/user/login\n    http://..../[app]/default/user/logout\n    http://..../[app]/default/user/register\n    http://..../[app]/default/user/profile\n    http://..../[app]/default/user/retrieve_password\n    http://..../[app]/default/user/change_password\n    use @auth.requires_login()\n        @auth.requires_membership(\'group name\')\n        @auth.requires_permission(\'read\',\'table name\',record_id)\n    to decorate functions that need access control\n    """\n    return dict(form=auth())\n\n\ndef download():\n    """\n    allows downloading of uploaded files\n    http://..../[app]/default/download/[filename]\n    """\n    return response.download(request,db)\n\n\ndef call():\n    """\n    exposes services. for example:\n    http://..../[app]/default/call/jsonrpc\n    decorate with @services.jsonrpc the functions to expose\n    supports xml, json, xmlrpc, jsonrpc, amfrpc, rss, csv\n    """\n    return service()\n\n\n@auth.requires_signature()\ndef data():\n    """\n    http://..../[app]/default/data/tables\n    http://..../[app]/default/data/create/[table]\n    http://..../[app]/default/data/read/[table]/[id]\n    http://..../[app]/default/data/update/[table]/[id]\n    http://..../[app]/default/data/delete/[table]/[id]\n    http://..../[app]/default/data/select/[table]\n    http://..../[app]/default/data/search/[table]\n    but URLs must be signed, i.e. linked with\n      A(\'table\',_href=URL(\'data/tables\',user_signature=True))\n    or with the signed load operator\n      LOAD(\'default\',\'data.load\',args=\'tables\',ajax=True,user_signature=True)\n    """\n    return dict(form=crud())\n\nresponse._vars=response._caller(generate_invitationpage)\n'
p7
sS'snapshot'
p8
(dp9
S'exception'
p10
(dp11
S'__hash__'
p12
S"<method-wrapper '__hash__' of exceptions.AttributeError object at 0x0243D350>"
p13
sS'__setattr__'
p14
S"<method-wrapper '__setattr__' of exceptions.AttributeError object at 0x0243D350>"
p15
sS'__reduce_ex__'
p16
S'<built-in method __reduce_ex__ of exceptions.AttributeError object at 0x0243D350>'
p17
sS'__getslice__'
p18
S"<method-wrapper '__getslice__' of exceptions.AttributeError object at 0x0243D350>"
p19
sS'__getitem__'
p20
S"<method-wrapper '__getitem__' of exceptions.AttributeError object at 0x0243D350>"
p21
sS'__setstate__'
p22
S'<built-in method __setstate__ of exceptions.AttributeError object at 0x0243D350>'
p23
sS'__reduce__'
p24
S'<built-in method __reduce__ of exceptions.AttributeError object at 0x0243D350>'
p25
sS'__str__'
p26
S"<method-wrapper '__str__' of exceptions.AttributeError object at 0x0243D350>"
p27
sS'args'
p28
S'("\'FORM\' object has no attribute \'nmbreinvit\'",)'
p29
sS'__getattribute__'
p30
S"<method-wrapper '__getattribute__' of exceptions.AttributeError object at 0x0243D350>"
p31
sS'__class__'
p32
S"<type 'exceptions.AttributeError'>"
p33
sS'__delattr__'
p34
S"<method-wrapper '__delattr__' of exceptions.AttributeError object at 0x0243D350>"
p35
sS'__repr__'
p36
S"<method-wrapper '__repr__' of exceptions.AttributeError object at 0x0243D350>"
p37
sS'__dict__'
p38
S'{}'
p39
sS'__doc__'
p40
S"'Attribute not found.'"
p41
sS'__init__'
p42
S"<method-wrapper '__init__' of exceptions.AttributeError object at 0x0243D350>"
p43
sS'__new__'
p44
S'<built-in method __new__ of type object at 0x1E1CDA68>'
p45
ssS'evalue'
p46
S"'FORM' object has no attribute 'nmbreinvit'"
p47
sS'request'
p48
ccopy_reg
_reconstructor
p49
(cgluon.html
BEAUTIFY
p50
c__builtin__
object
p51
NtRp52
(dp53
S'attributes'
p54
(dp55
sS'components'
p56
(lp57
g49
(cgluon.html
TABLE
p58
g51
NtRp59
(dp60
g54
(dp61
S'level'
p62
I5
ssS'parent'
p63
Nsg56
(lp64
g49
(cgluon.html
TR
p65
g51
NtRp66
(dp67
g54
(dp68
sg63
g59
sg56
(lp69
g49
(cgluon.html
TD
p70
g51
NtRp71
(dp72
g54
(dp73
S'_style'
p74
S'font-weight:bold;vertical-align:top'
p75
ssg63
g66
sg56
(lp76
S'ajax'
p77
asbag49
(g70
g51
NtRp78
(dp79
g54
(dp80
S'_valign'
p81
S'top'
p82
ssg63
g66
sg56
(lp83
S':'
asbag49
(g70
g51
NtRp84
(dp85
g54
(dp86
sg63
g66
sg56
(lp87
g49
(g50
g51
NtRp88
(dp89
g54
(dp90
g62
I5
ssg63
g84
sg56
(lp91
S'False'
p92
asbasbasbag49
(g65
g51
NtRp93
(dp94
g54
(dp95
sg63
g59
sg56
(lp96
g49
(g70
g51
NtRp97
(dp98
g54
(dp99
g74
g75
ssg63
g93
sg56
(lp100
S'application'
p101
asbag49
(g70
g51
NtRp102
(dp103
g54
(dp104
g81
g82
ssg63
g93
sg56
(lp105
S':'
asbag49
(g70
g51
NtRp106
(dp107
g54
(dp108
sg63
g93
sg56
(lp109
g49
(g50
g51
NtRp110
(dp111
g54
(dp112
g62
I5
ssg63
g106
sg56
(lp113
S'init'
p114
asbasbasbag49
(g65
g51
NtRp115
(dp116
g54
(dp117
sg63
g59
sg56
(lp118
g49
(g70
g51
NtRp119
(dp120
g54
(dp121
g74
g75
ssg63
g115
sg56
(lp122
g28
asbag49
(g70
g51
NtRp123
(dp124
g54
(dp125
g81
g82
ssg63
g115
sg56
(lp126
S':'
asbag49
(g70
g51
NtRp127
(dp128
g54
(dp129
sg63
g115
sg56
(lp130
g49
(g50
g51
NtRp131
(dp132
g54
(dp133
g62
I5
ssg63
g127
sg56
(lp134
g49
(g58
g51
NtRp135
(dp136
g54
(dp137
g62
I4
ssg63
Nsg56
(lp138
sbasbasbasbag49
(g65
g51
NtRp139
(dp140
g54
(dp141
sg63
g59
sg56
(lp142
g49
(g70
g51
NtRp143
(dp144
g54
(dp145
g74
g75
ssg63
g139
sg56
(lp146
S'body'
p147
asbag49
(g70
g51
NtRp148
(dp149
g54
(dp150
g81
g82
ssg63
g139
sg56
(lp151
S':'
asbag49
(g70
g51
NtRp152
(dp153
g54
(dp154
sg63
g139
sg56
(lp155
g49
(g50
g51
NtRp156
(dp157
g54
(dp158
g62
I5
ssg63
g152
sg56
(lp159
S"<open file '<fdopen>', mode 'w+b' at 0x027070B0>"
p160
asbasbasbag49
(g65
g51
NtRp161
(dp162
g54
(dp163
sg63
g59
sg56
(lp164
g49
(g70
g51
NtRp165
(dp166
g54
(dp167
g74
g75
ssg63
g161
sg56
(lp168
S'client'
p169
asbag49
(g70
g51
NtRp170
(dp171
g54
(dp172
g81
g82
ssg63
g161
sg56
(lp173
S':'
asbag49
(g70
g51
NtRp174
(dp175
g54
(dp176
sg63
g161
sg56
(lp177
g49
(g50
g51
NtRp178
(dp179
g54
(dp180
g62
I5
ssg63
g174
sg56
(lp181
S'127.0.0.1'
p182
asbasbasbag49
(g65
g51
NtRp183
(dp184
g54
(dp185
sg63
g59
sg56
(lp186
g49
(g70
g51
NtRp187
(dp188
g54
(dp189
g74
g75
ssg63
g183
sg56
(lp190
S'controller'
p191
asbag49
(g70
g51
NtRp192
(dp193
g54
(dp194
g81
g82
ssg63
g183
sg56
(lp195
S':'
asbag49
(g70
g51
NtRp196
(dp197
g54
(dp198
sg63
g183
sg56
(lp199
g49
(g50
g51
NtRp200
(dp201
g54
(dp202
g62
I5
ssg63
g196
sg56
(lp203
S'default'
p204
asbasbasbag49
(g65
g51
NtRp205
(dp206
g54
(dp207
sg63
g59
sg56
(lp208
g49
(g70
g51
NtRp209
(dp210
g54
(dp211
g74
g75
ssg63
g205
sg56
(lp212
S'cookies'
p213
asbag49
(g70
g51
NtRp214
(dp215
g54
(dp216
g81
g82
ssg63
g205
sg56
(lp217
S':'
asbag49
(g70
g51
NtRp218
(dp219
g54
(dp220
sg63
g205
sg56
(lp221
g49
(g50
g51
NtRp222
(dp223
g54
(dp224
g62
I5
ssg63
g218
sg56
(lp225
g49
(g58
g51
NtRp226
(dp227
g54
(dp228
g62
I4
ssg63
Nsg56
(lp229
g49
(g65
g51
NtRp230
(dp231
g54
(dp232
sg63
g226
sg56
(lp233
g49
(g70
g51
NtRp234
(dp235
g54
(dp236
g74
g75
ssg63
g230
sg56
(lp237
S'csrftoken'
p238
asbag49
(g70
g51
NtRp239
(dp240
g54
(dp241
g81
g82
ssg63
g230
sg56
(lp242
S':'
asbag49
(g70
g51
NtRp243
(dp244
g54
(dp245
sg63
g230
sg56
(lp246
g49
(g50
g51
NtRp247
(dp248
g54
(dp249
g62
I4
ssg63
g243
sg56
(lp250
g49
(g58
g51
NtRp251
(dp252
g54
(dp253
g62
I3
ssg63
Nsg56
(lp254
g49
(g65
g51
NtRp255
(dp256
g54
(dp257
sg63
g251
sg56
(lp258
g49
(g70
g51
NtRp259
(dp260
g54
(dp261
g74
g75
ssg63
g255
sg56
(lp262
S'comment'
p263
asbag49
(g70
g51
NtRp264
(dp265
g54
(dp266
g81
g82
ssg63
g255
sg56
(lp267
S':'
asbag49
(g70
g51
NtRp268
(dp269
g54
(dp270
sg63
g255
sg56
(lp271
g49
(g50
g51
NtRp272
(dp273
g54
(dp274
g62
I3
ssg63
g268
sg56
(lp275
S''
asbasbasbag49
(g65
g51
NtRp276
(dp277
g54
(dp278
sg63
g251
sg56
(lp279
g49
(g70
g51
NtRp280
(dp281
g54
(dp282
g74
g75
ssg63
g276
sg56
(lp283
S'domain'
p284
asbag49
(g70
g51
NtRp285
(dp286
g54
(dp287
g81
g82
ssg63
g276
sg56
(lp288
S':'
asbag49
(g70
g51
NtRp289
(dp290
g54
(dp291
sg63
g276
sg56
(lp292
g49
(g50
g51
NtRp293
(dp294
g54
(dp295
g62
I3
ssg63
g289
sg56
(lp296
S''
asbasbasbag49
(g65
g51
NtRp297
(dp298
g54
(dp299
sg63
g251
sg56
(lp300
g49
(g70
g51
NtRp301
(dp302
g54
(dp303
g74
g75
ssg63
g297
sg56
(lp304
S'expires'
p305
asbag49
(g70
g51
NtRp306
(dp307
g54
(dp308
g81
g82
ssg63
g297
sg56
(lp309
S':'
asbag49
(g70
g51
NtRp310
(dp311
g54
(dp312
sg63
g297
sg56
(lp313
g49
(g50
g51
NtRp314
(dp315
g54
(dp316
g62
I3
ssg63
g310
sg56
(lp317
S''
asbasbasbag49
(g65
g51
NtRp318
(dp319
g54
(dp320
sg63
g251
sg56
(lp321
g49
(g70
g51
NtRp322
(dp323
g54
(dp324
g74
g75
ssg63
g318
sg56
(lp325
S'max-age'
p326
asbag49
(g70
g51
NtRp327
(dp328
g54
(dp329
g81
g82
ssg63
g318
sg56
(lp330
S':'
asbag49
(g70
g51
NtRp331
(dp332
g54
(dp333
sg63
g318
sg56
(lp334
g49
(g50
g51
NtRp335
(dp336
g54
(dp337
g62
I3
ssg63
g331
sg56
(lp338
S''
asbasbasbag49
(g65
g51
NtRp339
(dp340
g54
(dp341
sg63
g251
sg56
(lp342
g49
(g70
g51
NtRp343
(dp344
g54
(dp345
g74
g75
ssg63
g339
sg56
(lp346
S'path'
p347
asbag49
(g70
g51
NtRp348
(dp349
g54
(dp350
g81
g82
ssg63
g339
sg56
(lp351
S':'
asbag49
(g70
g51
NtRp352
(dp353
g54
(dp354
sg63
g339
sg56
(lp355
g49
(g50
g51
NtRp356
(dp357
g54
(dp358
g62
I3
ssg63
g352
sg56
(lp359
S''
asbasbasbag49
(g65
g51
NtRp360
(dp361
g54
(dp362
sg63
g251
sg56
(lp363
g49
(g70
g51
NtRp364
(dp365
g54
(dp366
g74
g75
ssg63
g360
sg56
(lp367
S'secure'
p368
asbag49
(g70
g51
NtRp369
(dp370
g54
(dp371
g81
g82
ssg63
g360
sg56
(lp372
S':'
asbag49
(g70
g51
NtRp373
(dp374
g54
(dp375
sg63
g360
sg56
(lp376
g49
(g50
g51
NtRp377
(dp378
g54
(dp379
g62
I3
ssg63
g373
sg56
(lp380
S''
asbasbasbag49
(g65
g51
NtRp381
(dp382
g54
(dp383
sg63
g251
sg56
(lp384
g49
(g70
g51
NtRp385
(dp386
g54
(dp387
g74
g75
ssg63
g381
sg56
(lp388
S'version'
p389
asbag49
(g70
g51
NtRp390
(dp391
g54
(dp392
g81
g82
ssg63
g381
sg56
(lp393
S':'
asbag49
(g70
g51
NtRp394
(dp395
g54
(dp396
sg63
g381
sg56
(lp397
g49
(g50
g51
NtRp398
(dp399
g54
(dp400
g62
I3
ssg63
g394
sg56
(lp401
S''
asbasbasbasbasbasbasbag49
(g65
g51
NtRp402
(dp403
g54
(dp404
sg63
g226
sg56
(lp405
g49
(g70
g51
NtRp406
(dp407
g54
(dp408
g74
g75
ssg63
g402
sg56
(lp409
S'session_id_admin'
p410
asbag49
(g70
g51
NtRp411
(dp412
g54
(dp413
g81
g82
ssg63
g402
sg56
(lp414
S':'
asbag49
(g70
g51
NtRp415
(dp416
g54
(dp417
sg63
g402
sg56
(lp418
g49
(g50
g51
NtRp419
(dp420
g54
(dp421
g62
I4
ssg63
g415
sg56
(lp422
g49
(g58
g51
NtRp423
(dp424
g54
(dp425
g62
I3
ssg63
Nsg56
(lp426
g49
(g65
g51
NtRp427
(dp428
g54
(dp429
sg63
g423
sg56
(lp430
g49
(g70
g51
NtRp431
(dp432
g54
(dp433
g74
g75
ssg63
g427
sg56
(lp434
g263
asbag49
(g70
g51
NtRp435
(dp436
g54
(dp437
g81
g82
ssg63
g427
sg56
(lp438
S':'
asbag49
(g70
g51
NtRp439
(dp440
g54
(dp441
sg63
g427
sg56
(lp442
g49
(g50
g51
NtRp443
(dp444
g54
(dp445
g62
I3
ssg63
g439
sg56
(lp446
S''
asbasbasbag49
(g65
g51
NtRp447
(dp448
g54
(dp449
sg63
g423
sg56
(lp450
g49
(g70
g51
NtRp451
(dp452
g54
(dp453
g74
g75
ssg63
g447
sg56
(lp454
g284
asbag49
(g70
g51
NtRp455
(dp456
g54
(dp457
g81
g82
ssg63
g447
sg56
(lp458
S':'
asbag49
(g70
g51
NtRp459
(dp460
g54
(dp461
sg63
g447
sg56
(lp462
g49
(g50
g51
NtRp463
(dp464
g54
(dp465
g62
I3
ssg63
g459
sg56
(lp466
S''
asbasbasbag49
(g65
g51
NtRp467
(dp468
g54
(dp469
sg63
g423
sg56
(lp470
g49
(g70
g51
NtRp471
(dp472
g54
(dp473
g74
g75
ssg63
g467
sg56
(lp474
g305
asbag49
(g70
g51
NtRp475
(dp476
g54
(dp477
g81
g82
ssg63
g467
sg56
(lp478
S':'
asbag49
(g70
g51
NtRp479
(dp480
g54
(dp481
sg63
g467
sg56
(lp482
g49
(g50
g51
NtRp483
(dp484
g54
(dp485
g62
I3
ssg63
g479
sg56
(lp486
S''
asbasbasbag49
(g65
g51
NtRp487
(dp488
g54
(dp489
sg63
g423
sg56
(lp490
g49
(g70
g51
NtRp491
(dp492
g54
(dp493
g74
g75
ssg63
g487
sg56
(lp494
g326
asbag49
(g70
g51
NtRp495
(dp496
g54
(dp497
g81
g82
ssg63
g487
sg56
(lp498
S':'
asbag49
(g70
g51
NtRp499
(dp500
g54
(dp501
sg63
g487
sg56
(lp502
g49
(g50
g51
NtRp503
(dp504
g54
(dp505
g62
I3
ssg63
g499
sg56
(lp506
S''
asbasbasbag49
(g65
g51
NtRp507
(dp508
g54
(dp509
sg63
g423
sg56
(lp510
g49
(g70
g51
NtRp511
(dp512
g54
(dp513
g74
g75
ssg63
g507
sg56
(lp514
g347
asbag49
(g70
g51
NtRp515
(dp516
g54
(dp517
g81
g82
ssg63
g507
sg56
(lp518
S':'
asbag49
(g70
g51
NtRp519
(dp520
g54
(dp521
sg63
g507
sg56
(lp522
g49
(g50
g51
NtRp523
(dp524
g54
(dp525
g62
I3
ssg63
g519
sg56
(lp526
S''
asbasbasbag49
(g65
g51
NtRp527
(dp528
g54
(dp529
sg63
g423
sg56
(lp530
g49
(g70
g51
NtRp531
(dp532
g54
(dp533
g74
g75
ssg63
g527
sg56
(lp534
g368
asbag49
(g70
g51
NtRp535
(dp536
g54
(dp537
g81
g82
ssg63
g527
sg56
(lp538
S':'
asbag49
(g70
g51
NtRp539
(dp540
g54
(dp541
sg63
g527
sg56
(lp542
g49
(g50
g51
NtRp543
(dp544
g54
(dp545
g62
I3
ssg63
g539
sg56
(lp546
S''
asbasbasbag49
(g65
g51
NtRp547
(dp548
g54
(dp549
sg63
g423
sg56
(lp550
g49
(g70
g51
NtRp551
(dp552
g54
(dp553
g74
g75
ssg63
g547
sg56
(lp554
g389
asbag49
(g70
g51
NtRp555
(dp556
g54
(dp557
g81
g82
ssg63
g547
sg56
(lp558
S':'
asbag49
(g70
g51
NtRp559
(dp560
g54
(dp561
sg63
g547
sg56
(lp562
g49
(g50
g51
NtRp563
(dp564
g54
(dp565
g62
I3
ssg63
g559
sg56
(lp566
S''
asbasbasbasbasbasbasbag49
(g65
g51
NtRp567
(dp568
g54
(dp569
sg63
g226
sg56
(lp570
g49
(g70
g51
NtRp571
(dp572
g54
(dp573
g74
g75
ssg63
g567
sg56
(lp574
S'session_id_init'
p575
asbag49
(g70
g51
NtRp576
(dp577
g54
(dp578
g81
g82
ssg63
g567
sg56
(lp579
S':'
asbag49
(g70
g51
NtRp580
(dp581
g54
(dp582
sg63
g567
sg56
(lp583
g49
(g50
g51
NtRp584
(dp585
g54
(dp586
g62
I4
ssg63
g580
sg56
(lp587
g49
(g58
g51
NtRp588
(dp589
g54
(dp590
g62
I3
ssg63
Nsg56
(lp591
g49
(g65
g51
NtRp592
(dp593
g54
(dp594
sg63
g588
sg56
(lp595
g49
(g70
g51
NtRp596
(dp597
g54
(dp598
g74
g75
ssg63
g592
sg56
(lp599
g263
asbag49
(g70
g51
NtRp600
(dp601
g54
(dp602
g81
g82
ssg63
g592
sg56
(lp603
S':'
asbag49
(g70
g51
NtRp604
(dp605
g54
(dp606
sg63
g592
sg56
(lp607
g49
(g50
g51
NtRp608
(dp609
g54
(dp610
g62
I3
ssg63
g604
sg56
(lp611
S''
asbasbasbag49
(g65
g51
NtRp612
(dp613
g54
(dp614
sg63
g588
sg56
(lp615
g49
(g70
g51
NtRp616
(dp617
g54
(dp618
g74
g75
ssg63
g612
sg56
(lp619
g284
asbag49
(g70
g51
NtRp620
(dp621
g54
(dp622
g81
g82
ssg63
g612
sg56
(lp623
S':'
asbag49
(g70
g51
NtRp624
(dp625
g54
(dp626
sg63
g612
sg56
(lp627
g49
(g50
g51
NtRp628
(dp629
g54
(dp630
g62
I3
ssg63
g624
sg56
(lp631
S''
asbasbasbag49
(g65
g51
NtRp632
(dp633
g54
(dp634
sg63
g588
sg56
(lp635
g49
(g70
g51
NtRp636
(dp637
g54
(dp638
g74
g75
ssg63
g632
sg56
(lp639
g305
asbag49
(g70
g51
NtRp640
(dp641
g54
(dp642
g81
g82
ssg63
g632
sg56
(lp643
S':'
asbag49
(g70
g51
NtRp644
(dp645
g54
(dp646
sg63
g632
sg56
(lp647
g49
(g50
g51
NtRp648
(dp649
g54
(dp650
g62
I3
ssg63
g644
sg56
(lp651
S''
asbasbasbag49
(g65
g51
NtRp652
(dp653
g54
(dp654
sg63
g588
sg56
(lp655
g49
(g70
g51
NtRp656
(dp657
g54
(dp658
g74
g75
ssg63
g652
sg56
(lp659
g326
asbag49
(g70
g51
NtRp660
(dp661
g54
(dp662
g81
g82
ssg63
g652
sg56
(lp663
S':'
asbag49
(g70
g51
NtRp664
(dp665
g54
(dp666
sg63
g652
sg56
(lp667
g49
(g50
g51
NtRp668
(dp669
g54
(dp670
g62
I3
ssg63
g664
sg56
(lp671
S''
asbasbasbag49
(g65
g51
NtRp672
(dp673
g54
(dp674
sg63
g588
sg56
(lp675
g49
(g70
g51
NtRp676
(dp677
g54
(dp678
g74
g75
ssg63
g672
sg56
(lp679
g347
asbag49
(g70
g51
NtRp680
(dp681
g54
(dp682
g81
g82
ssg63
g672
sg56
(lp683
S':'
asbag49
(g70
g51
NtRp684
(dp685
g54
(dp686
sg63
g672
sg56
(lp687
g49
(g50
g51
NtRp688
(dp689
g54
(dp690
g62
I3
ssg63
g684
sg56
(lp691
S''
asbasbasbag49
(g65
g51
NtRp692
(dp693
g54
(dp694
sg63
g588
sg56
(lp695
g49
(g70
g51
NtRp696
(dp697
g54
(dp698
g74
g75
ssg63
g692
sg56
(lp699
g368
asbag49
(g70
g51
NtRp700
(dp701
g54
(dp702
g81
g82
ssg63
g692
sg56
(lp703
S':'
asbag49
(g70
g51
NtRp704
(dp705
g54
(dp706
sg63
g692
sg56
(lp707
g49
(g50
g51
NtRp708
(dp709
g54
(dp710
g62
I3
ssg63
g704
sg56
(lp711
S''
asbasbasbag49
(g65
g51
NtRp712
(dp713
g54
(dp714
sg63
g588
sg56
(lp715
g49
(g70
g51
NtRp716
(dp717
g54
(dp718
g74
g75
ssg63
g712
sg56
(lp719
g389
asbag49
(g70
g51
NtRp720
(dp721
g54
(dp722
g81
g82
ssg63
g712
sg56
(lp723
S':'
asbag49
(g70
g51
NtRp724
(dp725
g54
(dp726
sg63
g712
sg56
(lp727
g49
(g50
g51
NtRp728
(dp729
g54
(dp730
g62
I3
ssg63
g724
sg56
(lp731
S''
asbasbasbasbasbasbasbasbasbasbasbag49
(g65
g51
NtRp732
(dp733
g54
(dp734
sg63
g59
sg56
(lp735
g49
(g70
g51
NtRp736
(dp737
g54
(dp738
g74
g75
ssg63
g732
sg56
(lp739
S'env'
p740
asbag49
(g70
g51
NtRp741
(dp742
g54
(dp743
g81
g82
ssg63
g732
sg56
(lp744
S':'
asbag49
(g70
g51
NtRp745
(dp746
g54
(dp747
sg63
g732
sg56
(lp748
g49
(g50
g51
NtRp749
(dp750
g54
(dp751
g62
I5
ssg63
g745
sg56
(lp752
g49
(g58
g51
NtRp753
(dp754
g54
(dp755
g62
I4
ssg63
Nsg56
(lp756
g49
(g65
g51
NtRp757
(dp758
g54
(dp759
sg63
g753
sg56
(lp760
g49
(g70
g51
NtRp761
(dp762
g54
(dp763
g74
g75
ssg63
g757
sg56
(lp764
S'app_folders'
p765
asbag49
(g70
g51
NtRp766
(dp767
g54
(dp768
g81
g82
ssg63
g757
sg56
(lp769
S':'
asbag49
(g70
g51
NtRp770
(dp771
g54
(dp772
sg63
g757
sg56
(lp773
g49
(g50
g51
NtRp774
(dp775
g54
(dp776
g62
I4
ssg63
g770
sg56
(lp777
S"set(['D:\\\\Documents\\\\Workspace\\\\Jack\\\\web2py\\\\applications\\\\init\\\\', 'D:\\\\Documents\\\\Workspace\\\\Jack\\\\web2py\\\\applications\\\\admin\\\\'])"
p778
asbasbasbag49
(g65
g51
NtRp779
(dp780
g54
(dp781
sg63
g753
sg56
(lp782
g49
(g70
g51
NtRp783
(dp784
g54
(dp785
g74
g75
ssg63
g779
sg56
(lp786
S'applications_parent'
p787
asbag49
(g70
g51
NtRp788
(dp789
g54
(dp790
g81
g82
ssg63
g779
sg56
(lp791
S':'
asbag49
(g70
g51
NtRp792
(dp793
g54
(dp794
sg63
g779
sg56
(lp795
g49
(g50
g51
NtRp796
(dp797
g54
(dp798
g62
I4
ssg63
g792
sg56
(lp799
S'D:\\Documents\\Workspace\\Jack\\web2py'
p800
asbasbasbag49
(g65
g51
NtRp801
(dp802
g54
(dp803
sg63
g753
sg56
(lp804
g49
(g70
g51
NtRp805
(dp806
g54
(dp807
g74
g75
ssg63
g801
sg56
(lp808
S'cmd_args'
p809
asbag49
(g70
g51
NtRp810
(dp811
g54
(dp812
g81
g82
ssg63
g801
sg56
(lp813
S':'
asbag49
(g70
g51
NtRp814
(dp815
g54
(dp816
sg63
g801
sg56
(lp817
g49
(g50
g51
NtRp818
(dp819
g54
(dp820
g62
I4
ssg63
g814
sg56
(lp821
g49
(g58
g51
NtRp822
(dp823
g54
(dp824
g62
I3
ssg63
Nsg56
(lp825
sbasbasbasbag49
(g65
g51
NtRp826
(dp827
g54
(dp828
sg63
g753
sg56
(lp829
g49
(g70
g51
NtRp830
(dp831
g54
(dp832
g74
g75
ssg63
g826
sg56
(lp833
S'cmd_options'
p834
asbag49
(g70
g51
NtRp835
(dp836
g54
(dp837
g81
g82
ssg63
g826
sg56
(lp838
S':'
asbag49
(g70
g51
NtRp839
(dp840
g54
(dp841
sg63
g826
sg56
(lp842
g49
(g50
g51
NtRp843
(dp844
g54
(dp845
g62
I4
ssg63
g839
sg56
(lp846
S"<Values at 0x224ec60: {'verbose': False, 'ip': '127.0.0.1', 'shutdown_timeout': 5, 'taskbar': False, 'nocron': False, 'pid_filename': 'httpserver.pid', 'maxthreads': None, 'softcron': False, 'server_name': 'Pixies', 'bpython': False, 'nogui': False, 'port': 8000, 'extcron': False, 'debuglevel': 30, 'test': None, 'folder': 'D:\\\\Documents\\\\Workspace\\\\Jack\\\\web2py', 'config': '', 'import_models': False, 'winservice': '', 'shell': None, 'run': '', 'log_filename': 'httpserver.log', 'args': [''], 'socket_timeout': 5, 'ssl_ca_certificate': None, 'scheduler': None, 'profiler_filename': None, 'ssl_private_key': '', 'password': '<ask>', 'request_queue_size': 5, 'ssl_certificate': '', 'cronjob': False, 'numthreads': None, 'quiet': False, 'interfaces': None, 'minthreads': None, 'timeout': 10, 'plain': False, 'nobanner': False}>"
p847
asbasbasbag49
(g65
g51
NtRp848
(dp849
g54
(dp850
sg63
g753
sg56
(lp851
g49
(g70
g51
NtRp852
(dp853
g54
(dp854
g74
g75
ssg63
g848
sg56
(lp855
S'content_length'
p856
asbag49
(g70
g51
NtRp857
(dp858
g54
(dp859
g81
g82
ssg63
g848
sg56
(lp860
S':'
asbag49
(g70
g51
NtRp861
(dp862
g54
(dp863
sg63
g848
sg56
(lp864
g49
(g50
g51
NtRp865
(dp866
g54
(dp867
g62
I4
ssg63
g861
sg56
(lp868
S'377'
p869
asbasbasbag49
(g65
g51
NtRp870
(dp871
g54
(dp872
sg63
g753
sg56
(lp873
g49
(g70
g51
NtRp874
(dp875
g54
(dp876
g74
g75
ssg63
g870
sg56
(lp877
S'content_type'
p878
asbag49
(g70
g51
NtRp879
(dp880
g54
(dp881
g81
g82
ssg63
g870
sg56
(lp882
S':'
asbag49
(g70
g51
NtRp883
(dp884
g54
(dp885
sg63
g870
sg56
(lp886
g49
(g50
g51
NtRp887
(dp888
g54
(dp889
g62
I4
ssg63
g883
sg56
(lp890
S'multipart/form-data; boundary=----WebKitFormBoundaryLbwBsvbbvM9nAG9b'
p891
asbasbasbag49
(g65
g51
NtRp892
(dp893
g54
(dp894
sg63
g753
sg56
(lp895
g49
(g70
g51
NtRp896
(dp897
g54
(dp898
g74
g75
ssg63
g892
sg56
(lp899
S'db_sessions'
p900
asbag49
(g70
g51
NtRp901
(dp902
g54
(dp903
g81
g82
ssg63
g892
sg56
(lp904
S':'
asbag49
(g70
g51
NtRp905
(dp906
g54
(dp907
sg63
g892
sg56
(lp908
g49
(g50
g51
NtRp909
(dp910
g54
(dp911
g62
I4
ssg63
g905
sg56
(lp912
S"set(['init'])"
p913
asbasbasbag49
(g65
g51
NtRp914
(dp915
g54
(dp916
sg63
g753
sg56
(lp917
g49
(g70
g51
NtRp918
(dp919
g54
(dp920
g74
g75
ssg63
g914
sg56
(lp921
S'debugging'
p922
asbag49
(g70
g51
NtRp923
(dp924
g54
(dp925
g81
g82
ssg63
g914
sg56
(lp926
S':'
asbag49
(g70
g51
NtRp927
(dp928
g54
(dp929
sg63
g914
sg56
(lp930
g49
(g50
g51
NtRp931
(dp932
g54
(dp933
g62
I4
ssg63
g927
sg56
(lp934
S'True'
p935
asbasbasbag49
(g65
g51
NtRp936
(dp937
g54
(dp938
sg63
g753
sg56
(lp939
g49
(g70
g51
NtRp940
(dp941
g54
(dp942
g74
g75
ssg63
g936
sg56
(lp943
S'gluon_parent'
p944
asbag49
(g70
g51
NtRp945
(dp946
g54
(dp947
g81
g82
ssg63
g936
sg56
(lp948
S':'
asbag49
(g70
g51
NtRp949
(dp950
g54
(dp951
sg63
g936
sg56
(lp952
g49
(g50
g51
NtRp953
(dp954
g54
(dp955
g62
I4
ssg63
g949
sg56
(lp956
S'D:\\Documents\\Workspace\\Jack\\web2py'
p957
asbasbasbag49
(g65
g51
NtRp958
(dp959
g54
(dp960
sg63
g753
sg56
(lp961
g49
(g70
g51
NtRp962
(dp963
g54
(dp964
g74
g75
ssg63
g958
sg56
(lp965
S'http_accept'
p966
asbag49
(g70
g51
NtRp967
(dp968
g54
(dp969
g81
g82
ssg63
g958
sg56
(lp970
S':'
asbag49
(g70
g51
NtRp971
(dp972
g54
(dp973
sg63
g958
sg56
(lp974
g49
(g50
g51
NtRp975
(dp976
g54
(dp977
g62
I4
ssg63
g971
sg56
(lp978
S'text/html,application/xhtml+xml,application/xml;q=0.9,*/*;q=0.8'
p979
asbasbasbag49
(g65
g51
NtRp980
(dp981
g54
(dp982
sg63
g753
sg56
(lp983
g49
(g70
g51
NtRp984
(dp985
g54
(dp986
g74
g75
ssg63
g980
sg56
(lp987
S'http_accept_charset'
p988
asbag49
(g70
g51
NtRp989
(dp990
g54
(dp991
g81
g82
ssg63
g980
sg56
(lp992
S':'
asbag49
(g70
g51
NtRp993
(dp994
g54
(dp995
sg63
g980
sg56
(lp996
g49
(g50
g51
NtRp997
(dp998
g54
(dp999
g62
I4
ssg63
g993
sg56
(lp1000
S'ISO-8859-1,utf-8;q=0.7,*;q=0.3'
p1001
asbasbasbag49
(g65
g51
NtRp1002
(dp1003
g54
(dp1004
sg63
g753
sg56
(lp1005
g49
(g70
g51
NtRp1006
(dp1007
g54
(dp1008
g74
g75
ssg63
g1002
sg56
(lp1009
S'http_accept_encoding'
p1010
asbag49
(g70
g51
NtRp1011
(dp1012
g54
(dp1013
g81
g82
ssg63
g1002
sg56
(lp1014
S':'
asbag49
(g70
g51
NtRp1015
(dp1016
g54
(dp1017
sg63
g1002
sg56
(lp1018
g49
(g50
g51
NtRp1019
(dp1020
g54
(dp1021
g62
I4
ssg63
g1015
sg56
(lp1022
S'gzip,deflate,sdch'
p1023
asbasbasbag49
(g65
g51
NtRp1024
(dp1025
g54
(dp1026
sg63
g753
sg56
(lp1027
g49
(g70
g51
NtRp1028
(dp1029
g54
(dp1030
g74
g75
ssg63
g1024
sg56
(lp1031
S'http_accept_language'
p1032
asbag49
(g70
g51
NtRp1033
(dp1034
g54
(dp1035
g81
g82
ssg63
g1024
sg56
(lp1036
S':'
asbag49
(g70
g51
NtRp1037
(dp1038
g54
(dp1039
sg63
g1024
sg56
(lp1040
g49
(g50
g51
NtRp1041
(dp1042
g54
(dp1043
g62
I4
ssg63
g1037
sg56
(lp1044
S'fr-FR,fr;q=0.8,en-US;q=0.6,en;q=0.4'
p1045
asbasbasbag49
(g65
g51
NtRp1046
(dp1047
g54
(dp1048
sg63
g753
sg56
(lp1049
g49
(g70
g51
NtRp1050
(dp1051
g54
(dp1052
g74
g75
ssg63
g1046
sg56
(lp1053
S'http_cache_control'
p1054
asbag49
(g70
g51
NtRp1055
(dp1056
g54
(dp1057
g81
g82
ssg63
g1046
sg56
(lp1058
S':'
asbag49
(g70
g51
NtRp1059
(dp1060
g54
(dp1061
sg63
g1046
sg56
(lp1062
g49
(g50
g51
NtRp1063
(dp1064
g54
(dp1065
g62
I4
ssg63
g1059
sg56
(lp1066
S'max-age=0'
p1067
asbasbasbag49
(g65
g51
NtRp1068
(dp1069
g54
(dp1070
sg63
g753
sg56
(lp1071
g49
(g70
g51
NtRp1072
(dp1073
g54
(dp1074
g74
g75
ssg63
g1068
sg56
(lp1075
S'http_connection'
p1076
asbag49
(g70
g51
NtRp1077
(dp1078
g54
(dp1079
g81
g82
ssg63
g1068
sg56
(lp1080
S':'
asbag49
(g70
g51
NtRp1081
(dp1082
g54
(dp1083
sg63
g1068
sg56
(lp1084
g49
(g50
g51
NtRp1085
(dp1086
g54
(dp1087
g62
I4
ssg63
g1081
sg56
(lp1088
S'keep-alive'
p1089
asbasbasbag49
(g65
g51
NtRp1090
(dp1091
g54
(dp1092
sg63
g753
sg56
(lp1093
g49
(g70
g51
NtRp1094
(dp1095
g54
(dp1096
g74
g75
ssg63
g1090
sg56
(lp1097
S'http_content_length'
p1098
asbag49
(g70
g51
NtRp1099
(dp1100
g54
(dp1101
g81
g82
ssg63
g1090
sg56
(lp1102
S':'
asbag49
(g70
g51
NtRp1103
(dp1104
g54
(dp1105
sg63
g1090
sg56
(lp1106
g49
(g50
g51
NtRp1107
(dp1108
g54
(dp1109
g62
I4
ssg63
g1103
sg56
(lp1110
g869
asbasbasbag49
(g65
g51
NtRp1111
(dp1112
g54
(dp1113
sg63
g753
sg56
(lp1114
g49
(g70
g51
NtRp1115
(dp1116
g54
(dp1117
g74
g75
ssg63
g1111
sg56
(lp1118
S'http_content_type'
p1119
asbag49
(g70
g51
NtRp1120
(dp1121
g54
(dp1122
g81
g82
ssg63
g1111
sg56
(lp1123
S':'
asbag49
(g70
g51
NtRp1124
(dp1125
g54
(dp1126
sg63
g1111
sg56
(lp1127
g49
(g50
g51
NtRp1128
(dp1129
g54
(dp1130
g62
I4
ssg63
g1124
sg56
(lp1131
g891
asbasbasbag49
(g65
g51
NtRp1132
(dp1133
g54
(dp1134
sg63
g753
sg56
(lp1135
g49
(g70
g51
NtRp1136
(dp1137
g54
(dp1138
g74
g75
ssg63
g1132
sg56
(lp1139
S'http_cookie'
p1140
asbag49
(g70
g51
NtRp1141
(dp1142
g54
(dp1143
g81
g82
ssg63
g1132
sg56
(lp1144
S':'
asbag49
(g70
g51
NtRp1145
(dp1146
g54
(dp1147
sg63
g1132
sg56
(lp1148
g49
(g50
g51
NtRp1149
(dp1150
g54
(dp1151
g62
I4
ssg63
g1145
sg56
(lp1152
S'csrftoken=1900f2cc309612bffd0fb6b993353108; session_id_admin=127.0.0.1-f32e1a65-32fb-49b7-84ab-7a21563ac1e8; session_id_init="7:c3d6c80f-e768-4969-a53e-59b97f99de74"'
p1153
asbasbasbag49
(g65
g51
NtRp1154
(dp1155
g54
(dp1156
sg63
g753
sg56
(lp1157
g49
(g70
g51
NtRp1158
(dp1159
g54
(dp1160
g74
g75
ssg63
g1154
sg56
(lp1161
S'http_host'
p1162
asbag49
(g70
g51
NtRp1163
(dp1164
g54
(dp1165
g81
g82
ssg63
g1154
sg56
(lp1166
S':'
asbag49
(g70
g51
NtRp1167
(dp1168
g54
(dp1169
sg63
g1154
sg56
(lp1170
g49
(g50
g51
NtRp1171
(dp1172
g54
(dp1173
g62
I4
ssg63
g1167
sg56
(lp1174
S'localhost:8000'
p1175
asbasbasbag49
(g65
g51
NtRp1176
(dp1177
g54
(dp1178
sg63
g753
sg56
(lp1179
g49
(g70
g51
NtRp1180
(dp1181
g54
(dp1182
g74
g75
ssg63
g1176
sg56
(lp1183
S'http_origin'
p1184
asbag49
(g70
g51
NtRp1185
(dp1186
g54
(dp1187
g81
g82
ssg63
g1176
sg56
(lp1188
S':'
asbag49
(g70
g51
NtRp1189
(dp1190
g54
(dp1191
sg63
g1176
sg56
(lp1192
g49
(g50
g51
NtRp1193
(dp1194
g54
(dp1195
g62
I4
ssg63
g1189
sg56
(lp1196
S'http://localhost:8000'
p1197
asbasbasbag49
(g65
g51
NtRp1198
(dp1199
g54
(dp1200
sg63
g753
sg56
(lp1201
g49
(g70
g51
NtRp1202
(dp1203
g54
(dp1204
g74
g75
ssg63
g1198
sg56
(lp1205
S'http_referer'
p1206
asbag49
(g70
g51
NtRp1207
(dp1208
g54
(dp1209
g81
g82
ssg63
g1198
sg56
(lp1210
S':'
asbag49
(g70
g51
NtRp1211
(dp1212
g54
(dp1213
sg63
g1198
sg56
(lp1214
g49
(g50
g51
NtRp1215
(dp1216
g54
(dp1217
g62
I4
ssg63
g1211
sg56
(lp1218
S'http://localhost:8000/init/default/generate_invitationpage'
p1219
asbasbasbag49
(g65
g51
NtRp1220
(dp1221
g54
(dp1222
sg63
g753
sg56
(lp1223
g49
(g70
g51
NtRp1224
(dp1225
g54
(dp1226
g74
g75
ssg63
g1220
sg56
(lp1227
S'http_user_agent'
p1228
asbag49
(g70
g51
NtRp1229
(dp1230
g54
(dp1231
g81
g82
ssg63
g1220
sg56
(lp1232
S':'
asbag49
(g70
g51
NtRp1233
(dp1234
g54
(dp1235
sg63
g1220
sg56
(lp1236
g49
(g50
g51
NtRp1237
(dp1238
g54
(dp1239
g62
I4
ssg63
g1233
sg56
(lp1240
S'Mozilla/5.0 (Windows NT 5.1) AppleWebKit/535.11 (KHTML, like Gecko) Chrome/17.0.963.83 Safari/535.11'
p1241
asbasbasbag49
(g65
g51
NtRp1242
(dp1243
g54
(dp1244
sg63
g753
sg56
(lp1245
g49
(g70
g51
NtRp1246
(dp1247
g54
(dp1248
g74
g75
ssg63
g1242
sg56
(lp1249
S'is_jython'
p1250
asbag49
(g70
g51
NtRp1251
(dp1252
g54
(dp1253
g81
g82
ssg63
g1242
sg56
(lp1254
S':'
asbag49
(g70
g51
NtRp1255
(dp1256
g54
(dp1257
sg63
g1242
sg56
(lp1258
g49
(g50
g51
NtRp1259
(dp1260
g54
(dp1261
g62
I4
ssg63
g1255
sg56
(lp1262
g92
asbasbasbag49
(g65
g51
NtRp1263
(dp1264
g54
(dp1265
sg63
g753
sg56
(lp1266
g49
(g70
g51
NtRp1267
(dp1268
g54
(dp1269
g74
g75
ssg63
g1263
sg56
(lp1270
S'is_pypy'
p1271
asbag49
(g70
g51
NtRp1272
(dp1273
g54
(dp1274
g81
g82
ssg63
g1263
sg56
(lp1275
S':'
asbag49
(g70
g51
NtRp1276
(dp1277
g54
(dp1278
sg63
g1263
sg56
(lp1279
g49
(g50
g51
NtRp1280
(dp1281
g54
(dp1282
g62
I4
ssg63
g1276
sg56
(lp1283
g92
asbasbasbag49
(g65
g51
NtRp1284
(dp1285
g54
(dp1286
sg63
g753
sg56
(lp1287
g49
(g70
g51
NtRp1288
(dp1289
g54
(dp1290
g74
g75
ssg63
g1284
sg56
(lp1291
S'path_info'
p1292
asbag49
(g70
g51
NtRp1293
(dp1294
g54
(dp1295
g81
g82
ssg63
g1284
sg56
(lp1296
S':'
asbag49
(g70
g51
NtRp1297
(dp1298
g54
(dp1299
sg63
g1284
sg56
(lp1300
g49
(g50
g51
NtRp1301
(dp1302
g54
(dp1303
g62
I4
ssg63
g1297
sg56
(lp1304
S'/init/default/generate_invitationpage'
p1305
asbasbasbag49
(g65
g51
NtRp1306
(dp1307
g54
(dp1308
sg63
g753
sg56
(lp1309
g49
(g70
g51
NtRp1310
(dp1311
g54
(dp1312
g74
g75
ssg63
g1306
sg56
(lp1313
S'query_string'
p1314
asbag49
(g70
g51
NtRp1315
(dp1316
g54
(dp1317
g81
g82
ssg63
g1306
sg56
(lp1318
S':'
asbag49
(g70
g51
NtRp1319
(dp1320
g54
(dp1321
sg63
g1306
sg56
(lp1322
g49
(g50
g51
NtRp1323
(dp1324
g54
(dp1325
g62
I4
ssg63
g1319
sg56
(lp1326
S''
asbasbasbag49
(g65
g51
NtRp1327
(dp1328
g54
(dp1329
sg63
g753
sg56
(lp1330
g49
(g70
g51
NtRp1331
(dp1332
g54
(dp1333
g74
g75
ssg63
g1327
sg56
(lp1334
S'remote_addr'
p1335
asbag49
(g70
g51
NtRp1336
(dp1337
g54
(dp1338
g81
g82
ssg63
g1327
sg56
(lp1339
S':'
asbag49
(g70
g51
NtRp1340
(dp1341
g54
(dp1342
sg63
g1327
sg56
(lp1343
g49
(g50
g51
NtRp1344
(dp1345
g54
(dp1346
g62
I4
ssg63
g1340
sg56
(lp1347
g182
asbasbasbag49
(g65
g51
NtRp1348
(dp1349
g54
(dp1350
sg63
g753
sg56
(lp1351
g49
(g70
g51
NtRp1352
(dp1353
g54
(dp1354
g74
g75
ssg63
g1348
sg56
(lp1355
S'remote_port'
p1356
asbag49
(g70
g51
NtRp1357
(dp1358
g54
(dp1359
g81
g82
ssg63
g1348
sg56
(lp1360
S':'
asbag49
(g70
g51
NtRp1361
(dp1362
g54
(dp1363
sg63
g1348
sg56
(lp1364
g49
(g50
g51
NtRp1365
(dp1366
g54
(dp1367
g62
I4
ssg63
g1361
sg56
(lp1368
S'2650'
p1369
asbasbasbag49
(g65
g51
NtRp1370
(dp1371
g54
(dp1372
sg63
g753
sg56
(lp1373
g49
(g70
g51
NtRp1374
(dp1375
g54
(dp1376
g74
g75
ssg63
g1370
sg56
(lp1377
S'request_method'
p1378
asbag49
(g70
g51
NtRp1379
(dp1380
g54
(dp1381
g81
g82
ssg63
g1370
sg56
(lp1382
S':'
asbag49
(g70
g51
NtRp1383
(dp1384
g54
(dp1385
sg63
g1370
sg56
(lp1386
g49
(g50
g51
NtRp1387
(dp1388
g54
(dp1389
g62
I4
ssg63
g1383
sg56
(lp1390
S'POST'
p1391
asbasbasbag49
(g65
g51
NtRp1392
(dp1393
g54
(dp1394
sg63
g753
sg56
(lp1395
g49
(g70
g51
NtRp1396
(dp1397
g54
(dp1398
g74
g75
ssg63
g1392
sg56
(lp1399
S'script_name'
p1400
asbag49
(g70
g51
NtRp1401
(dp1402
g54
(dp1403
g81
g82
ssg63
g1392
sg56
(lp1404
S':'
asbag49
(g70
g51
NtRp1405
(dp1406
g54
(dp1407
sg63
g1392
sg56
(lp1408
g49
(g50
g51
NtRp1409
(dp1410
g54
(dp1411
g62
I4
ssg63
g1405
sg56
(lp1412
S''
asbasbasbag49
(g65
g51
NtRp1413
(dp1414
g54
(dp1415
sg63
g753
sg56
(lp1416
g49
(g70
g51
NtRp1417
(dp1418
g54
(dp1419
g74
g75
ssg63
g1413
sg56
(lp1420
S'server_name'
p1421
asbag49
(g70
g51
NtRp1422
(dp1423
g54
(dp1424
g81
g82
ssg63
g1413
sg56
(lp1425
S':'
asbag49
(g70
g51
NtRp1426
(dp1427
g54
(dp1428
sg63
g1413
sg56
(lp1429
g49
(g50
g51
NtRp1430
(dp1431
g54
(dp1432
g62
I4
ssg63
g1426
sg56
(lp1433
S'Pixies'
p1434
asbasbasbag49
(g65
g51
NtRp1435
(dp1436
g54
(dp1437
sg63
g753
sg56
(lp1438
g49
(g70
g51
NtRp1439
(dp1440
g54
(dp1441
g74
g75
ssg63
g1435
sg56
(lp1442
S'server_port'
p1443
asbag49
(g70
g51
NtRp1444
(dp1445
g54
(dp1446
g81
g82
ssg63
g1435
sg56
(lp1447
S':'
asbag49
(g70
g51
NtRp1448
(dp1449
g54
(dp1450
sg63
g1435
sg56
(lp1451
g49
(g50
g51
NtRp1452
(dp1453
g54
(dp1454
g62
I4
ssg63
g1448
sg56
(lp1455
S'8000'
p1456
asbasbasbag49
(g65
g51
NtRp1457
(dp1458
g54
(dp1459
sg63
g753
sg56
(lp1460
g49
(g70
g51
NtRp1461
(dp1462
g54
(dp1463
g74
g75
ssg63
g1457
sg56
(lp1464
S'server_protocol'
p1465
asbag49
(g70
g51
NtRp1466
(dp1467
g54
(dp1468
g81
g82
ssg63
g1457
sg56
(lp1469
S':'
asbag49
(g70
g51
NtRp1470
(dp1471
g54
(dp1472
sg63
g1457
sg56
(lp1473
g49
(g50
g51
NtRp1474
(dp1475
g54
(dp1476
g62
I4
ssg63
g1470
sg56
(lp1477
S'HTTP/1.1'
p1478
asbasbasbag49
(g65
g51
NtRp1479
(dp1480
g54
(dp1481
sg63
g753
sg56
(lp1482
g49
(g70
g51
NtRp1483
(dp1484
g54
(dp1485
g74
g75
ssg63
g1479
sg56
(lp1486
S'server_software'
p1487
asbag49
(g70
g51
NtRp1488
(dp1489
g54
(dp1490
g81
g82
ssg63
g1479
sg56
(lp1491
S':'
asbag49
(g70
g51
NtRp1492
(dp1493
g54
(dp1494
sg63
g1479
sg56
(lp1495
g49
(g50
g51
NtRp1496
(dp1497
g54
(dp1498
g62
I4
ssg63
g1492
sg56
(lp1499
S'Rocket 1.2.4'
p1500
asbasbasbag49
(g65
g51
NtRp1501
(dp1502
g54
(dp1503
sg63
g753
sg56
(lp1504
g49
(g70
g51
NtRp1505
(dp1506
g54
(dp1507
g74
g75
ssg63
g1501
sg56
(lp1508
S'web2py_crontype'
p1509
asbag49
(g70
g51
NtRp1510
(dp1511
g54
(dp1512
g81
g82
ssg63
g1501
sg56
(lp1513
S':'
asbag49
(g70
g51
NtRp1514
(dp1515
g54
(dp1516
sg63
g1501
sg56
(lp1517
g49
(g50
g51
NtRp1518
(dp1519
g54
(dp1520
g62
I4
ssg63
g1514
sg56
(lp1521
S'hard'
p1522
asbasbasbag49
(g65
g51
NtRp1523
(dp1524
g54
(dp1525
sg63
g753
sg56
(lp1526
g49
(g70
g51
NtRp1527
(dp1528
g54
(dp1529
g74
g75
ssg63
g1523
sg56
(lp1530
S'web2py_path'
p1531
asbag49
(g70
g51
NtRp1532
(dp1533
g54
(dp1534
g81
g82
ssg63
g1523
sg56
(lp1535
S':'
asbag49
(g70
g51
NtRp1536
(dp1537
g54
(dp1538
sg63
g1523
sg56
(lp1539
g49
(g50
g51
NtRp1540
(dp1541
g54
(dp1542
g62
I4
ssg63
g1536
sg56
(lp1543
g800
asbasbasbag49
(g65
g51
NtRp1544
(dp1545
g54
(dp1546
sg63
g753
sg56
(lp1547
g49
(g70
g51
NtRp1548
(dp1549
g54
(dp1550
g74
g75
ssg63
g1544
sg56
(lp1551
S'web2py_version'
p1552
asbag49
(g70
g51
NtRp1553
(dp1554
g54
(dp1555
g81
g82
ssg63
g1544
sg56
(lp1556
S':'
asbag49
(g70
g51
NtRp1557
(dp1558
g54
(dp1559
sg63
g1544
sg56
(lp1560
g49
(g50
g51
NtRp1561
(dp1562
g54
(dp1563
g62
I4
ssg63
g1557
sg56
(lp1564
g49
(g58
g51
NtRp1565
(dp1566
g54
(dp1567
g62
I3
ssg63
Nsg56
(lp1568
g49
(g65
g51
NtRp1569
(dp1570
g54
(dp1571
sg63
g1565
sg56
(lp1572
g49
(g70
g51
NtRp1573
(dp1574
g54
(dp1575
sg63
g1569
sg56
(lp1576
g49
(g50
g51
NtRp1577
(dp1578
g54
(dp1579
g62
I3
ssg63
g1573
sg56
(lp1580
S'1'
asbasbasbag49
(g65
g51
NtRp1581
(dp1582
g54
(dp1583
sg63
g1565
sg56
(lp1584
g49
(g70
g51
NtRp1585
(dp1586
g54
(dp1587
sg63
g1581
sg56
(lp1588
g49
(g50
g51
NtRp1589
(dp1590
g54
(dp1591
g62
I3
ssg63
g1585
sg56
(lp1592
S'99'
p1593
asbasbasbag49
(g65
g51
NtRp1594
(dp1595
g54
(dp1596
sg63
g1565
sg56
(lp1597
g49
(g70
g51
NtRp1598
(dp1599
g54
(dp1600
sg63
g1594
sg56
(lp1601
g49
(g50
g51
NtRp1602
(dp1603
g54
(dp1604
g62
I3
ssg63
g1598
sg56
(lp1605
S'7'
asbasbasbag49
(g65
g51
NtRp1606
(dp1607
g54
(dp1608
sg63
g1565
sg56
(lp1609
g49
(g70
g51
NtRp1610
(dp1611
g54
(dp1612
sg63
g1606
sg56
(lp1613
g49
(g50
g51
NtRp1614
(dp1615
g54
(dp1616
g62
I3
ssg63
g1610
sg56
(lp1617
S'datetime.datetime(2012, 3, 4, 22, 12, 8)'
p1618
asbasbasbag49
(g65
g51
NtRp1619
(dp1620
g54
(dp1621
sg63
g1565
sg56
(lp1622
g49
(g70
g51
NtRp1623
(dp1624
g54
(dp1625
sg63
g1619
sg56
(lp1626
g49
(g50
g51
NtRp1627
(dp1628
g54
(dp1629
g62
I3
ssg63
g1623
sg56
(lp1630
S'stable'
p1631
asbasbasbasbasbasbasbag49
(g65
g51
NtRp1632
(dp1633
g54
(dp1634
sg63
g753
sg56
(lp1635
g49
(g70
g51
NtRp1636
(dp1637
g54
(dp1638
g74
g75
ssg63
g1632
sg56
(lp1639
S'wsgi_errors'
p1640
asbag49
(g70
g51
NtRp1641
(dp1642
g54
(dp1643
g81
g82
ssg63
g1632
sg56
(lp1644
S':'
asbag49
(g70
g51
NtRp1645
(dp1646
g54
(dp1647
sg63
g1632
sg56
(lp1648
g49
(g50
g51
NtRp1649
(dp1650
g54
(dp1651
g62
I4
ssg63
g1645
sg56
(lp1652
S"<open file '<stderr>', mode 'w' at 0x009000B0>"
p1653
asbasbasbag49
(g65
g51
NtRp1654
(dp1655
g54
(dp1656
sg63
g753
sg56
(lp1657
g49
(g70
g51
NtRp1658
(dp1659
g54
(dp1660
g74
g75
ssg63
g1654
sg56
(lp1661
S'wsgi_file_wrapper'
p1662
asbag49
(g70
g51
NtRp1663
(dp1664
g54
(dp1665
g81
g82
ssg63
g1654
sg56
(lp1666
S':'
asbag49
(g70
g51
NtRp1667
(dp1668
g54
(dp1669
sg63
g1654
sg56
(lp1670
g49
(g50
g51
NtRp1671
(dp1672
g54
(dp1673
g62
I4
ssg63
g1667
sg56
(lp1674
S'<class wsgiref.util.FileWrapper at 0x015E4600>'
p1675
asbasbasbag49
(g65
g51
NtRp1676
(dp1677
g54
(dp1678
sg63
g753
sg56
(lp1679
g49
(g70
g51
NtRp1680
(dp1681
g54
(dp1682
g74
g75
ssg63
g1676
sg56
(lp1683
S'wsgi_input'
p1684
asbag49
(g70
g51
NtRp1685
(dp1686
g54
(dp1687
g81
g82
ssg63
g1676
sg56
(lp1688
S':'
asbag49
(g70
g51
NtRp1689
(dp1690
g54
(dp1691
sg63
g1676
sg56
(lp1692
g49
(g50
g51
NtRp1693
(dp1694
g54
(dp1695
g62
I4
ssg63
g1689
sg56
(lp1696
S'<socket._fileobject object at 0x02B05AF0>'
p1697
asbasbasbag49
(g65
g51
NtRp1698
(dp1699
g54
(dp1700
sg63
g753
sg56
(lp1701
g49
(g70
g51
NtRp1702
(dp1703
g54
(dp1704
g74
g75
ssg63
g1698
sg56
(lp1705
S'wsgi_multiprocess'
p1706
asbag49
(g70
g51
NtRp1707
(dp1708
g54
(dp1709
g81
g82
ssg63
g1698
sg56
(lp1710
S':'
asbag49
(g70
g51
NtRp1711
(dp1712
g54
(dp1713
sg63
g1698
sg56
(lp1714
g49
(g50
g51
NtRp1715
(dp1716
g54
(dp1717
g62
I4
ssg63
g1711
sg56
(lp1718
g92
asbasbasbag49
(g65
g51
NtRp1719
(dp1720
g54
(dp1721
sg63
g753
sg56
(lp1722
g49
(g70
g51
NtRp1723
(dp1724
g54
(dp1725
g74
g75
ssg63
g1719
sg56
(lp1726
S'wsgi_multithread'
p1727
asbag49
(g70
g51
NtRp1728
(dp1729
g54
(dp1730
g81
g82
ssg63
g1719
sg56
(lp1731
S':'
asbag49
(g70
g51
NtRp1732
(dp1733
g54
(dp1734
sg63
g1719
sg56
(lp1735
g49
(g50
g51
NtRp1736
(dp1737
g54
(dp1738
g62
I4
ssg63
g1732
sg56
(lp1739
g935
asbasbasbag49
(g65
g51
NtRp1740
(dp1741
g54
(dp1742
sg63
g753
sg56
(lp1743
g49
(g70
g51
NtRp1744
(dp1745
g54
(dp1746
g74
g75
ssg63
g1740
sg56
(lp1747
S'wsgi_run_once'
p1748
asbag49
(g70
g51
NtRp1749
(dp1750
g54
(dp1751
g81
g82
ssg63
g1740
sg56
(lp1752
S':'
asbag49
(g70
g51
NtRp1753
(dp1754
g54
(dp1755
sg63
g1740
sg56
(lp1756
g49
(g50
g51
NtRp1757
(dp1758
g54
(dp1759
g62
I4
ssg63
g1753
sg56
(lp1760
g92
asbasbasbag49
(g65
g51
NtRp1761
(dp1762
g54
(dp1763
sg63
g753
sg56
(lp1764
g49
(g70
g51
NtRp1765
(dp1766
g54
(dp1767
g74
g75
ssg63
g1761
sg56
(lp1768
S'wsgi_url_scheme'
p1769
asbag49
(g70
g51
NtRp1770
(dp1771
g54
(dp1772
g81
g82
ssg63
g1761
sg56
(lp1773
S':'
asbag49
(g70
g51
NtRp1774
(dp1775
g54
(dp1776
sg63
g1761
sg56
(lp1777
g49
(g50
g51
NtRp1778
(dp1779
g54
(dp1780
g62
I4
ssg63
g1774
sg56
(lp1781
S'http'
p1782
asbasbasbag49
(g65
g51
NtRp1783
(dp1784
g54
(dp1785
sg63
g753
sg56
(lp1786
g49
(g70
g51
NtRp1787
(dp1788
g54
(dp1789
g74
g75
ssg63
g1783
sg56
(lp1790
S'wsgi_version'
p1791
asbag49
(g70
g51
NtRp1792
(dp1793
g54
(dp1794
g81
g82
ssg63
g1783
sg56
(lp1795
S':'
asbag49
(g70
g51
NtRp1796
(dp1797
g54
(dp1798
sg63
g1783
sg56
(lp1799
g49
(g50
g51
NtRp1800
(dp1801
g54
(dp1802
g62
I4
ssg63
g1796
sg56
(lp1803
g49
(g58
g51
NtRp1804
(dp1805
g54
(dp1806
g62
I3
ssg63
Nsg56
(lp1807
g49
(g65
g51
NtRp1808
(dp1809
g54
(dp1810
sg63
g1804
sg56
(lp1811
g49
(g70
g51
NtRp1812
(dp1813
g54
(dp1814
sg63
g1808
sg56
(lp1815
g49
(g50
g51
NtRp1816
(dp1817
g54
(dp1818
g62
I3
ssg63
g1812
sg56
(lp1819
S'1'
asbasbasbag49
(g65
g51
NtRp1820
(dp1821
g54
(dp1822
sg63
g1804
sg56
(lp1823
g49
(g70
g51
NtRp1824
(dp1825
g54
(dp1826
sg63
g1820
sg56
(lp1827
g49
(g50
g51
NtRp1828
(dp1829
g54
(dp1830
g62
I3
ssg63
g1824
sg56
(lp1831
S'0'
asbasbasbasbasbasbasbasbasbasbasbag49
(g65
g51
NtRp1832
(dp1833
g54
(dp1834
sg63
g59
sg56
(lp1835
g49
(g70
g51
NtRp1836
(dp1837
g54
(dp1838
g74
g75
ssg63
g1832
sg56
(lp1839
S'extension'
p1840
asbag49
(g70
g51
NtRp1841
(dp1842
g54
(dp1843
g81
g82
ssg63
g1832
sg56
(lp1844
S':'
asbag49
(g70
g51
NtRp1845
(dp1846
g54
(dp1847
sg63
g1832
sg56
(lp1848
g49
(g50
g51
NtRp1849
(dp1850
g54
(dp1851
g62
I5
ssg63
g1845
sg56
(lp1852
S'html'
p1853
asbasbasbag49
(g65
g51
NtRp1854
(dp1855
g54
(dp1856
sg63
g59
sg56
(lp1857
g49
(g70
g51
NtRp1858
(dp1859
g54
(dp1860
g74
g75
ssg63
g1854
sg56
(lp1861
S'folder'
p1862
asbag49
(g70
g51
NtRp1863
(dp1864
g54
(dp1865
g81
g82
ssg63
g1854
sg56
(lp1866
S':'
asbag49
(g70
g51
NtRp1867
(dp1868
g54
(dp1869
sg63
g1854
sg56
(lp1870
g49
(g50
g51
NtRp1871
(dp1872
g54
(dp1873
g62
I5
ssg63
g1867
sg56
(lp1874
S'D:\\Documents\\Workspace\\Jack\\web2py\\applications\\init\\'
p1875
asbasbasbag49
(g65
g51
NtRp1876
(dp1877
g54
(dp1878
sg63
g59
sg56
(lp1879
g49
(g70
g51
NtRp1880
(dp1881
g54
(dp1882
g74
g75
ssg63
g1876
sg56
(lp1883
S'function'
p1884
asbag49
(g70
g51
NtRp1885
(dp1886
g54
(dp1887
g81
g82
ssg63
g1876
sg56
(lp1888
S':'
asbag49
(g70
g51
NtRp1889
(dp1890
g54
(dp1891
sg63
g1876
sg56
(lp1892
g49
(g50
g51
NtRp1893
(dp1894
g54
(dp1895
g62
I5
ssg63
g1889
sg56
(lp1896
S'generate_invitationpage'
p1897
asbasbasbag49
(g65
g51
NtRp1898
(dp1899
g54
(dp1900
sg63
g59
sg56
(lp1901
g49
(g70
g51
NtRp1902
(dp1903
g54
(dp1904
g74
g75
ssg63
g1898
sg56
(lp1905
S'get_vars'
p1906
asbag49
(g70
g51
NtRp1907
(dp1908
g54
(dp1909
g81
g82
ssg63
g1898
sg56
(lp1910
S':'
asbag49
(g70
g51
NtRp1911
(dp1912
g54
(dp1913
sg63
g1898
sg56
(lp1914
g49
(g50
g51
NtRp1915
(dp1916
g54
(dp1917
g62
I5
ssg63
g1911
sg56
(lp1918
g49
(g58
g51
NtRp1919
(dp1920
g54
(dp1921
g62
I4
ssg63
Nsg56
(lp1922
sbasbasbasbag49
(g65
g51
NtRp1923
(dp1924
g54
(dp1925
sg63
g59
sg56
(lp1926
g49
(g70
g51
NtRp1927
(dp1928
g54
(dp1929
g74
g75
ssg63
g1923
sg56
(lp1930
S'global_settings'
p1931
asbag49
(g70
g51
NtRp1932
(dp1933
g54
(dp1934
g81
g82
ssg63
g1923
sg56
(lp1935
S':'
asbag49
(g70
g51
NtRp1936
(dp1937
g54
(dp1938
sg63
g1923
sg56
(lp1939
g49
(g50
g51
NtRp1940
(dp1941
g54
(dp1942
g62
I5
ssg63
g1936
sg56
(lp1943
g49
(g58
g51
NtRp1944
(dp1945
g54
(dp1946
g62
I4
ssg63
Nsg56
(lp1947
g49
(g65
g51
NtRp1948
(dp1949
g54
(dp1950
sg63
g1944
sg56
(lp1951
g49
(g70
g51
NtRp1952
(dp1953
g54
(dp1954
g74
g75
ssg63
g1948
sg56
(lp1955
g765
asbag49
(g70
g51
NtRp1956
(dp1957
g54
(dp1958
g81
g82
ssg63
g1948
sg56
(lp1959
S':'
asbag49
(g70
g51
NtRp1960
(dp1961
g54
(dp1962
sg63
g1948
sg56
(lp1963
g49
(g50
g51
NtRp1964
(dp1965
g54
(dp1966
g62
I4
ssg63
g1960
sg56
(lp1967
S"set(['D:\\\\Documents\\\\Workspace\\\\Jack\\\\web2py\\\\applications\\\\init\\\\', 'D:\\\\Documents\\\\Workspace\\\\Jack\\\\web2py\\\\applications\\\\admin\\\\'])"
p1968
asbasbasbag49
(g65
g51
NtRp1969
(dp1970
g54
(dp1971
sg63
g1944
sg56
(lp1972
g49
(g70
g51
NtRp1973
(dp1974
g54
(dp1975
g74
g75
ssg63
g1969
sg56
(lp1976
g787
asbag49
(g70
g51
NtRp1977
(dp1978
g54
(dp1979
g81
g82
ssg63
g1969
sg56
(lp1980
S':'
asbag49
(g70
g51
NtRp1981
(dp1982
g54
(dp1983
sg63
g1969
sg56
(lp1984
g49
(g50
g51
NtRp1985
(dp1986
g54
(dp1987
g62
I4
ssg63
g1981
sg56
(lp1988
g800
asbasbasbag49
(g65
g51
NtRp1989
(dp1990
g54
(dp1991
sg63
g1944
sg56
(lp1992
g49
(g70
g51
NtRp1993
(dp1994
g54
(dp1995
g74
g75
ssg63
g1989
sg56
(lp1996
g809
asbag49
(g70
g51
NtRp1997
(dp1998
g54
(dp1999
g81
g82
ssg63
g1989
sg56
(lp2000
S':'
asbag49
(g70
g51
NtRp2001
(dp2002
g54
(dp2003
sg63
g1989
sg56
(lp2004
g49
(g50
g51
NtRp2005
(dp2006
g54
(dp2007
g62
I4
ssg63
g2001
sg56
(lp2008
g49
(g58
g51
NtRp2009
(dp2010
g54
(dp2011
g62
I3
ssg63
Nsg56
(lp2012
sbasbasbasbag49
(g65
g51
NtRp2013
(dp2014
g54
(dp2015
sg63
g1944
sg56
(lp2016
g49
(g70
g51
NtRp2017
(dp2018
g54
(dp2019
g74
g75
ssg63
g2013
sg56
(lp2020
g834
asbag49
(g70
g51
NtRp2021
(dp2022
g54
(dp2023
g81
g82
ssg63
g2013
sg56
(lp2024
S':'
asbag49
(g70
g51
NtRp2025
(dp2026
g54
(dp2027
sg63
g2013
sg56
(lp2028
g49
(g50
g51
NtRp2029
(dp2030
g54
(dp2031
g62
I4
ssg63
g2025
sg56
(lp2032
S"<Values at 0x224ec60: {'verbose': False, 'ip': '127.0.0.1', 'shutdown_timeout': 5, 'taskbar': False, 'nocron': False, 'pid_filename': 'httpserver.pid', 'maxthreads': None, 'softcron': False, 'server_name': 'Pixies', 'bpython': False, 'nogui': False, 'port': 8000, 'extcron': False, 'debuglevel': 30, 'test': None, 'folder': 'D:\\\\Documents\\\\Workspace\\\\Jack\\\\web2py', 'config': '', 'import_models': False, 'winservice': '', 'shell': None, 'run': '', 'log_filename': 'httpserver.log', 'args': [''], 'socket_timeout': 5, 'ssl_ca_certificate': None, 'scheduler': None, 'profiler_filename': None, 'ssl_private_key': '', 'password': '<ask>', 'request_queue_size': 5, 'ssl_certificate': '', 'cronjob': False, 'numthreads': None, 'quiet': False, 'interfaces': None, 'minthreads': None, 'timeout': 10, 'plain': False, 'nobanner': False}>"
p2033
asbasbasbag49
(g65
g51
NtRp2034
(dp2035
g54
(dp2036
sg63
g1944
sg56
(lp2037
g49
(g70
g51
NtRp2038
(dp2039
g54
(dp2040
g74
g75
ssg63
g2034
sg56
(lp2041
g900
asbag49
(g70
g51
NtRp2042
(dp2043
g54
(dp2044
g81
g82
ssg63
g2034
sg56
(lp2045
S':'
asbag49
(g70
g51
NtRp2046
(dp2047
g54
(dp2048
sg63
g2034
sg56
(lp2049
g49
(g50
g51
NtRp2050
(dp2051
g54
(dp2052
g62
I4
ssg63
g2046
sg56
(lp2053
S"set(['init'])"
p2054
asbasbasbag49
(g65
g51
NtRp2055
(dp2056
g54
(dp2057
sg63
g1944
sg56
(lp2058
g49
(g70
g51
NtRp2059
(dp2060
g54
(dp2061
g74
g75
ssg63
g2055
sg56
(lp2062
g922
asbag49
(g70
g51
NtRp2063
(dp2064
g54
(dp2065
g81
g82
ssg63
g2055
sg56
(lp2066
S':'
asbag49
(g70
g51
NtRp2067
(dp2068
g54
(dp2069
sg63
g2055
sg56
(lp2070
g49
(g50
g51
NtRp2071
(dp2072
g54
(dp2073
g62
I4
ssg63
g2067
sg56
(lp2074
g935
asbasbasbag49
(g65
g51
NtRp2075
(dp2076
g54
(dp2077
sg63
g1944
sg56
(lp2078
g49
(g70
g51
NtRp2079
(dp2080
g54
(dp2081
g74
g75
ssg63
g2075
sg56
(lp2082
g944
asbag49
(g70
g51
NtRp2083
(dp2084
g54
(dp2085
g81
g82
ssg63
g2075
sg56
(lp2086
S':'
asbag49
(g70
g51
NtRp2087
(dp2088
g54
(dp2089
sg63
g2075
sg56
(lp2090
g49
(g50
g51
NtRp2091
(dp2092
g54
(dp2093
g62
I4
ssg63
g2087
sg56
(lp2094
g957
asbasbasbag49
(g65
g51
NtRp2095
(dp2096
g54
(dp2097
sg63
g1944
sg56
(lp2098
g49
(g70
g51
NtRp2099
(dp2100
g54
(dp2101
g74
g75
ssg63
g2095
sg56
(lp2102
g1250
asbag49
(g70
g51
NtRp2103
(dp2104
g54
(dp2105
g81
g82
ssg63
g2095
sg56
(lp2106
S':'
asbag49
(g70
g51
NtRp2107
(dp2108
g54
(dp2109
sg63
g2095
sg56
(lp2110
g49
(g50
g51
NtRp2111
(dp2112
g54
(dp2113
g62
I4
ssg63
g2107
sg56
(lp2114
g92
asbasbasbag49
(g65
g51
NtRp2115
(dp2116
g54
(dp2117
sg63
g1944
sg56
(lp2118
g49
(g70
g51
NtRp2119
(dp2120
g54
(dp2121
g74
g75
ssg63
g2115
sg56
(lp2122
g1271
asbag49
(g70
g51
NtRp2123
(dp2124
g54
(dp2125
g81
g82
ssg63
g2115
sg56
(lp2126
S':'
asbag49
(g70
g51
NtRp2127
(dp2128
g54
(dp2129
sg63
g2115
sg56
(lp2130
g49
(g50
g51
NtRp2131
(dp2132
g54
(dp2133
g62
I4
ssg63
g2127
sg56
(lp2134
g92
asbasbasbag49
(g65
g51
NtRp2135
(dp2136
g54
(dp2137
sg63
g1944
sg56
(lp2138
g49
(g70
g51
NtRp2139
(dp2140
g54
(dp2141
g74
g75
ssg63
g2135
sg56
(lp2142
g1509
asbag49
(g70
g51
NtRp2143
(dp2144
g54
(dp2145
g81
g82
ssg63
g2135
sg56
(lp2146
S':'
asbag49
(g70
g51
NtRp2147
(dp2148
g54
(dp2149
sg63
g2135
sg56
(lp2150
g49
(g50
g51
NtRp2151
(dp2152
g54
(dp2153
g62
I4
ssg63
g2147
sg56
(lp2154
g1522
asbasbasbag49
(g65
g51
NtRp2155
(dp2156
g54
(dp2157
sg63
g1944
sg56
(lp2158
g49
(g70
g51
NtRp2159
(dp2160
g54
(dp2161
g74
g75
ssg63
g2155
sg56
(lp2162
g1552
asbag49
(g70
g51
NtRp2163
(dp2164
g54
(dp2165
g81
g82
ssg63
g2155
sg56
(lp2166
S':'
asbag49
(g70
g51
NtRp2167
(dp2168
g54
(dp2169
sg63
g2155
sg56
(lp2170
g49
(g50
g51
NtRp2171
(dp2172
g54
(dp2173
g62
I4
ssg63
g2167
sg56
(lp2174
g49
(g58
g51
NtRp2175
(dp2176
g54
(dp2177
g62
I3
ssg63
Nsg56
(lp2178
g49
(g65
g51
NtRp2179
(dp2180
g54
(dp2181
sg63
g2175
sg56
(lp2182
g49
(g70
g51
NtRp2183
(dp2184
g54
(dp2185
sg63
g2179
sg56
(lp2186
g49
(g50
g51
NtRp2187
(dp2188
g54
(dp2189
g62
I3
ssg63
g2183
sg56
(lp2190
S'1'
asbasbasbag49
(g65
g51
NtRp2191
(dp2192
g54
(dp2193
sg63
g2175
sg56
(lp2194
g49
(g70
g51
NtRp2195
(dp2196
g54
(dp2197
sg63
g2191
sg56
(lp2198
g49
(g50
g51
NtRp2199
(dp2200
g54
(dp2201
g62
I3
ssg63
g2195
sg56
(lp2202
S'99'
p2203
asbasbasbag49
(g65
g51
NtRp2204
(dp2205
g54
(dp2206
sg63
g2175
sg56
(lp2207
g49
(g70
g51
NtRp2208
(dp2209
g54
(dp2210
sg63
g2204
sg56
(lp2211
g49
(g50
g51
NtRp2212
(dp2213
g54
(dp2214
g62
I3
ssg63
g2208
sg56
(lp2215
S'7'
asbasbasbag49
(g65
g51
NtRp2216
(dp2217
g54
(dp2218
sg63
g2175
sg56
(lp2219
g49
(g70
g51
NtRp2220
(dp2221
g54
(dp2222
sg63
g2216
sg56
(lp2223
g49
(g50
g51
NtRp2224
(dp2225
g54
(dp2226
g62
I3
ssg63
g2220
sg56
(lp2227
S'datetime.datetime(2012, 3, 4, 22, 12, 8)'
p2228
asbasbasbag49
(g65
g51
NtRp2229
(dp2230
g54
(dp2231
sg63
g2175
sg56
(lp2232
g49
(g70
g51
NtRp2233
(dp2234
g54
(dp2235
sg63
g2229
sg56
(lp2236
g49
(g50
g51
NtRp2237
(dp2238
g54
(dp2239
g62
I3
ssg63
g2233
sg56
(lp2240
g1631
asbasbasbasbasbasbasbasbasbasbasbag49
(g65
g51
NtRp2241
(dp2242
g54
(dp2243
sg63
g59
sg56
(lp2244
g49
(g70
g51
NtRp2245
(dp2246
g54
(dp2247
g74
g75
ssg63
g2241
sg56
(lp2248
S'is_https'
p2249
asbag49
(g70
g51
NtRp2250
(dp2251
g54
(dp2252
g81
g82
ssg63
g2241
sg56
(lp2253
S':'
asbag49
(g70
g51
NtRp2254
(dp2255
g54
(dp2256
sg63
g2241
sg56
(lp2257
g49
(g50
g51
NtRp2258
(dp2259
g54
(dp2260
g62
I5
ssg63
g2254
sg56
(lp2261
g92
asbasbasbag49
(g65
g51
NtRp2262
(dp2263
g54
(dp2264
sg63
g59
sg56
(lp2265
g49
(g70
g51
NtRp2266
(dp2267
g54
(dp2268
g74
g75
ssg63
g2262
sg56
(lp2269
S'is_local'
p2270
asbag49
(g70
g51
NtRp2271
(dp2272
g54
(dp2273
g81
g82
ssg63
g2262
sg56
(lp2274
S':'
asbag49
(g70
g51
NtRp2275
(dp2276
g54
(dp2277
sg63
g2262
sg56
(lp2278
g49
(g50
g51
NtRp2279
(dp2280
g54
(dp2281
g62
I5
ssg63
g2275
sg56
(lp2282
g935
asbasbasbag49
(g65
g51
NtRp2283
(dp2284
g54
(dp2285
sg63
g59
sg56
(lp2286
g49
(g70
g51
NtRp2287
(dp2288
g54
(dp2289
g74
g75
ssg63
g2283
sg56
(lp2290
S'is_restful'
p2291
asbag49
(g70
g51
NtRp2292
(dp2293
g54
(dp2294
g81
g82
ssg63
g2283
sg56
(lp2295
S':'
asbag49
(g70
g51
NtRp2296
(dp2297
g54
(dp2298
sg63
g2283
sg56
(lp2299
g49
(g50
g51
NtRp2300
(dp2301
g54
(dp2302
g62
I5
ssg63
g2296
sg56
(lp2303
g92
asbasbasbag49
(g65
g51
NtRp2304
(dp2305
g54
(dp2306
sg63
g59
sg56
(lp2307
g49
(g70
g51
NtRp2308
(dp2309
g54
(dp2310
g74
g75
ssg63
g2304
sg56
(lp2311
S'now'
p2312
asbag49
(g70
g51
NtRp2313
(dp2314
g54
(dp2315
g81
g82
ssg63
g2304
sg56
(lp2316
S':'
asbag49
(g70
g51
NtRp2317
(dp2318
g54
(dp2319
sg63
g2304
sg56
(lp2320
g49
(g50
g51
NtRp2321
(dp2322
g54
(dp2323
g62
I5
ssg63
g2317
sg56
(lp2324
S'datetime.datetime(2012, 3, 22, 18, 0, 43, 15000)'
p2325
asbasbasbag49
(g65
g51
NtRp2326
(dp2327
g54
(dp2328
sg63
g59
sg56
(lp2329
g49
(g70
g51
NtRp2330
(dp2331
g54
(dp2332
g74
g75
ssg63
g2326
sg56
(lp2333
S'post_vars'
p2334
asbag49
(g70
g51
NtRp2335
(dp2336
g54
(dp2337
g81
g82
ssg63
g2326
sg56
(lp2338
S':'
asbag49
(g70
g51
NtRp2339
(dp2340
g54
(dp2341
sg63
g2326
sg56
(lp2342
g49
(g50
g51
NtRp2343
(dp2344
g54
(dp2345
g62
I5
ssg63
g2339
sg56
(lp2346
g49
(g58
g51
NtRp2347
(dp2348
g54
(dp2349
g62
I4
ssg63
Nsg56
(lp2350
g49
(g65
g51
NtRp2351
(dp2352
g54
(dp2353
sg63
g2347
sg56
(lp2354
g49
(g70
g51
NtRp2355
(dp2356
g54
(dp2357
g74
g75
ssg63
g2351
sg56
(lp2358
S'nmbreinvit'
p2359
asbag49
(g70
g51
NtRp2360
(dp2361
g54
(dp2362
g81
g82
ssg63
g2351
sg56
(lp2363
S':'
asbag49
(g70
g51
NtRp2364
(dp2365
g54
(dp2366
sg63
g2351
sg56
(lp2367
g49
(g50
g51
NtRp2368
(dp2369
g54
(dp2370
g62
I4
ssg63
g2364
sg56
(lp2371
S'10'
p2372
asbasbasbasbasbasbasbag49
(g65
g51
NtRp2373
(dp2374
g54
(dp2375
sg63
g59
sg56
(lp2376
g49
(g70
g51
NtRp2377
(dp2378
g54
(dp2379
g74
g75
ssg63
g2373
sg56
(lp2380
S'url'
p2381
asbag49
(g70
g51
NtRp2382
(dp2383
g54
(dp2384
g81
g82
ssg63
g2373
sg56
(lp2385
S':'
asbag49
(g70
g51
NtRp2386
(dp2387
g54
(dp2388
sg63
g2373
sg56
(lp2389
g49
(g50
g51
NtRp2390
(dp2391
g54
(dp2392
g62
I5
ssg63
g2386
sg56
(lp2393
S'/init/default/generate_invitationpage'
p2394
asbasbasbag49
(g65
g51
NtRp2395
(dp2396
g54
(dp2397
sg63
g59
sg56
(lp2398
g49
(g70
g51
NtRp2399
(dp2400
g54
(dp2401
g74
g75
ssg63
g2395
sg56
(lp2402
S'utcnow'
p2403
asbag49
(g70
g51
NtRp2404
(dp2405
g54
(dp2406
g81
g82
ssg63
g2395
sg56
(lp2407
S':'
asbag49
(g70
g51
NtRp2408
(dp2409
g54
(dp2410
sg63
g2395
sg56
(lp2411
g49
(g50
g51
NtRp2412
(dp2413
g54
(dp2414
g62
I5
ssg63
g2408
sg56
(lp2415
S'datetime.datetime(2012, 3, 22, 17, 0, 43, 15000)'
p2416
asbasbasbag49
(g65
g51
NtRp2417
(dp2418
g54
(dp2419
sg63
g59
sg56
(lp2420
g49
(g70
g51
NtRp2421
(dp2422
g54
(dp2423
g74
g75
ssg63
g2417
sg56
(lp2424
S'uuid'
p2425
asbag49
(g70
g51
NtRp2426
(dp2427
g54
(dp2428
g81
g82
ssg63
g2417
sg56
(lp2429
S':'
asbag49
(g70
g51
NtRp2430
(dp2431
g54
(dp2432
sg63
g2417
sg56
(lp2433
g49
(g50
g51
NtRp2434
(dp2435
g54
(dp2436
g62
I5
ssg63
g2430
sg56
(lp2437
S'init/127.0.0.1.2012-03-22.18-00-43.416d4bf5-7079-4007-8d87-4ce21cce2eaf'
p2438
asbasbasbag49
(g65
g51
NtRp2439
(dp2440
g54
(dp2441
sg63
g59
sg56
(lp2442
g49
(g70
g51
NtRp2443
(dp2444
g54
(dp2445
g74
g75
ssg63
g2439
sg56
(lp2446
S'vars'
p2447
asbag49
(g70
g51
NtRp2448
(dp2449
g54
(dp2450
g81
g82
ssg63
g2439
sg56
(lp2451
S':'
asbag49
(g70
g51
NtRp2452
(dp2453
g54
(dp2454
sg63
g2439
sg56
(lp2455
g49
(g50
g51
NtRp2456
(dp2457
g54
(dp2458
g62
I5
ssg63
g2452
sg56
(lp2459
g49
(g58
g51
NtRp2460
(dp2461
g54
(dp2462
g62
I4
ssg63
Nsg56
(lp2463
g49
(g65
g51
NtRp2464
(dp2465
g54
(dp2466
sg63
g2460
sg56
(lp2467
g49
(g70
g51
NtRp2468
(dp2469
g54
(dp2470
g74
g75
ssg63
g2464
sg56
(lp2471
g2359
asbag49
(g70
g51
NtRp2472
(dp2473
g54
(dp2474
g81
g82
ssg63
g2464
sg56
(lp2475
S':'
asbag49
(g70
g51
NtRp2476
(dp2477
g54
(dp2478
sg63
g2464
sg56
(lp2479
g49
(g50
g51
NtRp2480
(dp2481
g54
(dp2482
g62
I4
ssg63
g2476
sg56
(lp2483
g2372
asbasbasbasbasbasbasbag49
(g65
g51
NtRp2484
(dp2485
g54
(dp2486
sg63
g59
sg56
(lp2487
g49
(g70
g51
NtRp2488
(dp2489
g54
(dp2490
g74
g75
ssg63
g2484
sg56
(lp2491
S'wsgi'
p2492
asbag49
(g70
g51
NtRp2493
(dp2494
g54
(dp2495
g81
g82
ssg63
g2484
sg56
(lp2496
S':'
asbag49
(g70
g51
NtRp2497
(dp2498
g54
(dp2499
sg63
g2484
sg56
(lp2500
g49
(g50
g51
NtRp2501
(dp2502
g54
(dp2503
g62
I5
ssg63
g2497
sg56
(lp2504
g49
(g58
g51
NtRp2505
(dp2506
g54
(dp2507
g62
I4
ssg63
Nsg56
(lp2508
g49
(g65
g51
NtRp2509
(dp2510
g54
(dp2511
sg63
g2505
sg56
(lp2512
g49
(g70
g51
NtRp2513
(dp2514
g54
(dp2515
g74
g75
ssg63
g2509
sg56
(lp2516
S'environ'
p2517
asbag49
(g70
g51
NtRp2518
(dp2519
g54
(dp2520
g81
g82
ssg63
g2509
sg56
(lp2521
S':'
asbag49
(g70
g51
NtRp2522
(dp2523
g54
(dp2524
sg63
g2509
sg56
(lp2525
g49
(g50
g51
NtRp2526
(dp2527
g54
(dp2528
g62
I4
ssg63
g2522
sg56
(lp2529
g49
(g58
g51
NtRp2530
(dp2531
g54
(dp2532
g62
I3
ssg63
Nsg56
(lp2533
g49
(g65
g51
NtRp2534
(dp2535
g54
(dp2536
sg63
g2530
sg56
(lp2537
g49
(g70
g51
NtRp2538
(dp2539
g54
(dp2540
g74
g75
ssg63
g2534
sg56
(lp2541
S'CONTENT_LENGTH'
p2542
asbag49
(g70
g51
NtRp2543
(dp2544
g54
(dp2545
g81
g82
ssg63
g2534
sg56
(lp2546
S':'
asbag49
(g70
g51
NtRp2547
(dp2548
g54
(dp2549
sg63
g2534
sg56
(lp2550
g49
(g50
g51
NtRp2551
(dp2552
g54
(dp2553
g62
I3
ssg63
g2547
sg56
(lp2554
g869
asbasbasbag49
(g65
g51
NtRp2555
(dp2556
g54
(dp2557
sg63
g2530
sg56
(lp2558
g49
(g70
g51
NtRp2559
(dp2560
g54
(dp2561
g74
g75
ssg63
g2555
sg56
(lp2562
S'CONTENT_TYPE'
p2563
asbag49
(g70
g51
NtRp2564
(dp2565
g54
(dp2566
g81
g82
ssg63
g2555
sg56
(lp2567
S':'
asbag49
(g70
g51
NtRp2568
(dp2569
g54
(dp2570
sg63
g2555
sg56
(lp2571
g49
(g50
g51
NtRp2572
(dp2573
g54
(dp2574
g62
I3
ssg63
g2568
sg56
(lp2575
g891
asbasbasbag49
(g65
g51
NtRp2576
(dp2577
g54
(dp2578
sg63
g2530
sg56
(lp2579
g49
(g70
g51
NtRp2580
(dp2581
g54
(dp2582
g74
g75
ssg63
g2576
sg56
(lp2583
S'HTTP_ACCEPT'
p2584
asbag49
(g70
g51
NtRp2585
(dp2586
g54
(dp2587
g81
g82
ssg63
g2576
sg56
(lp2588
S':'
asbag49
(g70
g51
NtRp2589
(dp2590
g54
(dp2591
sg63
g2576
sg56
(lp2592
g49
(g50
g51
NtRp2593
(dp2594
g54
(dp2595
g62
I3
ssg63
g2589
sg56
(lp2596
g979
asbasbasbag49
(g65
g51
NtRp2597
(dp2598
g54
(dp2599
sg63
g2530
sg56
(lp2600
g49
(g70
g51
NtRp2601
(dp2602
g54
(dp2603
g74
g75
ssg63
g2597
sg56
(lp2604
S'HTTP_ACCEPT_CHARSET'
p2605
asbag49
(g70
g51
NtRp2606
(dp2607
g54
(dp2608
g81
g82
ssg63
g2597
sg56
(lp2609
S':'
asbag49
(g70
g51
NtRp2610
(dp2611
g54
(dp2612
sg63
g2597
sg56
(lp2613
g49
(g50
g51
NtRp2614
(dp2615
g54
(dp2616
g62
I3
ssg63
g2610
sg56
(lp2617
g1001
asbasbasbag49
(g65
g51
NtRp2618
(dp2619
g54
(dp2620
sg63
g2530
sg56
(lp2621
g49
(g70
g51
NtRp2622
(dp2623
g54
(dp2624
g74
g75
ssg63
g2618
sg56
(lp2625
S'HTTP_ACCEPT_ENCODING'
p2626
asbag49
(g70
g51
NtRp2627
(dp2628
g54
(dp2629
g81
g82
ssg63
g2618
sg56
(lp2630
S':'
asbag49
(g70
g51
NtRp2631
(dp2632
g54
(dp2633
sg63
g2618
sg56
(lp2634
g49
(g50
g51
NtRp2635
(dp2636
g54
(dp2637
g62
I3
ssg63
g2631
sg56
(lp2638
g1023
asbasbasbag49
(g65
g51
NtRp2639
(dp2640
g54
(dp2641
sg63
g2530
sg56
(lp2642
g49
(g70
g51
NtRp2643
(dp2644
g54
(dp2645
g74
g75
ssg63
g2639
sg56
(lp2646
S'HTTP_ACCEPT_LANGUAGE'
p2647
asbag49
(g70
g51
NtRp2648
(dp2649
g54
(dp2650
g81
g82
ssg63
g2639
sg56
(lp2651
S':'
asbag49
(g70
g51
NtRp2652
(dp2653
g54
(dp2654
sg63
g2639
sg56
(lp2655
g49
(g50
g51
NtRp2656
(dp2657
g54
(dp2658
g62
I3
ssg63
g2652
sg56
(lp2659
g1045
asbasbasbag49
(g65
g51
NtRp2660
(dp2661
g54
(dp2662
sg63
g2530
sg56
(lp2663
g49
(g70
g51
NtRp2664
(dp2665
g54
(dp2666
g74
g75
ssg63
g2660
sg56
(lp2667
S'HTTP_CACHE_CONTROL'
p2668
asbag49
(g70
g51
NtRp2669
(dp2670
g54
(dp2671
g81
g82
ssg63
g2660
sg56
(lp2672
S':'
asbag49
(g70
g51
NtRp2673
(dp2674
g54
(dp2675
sg63
g2660
sg56
(lp2676
g49
(g50
g51
NtRp2677
(dp2678
g54
(dp2679
g62
I3
ssg63
g2673
sg56
(lp2680
g1067
asbasbasbag49
(g65
g51
NtRp2681
(dp2682
g54
(dp2683
sg63
g2530
sg56
(lp2684
g49
(g70
g51
NtRp2685
(dp2686
g54
(dp2687
g74
g75
ssg63
g2681
sg56
(lp2688
S'HTTP_CONNECTION'
p2689
asbag49
(g70
g51
NtRp2690
(dp2691
g54
(dp2692
g81
g82
ssg63
g2681
sg56
(lp2693
S':'
asbag49
(g70
g51
NtRp2694
(dp2695
g54
(dp2696
sg63
g2681
sg56
(lp2697
g49
(g50
g51
NtRp2698
(dp2699
g54
(dp2700
g62
I3
ssg63
g2694
sg56
(lp2701
g1089
asbasbasbag49
(g65
g51
NtRp2702
(dp2703
g54
(dp2704
sg63
g2530
sg56
(lp2705
g49
(g70
g51
NtRp2706
(dp2707
g54
(dp2708
g74
g75
ssg63
g2702
sg56
(lp2709
S'HTTP_CONTENT_LENGTH'
p2710
asbag49
(g70
g51
NtRp2711
(dp2712
g54
(dp2713
g81
g82
ssg63
g2702
sg56
(lp2714
S':'
asbag49
(g70
g51
NtRp2715
(dp2716
g54
(dp2717
sg63
g2702
sg56
(lp2718
g49
(g50
g51
NtRp2719
(dp2720
g54
(dp2721
g62
I3
ssg63
g2715
sg56
(lp2722
g869
asbasbasbag49
(g65
g51
NtRp2723
(dp2724
g54
(dp2725
sg63
g2530
sg56
(lp2726
g49
(g70
g51
NtRp2727
(dp2728
g54
(dp2729
g74
g75
ssg63
g2723
sg56
(lp2730
S'HTTP_CONTENT_TYPE'
p2731
asbag49
(g70
g51
NtRp2732
(dp2733
g54
(dp2734
g81
g82
ssg63
g2723
sg56
(lp2735
S':'
asbag49
(g70
g51
NtRp2736
(dp2737
g54
(dp2738
sg63
g2723
sg56
(lp2739
g49
(g50
g51
NtRp2740
(dp2741
g54
(dp2742
g62
I3
ssg63
g2736
sg56
(lp2743
g891
asbasbasbag49
(g65
g51
NtRp2744
(dp2745
g54
(dp2746
sg63
g2530
sg56
(lp2747
g49
(g70
g51
NtRp2748
(dp2749
g54
(dp2750
g74
g75
ssg63
g2744
sg56
(lp2751
S'HTTP_COOKIE'
p2752
asbag49
(g70
g51
NtRp2753
(dp2754
g54
(dp2755
g81
g82
ssg63
g2744
sg56
(lp2756
S':'
asbag49
(g70
g51
NtRp2757
(dp2758
g54
(dp2759
sg63
g2744
sg56
(lp2760
g49
(g50
g51
NtRp2761
(dp2762
g54
(dp2763
g62
I3
ssg63
g2757
sg56
(lp2764
g1153
asbasbasbag49
(g65
g51
NtRp2765
(dp2766
g54
(dp2767
sg63
g2530
sg56
(lp2768
g49
(g70
g51
NtRp2769
(dp2770
g54
(dp2771
g74
g75
ssg63
g2765
sg56
(lp2772
S'HTTP_HOST'
p2773
asbag49
(g70
g51
NtRp2774
(dp2775
g54
(dp2776
g81
g82
ssg63
g2765
sg56
(lp2777
S':'
asbag49
(g70
g51
NtRp2778
(dp2779
g54
(dp2780
sg63
g2765
sg56
(lp2781
g49
(g50
g51
NtRp2782
(dp2783
g54
(dp2784
g62
I3
ssg63
g2778
sg56
(lp2785
g1175
asbasbasbag49
(g65
g51
NtRp2786
(dp2787
g54
(dp2788
sg63
g2530
sg56
(lp2789
g49
(g70
g51
NtRp2790
(dp2791
g54
(dp2792
g74
g75
ssg63
g2786
sg56
(lp2793
S'HTTP_ORIGIN'
p2794
asbag49
(g70
g51
NtRp2795
(dp2796
g54
(dp2797
g81
g82
ssg63
g2786
sg56
(lp2798
S':'
asbag49
(g70
g51
NtRp2799
(dp2800
g54
(dp2801
sg63
g2786
sg56
(lp2802
g49
(g50
g51
NtRp2803
(dp2804
g54
(dp2805
g62
I3
ssg63
g2799
sg56
(lp2806
g1197
asbasbasbag49
(g65
g51
NtRp2807
(dp2808
g54
(dp2809
sg63
g2530
sg56
(lp2810
g49
(g70
g51
NtRp2811
(dp2812
g54
(dp2813
g74
g75
ssg63
g2807
sg56
(lp2814
S'HTTP_REFERER'
p2815
asbag49
(g70
g51
NtRp2816
(dp2817
g54
(dp2818
g81
g82
ssg63
g2807
sg56
(lp2819
S':'
asbag49
(g70
g51
NtRp2820
(dp2821
g54
(dp2822
sg63
g2807
sg56
(lp2823
g49
(g50
g51
NtRp2824
(dp2825
g54
(dp2826
g62
I3
ssg63
g2820
sg56
(lp2827
g1219
asbasbasbag49
(g65
g51
NtRp2828
(dp2829
g54
(dp2830
sg63
g2530
sg56
(lp2831
g49
(g70
g51
NtRp2832
(dp2833
g54
(dp2834
g74
g75
ssg63
g2828
sg56
(lp2835
S'HTTP_USER_AGENT'
p2836
asbag49
(g70
g51
NtRp2837
(dp2838
g54
(dp2839
g81
g82
ssg63
g2828
sg56
(lp2840
S':'
asbag49
(g70
g51
NtRp2841
(dp2842
g54
(dp2843
sg63
g2828
sg56
(lp2844
g49
(g50
g51
NtRp2845
(dp2846
g54
(dp2847
g62
I3
ssg63
g2841
sg56
(lp2848
g1241
asbasbasbag49
(g65
g51
NtRp2849
(dp2850
g54
(dp2851
sg63
g2530
sg56
(lp2852
g49
(g70
g51
NtRp2853
(dp2854
g54
(dp2855
g74
g75
ssg63
g2849
sg56
(lp2856
S'PATH_INFO'
p2857
asbag49
(g70
g51
NtRp2858
(dp2859
g54
(dp2860
g81
g82
ssg63
g2849
sg56
(lp2861
S':'
asbag49
(g70
g51
NtRp2862
(dp2863
g54
(dp2864
sg63
g2849
sg56
(lp2865
g49
(g50
g51
NtRp2866
(dp2867
g54
(dp2868
g62
I3
ssg63
g2862
sg56
(lp2869
g1305
asbasbasbag49
(g65
g51
NtRp2870
(dp2871
g54
(dp2872
sg63
g2530
sg56
(lp2873
g49
(g70
g51
NtRp2874
(dp2875
g54
(dp2876
g74
g75
ssg63
g2870
sg56
(lp2877
S'QUERY_STRING'
p2878
asbag49
(g70
g51
NtRp2879
(dp2880
g54
(dp2881
g81
g82
ssg63
g2870
sg56
(lp2882
S':'
asbag49
(g70
g51
NtRp2883
(dp2884
g54
(dp2885
sg63
g2870
sg56
(lp2886
g49
(g50
g51
NtRp2887
(dp2888
g54
(dp2889
g62
I3
ssg63
g2883
sg56
(lp2890
S''
asbasbasbag49
(g65
g51
NtRp2891
(dp2892
g54
(dp2893
sg63
g2530
sg56
(lp2894
g49
(g70
g51
NtRp2895
(dp2896
g54
(dp2897
g74
g75
ssg63
g2891
sg56
(lp2898
S'REMOTE_ADDR'
p2899
asbag49
(g70
g51
NtRp2900
(dp2901
g54
(dp2902
g81
g82
ssg63
g2891
sg56
(lp2903
S':'
asbag49
(g70
g51
NtRp2904
(dp2905
g54
(dp2906
sg63
g2891
sg56
(lp2907
g49
(g50
g51
NtRp2908
(dp2909
g54
(dp2910
g62
I3
ssg63
g2904
sg56
(lp2911
g182
asbasbasbag49
(g65
g51
NtRp2912
(dp2913
g54
(dp2914
sg63
g2530
sg56
(lp2915
g49
(g70
g51
NtRp2916
(dp2917
g54
(dp2918
g74
g75
ssg63
g2912
sg56
(lp2919
S'REMOTE_PORT'
p2920
asbag49
(g70
g51
NtRp2921
(dp2922
g54
(dp2923
g81
g82
ssg63
g2912
sg56
(lp2924
S':'
asbag49
(g70
g51
NtRp2925
(dp2926
g54
(dp2927
sg63
g2912
sg56
(lp2928
g49
(g50
g51
NtRp2929
(dp2930
g54
(dp2931
g62
I3
ssg63
g2925
sg56
(lp2932
g1369
asbasbasbag49
(g65
g51
NtRp2933
(dp2934
g54
(dp2935
sg63
g2530
sg56
(lp2936
g49
(g70
g51
NtRp2937
(dp2938
g54
(dp2939
g74
g75
ssg63
g2933
sg56
(lp2940
S'REQUEST_METHOD'
p2941
asbag49
(g70
g51
NtRp2942
(dp2943
g54
(dp2944
g81
g82
ssg63
g2933
sg56
(lp2945
S':'
asbag49
(g70
g51
NtRp2946
(dp2947
g54
(dp2948
sg63
g2933
sg56
(lp2949
g49
(g50
g51
NtRp2950
(dp2951
g54
(dp2952
g62
I3
ssg63
g2946
sg56
(lp2953
g1391
asbasbasbag49
(g65
g51
NtRp2954
(dp2955
g54
(dp2956
sg63
g2530
sg56
(lp2957
g49
(g70
g51
NtRp2958
(dp2959
g54
(dp2960
g74
g75
ssg63
g2954
sg56
(lp2961
S'SCRIPT_NAME'
p2962
asbag49
(g70
g51
NtRp2963
(dp2964
g54
(dp2965
g81
g82
ssg63
g2954
sg56
(lp2966
S':'
asbag49
(g70
g51
NtRp2967
(dp2968
g54
(dp2969
sg63
g2954
sg56
(lp2970
g49
(g50
g51
NtRp2971
(dp2972
g54
(dp2973
g62
I3
ssg63
g2967
sg56
(lp2974
S''
asbasbasbag49
(g65
g51
NtRp2975
(dp2976
g54
(dp2977
sg63
g2530
sg56
(lp2978
g49
(g70
g51
NtRp2979
(dp2980
g54
(dp2981
g74
g75
ssg63
g2975
sg56
(lp2982
S'SERVER_NAME'
p2983
asbag49
(g70
g51
NtRp2984
(dp2985
g54
(dp2986
g81
g82
ssg63
g2975
sg56
(lp2987
S':'
asbag49
(g70
g51
NtRp2988
(dp2989
g54
(dp2990
sg63
g2975
sg56
(lp2991
g49
(g50
g51
NtRp2992
(dp2993
g54
(dp2994
g62
I3
ssg63
g2988
sg56
(lp2995
g1434
asbasbasbag49
(g65
g51
NtRp2996
(dp2997
g54
(dp2998
sg63
g2530
sg56
(lp2999
g49
(g70
g51
NtRp3000
(dp3001
g54
(dp3002
g74
g75
ssg63
g2996
sg56
(lp3003
S'SERVER_PORT'
p3004
asbag49
(g70
g51
NtRp3005
(dp3006
g54
(dp3007
g81
g82
ssg63
g2996
sg56
(lp3008
S':'
asbag49
(g70
g51
NtRp3009
(dp3010
g54
(dp3011
sg63
g2996
sg56
(lp3012
g49
(g50
g51
NtRp3013
(dp3014
g54
(dp3015
g62
I3
ssg63
g3009
sg56
(lp3016
g1456
asbasbasbag49
(g65
g51
NtRp3017
(dp3018
g54
(dp3019
sg63
g2530
sg56
(lp3020
g49
(g70
g51
NtRp3021
(dp3022
g54
(dp3023
g74
g75
ssg63
g3017
sg56
(lp3024
S'SERVER_PROTOCOL'
p3025
asbag49
(g70
g51
NtRp3026
(dp3027
g54
(dp3028
g81
g82
ssg63
g3017
sg56
(lp3029
S':'
asbag49
(g70
g51
NtRp3030
(dp3031
g54
(dp3032
sg63
g3017
sg56
(lp3033
g49
(g50
g51
NtRp3034
(dp3035
g54
(dp3036
g62
I3
ssg63
g3030
sg56
(lp3037
g1478
asbasbasbag49
(g65
g51
NtRp3038
(dp3039
g54
(dp3040
sg63
g2530
sg56
(lp3041
g49
(g70
g51
NtRp3042
(dp3043
g54
(dp3044
g74
g75
ssg63
g3038
sg56
(lp3045
S'SERVER_SOFTWARE'
p3046
asbag49
(g70
g51
NtRp3047
(dp3048
g54
(dp3049
g81
g82
ssg63
g3038
sg56
(lp3050
S':'
asbag49
(g70
g51
NtRp3051
(dp3052
g54
(dp3053
sg63
g3038
sg56
(lp3054
g49
(g50
g51
NtRp3055
(dp3056
g54
(dp3057
g62
I3
ssg63
g3051
sg56
(lp3058
g1500
asbasbasbag49
(g65
g51
NtRp3059
(dp3060
g54
(dp3061
sg63
g2530
sg56
(lp3062
g49
(g70
g51
NtRp3063
(dp3064
g54
(dp3065
g74
g75
ssg63
g3059
sg56
(lp3066
S'wsgi.errors'
p3067
asbag49
(g70
g51
NtRp3068
(dp3069
g54
(dp3070
g81
g82
ssg63
g3059
sg56
(lp3071
S':'
asbag49
(g70
g51
NtRp3072
(dp3073
g54
(dp3074
sg63
g3059
sg56
(lp3075
g49
(g50
g51
NtRp3076
(dp3077
g54
(dp3078
g62
I3
ssg63
g3072
sg56
(lp3079
S"<open file '<stderr>', mode 'w' at 0x009000B0>"
p3080
asbasbasbag49
(g65
g51
NtRp3081
(dp3082
g54
(dp3083
sg63
g2530
sg56
(lp3084
g49
(g70
g51
NtRp3085
(dp3086
g54
(dp3087
g74
g75
ssg63
g3081
sg56
(lp3088
S'wsgi.file_wrapper'
p3089
asbag49
(g70
g51
NtRp3090
(dp3091
g54
(dp3092
g81
g82
ssg63
g3081
sg56
(lp3093
S':'
asbag49
(g70
g51
NtRp3094
(dp3095
g54
(dp3096
sg63
g3081
sg56
(lp3097
g49
(g50
g51
NtRp3098
(dp3099
g54
(dp3100
g62
I3
ssg63
g3094
sg56
(lp3101
S'<class wsgiref.util.FileWrapper at 0x015E4600>'
p3102
asbasbasbag49
(g65
g51
NtRp3103
(dp3104
g54
(dp3105
sg63
g2530
sg56
(lp3106
g49
(g70
g51
NtRp3107
(dp3108
g54
(dp3109
g74
g75
ssg63
g3103
sg56
(lp3110
S'wsgi.input'
p3111
asbag49
(g70
g51
NtRp3112
(dp3113
g54
(dp3114
g81
g82
ssg63
g3103
sg56
(lp3115
S':'
asbag49
(g70
g51
NtRp3116
(dp3117
g54
(dp3118
sg63
g3103
sg56
(lp3119
g49
(g50
g51
NtRp3120
(dp3121
g54
(dp3122
g62
I3
ssg63
g3116
sg56
(lp3123
S"<open file '<fdopen>', mode 'w+b' at 0x027070B0>"
p3124
asbasbasbag49
(g65
g51
NtRp3125
(dp3126
g54
(dp3127
sg63
g2530
sg56
(lp3128
g49
(g70
g51
NtRp3129
(dp3130
g54
(dp3131
g74
g75
ssg63
g3125
sg56
(lp3132
S'wsgi.multiprocess'
p3133
asbag49
(g70
g51
NtRp3134
(dp3135
g54
(dp3136
g81
g82
ssg63
g3125
sg56
(lp3137
S':'
asbag49
(g70
g51
NtRp3138
(dp3139
g54
(dp3140
sg63
g3125
sg56
(lp3141
g49
(g50
g51
NtRp3142
(dp3143
g54
(dp3144
g62
I3
ssg63
g3138
sg56
(lp3145
g92
asbasbasbag49
(g65
g51
NtRp3146
(dp3147
g54
(dp3148
sg63
g2530
sg56
(lp3149
g49
(g70
g51
NtRp3150
(dp3151
g54
(dp3152
g74
g75
ssg63
g3146
sg56
(lp3153
S'wsgi.multithread'
p3154
asbag49
(g70
g51
NtRp3155
(dp3156
g54
(dp3157
g81
g82
ssg63
g3146
sg56
(lp3158
S':'
asbag49
(g70
g51
NtRp3159
(dp3160
g54
(dp3161
sg63
g3146
sg56
(lp3162
g49
(g50
g51
NtRp3163
(dp3164
g54
(dp3165
g62
I3
ssg63
g3159
sg56
(lp3166
g935
asbasbasbag49
(g65
g51
NtRp3167
(dp3168
g54
(dp3169
sg63
g2530
sg56
(lp3170
g49
(g70
g51
NtRp3171
(dp3172
g54
(dp3173
g74
g75
ssg63
g3167
sg56
(lp3174
S'wsgi.run_once'
p3175
asbag49
(g70
g51
NtRp3176
(dp3177
g54
(dp3178
g81
g82
ssg63
g3167
sg56
(lp3179
S':'
asbag49
(g70
g51
NtRp3180
(dp3181
g54
(dp3182
sg63
g3167
sg56
(lp3183
g49
(g50
g51
NtRp3184
(dp3185
g54
(dp3186
g62
I3
ssg63
g3180
sg56
(lp3187
g92
asbasbasbag49
(g65
g51
NtRp3188
(dp3189
g54
(dp3190
sg63
g2530
sg56
(lp3191
g49
(g70
g51
NtRp3192
(dp3193
g54
(dp3194
g74
g75
ssg63
g3188
sg56
(lp3195
S'wsgi.url_scheme'
p3196
asbag49
(g70
g51
NtRp3197
(dp3198
g54
(dp3199
g81
g82
ssg63
g3188
sg56
(lp3200
S':'
asbag49
(g70
g51
NtRp3201
(dp3202
g54
(dp3203
sg63
g3188
sg56
(lp3204
g49
(g50
g51
NtRp3205
(dp3206
g54
(dp3207
g62
I3
ssg63
g3201
sg56
(lp3208
g1782
asbasbasbag49
(g65
g51
NtRp3209
(dp3210
g54
(dp3211
sg63
g2530
sg56
(lp3212
g49
(g70
g51
NtRp3213
(dp3214
g54
(dp3215
g74
g75
ssg63
g3209
sg56
(lp3216
S'wsgi.version'
p3217
asbag49
(g70
g51
NtRp3218
(dp3219
g54
(dp3220
g81
g82
ssg63
g3209
sg56
(lp3221
S':'
asbag49
(g70
g51
NtRp3222
(dp3223
g54
(dp3224
sg63
g3209
sg56
(lp3225
g49
(g50
g51
NtRp3226
(dp3227
g54
(dp3228
g62
I3
ssg63
g3222
sg56
(lp3229
S'1'
asbasbasbasbasbasbasbasbasbasbasbasbasbsS'frames'
p3230
(lp3231
(dp3232
S'file'
p3233
S'D:\\Documents\\Workspace\\Jack\\web2py\\gluon\\restricted.py'
p3234
sS'dump'
p3235
(dp3236
sS'lnum'
p3237
I205
sS'lines'
p3238
(dp3239
I200
S'    try:'
p3240
sI201
S'        if type(code) == types.CodeType:'
p3241
sI202
S'            ccode = code'
p3242
sI203
S'        else:'
p3243
sI204
S'            ccode = compile2(code,layer)'
p3244
sI205
S'        exec ccode in environment'
p3245
sI206
S'    except HTTP:'
p3246
sI207
S'        raise'
p3247
sI208
S'    except RestrictedError:'
p3248
sI209
S'        # do not encapsulate (obfuscate) the original RestrictedError'
p3249
ssS'call'
p3250
S"(code='# -*- coding: utf-8 -*-\\n# this file is released ...._vars=response._caller(generate_invitationpage)\\n', environment={'A': <class 'gluon.html.A'>, 'Auth': <class 'gluon.tools.Auth'>, 'AutocompleteWidget': <class 'gluon.sqlhtml.AutocompleteWidget'>, 'B': <class 'gluon.html.B'>, 'BEAUTIFY': <class 'gluon.html.BEAUTIFY'>, 'BODY': <class 'gluon.html.BODY'>, 'BR': <class 'gluon.html.BR'>, 'BUTTON': <class 'gluon.html.BUTTON'>, 'BooleanWidget': <class 'gluon.sqlhtml.BooleanWidget'>, 'CALLABLETYPES': (<type 'function'>, <type 'function'>, <type 'builtin_function_or_method'>, <type 'instancemethod'>, <type 'builtin_function_or_method'>), ...}, layer=r'D:\\Documents\\Workspace\\Jack\\web2py\\applications\\init\\controllers/default.py')"
p3251
sS'func'
p3252
S'restricted'
p3253
sa(dp3254
g3233
S'D:\\Documents\\Workspace\\Jack\\web2py\\applications\\init\\controllers\\default.py'
p3255
sg3235
(dp3256
sg3237
I266
sg3238
(dp3257
I256
S'    http://..../[app]/default/data/delete/[table]/[id]'
p3258
sI257
S'    http://..../[app]/default/data/select/[table]'
p3259
sI258
S'    http://..../[app]/default/data/search/[table]'
p3260
sI259
S'    but URLs must be signed, i.e. linked with'
p3261
sI260
S"      A('table',_href=URL('data/tables',user_signature=True))"
p3262
sI261
S'    or with the signed load operator'
p3263
sI262
S"      LOAD('default','data.load',args='tables',ajax=True,user_signature=True)"
p3264
sI263
S'    """'
p3265
sI264
S'    return dict(form=crud())'
p3266
sI255
S'    http://..../[app]/default/data/update/[table]/[id]'
p3267
ssg3250
S'()'
p3268
sg3252
S'<module>'
p3269
sa(dp3270
g3233
S'D:\\Documents\\Workspace\\Jack\\web2py\\gluon\\globals.py'
p3271
sg3235
(dp3272
sg3237
I173
sg3238
(dp3273
I168
S'        self.menu = []             # used by the default view layout'
p3274
sI169
S'        self.files = []            # used by web2py_ajax.html'
p3275
sI170
S'        self.generic_patterns = [] # patterns to allow generic views'
p3276
sI171
S"        self.delimiters = ('{{','}}')"
p3277
sI172
S'        self._vars = None'
p3278
sI173
S'        self._caller = lambda f: f()'
p3279
sI174
S'        self._view_environment = None'
p3280
sI175
S'        self._custom_commit = None'
p3281
sI176
S'        self._custom_rollback = None'
p3282
sI177
S''
ssg3250
S'(f=<function generate_invitationpage at 0x026F7CB0>)'
p3283
sg3252
S'<lambda>'
p3284
sa(dp3285
g3233
S'D:\\Documents\\Workspace\\Jack\\web2py\\applications\\init\\controllers\\default.py'
p3286
sg3235
(dp3287
sg3237
I195
sg3238
(dp3288
I192
S''
sI193
S'   form=FORM("Nombre d\'invit a g\xc3\xa9n\xc3\xa9rer:", INPUT(_name=\'nmbreinvit\'), INPUT(_type=\'submit\'))'
p3289
sI194
S'   if form.process().accepted:'
p3290
sI195
S'       invitsgenere = generate_invitation(form.nmbreinvit)'
p3291
sI196
S'       for invit in invitsgenere :'
p3292
sI197
S'           db.Invitation.insert(Code=invit)'
p3293
sI198
S'           db.commit()'
p3294
sI199
S"       session.flash = 'invitation inserted'"
p3295
sI190
S"#@auth.requires_membership('manager')"
p3296
sI191
S'def generate_invitationpage():'
p3297
ssg3250
S'()'
p3298
sg3252
S'generate_invitationpage'
p3299
sasS'pyver'
p3300
S'Python 2.5.4: D:\\Documents\\Workspace\\Jack\\web2py\\web2py.exe'
p3301
sS'session'
p3302
g49
(g50
g51
NtRp3303
(dp3304
g54
(dp3305
sg56
(lp3306
g49
(g58
g51
NtRp3307
(dp3308
g54
(dp3309
g62
I5
ssg63
Nsg56
(lp3310
sbasbsS'etype'
p3311
S"<type 'exceptions.AttributeError'>"
p3312
sS'date'
p3313
S'Thu Mar 22 18:00:43 2012'
p3314
sS'response'
p3315
g49
(g50
g51
NtRp3316
(dp3317
g54
(dp3318
sg56
(lp3319
g49
(g58
g51
NtRp3320
(dp3321
g54
(dp3322
g62
I5
ssg63
Nsg56
(lp3323
g49
(g65
g51
NtRp3324
(dp3325
g54
(dp3326
sg63
g3320
sg56
(lp3327
g49
(g70
g51
NtRp3328
(dp3329
g54
(dp3330
g74
g75
ssg63
g3324
sg56
(lp3331
g147
asbag49
(g70
g51
NtRp3332
(dp3333
g54
(dp3334
g81
g82
ssg63
g3324
sg56
(lp3335
S':'
asbag49
(g70
g51
NtRp3336
(dp3337
g54
(dp3338
sg63
g3324
sg56
(lp3339
g49
(g50
g51
NtRp3340
(dp3341
g54
(dp3342
g62
I5
ssg63
g3336
sg56
(lp3343
S'<cStringIO.StringO object at 0x02A91640>'
p3344
asbasbasbag49
(g65
g51
NtRp3345
(dp3346
g54
(dp3347
sg63
g3320
sg56
(lp3348
g49
(g70
g51
NtRp3349
(dp3350
g54
(dp3351
g74
g75
ssg63
g3345
sg56
(lp3352
g213
asbag49
(g70
g51
NtRp3353
(dp3354
g54
(dp3355
g81
g82
ssg63
g3345
sg56
(lp3356
S':'
asbag49
(g70
g51
NtRp3357
(dp3358
g54
(dp3359
sg63
g3345
sg56
(lp3360
g49
(g50
g51
NtRp3361
(dp3362
g54
(dp3363
g62
I5
ssg63
g3357
sg56
(lp3364
g49
(g58
g51
NtRp3365
(dp3366
g54
(dp3367
g62
I4
ssg63
Nsg56
(lp3368
g49
(g65
g51
NtRp3369
(dp3370
g54
(dp3371
sg63
g3365
sg56
(lp3372
g49
(g70
g51
NtRp3373
(dp3374
g54
(dp3375
g74
g75
ssg63
g3369
sg56
(lp3376
S'session_id_init'
p3377
asbag49
(g70
g51
NtRp3378
(dp3379
g54
(dp3380
g81
g82
ssg63
g3369
sg56
(lp3381
S':'
asbag49
(g70
g51
NtRp3382
(dp3383
g54
(dp3384
sg63
g3369
sg56
(lp3385
g49
(g50
g51
NtRp3386
(dp3387
g54
(dp3388
g62
I4
ssg63
g3382
sg56
(lp3389
g49
(g58
g51
NtRp3390
(dp3391
g54
(dp3392
g62
I3
ssg63
Nsg56
(lp3393
g49
(g65
g51
NtRp3394
(dp3395
g54
(dp3396
sg63
g3390
sg56
(lp3397
g49
(g70
g51
NtRp3398
(dp3399
g54
(dp3400
g74
g75
ssg63
g3394
sg56
(lp3401
g263
asbag49
(g70
g51
NtRp3402
(dp3403
g54
(dp3404
g81
g82
ssg63
g3394
sg56
(lp3405
S':'
asbag49
(g70
g51
NtRp3406
(dp3407
g54
(dp3408
sg63
g3394
sg56
(lp3409
g49
(g50
g51
NtRp3410
(dp3411
g54
(dp3412
g62
I3
ssg63
g3406
sg56
(lp3413
S''
asbasbasbag49
(g65
g51
NtRp3414
(dp3415
g54
(dp3416
sg63
g3390
sg56
(lp3417
g49
(g70
g51
NtRp3418
(dp3419
g54
(dp3420
g74
g75
ssg63
g3414
sg56
(lp3421
g284
asbag49
(g70
g51
NtRp3422
(dp3423
g54
(dp3424
g81
g82
ssg63
g3414
sg56
(lp3425
S':'
asbag49
(g70
g51
NtRp3426
(dp3427
g54
(dp3428
sg63
g3414
sg56
(lp3429
g49
(g50
g51
NtRp3430
(dp3431
g54
(dp3432
g62
I3
ssg63
g3426
sg56
(lp3433
S''
asbasbasbag49
(g65
g51
NtRp3434
(dp3435
g54
(dp3436
sg63
g3390
sg56
(lp3437
g49
(g70
g51
NtRp3438
(dp3439
g54
(dp3440
g74
g75
ssg63
g3434
sg56
(lp3441
g305
asbag49
(g70
g51
NtRp3442
(dp3443
g54
(dp3444
g81
g82
ssg63
g3434
sg56
(lp3445
S':'
asbag49
(g70
g51
NtRp3446
(dp3447
g54
(dp3448
sg63
g3434
sg56
(lp3449
g49
(g50
g51
NtRp3450
(dp3451
g54
(dp3452
g62
I3
ssg63
g3446
sg56
(lp3453
S''
asbasbasbag49
(g65
g51
NtRp3454
(dp3455
g54
(dp3456
sg63
g3390
sg56
(lp3457
g49
(g70
g51
NtRp3458
(dp3459
g54
(dp3460
g74
g75
ssg63
g3454
sg56
(lp3461
g326
asbag49
(g70
g51
NtRp3462
(dp3463
g54
(dp3464
g81
g82
ssg63
g3454
sg56
(lp3465
S':'
asbag49
(g70
g51
NtRp3466
(dp3467
g54
(dp3468
sg63
g3454
sg56
(lp3469
g49
(g50
g51
NtRp3470
(dp3471
g54
(dp3472
g62
I3
ssg63
g3466
sg56
(lp3473
S''
asbasbasbag49
(g65
g51
NtRp3474
(dp3475
g54
(dp3476
sg63
g3390
sg56
(lp3477
g49
(g70
g51
NtRp3478
(dp3479
g54
(dp3480
g74
g75
ssg63
g3474
sg56
(lp3481
g347
asbag49
(g70
g51
NtRp3482
(dp3483
g54
(dp3484
g81
g82
ssg63
g3474
sg56
(lp3485
S':'
asbag49
(g70
g51
NtRp3486
(dp3487
g54
(dp3488
sg63
g3474
sg56
(lp3489
g49
(g50
g51
NtRp3490
(dp3491
g54
(dp3492
g62
I3
ssg63
g3486
sg56
(lp3493
S'/'
asbasbasbag49
(g65
g51
NtRp3494
(dp3495
g54
(dp3496
sg63
g3390
sg56
(lp3497
g49
(g70
g51
NtRp3498
(dp3499
g54
(dp3500
g74
g75
ssg63
g3494
sg56
(lp3501
g368
asbag49
(g70
g51
NtRp3502
(dp3503
g54
(dp3504
g81
g82
ssg63
g3494
sg56
(lp3505
S':'
asbag49
(g70
g51
NtRp3506
(dp3507
g54
(dp3508
sg63
g3494
sg56
(lp3509
g49
(g50
g51
NtRp3510
(dp3511
g54
(dp3512
g62
I3
ssg63
g3506
sg56
(lp3513
S''
asbasbasbag49
(g65
g51
NtRp3514
(dp3515
g54
(dp3516
sg63
g3390
sg56
(lp3517
g49
(g70
g51
NtRp3518
(dp3519
g54
(dp3520
g74
g75
ssg63
g3514
sg56
(lp3521
g389
asbag49
(g70
g51
NtRp3522
(dp3523
g54
(dp3524
g81
g82
ssg63
g3514
sg56
(lp3525
S':'
asbag49
(g70
g51
NtRp3526
(dp3527
g54
(dp3528
sg63
g3514
sg56
(lp3529
g49
(g50
g51
NtRp3530
(dp3531
g54
(dp3532
g62
I3
ssg63
g3526
sg56
(lp3533
S''
asbasbasbasbasbasbasbasbasbasbasbag49
(g65
g51
NtRp3534
(dp3535
g54
(dp3536
sg63
g3320
sg56
(lp3537
g49
(g70
g51
NtRp3538
(dp3539
g54
(dp3540
g74
g75
ssg63
g3534
sg56
(lp3541
S'delimiters'
p3542
asbag49
(g70
g51
NtRp3543
(dp3544
g54
(dp3545
g81
g82
ssg63
g3534
sg56
(lp3546
S':'
asbag49
(g70
g51
NtRp3547
(dp3548
g54
(dp3549
sg63
g3534
sg56
(lp3550
g49
(g50
g51
NtRp3551
(dp3552
g54
(dp3553
g62
I5
ssg63
g3547
sg56
(lp3554
g49
(g58
g51
NtRp3555
(dp3556
g54
(dp3557
g62
I4
ssg63
Nsg56
(lp3558
g49
(g65
g51
NtRp3559
(dp3560
g54
(dp3561
sg63
g3555
sg56
(lp3562
g49
(g70
g51
NtRp3563
(dp3564
g54
(dp3565
sg63
g3559
sg56
(lp3566
g49
(g50
g51
NtRp3567
(dp3568
g54
(dp3569
g62
I4
ssg63
g3563
sg56
(lp3570
S'{{'
p3571
asbasbasbag49
(g65
g51
NtRp3572
(dp3573
g54
(dp3574
sg63
g3555
sg56
(lp3575
g49
(g70
g51
NtRp3576
(dp3577
g54
(dp3578
sg63
g3572
sg56
(lp3579
g49
(g50
g51
NtRp3580
(dp3581
g54
(dp3582
g62
I4
ssg63
g3576
sg56
(lp3583
S'}}'
p3584
asbasbasbasbasbasbasbag49
(g65
g51
NtRp3585
(dp3586
g54
(dp3587
sg63
g3320
sg56
(lp3588
g49
(g70
g51
NtRp3589
(dp3590
g54
(dp3591
g74
g75
ssg63
g3585
sg56
(lp3592
S'files'
p3593
asbag49
(g70
g51
NtRp3594
(dp3595
g54
(dp3596
g81
g82
ssg63
g3585
sg56
(lp3597
S':'
asbag49
(g70
g51
NtRp3598
(dp3599
g54
(dp3600
sg63
g3585
sg56
(lp3601
g49
(g50
g51
NtRp3602
(dp3603
g54
(dp3604
g62
I5
ssg63
g3598
sg56
(lp3605
g49
(g58
g51
NtRp3606
(dp3607
g54
(dp3608
g62
I4
ssg63
Nsg56
(lp3609
sbasbasbasbag49
(g65
g51
NtRp3610
(dp3611
g54
(dp3612
sg63
g3320
sg56
(lp3613
g49
(g70
g51
NtRp3614
(dp3615
g54
(dp3616
g74
g75
ssg63
g3610
sg56
(lp3617
S'flash'
p3618
asbag49
(g70
g51
NtRp3619
(dp3620
g54
(dp3621
g81
g82
ssg63
g3610
sg56
(lp3622
S':'
asbag49
(g70
g51
NtRp3623
(dp3624
g54
(dp3625
sg63
g3610
sg56
(lp3626
g49
(g50
g51
NtRp3627
(dp3628
g54
(dp3629
g62
I5
ssg63
g3623
sg56
(lp3630
cgluon.languages
lazyT_unpickle
p3631
(S's\x08\x00\x00\x00Success!'
tRp3632
asbasbasbag49
(g65
g51
NtRp3633
(dp3634
g54
(dp3635
sg63
g3320
sg56
(lp3636
g49
(g70
g51
NtRp3637
(dp3638
g54
(dp3639
g74
g75
ssg63
g3633
sg56
(lp3640
S'generic_patterns'
p3641
asbag49
(g70
g51
NtRp3642
(dp3643
g54
(dp3644
g81
g82
ssg63
g3633
sg56
(lp3645
S':'
asbag49
(g70
g51
NtRp3646
(dp3647
g54
(dp3648
sg63
g3633
sg56
(lp3649
g49
(g50
g51
NtRp3650
(dp3651
g54
(dp3652
g62
I5
ssg63
g3646
sg56
(lp3653
g49
(g58
g51
NtRp3654
(dp3655
g54
(dp3656
g62
I4
ssg63
Nsg56
(lp3657
g49
(g65
g51
NtRp3658
(dp3659
g54
(dp3660
sg63
g3654
sg56
(lp3661
g49
(g70
g51
NtRp3662
(dp3663
g54
(dp3664
sg63
g3658
sg56
(lp3665
g49
(g50
g51
NtRp3666
(dp3667
g54
(dp3668
g62
I4
ssg63
g3662
sg56
(lp3669
S'*'
asbasbasbasbasbasbasbag49
(g65
g51
NtRp3670
(dp3671
g54
(dp3672
sg63
g3320
sg56
(lp3673
g49
(g70
g51
NtRp3674
(dp3675
g54
(dp3676
g74
g75
ssg63
g3670
sg56
(lp3677
S'headers'
p3678
asbag49
(g70
g51
NtRp3679
(dp3680
g54
(dp3681
g81
g82
ssg63
g3670
sg56
(lp3682
S':'
asbag49
(g70
g51
NtRp3683
(dp3684
g54
(dp3685
sg63
g3670
sg56
(lp3686
g49
(g50
g51
NtRp3687
(dp3688
g54
(dp3689
g62
I5
ssg63
g3683
sg56
(lp3690
g49
(g58
g51
NtRp3691
(dp3692
g54
(dp3693
g62
I4
ssg63
Nsg56
(lp3694
g49
(g65
g51
NtRp3695
(dp3696
g54
(dp3697
sg63
g3691
sg56
(lp3698
g49
(g70
g51
NtRp3699
(dp3700
g54
(dp3701
g74
g75
ssg63
g3695
sg56
(lp3702
S'Cache-Control'
p3703
asbag49
(g70
g51
NtRp3704
(dp3705
g54
(dp3706
g81
g82
ssg63
g3695
sg56
(lp3707
S':'
asbag49
(g70
g51
NtRp3708
(dp3709
g54
(dp3710
sg63
g3695
sg56
(lp3711
g49
(g50
g51
NtRp3712
(dp3713
g54
(dp3714
g62
I4
ssg63
g3708
sg56
(lp3715
S'no-store, no-cache, must-revalidate, post-check=0, pre-check=0'
p3716
asbasbasbag49
(g65
g51
NtRp3717
(dp3718
g54
(dp3719
sg63
g3691
sg56
(lp3720
g49
(g70
g51
NtRp3721
(dp3722
g54
(dp3723
g74
g75
ssg63
g3717
sg56
(lp3724
S'Content-Type'
p3725
asbag49
(g70
g51
NtRp3726
(dp3727
g54
(dp3728
g81
g82
ssg63
g3717
sg56
(lp3729
S':'
asbag49
(g70
g51
NtRp3730
(dp3731
g54
(dp3732
sg63
g3717
sg56
(lp3733
g49
(g50
g51
NtRp3734
(dp3735
g54
(dp3736
g62
I4
ssg63
g3730
sg56
(lp3737
S'text/html; charset=utf-8'
p3738
asbasbasbag49
(g65
g51
NtRp3739
(dp3740
g54
(dp3741
sg63
g3691
sg56
(lp3742
g49
(g70
g51
NtRp3743
(dp3744
g54
(dp3745
g74
g75
ssg63
g3739
sg56
(lp3746
S'Expires'
p3747
asbag49
(g70
g51
NtRp3748
(dp3749
g54
(dp3750
g81
g82
ssg63
g3739
sg56
(lp3751
S':'
asbag49
(g70
g51
NtRp3752
(dp3753
g54
(dp3754
sg63
g3739
sg56
(lp3755
g49
(g50
g51
NtRp3756
(dp3757
g54
(dp3758
g62
I4
ssg63
g3752
sg56
(lp3759
S'Thu, 22 Mar 2012 17:00:43 GMT'
p3760
asbasbasbag49
(g65
g51
NtRp3761
(dp3762
g54
(dp3763
sg63
g3691
sg56
(lp3764
g49
(g70
g51
NtRp3765
(dp3766
g54
(dp3767
g74
g75
ssg63
g3761
sg56
(lp3768
S'Pragma'
p3769
asbag49
(g70
g51
NtRp3770
(dp3771
g54
(dp3772
g81
g82
ssg63
g3761
sg56
(lp3773
S':'
asbag49
(g70
g51
NtRp3774
(dp3775
g54
(dp3776
sg63
g3761
sg56
(lp3777
g49
(g50
g51
NtRp3778
(dp3779
g54
(dp3780
g62
I4
ssg63
g3774
sg56
(lp3781
S'no-cache'
p3782
asbasbasbag49
(g65
g51
NtRp3783
(dp3784
g54
(dp3785
sg63
g3691
sg56
(lp3786
g49
(g70
g51
NtRp3787
(dp3788
g54
(dp3789
g74
g75
ssg63
g3783
sg56
(lp3790
S'X-Powered-By'
p3791
asbag49
(g70
g51
NtRp3792
(dp3793
g54
(dp3794
g81
g82
ssg63
g3783
sg56
(lp3795
S':'
asbag49
(g70
g51
NtRp3796
(dp3797
g54
(dp3798
sg63
g3783
sg56
(lp3799
g49
(g50
g51
NtRp3800
(dp3801
g54
(dp3802
g62
I4
ssg63
g3796
sg56
(lp3803
S'web2py'
p3804
asbasbasbasbasbasbasbag49
(g65
g51
NtRp3805
(dp3806
g54
(dp3807
sg63
g3320
sg56
(lp3808
g49
(g70
g51
NtRp3809
(dp3810
g54
(dp3811
g74
g75
ssg63
g3805
sg56
(lp3812
S'menu'
p3813
asbag49
(g70
g51
NtRp3814
(dp3815
g54
(dp3816
g81
g82
ssg63
g3805
sg56
(lp3817
S':'
asbag49
(g70
g51
NtRp3818
(dp3819
g54
(dp3820
sg63
g3805
sg56
(lp3821
g49
(g50
g51
NtRp3822
(dp3823
g54
(dp3824
g62
I5
ssg63
g3818
sg56
(lp3825
g49
(g58
g51
NtRp3826
(dp3827
g54
(dp3828
g62
I4
ssg63
Nsg56
(lp3829
g49
(g65
g51
NtRp3830
(dp3831
g54
(dp3832
sg63
g3826
sg56
(lp3833
g49
(g70
g51
NtRp3834
(dp3835
g54
(dp3836
sg63
g3830
sg56
(lp3837
g49
(g50
g51
NtRp3838
(dp3839
g54
(dp3840
g62
I4
ssg63
g3834
sg56
(lp3841
g49
(g58
g51
NtRp3842
(dp3843
g54
(dp3844
g62
I3
ssg63
Nsg56
(lp3845
g49
(g65
g51
NtRp3846
(dp3847
g54
(dp3848
sg63
g3842
sg56
(lp3849
g49
(g70
g51
NtRp3850
(dp3851
g54
(dp3852
sg63
g3846
sg56
(lp3853
g49
(g50
g51
NtRp3854
(dp3855
g54
(dp3856
g62
I3
ssg63
g3850
sg56
(lp3857
g3631
(S't\x07\x00\x00\x00Accueil'
tRp3858
asbasbasbag49
(g65
g51
NtRp3859
(dp3860
g54
(dp3861
sg63
g3842
sg56
(lp3862
g49
(g70
g51
NtRp3863
(dp3864
g54
(dp3865
sg63
g3859
sg56
(lp3866
g49
(g50
g51
NtRp3867
(dp3868
g54
(dp3869
g62
I3
ssg63
g3863
sg56
(lp3870
g92
asbasbasbag49
(g65
g51
NtRp3871
(dp3872
g54
(dp3873
sg63
g3842
sg56
(lp3874
g49
(g70
g51
NtRp3875
(dp3876
g54
(dp3877
sg63
g3871
sg56
(lp3878
g49
(g50
g51
NtRp3879
(dp3880
g54
(dp3881
g62
I3
ssg63
g3875
sg56
(lp3882
S'/init/default/index'
p3883
asbasbasbag49
(g65
g51
NtRp3884
(dp3885
g54
(dp3886
sg63
g3842
sg56
(lp3887
g49
(g70
g51
NtRp3888
(dp3889
g54
(dp3890
sg63
g3884
sg56
(lp3891
g49
(g50
g51
NtRp3892
(dp3893
g54
(dp3894
g62
I3
ssg63
g3888
sg56
(lp3895
g49
(g58
g51
NtRp3896
(dp3897
g54
(dp3898
g62
I2
ssg63
Nsg56
(lp3899
sbasbasbasbasbasbasbasbag49
(g65
g51
NtRp3900
(dp3901
g54
(dp3902
sg63
g3826
sg56
(lp3903
g49
(g70
g51
NtRp3904
(dp3905
g54
(dp3906
sg63
g3900
sg56
(lp3907
g49
(g50
g51
NtRp3908
(dp3909
g54
(dp3910
g62
I4
ssg63
g3904
sg56
(lp3911
g49
(g58
g51
NtRp3912
(dp3913
g54
(dp3914
g62
I3
ssg63
Nsg56
(lp3915
g49
(g65
g51
NtRp3916
(dp3917
g54
(dp3918
sg63
g3912
sg56
(lp3919
g49
(g70
g51
NtRp3920
(dp3921
g54
(dp3922
sg63
g3916
sg56
(lp3923
g49
(g50
g51
NtRp3924
(dp3925
g54
(dp3926
g62
I3
ssg63
g3920
sg56
(lp3927
g49
(cgluon.html
SPAN
p3928
g51
NtRp3929
(dp3930
g54
(dp3931
g74
S'color:yellow'
p3932
ssg63
Nsg56
(lp3933
g3804
asbasbasbasbag49
(g65
g51
NtRp3934
(dp3935
g54
(dp3936
sg63
g3912
sg56
(lp3937
g49
(g70
g51
NtRp3938
(dp3939
g54
(dp3940
sg63
g3934
sg56
(lp3941
g49
(g50
g51
NtRp3942
(dp3943
g54
(dp3944
g62
I3
ssg63
g3938
sg56
(lp3945
g92
asbasbasbag49
(g65
g51
NtRp3946
(dp3947
g54
(dp3948
sg63
g3912
sg56
(lp3949
g49
(g70
g51
NtRp3950
(dp3951
g54
(dp3952
sg63
g3946
sg56
(lp3953
g49
(g50
g51
NtRp3954
(dp3955
g54
(dp3956
g62
I3
ssg63
g3950
sg56
(lp3957
S'None'
p3958
asbasbasbag49
(g65
g51
NtRp3959
(dp3960
g54
(dp3961
sg63
g3912
sg56
(lp3962
g49
(g70
g51
NtRp3963
(dp3964
g54
(dp3965
sg63
g3959
sg56
(lp3966
g49
(g50
g51
NtRp3967
(dp3968
g54
(dp3969
g62
I3
ssg63
g3963
sg56
(lp3970
g49
(g58
g51
NtRp3971
(dp3972
g54
(dp3973
g62
I2
ssg63
Nsg56
(lp3974
g49
(g65
g51
NtRp3975
(dp3976
g54
(dp3977
sg63
g3971
sg56
(lp3978
g49
(g70
g51
NtRp3979
(dp3980
g54
(dp3981
sg63
g3975
sg56
(lp3982
g49
(g50
g51
NtRp3983
(dp3984
g54
(dp3985
g62
I2
ssg63
g3979
sg56
(lp3986
g49
(g58
g51
NtRp3987
(dp3988
g54
(dp3989
g62
I1
ssg63
Nsg56
(lp3990
g49
(g65
g51
NtRp3991
(dp3992
g54
(dp3993
sg63
g3987
sg56
(lp3994
g49
(g70
g51
NtRp3995
(dp3996
g54
(dp3997
sg63
g3991
sg56
(lp3998
g49
(g50
g51
NtRp3999
(dp4000
g54
(dp4001
g62
I1
ssg63
g3995
sg56
(lp4002
g3631
(S's\x08\x00\x00\x00My Sites'
tRp4003
asbasbasbag49
(g65
g51
NtRp4004
(dp4005
g54
(dp4006
sg63
g3987
sg56
(lp4007
g49
(g70
g51
NtRp4008
(dp4009
g54
(dp4010
sg63
g4004
sg56
(lp4011
g49
(g50
g51
NtRp4012
(dp4013
g54
(dp4014
g62
I1
ssg63
g4008
sg56
(lp4015
I00
asbasbasbag49
(g65
g51
NtRp4016
(dp4017
g54
(dp4018
sg63
g3987
sg56
(lp4019
g49
(g70
g51
NtRp4020
(dp4021
g54
(dp4022
sg63
g4016
sg56
(lp4023
g49
(g50
g51
NtRp4024
(dp4025
g54
(dp4026
g62
I1
ssg63
g4020
sg56
(lp4027
S'/admin/default/site'
p4028
asbasbasbasbasbasbasbag49
(g65
g51
NtRp4029
(dp4030
g54
(dp4031
sg63
g3971
sg56
(lp4032
g49
(g70
g51
NtRp4033
(dp4034
g54
(dp4035
sg63
g4029
sg56
(lp4036
g49
(g50
g51
NtRp4037
(dp4038
g54
(dp4039
g62
I2
ssg63
g4033
sg56
(lp4040
g49
(g58
g51
NtRp4041
(dp4042
g54
(dp4043
g62
I1
ssg63
Nsg56
(lp4044
g49
(g65
g51
NtRp4045
(dp4046
g54
(dp4047
sg63
g4041
sg56
(lp4048
g49
(g70
g51
NtRp4049
(dp4050
g54
(dp4051
sg63
g4045
sg56
(lp4052
g49
(g50
g51
NtRp4053
(dp4054
g54
(dp4055
g62
I1
ssg63
g4049
sg56
(lp4056
g3631
(S's\x0b\x00\x00\x00Cette Appli'
tRp4057
asbasbasbag49
(g65
g51
NtRp4058
(dp4059
g54
(dp4060
sg63
g4041
sg56
(lp4061
g49
(g70
g51
NtRp4062
(dp4063
g54
(dp4064
sg63
g4058
sg56
(lp4065
g49
(g50
g51
NtRp4066
(dp4067
g54
(dp4068
g62
I1
ssg63
g4062
sg56
(lp4069
I00
asbasbasbag49
(g65
g51
NtRp4070
(dp4071
g54
(dp4072
sg63
g4041
sg56
(lp4073
g49
(g70
g51
NtRp4074
(dp4075
g54
(dp4076
sg63
g4070
sg56
(lp4077
g49
(g50
g51
NtRp4078
(dp4079
g54
(dp4080
g62
I1
ssg63
g4074
sg56
(lp4081
S'/admin/default/design/init'
p4082
asbasbasbag49
(g65
g51
NtRp4083
(dp4084
g54
(dp4085
sg63
g4041
sg56
(lp4086
g49
(g70
g51
NtRp4087
(dp4088
g54
(dp4089
sg63
g4083
sg56
(lp4090
g49
(g50
g51
NtRp4091
(dp4092
g54
(dp4093
g62
I1
ssg63
g4087
sg56
(lp4094
(lp4095
(g3631
(S's\x0b\x00\x00\x00Contr\xc3\xb4leur'
tRp4096
I00
S'/admin/default/edit/init/controllers/default.py'
tp4097
a(g3631
(S's\r\x00\x00\x00Pr\xc3\xa9sentation'
tRp4098
I00
S'/admin/default/edit/init/views/default/generate_invitationpage.html'
tp4099
a(g3631
(S's\x0c\x00\x00\x00Mise en page'
tRp4100
I00
S'/admin/default/edit/init/views/layout.html'
tp4101
a(g3631
(S's\x10\x00\x00\x00Feuille de style'
tRp4102
I00
S'/admin/default/edit/init/static/css/web2py.css'
tp4103
a(g3631
(S's\n\x00\x00\x00Mod\xc3\xa8le DB'
tRp4104
I00
S'/admin/default/edit/init/models/db.py'
tp4105
a(g3631
(S's\x0c\x00\x00\x00Menu mod\xc3\xa8le'
tRp4106
I00
S'/admin/default/edit/init/models/menu.py'
tp4107
a(g3631
(S's\x10\x00\x00\x00Base de donn\xc3\xa9es'
tRp4108
I00
S'/init/appadmin/index'
tp4109
a(g3631
(S't\x07\x00\x00\x00Erreurs'
tRp4110
I00
S'/admin/default/errors/init'
tp4111
a(g3631
(S's\t\x00\x00\x00\xc3\x80 propos'
tRp4112
I00
S'/admin/default/about/init'
tp4113
aasbasbasbasbasbasbasbag49
(g65
g51
NtRp4114
(dp4115
g54
(dp4116
sg63
g3971
sg56
(lp4117
g49
(g70
g51
NtRp4118
(dp4119
g54
(dp4120
sg63
g4114
sg56
(lp4121
g49
(g50
g51
NtRp4122
(dp4123
g54
(dp4124
g62
I2
ssg63
g4118
sg56
(lp4125
g49
(g58
g51
NtRp4126
(dp4127
g54
(dp4128
g62
I1
ssg63
Nsg56
(lp4129
g49
(g65
g51
NtRp4130
(dp4131
g54
(dp4132
sg63
g4126
sg56
(lp4133
g49
(g70
g51
NtRp4134
(dp4135
g54
(dp4136
sg63
g4130
sg56
(lp4137
g49
(g50
g51
NtRp4138
(dp4139
g54
(dp4140
g62
I1
ssg63
g4134
sg56
(lp4141
S'web2py.com'
p4142
asbasbasbag49
(g65
g51
NtRp4143
(dp4144
g54
(dp4145
sg63
g4126
sg56
(lp4146
g49
(g70
g51
NtRp4147
(dp4148
g54
(dp4149
sg63
g4143
sg56
(lp4150
g49
(g50
g51
NtRp4151
(dp4152
g54
(dp4153
g62
I1
ssg63
g4147
sg56
(lp4154
I00
asbasbasbag49
(g65
g51
NtRp4155
(dp4156
g54
(dp4157
sg63
g4126
sg56
(lp4158
g49
(g70
g51
NtRp4159
(dp4160
g54
(dp4161
sg63
g4155
sg56
(lp4162
g49
(g50
g51
NtRp4163
(dp4164
g54
(dp4165
g62
I1
ssg63
g4159
sg56
(lp4166
S'http://www.web2py.com'
p4167
asbasbasbag49
(g65
g51
NtRp4168
(dp4169
g54
(dp4170
sg63
g4126
sg56
(lp4171
g49
(g70
g51
NtRp4172
(dp4173
g54
(dp4174
sg63
g4168
sg56
(lp4175
g49
(g50
g51
NtRp4176
(dp4177
g54
(dp4178
g62
I1
ssg63
g4172
sg56
(lp4179
(lp4180
(g3631
(S's\x10\x00\x00\x00T\xc3\xa9l\xc3\xa9chargement'
tRp4181
I00
S'http://www.web2py.com/examples/default/download'
p4182
tp4183
a(g3631
(S't\x07\x00\x00\x00Support'
tRp4184
I00
S'http://www.web2py.com/examples/default/support'
p4185
tp4186
a(g3631
(S's\x05\x00\x00\x00D\xc3\xa9mo'
tRp4187
I00
S'http://web2py.com/demo_admin'
p4188
tp4189
a(g3631
(S's\x10\x00\x00\x00Examples Rapides'
tRp4190
I00
S'http://web2py.com/examples/default/examples'
p4191
tp4192
a(g3631
(S't\x03\x00\x00\x00FAQ'
tRp4193
I00
S'http://web2py.com/AlterEgo'
p4194
tp4195
a(g3631
(S's\x07\x00\x00\x00Vid\xc3\xa9os'
tRp4196
I00
S'http://www.web2py.com/examples/default/videos/'
p4197
tp4198
a(g3631
(S's\x16\x00\x00\x00Applications gratuites'
tRp4199
I00
S'http://web2py.com/appliances'
p4200
tp4201
a(g3631
(S't\n\x00\x00\x00Plugiciels'
tRp4202
I00
S'http://web2py.com/plugins'
p4203
tp4204
a(g3631
(S't\x07\x00\x00\x00Layouts'
tRp4205
I00
S'http://web2py.com/layouts'
p4206
tp4207
a(g3631
(S't\x08\x00\x00\x00Recettes'
tRp4208
I00
S'http://web2pyslices.com/'
p4209
tp4210
a(g3631
(S's\x0b\x00\x00\x00S\xc3\xa9mantique'
tRp4211
I00
S'http://web2py.com/semantic'
p4212
tp4213
aasbasbasbasbasbasbasbag49
(g65
g51
NtRp4214
(dp4215
g54
(dp4216
sg63
g3971
sg56
(lp4217
g49
(g70
g51
NtRp4218
(dp4219
g54
(dp4220
sg63
g4214
sg56
(lp4221
g49
(g50
g51
NtRp4222
(dp4223
g54
(dp4224
g62
I2
ssg63
g4218
sg56
(lp4225
g49
(g58
g51
NtRp4226
(dp4227
g54
(dp4228
g62
I1
ssg63
Nsg56
(lp4229
g49
(g65
g51
NtRp4230
(dp4231
g54
(dp4232
sg63
g4226
sg56
(lp4233
g49
(g70
g51
NtRp4234
(dp4235
g54
(dp4236
sg63
g4230
sg56
(lp4237
g49
(g50
g51
NtRp4238
(dp4239
g54
(dp4240
g62
I1
ssg63
g4234
sg56
(lp4241
g3631
(S't\r\x00\x00\x00Documentation'
tRp4242
asbasbasbag49
(g65
g51
NtRp4243
(dp4244
g54
(dp4245
sg63
g4226
sg56
(lp4246
g49
(g70
g51
NtRp4247
(dp4248
g54
(dp4249
sg63
g4243
sg56
(lp4250
g49
(g50
g51
NtRp4251
(dp4252
g54
(dp4253
g62
I1
ssg63
g4247
sg56
(lp4254
I00
asbasbasbag49
(g65
g51
NtRp4255
(dp4256
g54
(dp4257
sg63
g4226
sg56
(lp4258
g49
(g70
g51
NtRp4259
(dp4260
g54
(dp4261
sg63
g4255
sg56
(lp4262
g49
(g50
g51
NtRp4263
(dp4264
g54
(dp4265
g62
I1
ssg63
g4259
sg56
(lp4266
S'http://www.web2py.com/book'
p4267
asbasbasbag49
(g65
g51
NtRp4268
(dp4269
g54
(dp4270
sg63
g4226
sg56
(lp4271
g49
(g70
g51
NtRp4272
(dp4273
g54
(dp4274
sg63
g4268
sg56
(lp4275
g49
(g50
g51
NtRp4276
(dp4277
g54
(dp4278
g62
I1
ssg63
g4272
sg56
(lp4279
(lp4280
(g3631
(S's\x08\x00\x00\x00Pr\xc3\xa9face'
tRp4281
I00
S'http://www.web2py.com/book/default/chapter/00'
p4282
tp4283
a(g3631
(S't\x0c\x00\x00\x00Introduction'
tRp4284
I00
S'http://www.web2py.com/book/default/chapter/01'
p4285
tp4286
a(g3631
(S't\x06\x00\x00\x00Python'
tRp4287
I00
S'http://www.web2py.com/book/default/chapter/02'
p4288
tp4289
a(g3631
(S's\r\x00\x00\x00Pr\xc3\xa9sentation'
tRp4290
I00
S'http://www.web2py.com/book/default/chapter/03'
p4291
tp4292
a(g3631
(S's\x08\x00\x00\x00Le noyau'
tRp4293
I00
S'http://www.web2py.com/book/default/chapter/04'
p4294
tp4295
a(g3631
(S's\x08\x00\x00\x00Les Vues'
tRp4296
I00
S'http://www.web2py.com/book/default/chapter/05'
p4297
tp4298
a(g3631
(S's\x10\x00\x00\x00Base de donn\xc3\xa9es'
tRp4299
I00
S'http://www.web2py.com/book/default/chapter/06'
p4300
tp4301
a(g3631
(S's\x1a\x00\x00\x00Formulaires et Validateurs'
tRp4302
I00
S'http://www.web2py.com/book/default/chapter/07'
p4303
tp4304
a(g3631
(S's\r\x00\x00\x00Email and SMS'
tRp4305
I00
S'http://www.web2py.com/book/default/chapter/08'
p4306
tp4307
a(g3631
(S"s\x12\x00\x00\x00Contr\xc3\xb4le d'acc\xc3\xa8s"
tRp4308
I00
S'http://www.web2py.com/book/default/chapter/09'
p4309
tp4310
a(g3631
(S't\x08\x00\x00\x00Services'
tRp4311
I00
S'http://www.web2py.com/book/default/chapter/10'
p4312
tp4313
a(g3631
(S's\r\x00\x00\x00Recettes Ajax'
tRp4314
I00
S'http://www.web2py.com/book/default/chapter/11'
p4315
tp4316
a(g3631
(S's\x16\x00\x00\x00Components and Plugins'
tRp4317
I00
S'http://www.web2py.com/book/default/chapter/12'
p4318
tp4319
a(g3631
(S's\x18\x00\x00\x00Recettes de d\xc3\xa9ploiement'
tRp4320
I00
S'http://www.web2py.com/book/default/chapter/13'
p4321
tp4322
a(g3631
(S's\x0f\x00\x00\x00Autres recettes'
tRp4323
I00
S'http://www.web2py.com/book/default/chapter/14'
p4324
tp4325
a(g3631
(S's\x10\x00\x00\x00Acheter ce livre'
tRp4326
I00
S'http://stores.lulu.com/web2py'
p4327
tp4328
aasbasbasbasbasbasbasbag49
(g65
g51
NtRp4329
(dp4330
g54
(dp4331
sg63
g3971
sg56
(lp4332
g49
(g70
g51
NtRp4333
(dp4334
g54
(dp4335
sg63
g4329
sg56
(lp4336
g49
(g50
g51
NtRp4337
(dp4338
g54
(dp4339
g62
I2
ssg63
g4333
sg56
(lp4340
g49
(g58
g51
NtRp4341
(dp4342
g54
(dp4343
g62
I1
ssg63
Nsg56
(lp4344
g49
(g65
g51
NtRp4345
(dp4346
g54
(dp4347
sg63
g4341
sg56
(lp4348
g49
(g70
g51
NtRp4349
(dp4350
g54
(dp4351
sg63
g4345
sg56
(lp4352
g49
(g50
g51
NtRp4353
(dp4354
g54
(dp4355
g62
I1
ssg63
g4349
sg56
(lp4356
g3631
(S's\x0b\x00\x00\x00Communaut\xc3\xa9'
tRp4357
asbasbasbag49
(g65
g51
NtRp4358
(dp4359
g54
(dp4360
sg63
g4341
sg56
(lp4361
g49
(g70
g51
NtRp4362
(dp4363
g54
(dp4364
sg63
g4358
sg56
(lp4365
g49
(g50
g51
NtRp4366
(dp4367
g54
(dp4368
g62
I1
ssg63
g4362
sg56
(lp4369
I00
asbasbasbag49
(g65
g51
NtRp4370
(dp4371
g54
(dp4372
sg63
g4341
sg56
(lp4373
g49
(g70
g51
NtRp4374
(dp4375
g54
(dp4376
sg63
g4370
sg56
(lp4377
g49
(g50
g51
NtRp4378
(dp4379
g54
(dp4380
g62
I1
ssg63
g4374
sg56
(lp4381
Nasbasbasbag49
(g65
g51
NtRp4382
(dp4383
g54
(dp4384
sg63
g4341
sg56
(lp4385
g49
(g70
g51
NtRp4386
(dp4387
g54
(dp4388
sg63
g4382
sg56
(lp4389
g49
(g50
g51
NtRp4390
(dp4391
g54
(dp4392
g62
I1
ssg63
g4386
sg56
(lp4393
(lp4394
(g3631
(S't\x06\x00\x00\x00Groups'
tRp4395
I00
S'http://www.web2py.com/examples/default/usergroups'
p4396
tp4397
a(g3631
(S't\x07\x00\x00\x00Twitter'
tRp4398
I00
S'http://twitter.com/web2py'
p4399
tp4400
a(g3631
(S's\t\x00\x00\x00Live Chat'
tRp4401
I00
S'http://webchat.freenode.net/?channels=web2py'
p4402
tp4403
aasbasbasbasbasbasbasbag49
(g65
g51
NtRp4404
(dp4405
g54
(dp4406
sg63
g3971
sg56
(lp4407
g49
(g70
g51
NtRp4408
(dp4409
g54
(dp4410
sg63
g4404
sg56
(lp4411
g49
(g50
g51
NtRp4412
(dp4413
g54
(dp4414
g62
I2
ssg63
g4408
sg56
(lp4415
g49
(g58
g51
NtRp4416
(dp4417
g54
(dp4418
g62
I1
ssg63
Nsg56
(lp4419
g49
(g65
g51
NtRp4420
(dp4421
g54
(dp4422
sg63
g4416
sg56
(lp4423
g49
(g70
g51
NtRp4424
(dp4425
g54
(dp4426
sg63
g4420
sg56
(lp4427
g49
(g50
g51
NtRp4428
(dp4429
g54
(dp4430
g62
I1
ssg63
g4424
sg56
(lp4431
g3631
(S't\n\x00\x00\x00Plugiciels'
tRp4432
asbasbasbag49
(g65
g51
NtRp4433
(dp4434
g54
(dp4435
sg63
g4416
sg56
(lp4436
g49
(g70
g51
NtRp4437
(dp4438
g54
(dp4439
sg63
g4433
sg56
(lp4440
g49
(g50
g51
NtRp4441
(dp4442
g54
(dp4443
g62
I1
ssg63
g4437
sg56
(lp4444
I00
asbasbasbag49
(g65
g51
NtRp4445
(dp4446
g54
(dp4447
sg63
g4416
sg56
(lp4448
g49
(g70
g51
NtRp4449
(dp4450
g54
(dp4451
sg63
g4445
sg56
(lp4452
g49
(g50
g51
NtRp4453
(dp4454
g54
(dp4455
g62
I1
ssg63
g4449
sg56
(lp4456
Nasbasbasbag49
(g65
g51
NtRp4457
(dp4458
g54
(dp4459
sg63
g4416
sg56
(lp4460
g49
(g70
g51
NtRp4461
(dp4462
g54
(dp4463
sg63
g4457
sg56
(lp4464
g49
(g50
g51
NtRp4465
(dp4466
g54
(dp4467
g62
I1
ssg63
g4461
sg56
(lp4468
(lp4469
(S'plugin_wiki'
p4470
I00
S'http://web2py.com/examples/default/download'
p4471
tp4472
a(g3631
(S's\r\x00\x00\x00Other Plugins'
tRp4473
I00
g4203
tp4474
a(g3631
(S's\x0e\x00\x00\x00Layout Plugins'
tRp4475
I00
g4206
tp4476
aasbasbasbasbasbasbasbasbasbasbasbasbasbasbasbasbasbasbasbag49
(g65
g51
NtRp4477
(dp4478
g54
(dp4479
sg63
g3320
sg56
(lp4480
g49
(g70
g51
NtRp4481
(dp4482
g54
(dp4483
g74
g75
ssg63
g4477
sg56
(lp4484
S'meta'
p4485
asbag49
(g70
g51
NtRp4486
(dp4487
g54
(dp4488
g81
g82
ssg63
g4477
sg56
(lp4489
S':'
asbag49
(g70
g51
NtRp4490
(dp4491
g54
(dp4492
sg63
g4477
sg56
(lp4493
g49
(g50
g51
NtRp4494
(dp4495
g54
(dp4496
g62
I5
ssg63
g4490
sg56
(lp4497
g49
(g58
g51
NtRp4498
(dp4499
g54
(dp4500
g62
I4
ssg63
Nsg56
(lp4501
g49
(g65
g51
NtRp4502
(dp4503
g54
(dp4504
sg63
g4498
sg56
(lp4505
g49
(g70
g51
NtRp4506
(dp4507
g54
(dp4508
g74
g75
ssg63
g4502
sg56
(lp4509
S'author'
p4510
asbag49
(g70
g51
NtRp4511
(dp4512
g54
(dp4513
g81
g82
ssg63
g4502
sg56
(lp4514
S':'
asbag49
(g70
g51
NtRp4515
(dp4516
g54
(dp4517
sg63
g4502
sg56
(lp4518
g49
(g50
g51
NtRp4519
(dp4520
g54
(dp4521
g62
I4
ssg63
g4515
sg56
(lp4522
S'Your Name <you@example.com>'
p4523
asbasbasbag49
(g65
g51
NtRp4524
(dp4525
g54
(dp4526
sg63
g4498
sg56
(lp4527
g49
(g70
g51
NtRp4528
(dp4529
g54
(dp4530
g74
g75
ssg63
g4524
sg56
(lp4531
S'copyright'
p4532
asbag49
(g70
g51
NtRp4533
(dp4534
g54
(dp4535
g81
g82
ssg63
g4524
sg56
(lp4536
S':'
asbag49
(g70
g51
NtRp4537
(dp4538
g54
(dp4539
sg63
g4524
sg56
(lp4540
g49
(g50
g51
NtRp4541
(dp4542
g54
(dp4543
g62
I4
ssg63
g4537
sg56
(lp4544
S'Copyright 2011'
p4545
asbasbasbag49
(g65
g51
NtRp4546
(dp4547
g54
(dp4548
sg63
g4498
sg56
(lp4549
g49
(g70
g51
NtRp4550
(dp4551
g54
(dp4552
g74
g75
ssg63
g4546
sg56
(lp4553
S'description'
p4554
asbag49
(g70
g51
NtRp4555
(dp4556
g54
(dp4557
g81
g82
ssg63
g4546
sg56
(lp4558
S':'
asbag49
(g70
g51
NtRp4559
(dp4560
g54
(dp4561
sg63
g4546
sg56
(lp4562
g49
(g50
g51
NtRp4563
(dp4564
g54
(dp4565
g62
I4
ssg63
g4559
sg56
(lp4566
S'a cool new app'
p4567
asbasbasbag49
(g65
g51
NtRp4568
(dp4569
g54
(dp4570
sg63
g4498
sg56
(lp4571
g49
(g70
g51
NtRp4572
(dp4573
g54
(dp4574
g74
g75
ssg63
g4568
sg56
(lp4575
S'generator'
p4576
asbag49
(g70
g51
NtRp4577
(dp4578
g54
(dp4579
g81
g82
ssg63
g4568
sg56
(lp4580
S':'
asbag49
(g70
g51
NtRp4581
(dp4582
g54
(dp4583
sg63
g4568
sg56
(lp4584
g49
(g50
g51
NtRp4585
(dp4586
g54
(dp4587
g62
I4
ssg63
g4581
sg56
(lp4588
S'Web2py Web Framework'
p4589
asbasbasbag49
(g65
g51
NtRp4590
(dp4591
g54
(dp4592
sg63
g4498
sg56
(lp4593
g49
(g70
g51
NtRp4594
(dp4595
g54
(dp4596
g74
g75
ssg63
g4590
sg56
(lp4597
S'keywords'
p4598
asbag49
(g70
g51
NtRp4599
(dp4600
g54
(dp4601
g81
g82
ssg63
g4590
sg56
(lp4602
S':'
asbag49
(g70
g51
NtRp4603
(dp4604
g54
(dp4605
sg63
g4590
sg56
(lp4606
g49
(g50
g51
NtRp4607
(dp4608
g54
(dp4609
g62
I4
ssg63
g4603
sg56
(lp4610
S'web2py, python, framework'
p4611
asbasbasbasbasbasbasbag49
(g65
g51
NtRp4612
(dp4613
g54
(dp4614
sg63
g3320
sg56
(lp4615
g49
(g70
g51
NtRp4616
(dp4617
g54
(dp4618
g74
g75
ssg63
g4612
sg56
(lp4619
S'postprocessing'
p4620
asbag49
(g70
g51
NtRp4621
(dp4622
g54
(dp4623
g81
g82
ssg63
g4612
sg56
(lp4624
S':'
asbag49
(g70
g51
NtRp4625
(dp4626
g54
(dp4627
sg63
g4612
sg56
(lp4628
g49
(g50
g51
NtRp4629
(dp4630
g54
(dp4631
g62
I5
ssg63
g4625
sg56
(lp4632
g49
(g58
g51
NtRp4633
(dp4634
g54
(dp4635
g62
I4
ssg63
Nsg56
(lp4636
sbasbasbasbag49
(g65
g51
NtRp4637
(dp4638
g54
(dp4639
sg63
g3320
sg56
(lp4640
g49
(g70
g51
NtRp4641
(dp4642
g54
(dp4643
g74
g75
ssg63
g4637
sg56
(lp4644
S'session_db'
p4645
asbag49
(g70
g51
NtRp4646
(dp4647
g54
(dp4648
g81
g82
ssg63
g4637
sg56
(lp4649
S':'
asbag49
(g70
g51
NtRp4650
(dp4651
g54
(dp4652
sg63
g4637
sg56
(lp4653
g49
(g50
g51
NtRp4654
(dp4655
g54
(dp4656
g62
I5
ssg63
g4650
sg56
(lp4657
g935
asbasbasbag49
(g65
g51
NtRp4658
(dp4659
g54
(dp4660
sg63
g3320
sg56
(lp4661
g49
(g70
g51
NtRp4662
(dp4663
g54
(dp4664
g74
g75
ssg63
g4658
sg56
(lp4665
S'session_id'
p4666
asbag49
(g70
g51
NtRp4667
(dp4668
g54
(dp4669
g81
g82
ssg63
g4658
sg56
(lp4670
S':'
asbag49
(g70
g51
NtRp4671
(dp4672
g54
(dp4673
sg63
g4658
sg56
(lp4674
g49
(g50
g51
NtRp4675
(dp4676
g54
(dp4677
g62
I5
ssg63
g4671
sg56
(lp4678
S'7:c3d6c80f-e768-4969-a53e-59b97f99de74'
p4679
asbasbasbag49
(g65
g51
NtRp4680
(dp4681
g54
(dp4682
sg63
g3320
sg56
(lp4683
g49
(g70
g51
NtRp4684
(dp4685
g54
(dp4686
g74
g75
ssg63
g4680
sg56
(lp4687
S'session_id_name'
p4688
asbag49
(g70
g51
NtRp4689
(dp4690
g54
(dp4691
g81
g82
ssg63
g4680
sg56
(lp4692
S':'
asbag49
(g70
g51
NtRp4693
(dp4694
g54
(dp4695
sg63
g4680
sg56
(lp4696
g49
(g50
g51
NtRp4697
(dp4698
g54
(dp4699
g62
I5
ssg63
g4693
sg56
(lp4700
S'session_id_init'
p4701
asbasbasbag49
(g65
g51
NtRp4702
(dp4703
g54
(dp4704
sg63
g3320
sg56
(lp4705
g49
(g70
g51
NtRp4706
(dp4707
g54
(dp4708
g74
g75
ssg63
g4702
sg56
(lp4709
S'status'
p4710
asbag49
(g70
g51
NtRp4711
(dp4712
g54
(dp4713
g81
g82
ssg63
g4702
sg56
(lp4714
S':'
asbag49
(g70
g51
NtRp4715
(dp4716
g54
(dp4717
sg63
g4702
sg56
(lp4718
g49
(g50
g51
NtRp4719
(dp4720
g54
(dp4721
g62
I5
ssg63
g4715
sg56
(lp4722
S'200'
p4723
asbasbasbag49
(g65
g51
NtRp4724
(dp4725
g54
(dp4726
sg63
g3320
sg56
(lp4727
g49
(g70
g51
NtRp4728
(dp4729
g54
(dp4730
g74
g75
ssg63
g4724
sg56
(lp4731
S'subtitle'
p4732
asbag49
(g70
g51
NtRp4733
(dp4734
g54
(dp4735
g81
g82
ssg63
g4724
sg56
(lp4736
S':'
asbag49
(g70
g51
NtRp4737
(dp4738
g54
(dp4739
sg63
g4724
sg56
(lp4740
g49
(g50
g51
NtRp4741
(dp4742
g54
(dp4743
g62
I5
ssg63
g4737
sg56
(lp4744
g3631
(S's\x12\x00\x00\x00personnalisez-moi!'
tRp4745
asbasbasbag49
(g65
g51
NtRp4746
(dp4747
g54
(dp4748
sg63
g3320
sg56
(lp4749
g49
(g70
g51
NtRp4750
(dp4751
g54
(dp4752
g74
g75
ssg63
g4746
sg56
(lp4753
S'title'
p4754
asbag49
(g70
g51
NtRp4755
(dp4756
g54
(dp4757
g81
g82
ssg63
g4746
sg56
(lp4758
S':'
asbag49
(g70
g51
NtRp4759
(dp4760
g54
(dp4761
sg63
g4746
sg56
(lp4762
g49
(g50
g51
NtRp4763
(dp4764
g54
(dp4765
g62
I5
ssg63
g4759
sg56
(lp4766
S'Init'
p4767
asbasbasbag49
(g65
g51
NtRp4768
(dp4769
g54
(dp4770
sg63
g3320
sg56
(lp4771
g49
(g70
g51
NtRp4772
(dp4773
g54
(dp4774
g74
g75
ssg63
g4768
sg56
(lp4775
g2425
asbag49
(g70
g51
NtRp4776
(dp4777
g54
(dp4778
g81
g82
ssg63
g4768
sg56
(lp4779
S':'
asbag49
(g70
g51
NtRp4780
(dp4781
g54
(dp4782
sg63
g4768
sg56
(lp4783
g49
(g50
g51
NtRp4784
(dp4785
g54
(dp4786
g62
I5
ssg63
g4780
sg56
(lp4787
g2438
asbasbasbag49
(g65
g51
NtRp4788
(dp4789
g54
(dp4790
sg63
g3320
sg56
(lp4791
g49
(g70
g51
NtRp4792
(dp4793
g54
(dp4794
g74
g75
ssg63
g4788
sg56
(lp4795
S'view'
p4796
asbag49
(g70
g51
NtRp4797
(dp4798
g54
(dp4799
g81
g82
ssg63
g4788
sg56
(lp4800
S':'
asbag49
(g70
g51
NtRp4801
(dp4802
g54
(dp4803
sg63
g4788
sg56
(lp4804
g49
(g50
g51
NtRp4805
(dp4806
g54
(dp4807
g62
I5
ssg63
g4801
sg56
(lp4808
S'default/generate_invitationpage.html'
p4809
asbasbasbasbasbsS'locals'
p4810
(dp4811
S'form'
p4812
S'<gluon.html.FORM object at 0x02A673B0>'
p4813
sssS'traceback'
p4814
S'Traceback (most recent call last):\n  File "gluon/restricted.py", line 205, in restricted\n  File "D:\\Documents\\Workspace\\Jack\\web2py\\applications\\init\\controllers/default.py", line 266, in <module>\n  File "gluon/globals.py", line 173, in <lambda>\n  File "D:\\Documents\\Workspace\\Jack\\web2py\\applications\\init\\controllers/default.py", line 195, in generate_invitationpage\nAttributeError: \'FORM\' object has no attribute \'nmbreinvit\'\n'
p4815
s.