(dp1
S'output'
p2
S"<type 'exceptions.SyntaxError'> invalid syntax (controllers/default.py, line 270)"
p3
sS'layer'
p4
S'C:\\Users\\Bussiere\\Dropbox\\Projets\\jackpoint\\web2py\\applications\\init\\controllers/default.py'
p5
sS'code'
p6
S'# -*- coding: utf-8 -*-\n# this file is released under public domain and you can use without limitations\n\n#########################################################################\n## This is a samples controller\n## - index is the default action of any application\n## - user is required for authentication and authorization\n## - download is for downloading files uploaded in the db (does streaming)\n## - call exposes all registered services (none by default)\n#########################################################################\n# Static analyzer import helpers: (STATIC_IMPORT_MARK)\nif 0: \n    import gluon\n    global cache; cache = gluon.cache.Cache()\n    global LOAD; LOAD  = gluon.compileapp.LoadFactory()\n    import gluon.compileapp.local_import_aux as local_import #@UnusedImport\n    from gluon.contrib.gql import GQLDB #@UnusedImport\n    from gluon.dal import Field #@UnusedImport\n    global request; request = gluon.globals.Request()\n    global response; response = gluon.globals.Response()\n    global session; session = gluon.globals.Session()\n    from gluon.html import A #@UnusedImport\n    from gluon.html import B #@UnusedImport\n    from gluon.html import BEAUTIFY #@UnusedImport\n    from gluon.html import BODY #@UnusedImport\n    from gluon.html import BR #@UnusedImport\n    from gluon.html import CENTER #@UnusedImport\n    from gluon.html import CODE #@UnusedImport\n    from gluon.html import DIV #@UnusedImport\n    from gluon.html import EM #@UnusedImport\n    from gluon.html import EMBED #@UnusedImport\n    from gluon.html import embed64 #@UnusedImport\n    from gluon.html import FIELDSET #@UnusedImport\n    from gluon.html import FORM #@UnusedImport\n    from gluon.html import H1 #@UnusedImport\n    from gluon.html import H2 #@UnusedImport\n    from gluon.html import H3 #@UnusedImport\n    from gluon.html import H4 #@UnusedImport\n    from gluon.html import H5 #@UnusedImport\n    from gluon.html import H6 #@UnusedImport\n    from gluon.html import HEAD #@UnusedImport\n    from gluon.html import HR #@UnusedImport\n    from gluon.html import HTML #@UnusedImport\n    from gluon.html import I #@UnusedImport\n    from gluon.html import IFRAME #@UnusedImport\n    from gluon.html import IMG #@UnusedImport\n    from gluon.html import INPUT #@UnusedImport\n    from gluon.html import LABEL #@UnusedImport\n    from gluon.html import LEGEND #@UnusedImport\n    from gluon.html import LI #@UnusedImport\n    from gluon.html import LINK #@UnusedImport\n    from gluon.html import MARKMIN #@UnusedImport\n    from gluon.html import MENU #@UnusedImport\n    from gluon.html import META #@UnusedImport\n    from gluon.html import OBJECT #@UnusedImport\n    from gluon.html import OL #@UnusedImport\n    from gluon.html import ON #@UnusedImport\n    from gluon.html import OPTGROUP #@UnusedImport\n    from gluon.html import OPTION #@UnusedImport\n    from gluon.html import P #@UnusedImport\n    from gluon.html import PRE #@UnusedImport\n    from gluon.html import STYLE #@UnusedImport\n    from gluon.html import SCRIPT #@UnusedImport\n    from gluon.html import SELECT #@UnusedImport\n    from gluon.html import SPAN #@UnusedImport\n    from gluon.html import TABLE #@UnusedImport\n    from gluon.html import TAG #@UnusedImport\n    from gluon.html import TBODY #@UnusedImport\n    from gluon.html import TD #@UnusedImport\n    from gluon.html import TEXTAREA #@UnusedImport\n    from gluon.html import TFOOT #@UnusedImport\n    from gluon.html import TH  #@UnusedImport\n    from gluon.html import THEAD #@UnusedImport\n    from gluon.html import TITLE #@UnusedImport\n    from gluon.html import TR #@UnusedImport\n    from gluon.html import TT #@UnusedImport\n    from gluon.html import UL #@UnusedImport\n    from gluon.html import URL #@UnusedImport\n    from gluon.html import XHTML #@UnusedImport\n    from gluon.html import XML #@UnusedImport\n    from gluon.html import xmlescape #@UnusedImport\n    from gluon.http import HTTP #@UnusedImport\n    from gluon.http import redirect #@UnusedImport\n    import gluon.languages.translator as T #@UnusedImport\n    from gluon.sql import DAL\n    global db; db = DAL()\n    from gluon.sql import SQLDB #@UnusedImport\n    from gluon.sql import SQLField #@UnusedImport\n    from gluon.sqlhtml import SQLFORM #@UnusedImport\n    from gluon.sqlhtml import SQLTABLE #@UnusedImport\n    from gluon.tools import  Auth\n    global auth; auth = Auth()\n    from gluon.tools import Crud\n    global crud; crud = Crud()\n    from gluon.tools import fetch #@UnusedImport\n    from gluon.tools import geocode #@UnusedImport\n    from gluon.tools import Mail\n    global mail; mail = Mail()\n    from gluon.tools import PluginManager\n    global plugins; plugins = PluginManager()\n    from gluon.tools import prettydate #@UnusedImport\n    from gluon.tools import Recaptcha #@UnusedImport\n    from gluon.tools import Service\n    global service; service = Service()\n    from gluon.validators import CLEANUP  #@UnusedImport\n    from gluon.validators import CRYPT #@UnusedImport\n    from gluon.validators import IS_ALPHANUMERIC #@UnusedImport\n    from gluon.validators import IS_DATE #@UnusedImport\n    from gluon.validators import IS_DATE_IN_RANGE #@UnusedImport\n    from gluon.validators import IS_DATETIME #@UnusedImport\n    from gluon.validators import IS_DATETIME_IN_RANGE #@UnusedImport\n    from gluon.validators import IS_DECIMAL_IN_RANGE #@UnusedImport\n    from gluon.validators import IS_EMAIL #@UnusedImport\n    from gluon.validators import IS_EMPTY_OR #@UnusedImport\n    from gluon.validators import IS_EQUAL_TO #@UnusedImport\n    from gluon.validators import IS_EXPR #@UnusedImport\n    from gluon.validators import IS_FLOAT_IN_RANGE #@UnusedImport\n    from gluon.validators import IS_IMAGE #@UnusedImport\n    from gluon.validators import IS_IN_DB #@UnusedImport\n    from gluon.validators import IS_IN_SET #@UnusedImport\n    from gluon.validators import IS_INT_IN_RANGE #@UnusedImport\n    from gluon.validators import IS_IPV4 #@UnusedImport\n    from gluon.validators import IS_LENGTH #@UnusedImport\n    from gluon.validators import IS_LIST_OF #@UnusedImport\n    from gluon.validators import IS_LOWER #@UnusedImport\n    from gluon.validators import IS_MATCH #@UnusedImport\n    from gluon.validators import IS_NOT_EMPTY #@UnusedImport\n    from gluon.validators import IS_NOT_IN_DB #@UnusedImport\n    from gluon.validators import IS_NULL_OR #@UnusedImport\n    from gluon.validators import IS_SLUG #@UnusedImport\n    from gluon.validators import IS_STRONG  #@UnusedImport\n    from gluon.validators import IS_TIME #@UnusedImport\n    from gluon.validators import IS_UPLOAD_FILENAME #@UnusedImport\n    from gluon.validators import IS_UPPER #@UnusedImpor\n\n\nimport random\n\nfrom gluon.storage import Storage\n\n\n\n# def ensurefirstuser(firstname,lastname,email,password)\xe2\x80\x8b:\n#     users = db(db.auth_user.email==email).\xe2\x80\x8bselect()\n#     if users:\n#         user_id = users[0].id\n#         created = False\n#         if settings.debug_ensure_first_\xe2\x80\x8buser == True:\n#             print (\'found user_id so created equals %s\') % created\n#         return (user_id,created)\n\n#     else:\n#         my_crypt = CRYPT(key=auth.settings.hmac_\xe2\x80\x8bkey)\n#         crypt_pass = my_crypt(password)[0]        \n#         id_user= db.auth_user.insert(\n#                               \xe2\x80\x8b     first_name=firstname,\n#                               \xe2\x80\x8b     last_name=lastname,\n#                               \xe2\x80\x8b     email = email,\n#                               \xe2\x80\x8b     password = crypt_pass\n#                               \xe2\x80\x8b     )\n#         created = True\n#         if settings.debug_ensure_first_\xe2\x80\x8buser == True:\n#             print (\'creating user_id\')\n#         return (id_user,created)\n\n        \n\n\n# def __ensure_users():\n#     user_id, created = _ensure_user(\'first\',\'last\',\'e\xe2\x80\x8bmail@address.com\',\'\xe2\x80\x8bUserPassword12345\')\n#     if settings.debug_ensure_users == True:\n#         print (\'user id %i\') % user_id\n#         print (\'created %s\') % created\n\n# def __ensure_group_role(role,\xe2\x80\x8bdescription):\n#     if not auth.id_group(role=role):    \n#         auth.add_group(role=role,\xe2\x80\x8bdescription=description)    \n#         if settings.debug_ensure_group_\xe2\x80\x8brole == True:\n#             print (\'created role %s\') %(role)\n\n# def __ensure_membership(group_id, user_id):\n#     return_group_id = auth.add_membership(role=role, user_id=user_id)\n#     if settings.debug_ensure_\xe2\x80\x8bmembership == True:\n#         print (\'made user_id member of %s\') %(role)\n#     return return_group_id\n \n# def __ensure_permissions(role, description, user_id):\n#     __ensure_group_role(role,\xe2\x80\x8bdescription)\n#     return_group_id = __ensure_membership(group_id, user_id)\n#     if settings.debug_ensure_\xe2\x80\x8bpermissions == True:\n#         print return_group_id\n\n\ndef index():\n    if auth.is_logged_in() :\n        return "You get the blue pills"\n    else :\n        return dict(form=auth.login(),faq=URL(\'faq\'))\n\n\n\ndef generate_invitation(number,word=4,num=1,numdigit=5):\n    code = [\n[\'BELCHER\', \'FIX\', \'EEL\', \'PANZERBOY\', \'DESK_JOCKEY\', \'CHILLED\', \'ENFORCER\', \'CHERRY_PICKING\', \'COUNTRY_CLUB\', \'BOMBSHELL\', \'PLUGGED_IN\', \'FINI\', \'LEGIT\', \'JAM\', \'BONED_OUT\', \'BLADE\', \'ROUST\', \'SAMURAI\', \'DISK\', \'INPUT\', \'POST_TIME\', \'SOUNDS\', \'SKIP\', \'FLATBACKER\', \'WILSON\', \'SHOEMAKER\', \'DELTA_SIERRA\', \'HEART\', \'CROAK\', \'HEAD_HUNTER\', \'HOSHO_KAISHA\', "DELTA\'D", "\'FACE_(also,_FACE,_EYE-FACE,_I-FACE)", \'WEEFLE\', \'DIRTGIRL\', \'KEYBOARD\', \'BRAIN_BUCKET\', \'DRYING_OUT\', \'OVERCOOK\', \'PIG\', \'COLD_TEA\', \'RECONFIG\', \'PAD\', \'LIT_UP\', \'WRAITH\', \'HANDLE\', \'L.P.\', \'PINCH\', \'TAKE_A_CAB\', \'SPILL\', \'ACE_KOOL\', \'DO\', \'BIZ\', \'BROWNIE\', \'CANDLE_AND_BLOOD\', \'BLUEBOY\', \'UP_ON_IT\', \'BURN\', \'USER_INTERFACE\', \'HOB\', \'GYRO\', \'STUFFIT\', \'THATCH\', \'ICEBREAKER\', \'ZIP_GUN\', \'PETERMAN\', \'PLAY_DOUGH\', \'TREY-EIGHT\', \'SETTLE\', "CHIPPIN\'_IN", \'MEATBALL\', \'RAFFLES\', \'YUBITSUME\', \'CROAKER\', \'SUCKER_POCKETS\', \'L.A.M.A.\', \'GEEK\', \'BUTTONHEAD\'],\n[\'TAKE\', \'TEKIYA\', \'KURUMAKU\', \'BLOC\', \'GAT\', \'JOHATSU\', \'CRYSTAL\', \'A.I.\', \'ZEROED\', \'OVER_THE_SHOULDER\', \'GRAB_GEE\', \'PANZER\', \'GO_LEO\', \'WASHED\', \'I.C.E.\', \'COPSHOP\', \'COLLATERAL_DAMAGE\', \'BIG_DARK\', \'DOUBLE-DEUCE\', \'ZONEDANCE\', \'MARK\', \'COBBERS\', \'CHIMPIRA\', \'TRIADS\', \'SHANK\', \'FRAG\', \'BREATH_VAC\', "CHARLIE\'S_ANGEL", \'MULE\', \'BURNER\', "PACKIN\'", \'HOTDOGGER\', \'BOSOZOKU\', \'RIPPERDOC\', \'THIRDMAN\', \'MAXIMUM,_MAX\', \'CHOOH2_("CHOO")\', \'CRYO_MAX\', \'HEATER\', \'SHARK\', \'JOYGIRL\', \'GURENTAI\', \'BANDIT\', \'VENICE\', \'MIZU_SHOBAI\', \'PASTA_BOYS\', \'SQUID\', \'CYBERED_UP\', \'DEAD_RECKONING\', \'POPSICLE\', \'FAUST\', \'COLLARBOY\', \'SHOES\', \'TORCH\', \'DELTAJOCK\', \'BUTTERFLY_MAN\', \'WISE_GUYS\', \'BOOST\', \'CAIN\', \'FOUR-FIVE\', \'BREAK-DOWN\', \'POLYMER_ONE-SHOT\', \'FLAG\', \'CALL_GIRL\', \'IN_THE_HUNT\', \'HYDRO\', \'DOCK\', \'FENCE\', \'SHAIKUJIN\', \'GOMI\', \'FILTER\', \'SAINT_NICK\', \'LINEFOOT\', \'CAVALRY\', \'PUKE\', \'CONVERSION\', \'FINGER\', \'CONTRACT\'],\n[\'PLASTIC\', \'CRYSTALJOCKEY,_CRYSTALJOCK\', \'SCREW\', \'TOYSTORE\', \'DREAM_TIME\', \'EXOTIC\', \'WALKABOUT\', \'DIAMOND_SEASON\', \'SARAKIN\', \'CHRISTMAS_BUNDLES\', \'SHADES\', \'BUTTON_MAN\', \'FOXTROT_UNIFORM\', \'KAI\', \'UNDER_THE_PAINT\', \'MINIMUM\', \'TRIPLE_A\', \'PIG_ON_A_WHEEL\', \'BAG_MAN\', \'DIP\', \'PIGEONS\', \'MAN\', \'ADAM_HENRY\', \'HIGH\', \'HEAT\', \'NINJO\', \'KNIFE_FIGHT\', \'MOUTHPIECE\', \'AGRIPLEX\', \'DATA_TERM\', \'LIZ\', \'CHROMER\', \'OUTPUT\', \'N.O.E.\', \'CLOSE_A_CONTRACT\', \'LASSIE\', \'FLATLINE\', \'CHIV\', \'SING\', \'AMMO\', \'RAT\', \'MATCHBOX\', \'PULL_AN_ASH\', \'BORYOKUDAN\', \'SQUEEZE\', \'RONIN\', \'HIT\', \'RAGS\', \'TAKE_OUT\', \'BEAT_THE_RAP\', \'GIRI\', \'RUNNING_THE_LINE\', \'HARNESS\', \'GRAVEROBBER\', \'DROP_A_DIME\', \'BADGE_ON_A_BEAVER\', \'FLETCHER\', \'AMPED-OUT\', \'NEUTRALIZE\', \'PETER\', \'CONFIG\', \'HARDFIRE\', \'B.A.M.A.\', \'CHROMATIC_ROCK\', \'MOLDED\', \'RAD\', \'CREASED\', \'CHATTER_BOX\', \'HAND_CANNON\', \'NIPPERS\', \'SIERRA_HOTEL\', \'HOOK_UP\', \'-JOCKEY,_-JOCK\', \'BUG\', \'BATMAN_AND_ROBIN\', \'BLACK_OPERATIONS\', "D.C.\'S", \'SO_KA\'],\n[\'_A.A.A.\', \'HOME_PLATE\', \'LITEJACK\', \'PINEAPPLE\', \'MAKE\', \'THE_STREET\', \'SITREP\', \'HANGING_PAPER\', \'PAINT_BOYS\', \'WETWORK\', \'NINER\', \'BOOKIE\', \'WHIPLASH\', \'TORPEDO\', \'HEATWAVE\', \'SOLAR_WIND\', \'QUIFF\', \'BIKE\', \'TRAFFIC\', \'WIRE_ROOM\', \'OYABUN\', \'COWBOY\', \'KOBUN\', \'MUDBOY\', \'COP_OUT\', \'SOKAIYA\', "\'DORPH", \'JOYBOY\', \'DIRTY\', \'BOAT\', \'DROP\', \'GRAV_or_GEE\', \'APOGEE\', \'BOOSTER\', \'BOOK\', \'FRY\', \'PULLING_TEETH\', \'ONE_LARGE\', \'COMBAT_DRUGS\', \'THRASH\', \'DO_A_GHOST\', \'DELTA\', \'RIN_TIN_TIN\', \'DROP_OUT\', \'GUMI\', \'ROCKERBOY/GIRL\', \'BULLET\', \'DEB\', \'THREADING_THE_NEEDLE\', \'MOTOR\', \'BLEEDER\', \'ARC\', \'BOPPER\', \'WASTE\', \'_______DEMUKAI\', \'BREAK\', \'HOLDING_DOWN\', \'FEDS\', \'GAP\', \'RABBI\', \'BAKUTO\', \'CHOMBATTA_(CHOOMBA)\', \'BIG_HATS\', \'MR._JOHNSON\', \'EXEC\', \'BULL\', \'BULLSEYE\', \'POSERGANG\', \'CHAOL\', \'GEISHA\', \'SLAMMIT_ON\', \'POP_CAPS\', \'HARD_TIME\', \'BENJI\', \'MAKING_BANK\', \'PAPERHANGER\', \'NETRUN\', \'BOGEY\'],\n]     \n    i = 0\n    invits = []\n    print number\n    while (i < number):\n        invit = ""\n        j = 0\n        while (j < word):\n            debut = random.randint(0,len(code)-1)\n            codepick = code[debut][random.randint(0,len(code[debut])-1)]\n            j += 1\n            invit += codepick+"-"\n        j = 0\n        while (j < num):\n            invit += randomdig(numdigit)+"-"\n            j += 1\n        i+= 1\n        invit = invit[:-1]\n        if invit not in invits :\n            invits.append(invit[:-1])\n            print invit\n    return invits\n        \ndef randomdig(number):\n    max = "9"*number\n    max = int(max)\n    rand =  random.randint(0,max)\n    rand = str(rand)\n    rand = "0"*(number-len(rand))+rand\n    return rand\n\n@auth.requires_login()\ndef inscription():\n    form = SQLFORM(db[auth.settings.table_user_name])\n    return dict(form=form)\n\ndef liste_invitations():\n    return dict(rows = db().select(db.Invitation.ALL))\n\n#@auth.requires_membership(\'manager\')\ndef generate_invitationpage():\n   form=FORM("Nombre d\'invit a g\xc3\xa9n\xc3\xa9rer:", INPUT(_name=\'nmbreinvit\'), INPUT(_type=\'submit\'))\n   if form.process().accepted:\n       i = form.vars.nmbreinvit\n       invitsgenere = generate_invitation(int(i))\n       for invit in invitsgenere :\n           db.Invitation.insert(Code=invit)\n           db.commit()\n       session.flash = \'invitation inserted\'\n       form=FORM("Nombre d\'invit a g\xc3\xa9n\xc3\xa9rer:", INPUT(_name=\'nmbreinvit\'), INPUT(_type=\'submit\'))\n       #db.Invitation.insert(Code="Toto-5542")\n       db.commit()\n   return dict(form=form)\n\ndef verif_invitation(form):\n    if len(db(db.Invitation.Code==form.vars.invitation).select()) != 1 :\n        form.errors(\'code invitation incorrect\')\n\n\ndef invitation():\n    form=FORM("Code Invitation :", INPUT(_name=\'invitation\'),INPUT(_name=\'email\'),  INPUT(_type=\'submit\'))\n    if form.process(onvalidation=verif_invitation) :\n        user = __ensure_first_user("john","doe",form.vars.email,form.vars.invitation)\xe2\x80\x8b\n        auth.user = Storage(auth.settings.table_user._filter_fields(user, id=True))\n        auth.environment.session.auth = Storage(user=user, last_visit=request.now,\n                                            expiration=auth.settings.expiration)\n        redirect(URL(\'inscription\'))\n    return dict(form=form)\n\ndef faq():\n\n    return dict()\ndef user():\n    """\n    exposes:\n    http://..../[app]/default/user/login\n    http://..../[app]/default/user/logout\n    http://..../[app]/default/user/register\n    http://..../[app]/default/user/profile\n    http://..../[app]/default/user/retrieve_password\n    http://..../[app]/default/user/change_password\n    use @auth.requires_login()\n        @auth.requires_membership(\'group name\')\n        @auth.requires_permission(\'read\',\'table name\',record_id)\n    to decorate functions that need access control\n    """\n    return dict(form=auth())\n\n\ndef download():\n    """\n    allows downloading of uploaded files\n    http://..../[app]/default/download/[filename]\n    """\n    return response.download(request,db)\n\n\ndef call():\n    """\n    exposes services. for example:\n    http://..../[app]/default/call/jsonrpc\n    decorate with @services.jsonrpc the functions to expose\n    supports xml, json, xmlrpc, jsonrpc, amfrpc, rss, csv\n    """\n    return service()\n\n\n@auth.requires_signature()\ndef data():\n    """\n    http://..../[app]/default/data/tables\n    http://..../[app]/default/data/create/[table]\n    http://..../[app]/default/data/read/[table]/[id]\n    http://..../[app]/default/data/update/[table]/[id]\n    http://..../[app]/default/data/delete/[table]/[id]\n    http://..../[app]/default/data/select/[table]\n    http://..../[app]/default/data/search/[table]\n    but URLs must be signed, i.e. linked with\n      A(\'table\',_href=URL(\'data/tables\',user_signature=True))\n    or with the signed load operator\n      LOAD(\'default\',\'data.load\',args=\'tables\',ajax=True,user_signature=True)\n    """\n    return dict(form=crud())\n\nresponse._vars=response._caller(index)\n'
p7
sS'snapshot'
p8
(dp9
S'exception'
p10
(dp11
S'__getslice__'
p12
S"<method-wrapper '__getslice__' of exceptions.SyntaxError object at 0x072AE470>"
p13
sS'text'
p14
S'\'        user = __ensure_first_user("john","doe",form.vars.email,form.vars.invitation)\\xe2\\x80\\x8b\\n\''
p15
sS'__str__'
p16
S"<method-wrapper '__str__' of exceptions.SyntaxError object at 0x072AE470>"
p17
sS'__reduce__'
p18
S'<built-in method __reduce__ of exceptions.SyntaxError object at 0x072AE470>'
p19
sS'__dict__'
p20
S'{}'
p21
sS'__init__'
p22
S"<method-wrapper '__init__' of exceptions.SyntaxError object at 0x072AE470>"
p23
sS'__setattr__'
p24
S"<method-wrapper '__setattr__' of exceptions.SyntaxError object at 0x072AE470>"
p25
sS'__reduce_ex__'
p26
S'<built-in method __reduce_ex__ of exceptions.SyntaxError object at 0x072AE470>'
p27
sS'__new__'
p28
S'<built-in method __new__ of type object at 0x1E1CDBD0>'
p29
sS'__class__'
p30
S"<type 'exceptions.SyntaxError'>"
p31
sS'filename'
p32
S"r'C:\\Users\\Bussiere\\Dropbox\\Projets\\jackpoint\\web2py\\applications\\init\\controllers/default.py'"
p33
sS'lineno'
p34
S'270'
p35
sS'msg'
p36
S"'invalid syntax'"
p37
sS'__doc__'
p38
S"'Invalid syntax.'"
p39
sS'__getitem__'
p40
S"<method-wrapper '__getitem__' of exceptions.SyntaxError object at 0x072AE470>"
p41
sS'__setstate__'
p42
S'<built-in method __setstate__ of exceptions.SyntaxError object at 0x072AE470>'
p43
sS'__getattribute__'
p44
S"<method-wrapper '__getattribute__' of exceptions.SyntaxError object at 0x072AE470>"
p45
sS'print_file_and_line'
p46
S'None'
p47
sS'args'
p48
S'(\'invalid syntax\', (r\'C:\\Users\\Bussiere\\Dropbox\\Projets\\jackpoint\\web2py\\applications\\init\\controllers/default.py\', 270, 86, \'        user = __ensure_first_user("john","doe",form.vars.email,form.vars.invitation)\\xe2\\x80\\x8b\\n\'))'
p49
sS'offset'
p50
S'86'
p51
sS'__delattr__'
p52
S"<method-wrapper '__delattr__' of exceptions.SyntaxError object at 0x072AE470>"
p53
sS'__repr__'
p54
S"<method-wrapper '__repr__' of exceptions.SyntaxError object at 0x072AE470>"
p55
sS'__hash__'
p56
S"<method-wrapper '__hash__' of exceptions.SyntaxError object at 0x072AE470>"
p57
ssS'evalue'
p58
S'invalid syntax (controllers/default.py, line 270)'
p59
sS'request'
p60
ccopy_reg
_reconstructor
p61
(cgluon.html
BEAUTIFY
p62
c__builtin__
object
p63
NtRp64
(dp65
S'attributes'
p66
(dp67
sS'components'
p68
(lp69
g61
(cgluon.html
TABLE
p70
g63
NtRp71
(dp72
g66
(dp73
S'level'
p74
I5
ssS'parent'
p75
Nsg68
(lp76
g61
(cgluon.html
TR
p77
g63
NtRp78
(dp79
g66
(dp80
sg75
g71
sg68
(lp81
g61
(cgluon.html
TD
p82
g63
NtRp83
(dp84
g66
(dp85
S'_style'
p86
S'font-weight:bold;vertical-align:top'
p87
ssg75
g78
sg68
(lp88
S'ajax'
p89
asbag61
(g82
g63
NtRp90
(dp91
g66
(dp92
S'_valign'
p93
S'top'
p94
ssg75
g78
sg68
(lp95
S':'
asbag61
(g82
g63
NtRp96
(dp97
g66
(dp98
sg75
g78
sg68
(lp99
g61
(g62
g63
NtRp100
(dp101
g66
(dp102
g74
I5
ssg75
g96
sg68
(lp103
S'False'
p104
asbasbasbag61
(g77
g63
NtRp105
(dp106
g66
(dp107
sg75
g71
sg68
(lp108
g61
(g82
g63
NtRp109
(dp110
g66
(dp111
g86
g87
ssg75
g105
sg68
(lp112
S'application'
p113
asbag61
(g82
g63
NtRp114
(dp115
g66
(dp116
g93
g94
ssg75
g105
sg68
(lp117
S':'
asbag61
(g82
g63
NtRp118
(dp119
g66
(dp120
sg75
g105
sg68
(lp121
g61
(g62
g63
NtRp122
(dp123
g66
(dp124
g74
I5
ssg75
g118
sg68
(lp125
S'init'
p126
asbasbasbag61
(g77
g63
NtRp127
(dp128
g66
(dp129
sg75
g71
sg68
(lp130
g61
(g82
g63
NtRp131
(dp132
g66
(dp133
g86
g87
ssg75
g127
sg68
(lp134
g48
asbag61
(g82
g63
NtRp135
(dp136
g66
(dp137
g93
g94
ssg75
g127
sg68
(lp138
S':'
asbag61
(g82
g63
NtRp139
(dp140
g66
(dp141
sg75
g127
sg68
(lp142
g61
(g62
g63
NtRp143
(dp144
g66
(dp145
g74
I5
ssg75
g139
sg68
(lp146
g61
(g70
g63
NtRp147
(dp148
g66
(dp149
g74
I4
ssg75
Nsg68
(lp150
sbasbasbasbag61
(g77
g63
NtRp151
(dp152
g66
(dp153
sg75
g71
sg68
(lp154
g61
(g82
g63
NtRp155
(dp156
g66
(dp157
g86
g87
ssg75
g151
sg68
(lp158
S'body'
p159
asbag61
(g82
g63
NtRp160
(dp161
g66
(dp162
g93
g94
ssg75
g151
sg68
(lp163
S':'
asbag61
(g82
g63
NtRp164
(dp165
g66
(dp166
sg75
g151
sg68
(lp167
g61
(g62
g63
NtRp168
(dp169
g66
(dp170
g74
I5
ssg75
g164
sg68
(lp171
S'<cStringIO.StringO object at 0x043F3300>'
p172
asbasbasbag61
(g77
g63
NtRp173
(dp174
g66
(dp175
sg75
g71
sg68
(lp176
g61
(g82
g63
NtRp177
(dp178
g66
(dp179
g86
g87
ssg75
g173
sg68
(lp180
S'client'
p181
asbag61
(g82
g63
NtRp182
(dp183
g66
(dp184
g93
g94
ssg75
g173
sg68
(lp185
S':'
asbag61
(g82
g63
NtRp186
(dp187
g66
(dp188
sg75
g173
sg68
(lp189
g61
(g62
g63
NtRp190
(dp191
g66
(dp192
g74
I5
ssg75
g186
sg68
(lp193
S'127.0.0.1'
p194
asbasbasbag61
(g77
g63
NtRp195
(dp196
g66
(dp197
sg75
g71
sg68
(lp198
g61
(g82
g63
NtRp199
(dp200
g66
(dp201
g86
g87
ssg75
g195
sg68
(lp202
S'controller'
p203
asbag61
(g82
g63
NtRp204
(dp205
g66
(dp206
g93
g94
ssg75
g195
sg68
(lp207
S':'
asbag61
(g82
g63
NtRp208
(dp209
g66
(dp210
sg75
g195
sg68
(lp211
g61
(g62
g63
NtRp212
(dp213
g66
(dp214
g74
I5
ssg75
g208
sg68
(lp215
S'default'
p216
asbasbasbag61
(g77
g63
NtRp217
(dp218
g66
(dp219
sg75
g71
sg68
(lp220
g61
(g82
g63
NtRp221
(dp222
g66
(dp223
g86
g87
ssg75
g217
sg68
(lp224
S'cookies'
p225
asbag61
(g82
g63
NtRp226
(dp227
g66
(dp228
g93
g94
ssg75
g217
sg68
(lp229
S':'
asbag61
(g82
g63
NtRp230
(dp231
g66
(dp232
sg75
g217
sg68
(lp233
g61
(g62
g63
NtRp234
(dp235
g66
(dp236
g74
I5
ssg75
g230
sg68
(lp237
g61
(g70
g63
NtRp238
(dp239
g66
(dp240
g74
I4
ssg75
Nsg68
(lp241
g61
(g77
g63
NtRp242
(dp243
g66
(dp244
sg75
g238
sg68
(lp245
g61
(g82
g63
NtRp246
(dp247
g66
(dp248
g86
g87
ssg75
g242
sg68
(lp249
S'session_id_admin'
p250
asbag61
(g82
g63
NtRp251
(dp252
g66
(dp253
g93
g94
ssg75
g242
sg68
(lp254
S':'
asbag61
(g82
g63
NtRp255
(dp256
g66
(dp257
sg75
g242
sg68
(lp258
g61
(g62
g63
NtRp259
(dp260
g66
(dp261
g74
I4
ssg75
g255
sg68
(lp262
g61
(g70
g63
NtRp263
(dp264
g66
(dp265
g74
I3
ssg75
Nsg68
(lp266
g61
(g77
g63
NtRp267
(dp268
g66
(dp269
sg75
g263
sg68
(lp270
g61
(g82
g63
NtRp271
(dp272
g66
(dp273
g86
g87
ssg75
g267
sg68
(lp274
S'comment'
p275
asbag61
(g82
g63
NtRp276
(dp277
g66
(dp278
g93
g94
ssg75
g267
sg68
(lp279
S':'
asbag61
(g82
g63
NtRp280
(dp281
g66
(dp282
sg75
g267
sg68
(lp283
g61
(g62
g63
NtRp284
(dp285
g66
(dp286
g74
I3
ssg75
g280
sg68
(lp287
S''
asbasbasbag61
(g77
g63
NtRp288
(dp289
g66
(dp290
sg75
g263
sg68
(lp291
g61
(g82
g63
NtRp292
(dp293
g66
(dp294
g86
g87
ssg75
g288
sg68
(lp295
S'domain'
p296
asbag61
(g82
g63
NtRp297
(dp298
g66
(dp299
g93
g94
ssg75
g288
sg68
(lp300
S':'
asbag61
(g82
g63
NtRp301
(dp302
g66
(dp303
sg75
g288
sg68
(lp304
g61
(g62
g63
NtRp305
(dp306
g66
(dp307
g74
I3
ssg75
g301
sg68
(lp308
S''
asbasbasbag61
(g77
g63
NtRp309
(dp310
g66
(dp311
sg75
g263
sg68
(lp312
g61
(g82
g63
NtRp313
(dp314
g66
(dp315
g86
g87
ssg75
g309
sg68
(lp316
S'expires'
p317
asbag61
(g82
g63
NtRp318
(dp319
g66
(dp320
g93
g94
ssg75
g309
sg68
(lp321
S':'
asbag61
(g82
g63
NtRp322
(dp323
g66
(dp324
sg75
g309
sg68
(lp325
g61
(g62
g63
NtRp326
(dp327
g66
(dp328
g74
I3
ssg75
g322
sg68
(lp329
S''
asbasbasbag61
(g77
g63
NtRp330
(dp331
g66
(dp332
sg75
g263
sg68
(lp333
g61
(g82
g63
NtRp334
(dp335
g66
(dp336
g86
g87
ssg75
g330
sg68
(lp337
S'max-age'
p338
asbag61
(g82
g63
NtRp339
(dp340
g66
(dp341
g93
g94
ssg75
g330
sg68
(lp342
S':'
asbag61
(g82
g63
NtRp343
(dp344
g66
(dp345
sg75
g330
sg68
(lp346
g61
(g62
g63
NtRp347
(dp348
g66
(dp349
g74
I3
ssg75
g343
sg68
(lp350
S''
asbasbasbag61
(g77
g63
NtRp351
(dp352
g66
(dp353
sg75
g263
sg68
(lp354
g61
(g82
g63
NtRp355
(dp356
g66
(dp357
g86
g87
ssg75
g351
sg68
(lp358
S'path'
p359
asbag61
(g82
g63
NtRp360
(dp361
g66
(dp362
g93
g94
ssg75
g351
sg68
(lp363
S':'
asbag61
(g82
g63
NtRp364
(dp365
g66
(dp366
sg75
g351
sg68
(lp367
g61
(g62
g63
NtRp368
(dp369
g66
(dp370
g74
I3
ssg75
g364
sg68
(lp371
S''
asbasbasbag61
(g77
g63
NtRp372
(dp373
g66
(dp374
sg75
g263
sg68
(lp375
g61
(g82
g63
NtRp376
(dp377
g66
(dp378
g86
g87
ssg75
g372
sg68
(lp379
S'secure'
p380
asbag61
(g82
g63
NtRp381
(dp382
g66
(dp383
g93
g94
ssg75
g372
sg68
(lp384
S':'
asbag61
(g82
g63
NtRp385
(dp386
g66
(dp387
sg75
g372
sg68
(lp388
g61
(g62
g63
NtRp389
(dp390
g66
(dp391
g74
I3
ssg75
g385
sg68
(lp392
S''
asbasbasbag61
(g77
g63
NtRp393
(dp394
g66
(dp395
sg75
g263
sg68
(lp396
g61
(g82
g63
NtRp397
(dp398
g66
(dp399
g86
g87
ssg75
g393
sg68
(lp400
S'version'
p401
asbag61
(g82
g63
NtRp402
(dp403
g66
(dp404
g93
g94
ssg75
g393
sg68
(lp405
S':'
asbag61
(g82
g63
NtRp406
(dp407
g66
(dp408
sg75
g393
sg68
(lp409
g61
(g62
g63
NtRp410
(dp411
g66
(dp412
g74
I3
ssg75
g406
sg68
(lp413
S''
asbasbasbasbasbasbasbasbasbasbasbag61
(g77
g63
NtRp414
(dp415
g66
(dp416
sg75
g71
sg68
(lp417
g61
(g82
g63
NtRp418
(dp419
g66
(dp420
g86
g87
ssg75
g414
sg68
(lp421
S'env'
p422
asbag61
(g82
g63
NtRp423
(dp424
g66
(dp425
g93
g94
ssg75
g414
sg68
(lp426
S':'
asbag61
(g82
g63
NtRp427
(dp428
g66
(dp429
sg75
g414
sg68
(lp430
g61
(g62
g63
NtRp431
(dp432
g66
(dp433
g74
I5
ssg75
g427
sg68
(lp434
g61
(g70
g63
NtRp435
(dp436
g66
(dp437
g74
I4
ssg75
Nsg68
(lp438
g61
(g77
g63
NtRp439
(dp440
g66
(dp441
sg75
g435
sg68
(lp442
g61
(g82
g63
NtRp443
(dp444
g66
(dp445
g86
g87
ssg75
g439
sg68
(lp446
S'app_folders'
p447
asbag61
(g82
g63
NtRp448
(dp449
g66
(dp450
g93
g94
ssg75
g439
sg68
(lp451
S':'
asbag61
(g82
g63
NtRp452
(dp453
g66
(dp454
sg75
g439
sg68
(lp455
g61
(g62
g63
NtRp456
(dp457
g66
(dp458
g74
I4
ssg75
g452
sg68
(lp459
S"set(['C:\\\\Users\\\\Bussiere\\\\Dropbox\\\\Projets\\\\jackpoint\\\\web2py\\\\applications\\\\init\\\\', 'C:\\\\Users\\\\Bussiere\\\\Dropbox\\\\Projets\\\\jackpoint\\\\web2py\\\\applications\\\\admin\\\\'])"
p460
asbasbasbag61
(g77
g63
NtRp461
(dp462
g66
(dp463
sg75
g435
sg68
(lp464
g61
(g82
g63
NtRp465
(dp466
g66
(dp467
g86
g87
ssg75
g461
sg68
(lp468
S'applications_parent'
p469
asbag61
(g82
g63
NtRp470
(dp471
g66
(dp472
g93
g94
ssg75
g461
sg68
(lp473
S':'
asbag61
(g82
g63
NtRp474
(dp475
g66
(dp476
sg75
g461
sg68
(lp477
g61
(g62
g63
NtRp478
(dp479
g66
(dp480
g74
I4
ssg75
g474
sg68
(lp481
S'C:\\Users\\Bussiere\\Dropbox\\Projets\\jackpoint\\web2py'
p482
asbasbasbag61
(g77
g63
NtRp483
(dp484
g66
(dp485
sg75
g435
sg68
(lp486
g61
(g82
g63
NtRp487
(dp488
g66
(dp489
g86
g87
ssg75
g483
sg68
(lp490
S'cmd_args'
p491
asbag61
(g82
g63
NtRp492
(dp493
g66
(dp494
g93
g94
ssg75
g483
sg68
(lp495
S':'
asbag61
(g82
g63
NtRp496
(dp497
g66
(dp498
sg75
g483
sg68
(lp499
g61
(g62
g63
NtRp500
(dp501
g66
(dp502
g74
I4
ssg75
g496
sg68
(lp503
g61
(g70
g63
NtRp504
(dp505
g66
(dp506
g74
I3
ssg75
Nsg68
(lp507
sbasbasbasbag61
(g77
g63
NtRp508
(dp509
g66
(dp510
sg75
g435
sg68
(lp511
g61
(g82
g63
NtRp512
(dp513
g66
(dp514
g86
g87
ssg75
g508
sg68
(lp515
S'cmd_options'
p516
asbag61
(g82
g63
NtRp517
(dp518
g66
(dp519
g93
g94
ssg75
g508
sg68
(lp520
S':'
asbag61
(g82
g63
NtRp521
(dp522
g66
(dp523
sg75
g508
sg68
(lp524
g61
(g62
g63
NtRp525
(dp526
g66
(dp527
g74
I4
ssg75
g521
sg68
(lp528
S"<Values at 0x3e15fa8: {'verbose': False, 'ip': '127.0.0.1', 'shutdown_timeout': 5, 'taskbar': False, 'nocron': False, 'pid_filename': 'httpserver.pid', 'maxthreads': None, 'softcron': False, 'server_name': 'Batou', 'bpython': False, 'nogui': False, 'port': 8000, 'extcron': False, 'debuglevel': 30, 'test': None, 'folder': 'C:\\\\Users\\\\Bussiere\\\\Dropbox\\\\Projets\\\\jackpoint\\\\web2py', 'config': '', 'import_models': False, 'winservice': '', 'shell': None, 'run': '', 'log_filename': 'httpserver.log', 'args': [''], 'socket_timeout': 5, 'ssl_ca_certificate': None, 'scheduler': None, 'profiler_filename': None, 'ssl_private_key': '', 'password': '<ask>', 'request_queue_size': 5, 'ssl_certificate': '', 'cronjob': False, 'numthreads': None, 'quiet': False, 'interfaces': None, 'minthreads': None, 'timeout': 10, 'plain': False, 'nobanner': False}>"
p529
asbasbasbag61
(g77
g63
NtRp530
(dp531
g66
(dp532
sg75
g435
sg68
(lp533
g61
(g82
g63
NtRp534
(dp535
g66
(dp536
g86
g87
ssg75
g530
sg68
(lp537
S'db_sessions'
p538
asbag61
(g82
g63
NtRp539
(dp540
g66
(dp541
g93
g94
ssg75
g530
sg68
(lp542
S':'
asbag61
(g82
g63
NtRp543
(dp544
g66
(dp545
sg75
g530
sg68
(lp546
g61
(g62
g63
NtRp547
(dp548
g66
(dp549
g74
I4
ssg75
g543
sg68
(lp550
S"set(['init'])"
p551
asbasbasbag61
(g77
g63
NtRp552
(dp553
g66
(dp554
sg75
g435
sg68
(lp555
g61
(g82
g63
NtRp556
(dp557
g66
(dp558
g86
g87
ssg75
g552
sg68
(lp559
S'debugging'
p560
asbag61
(g82
g63
NtRp561
(dp562
g66
(dp563
g93
g94
ssg75
g552
sg68
(lp564
S':'
asbag61
(g82
g63
NtRp565
(dp566
g66
(dp567
sg75
g552
sg68
(lp568
g61
(g62
g63
NtRp569
(dp570
g66
(dp571
g74
I4
ssg75
g565
sg68
(lp572
S'True'
p573
asbasbasbag61
(g77
g63
NtRp574
(dp575
g66
(dp576
sg75
g435
sg68
(lp577
g61
(g82
g63
NtRp578
(dp579
g66
(dp580
g86
g87
ssg75
g574
sg68
(lp581
S'gluon_parent'
p582
asbag61
(g82
g63
NtRp583
(dp584
g66
(dp585
g93
g94
ssg75
g574
sg68
(lp586
S':'
asbag61
(g82
g63
NtRp587
(dp588
g66
(dp589
sg75
g574
sg68
(lp590
g61
(g62
g63
NtRp591
(dp592
g66
(dp593
g74
I4
ssg75
g587
sg68
(lp594
S'C:\\Users\\Bussiere\\Dropbox\\Projets\\jackpoint\\web2py'
p595
asbasbasbag61
(g77
g63
NtRp596
(dp597
g66
(dp598
sg75
g435
sg68
(lp599
g61
(g82
g63
NtRp600
(dp601
g66
(dp602
g86
g87
ssg75
g596
sg68
(lp603
S'http_accept'
p604
asbag61
(g82
g63
NtRp605
(dp606
g66
(dp607
g93
g94
ssg75
g596
sg68
(lp608
S':'
asbag61
(g82
g63
NtRp609
(dp610
g66
(dp611
sg75
g596
sg68
(lp612
g61
(g62
g63
NtRp613
(dp614
g66
(dp615
g74
I4
ssg75
g609
sg68
(lp616
S'text/html,application/xhtml+xml,application/xml;q=0.9,*/*;q=0.8'
p617
asbasbasbag61
(g77
g63
NtRp618
(dp619
g66
(dp620
sg75
g435
sg68
(lp621
g61
(g82
g63
NtRp622
(dp623
g66
(dp624
g86
g87
ssg75
g618
sg68
(lp625
S'http_accept_charset'
p626
asbag61
(g82
g63
NtRp627
(dp628
g66
(dp629
g93
g94
ssg75
g618
sg68
(lp630
S':'
asbag61
(g82
g63
NtRp631
(dp632
g66
(dp633
sg75
g618
sg68
(lp634
g61
(g62
g63
NtRp635
(dp636
g66
(dp637
g74
I4
ssg75
g631
sg68
(lp638
S'ISO-8859-1,utf-8;q=0.7,*;q=0.3'
p639
asbasbasbag61
(g77
g63
NtRp640
(dp641
g66
(dp642
sg75
g435
sg68
(lp643
g61
(g82
g63
NtRp644
(dp645
g66
(dp646
g86
g87
ssg75
g640
sg68
(lp647
S'http_accept_encoding'
p648
asbag61
(g82
g63
NtRp649
(dp650
g66
(dp651
g93
g94
ssg75
g640
sg68
(lp652
S':'
asbag61
(g82
g63
NtRp653
(dp654
g66
(dp655
sg75
g640
sg68
(lp656
g61
(g62
g63
NtRp657
(dp658
g66
(dp659
g74
I4
ssg75
g653
sg68
(lp660
S'gzip,deflate,sdch'
p661
asbasbasbag61
(g77
g63
NtRp662
(dp663
g66
(dp664
sg75
g435
sg68
(lp665
g61
(g82
g63
NtRp666
(dp667
g66
(dp668
g86
g87
ssg75
g662
sg68
(lp669
S'http_accept_language'
p670
asbag61
(g82
g63
NtRp671
(dp672
g66
(dp673
g93
g94
ssg75
g662
sg68
(lp674
S':'
asbag61
(g82
g63
NtRp675
(dp676
g66
(dp677
sg75
g662
sg68
(lp678
g61
(g62
g63
NtRp679
(dp680
g66
(dp681
g74
I4
ssg75
g675
sg68
(lp682
S'en-US,en;q=0.8'
p683
asbasbasbag61
(g77
g63
NtRp684
(dp685
g66
(dp686
sg75
g435
sg68
(lp687
g61
(g82
g63
NtRp688
(dp689
g66
(dp690
g86
g87
ssg75
g684
sg68
(lp691
S'http_cache_control'
p692
asbag61
(g82
g63
NtRp693
(dp694
g66
(dp695
g93
g94
ssg75
g684
sg68
(lp696
S':'
asbag61
(g82
g63
NtRp697
(dp698
g66
(dp699
sg75
g684
sg68
(lp700
g61
(g62
g63
NtRp701
(dp702
g66
(dp703
g74
I4
ssg75
g697
sg68
(lp704
S'max-age=0'
p705
asbasbasbag61
(g77
g63
NtRp706
(dp707
g66
(dp708
sg75
g435
sg68
(lp709
g61
(g82
g63
NtRp710
(dp711
g66
(dp712
g86
g87
ssg75
g706
sg68
(lp713
S'http_connection'
p714
asbag61
(g82
g63
NtRp715
(dp716
g66
(dp717
g93
g94
ssg75
g706
sg68
(lp718
S':'
asbag61
(g82
g63
NtRp719
(dp720
g66
(dp721
sg75
g706
sg68
(lp722
g61
(g62
g63
NtRp723
(dp724
g66
(dp725
g74
I4
ssg75
g719
sg68
(lp726
S'keep-alive'
p727
asbasbasbag61
(g77
g63
NtRp728
(dp729
g66
(dp730
sg75
g435
sg68
(lp731
g61
(g82
g63
NtRp732
(dp733
g66
(dp734
g86
g87
ssg75
g728
sg68
(lp735
S'http_cookie'
p736
asbag61
(g82
g63
NtRp737
(dp738
g66
(dp739
g93
g94
ssg75
g728
sg68
(lp740
S':'
asbag61
(g82
g63
NtRp741
(dp742
g66
(dp743
sg75
g728
sg68
(lp744
g61
(g62
g63
NtRp745
(dp746
g66
(dp747
g74
I4
ssg75
g741
sg68
(lp748
S'session_id_admin=127.0.0.1-db007dd4-37a9-47de-82ee-e97fe9e58b5c'
p749
asbasbasbag61
(g77
g63
NtRp750
(dp751
g66
(dp752
sg75
g435
sg68
(lp753
g61
(g82
g63
NtRp754
(dp755
g66
(dp756
g86
g87
ssg75
g750
sg68
(lp757
S'http_host'
p758
asbag61
(g82
g63
NtRp759
(dp760
g66
(dp761
g93
g94
ssg75
g750
sg68
(lp762
S':'
asbag61
(g82
g63
NtRp763
(dp764
g66
(dp765
sg75
g750
sg68
(lp766
g61
(g62
g63
NtRp767
(dp768
g66
(dp769
g74
I4
ssg75
g763
sg68
(lp770
S'127.0.0.1:8000'
p771
asbasbasbag61
(g77
g63
NtRp772
(dp773
g66
(dp774
sg75
g435
sg68
(lp775
g61
(g82
g63
NtRp776
(dp777
g66
(dp778
g86
g87
ssg75
g772
sg68
(lp779
S'http_user_agent'
p780
asbag61
(g82
g63
NtRp781
(dp782
g66
(dp783
g93
g94
ssg75
g772
sg68
(lp784
S':'
asbag61
(g82
g63
NtRp785
(dp786
g66
(dp787
sg75
g772
sg68
(lp788
g61
(g62
g63
NtRp789
(dp790
g66
(dp791
g74
I4
ssg75
g785
sg68
(lp792
S'Mozilla/5.0 (Windows NT 6.1; WOW64) AppleWebKit/535.18 (KHTML, like Gecko) Chrome/18.0.1011.0 Safari/535.18'
p793
asbasbasbag61
(g77
g63
NtRp794
(dp795
g66
(dp796
sg75
g435
sg68
(lp797
g61
(g82
g63
NtRp798
(dp799
g66
(dp800
g86
g87
ssg75
g794
sg68
(lp801
S'is_jython'
p802
asbag61
(g82
g63
NtRp803
(dp804
g66
(dp805
g93
g94
ssg75
g794
sg68
(lp806
S':'
asbag61
(g82
g63
NtRp807
(dp808
g66
(dp809
sg75
g794
sg68
(lp810
g61
(g62
g63
NtRp811
(dp812
g66
(dp813
g74
I4
ssg75
g807
sg68
(lp814
g104
asbasbasbag61
(g77
g63
NtRp815
(dp816
g66
(dp817
sg75
g435
sg68
(lp818
g61
(g82
g63
NtRp819
(dp820
g66
(dp821
g86
g87
ssg75
g815
sg68
(lp822
S'is_pypy'
p823
asbag61
(g82
g63
NtRp824
(dp825
g66
(dp826
g93
g94
ssg75
g815
sg68
(lp827
S':'
asbag61
(g82
g63
NtRp828
(dp829
g66
(dp830
sg75
g815
sg68
(lp831
g61
(g62
g63
NtRp832
(dp833
g66
(dp834
g74
I4
ssg75
g828
sg68
(lp835
g104
asbasbasbag61
(g77
g63
NtRp836
(dp837
g66
(dp838
sg75
g435
sg68
(lp839
g61
(g82
g63
NtRp840
(dp841
g66
(dp842
g86
g87
ssg75
g836
sg68
(lp843
S'path_info'
p844
asbag61
(g82
g63
NtRp845
(dp846
g66
(dp847
g93
g94
ssg75
g836
sg68
(lp848
S':'
asbag61
(g82
g63
NtRp849
(dp850
g66
(dp851
sg75
g836
sg68
(lp852
g61
(g62
g63
NtRp853
(dp854
g66
(dp855
g74
I4
ssg75
g849
sg68
(lp856
S'/'
asbasbasbag61
(g77
g63
NtRp857
(dp858
g66
(dp859
sg75
g435
sg68
(lp860
g61
(g82
g63
NtRp861
(dp862
g66
(dp863
g86
g87
ssg75
g857
sg68
(lp864
S'query_string'
p865
asbag61
(g82
g63
NtRp866
(dp867
g66
(dp868
g93
g94
ssg75
g857
sg68
(lp869
S':'
asbag61
(g82
g63
NtRp870
(dp871
g66
(dp872
sg75
g857
sg68
(lp873
g61
(g62
g63
NtRp874
(dp875
g66
(dp876
g74
I4
ssg75
g870
sg68
(lp877
S''
asbasbasbag61
(g77
g63
NtRp878
(dp879
g66
(dp880
sg75
g435
sg68
(lp881
g61
(g82
g63
NtRp882
(dp883
g66
(dp884
g86
g87
ssg75
g878
sg68
(lp885
S'remote_addr'
p886
asbag61
(g82
g63
NtRp887
(dp888
g66
(dp889
g93
g94
ssg75
g878
sg68
(lp890
S':'
asbag61
(g82
g63
NtRp891
(dp892
g66
(dp893
sg75
g878
sg68
(lp894
g61
(g62
g63
NtRp895
(dp896
g66
(dp897
g74
I4
ssg75
g891
sg68
(lp898
g194
asbasbasbag61
(g77
g63
NtRp899
(dp900
g66
(dp901
sg75
g435
sg68
(lp902
g61
(g82
g63
NtRp903
(dp904
g66
(dp905
g86
g87
ssg75
g899
sg68
(lp906
S'remote_port'
p907
asbag61
(g82
g63
NtRp908
(dp909
g66
(dp910
g93
g94
ssg75
g899
sg68
(lp911
S':'
asbag61
(g82
g63
NtRp912
(dp913
g66
(dp914
sg75
g899
sg68
(lp915
g61
(g62
g63
NtRp916
(dp917
g66
(dp918
g74
I4
ssg75
g912
sg68
(lp919
S'54024'
p920
asbasbasbag61
(g77
g63
NtRp921
(dp922
g66
(dp923
sg75
g435
sg68
(lp924
g61
(g82
g63
NtRp925
(dp926
g66
(dp927
g86
g87
ssg75
g921
sg68
(lp928
S'request_method'
p929
asbag61
(g82
g63
NtRp930
(dp931
g66
(dp932
g93
g94
ssg75
g921
sg68
(lp933
S':'
asbag61
(g82
g63
NtRp934
(dp935
g66
(dp936
sg75
g921
sg68
(lp937
g61
(g62
g63
NtRp938
(dp939
g66
(dp940
g74
I4
ssg75
g934
sg68
(lp941
S'GET'
p942
asbasbasbag61
(g77
g63
NtRp943
(dp944
g66
(dp945
sg75
g435
sg68
(lp946
g61
(g82
g63
NtRp947
(dp948
g66
(dp949
g86
g87
ssg75
g943
sg68
(lp950
S'script_name'
p951
asbag61
(g82
g63
NtRp952
(dp953
g66
(dp954
g93
g94
ssg75
g943
sg68
(lp955
S':'
asbag61
(g82
g63
NtRp956
(dp957
g66
(dp958
sg75
g943
sg68
(lp959
g61
(g62
g63
NtRp960
(dp961
g66
(dp962
g74
I4
ssg75
g956
sg68
(lp963
S''
asbasbasbag61
(g77
g63
NtRp964
(dp965
g66
(dp966
sg75
g435
sg68
(lp967
g61
(g82
g63
NtRp968
(dp969
g66
(dp970
g86
g87
ssg75
g964
sg68
(lp971
S'server_name'
p972
asbag61
(g82
g63
NtRp973
(dp974
g66
(dp975
g93
g94
ssg75
g964
sg68
(lp976
S':'
asbag61
(g82
g63
NtRp977
(dp978
g66
(dp979
sg75
g964
sg68
(lp980
g61
(g62
g63
NtRp981
(dp982
g66
(dp983
g74
I4
ssg75
g977
sg68
(lp984
S'Batou'
p985
asbasbasbag61
(g77
g63
NtRp986
(dp987
g66
(dp988
sg75
g435
sg68
(lp989
g61
(g82
g63
NtRp990
(dp991
g66
(dp992
g86
g87
ssg75
g986
sg68
(lp993
S'server_port'
p994
asbag61
(g82
g63
NtRp995
(dp996
g66
(dp997
g93
g94
ssg75
g986
sg68
(lp998
S':'
asbag61
(g82
g63
NtRp999
(dp1000
g66
(dp1001
sg75
g986
sg68
(lp1002
g61
(g62
g63
NtRp1003
(dp1004
g66
(dp1005
g74
I4
ssg75
g999
sg68
(lp1006
S'8000'
p1007
asbasbasbag61
(g77
g63
NtRp1008
(dp1009
g66
(dp1010
sg75
g435
sg68
(lp1011
g61
(g82
g63
NtRp1012
(dp1013
g66
(dp1014
g86
g87
ssg75
g1008
sg68
(lp1015
S'server_protocol'
p1016
asbag61
(g82
g63
NtRp1017
(dp1018
g66
(dp1019
g93
g94
ssg75
g1008
sg68
(lp1020
S':'
asbag61
(g82
g63
NtRp1021
(dp1022
g66
(dp1023
sg75
g1008
sg68
(lp1024
g61
(g62
g63
NtRp1025
(dp1026
g66
(dp1027
g74
I4
ssg75
g1021
sg68
(lp1028
S'HTTP/1.1'
p1029
asbasbasbag61
(g77
g63
NtRp1030
(dp1031
g66
(dp1032
sg75
g435
sg68
(lp1033
g61
(g82
g63
NtRp1034
(dp1035
g66
(dp1036
g86
g87
ssg75
g1030
sg68
(lp1037
S'server_software'
p1038
asbag61
(g82
g63
NtRp1039
(dp1040
g66
(dp1041
g93
g94
ssg75
g1030
sg68
(lp1042
S':'
asbag61
(g82
g63
NtRp1043
(dp1044
g66
(dp1045
sg75
g1030
sg68
(lp1046
g61
(g62
g63
NtRp1047
(dp1048
g66
(dp1049
g74
I4
ssg75
g1043
sg68
(lp1050
S'Rocket 1.2.4'
p1051
asbasbasbag61
(g77
g63
NtRp1052
(dp1053
g66
(dp1054
sg75
g435
sg68
(lp1055
g61
(g82
g63
NtRp1056
(dp1057
g66
(dp1058
g86
g87
ssg75
g1052
sg68
(lp1059
S'web2py_crontype'
p1060
asbag61
(g82
g63
NtRp1061
(dp1062
g66
(dp1063
g93
g94
ssg75
g1052
sg68
(lp1064
S':'
asbag61
(g82
g63
NtRp1065
(dp1066
g66
(dp1067
sg75
g1052
sg68
(lp1068
g61
(g62
g63
NtRp1069
(dp1070
g66
(dp1071
g74
I4
ssg75
g1065
sg68
(lp1072
S'hard'
p1073
asbasbasbag61
(g77
g63
NtRp1074
(dp1075
g66
(dp1076
sg75
g435
sg68
(lp1077
g61
(g82
g63
NtRp1078
(dp1079
g66
(dp1080
g86
g87
ssg75
g1074
sg68
(lp1081
S'web2py_path'
p1082
asbag61
(g82
g63
NtRp1083
(dp1084
g66
(dp1085
g93
g94
ssg75
g1074
sg68
(lp1086
S':'
asbag61
(g82
g63
NtRp1087
(dp1088
g66
(dp1089
sg75
g1074
sg68
(lp1090
g61
(g62
g63
NtRp1091
(dp1092
g66
(dp1093
g74
I4
ssg75
g1087
sg68
(lp1094
g482
asbasbasbag61
(g77
g63
NtRp1095
(dp1096
g66
(dp1097
sg75
g435
sg68
(lp1098
g61
(g82
g63
NtRp1099
(dp1100
g66
(dp1101
g86
g87
ssg75
g1095
sg68
(lp1102
S'web2py_version'
p1103
asbag61
(g82
g63
NtRp1104
(dp1105
g66
(dp1106
g93
g94
ssg75
g1095
sg68
(lp1107
S':'
asbag61
(g82
g63
NtRp1108
(dp1109
g66
(dp1110
sg75
g1095
sg68
(lp1111
g61
(g62
g63
NtRp1112
(dp1113
g66
(dp1114
g74
I4
ssg75
g1108
sg68
(lp1115
g61
(g70
g63
NtRp1116
(dp1117
g66
(dp1118
g74
I3
ssg75
Nsg68
(lp1119
g61
(g77
g63
NtRp1120
(dp1121
g66
(dp1122
sg75
g1116
sg68
(lp1123
g61
(g82
g63
NtRp1124
(dp1125
g66
(dp1126
sg75
g1120
sg68
(lp1127
g61
(g62
g63
NtRp1128
(dp1129
g66
(dp1130
g74
I3
ssg75
g1124
sg68
(lp1131
S'1'
asbasbasbag61
(g77
g63
NtRp1132
(dp1133
g66
(dp1134
sg75
g1116
sg68
(lp1135
g61
(g82
g63
NtRp1136
(dp1137
g66
(dp1138
sg75
g1132
sg68
(lp1139
g61
(g62
g63
NtRp1140
(dp1141
g66
(dp1142
g74
I3
ssg75
g1136
sg68
(lp1143
S'99'
p1144
asbasbasbag61
(g77
g63
NtRp1145
(dp1146
g66
(dp1147
sg75
g1116
sg68
(lp1148
g61
(g82
g63
NtRp1149
(dp1150
g66
(dp1151
sg75
g1145
sg68
(lp1152
g61
(g62
g63
NtRp1153
(dp1154
g66
(dp1155
g74
I3
ssg75
g1149
sg68
(lp1156
S'7'
asbasbasbag61
(g77
g63
NtRp1157
(dp1158
g66
(dp1159
sg75
g1116
sg68
(lp1160
g61
(g82
g63
NtRp1161
(dp1162
g66
(dp1163
sg75
g1157
sg68
(lp1164
g61
(g62
g63
NtRp1165
(dp1166
g66
(dp1167
g74
I3
ssg75
g1161
sg68
(lp1168
S'datetime.datetime(2012, 3, 4, 22, 12, 8)'
p1169
asbasbasbag61
(g77
g63
NtRp1170
(dp1171
g66
(dp1172
sg75
g1116
sg68
(lp1173
g61
(g82
g63
NtRp1174
(dp1175
g66
(dp1176
sg75
g1170
sg68
(lp1177
g61
(g62
g63
NtRp1178
(dp1179
g66
(dp1180
g74
I3
ssg75
g1174
sg68
(lp1181
S'stable'
p1182
asbasbasbasbasbasbasbag61
(g77
g63
NtRp1183
(dp1184
g66
(dp1185
sg75
g435
sg68
(lp1186
g61
(g82
g63
NtRp1187
(dp1188
g66
(dp1189
g86
g87
ssg75
g1183
sg68
(lp1190
S'wsgi_errors'
p1191
asbag61
(g82
g63
NtRp1192
(dp1193
g66
(dp1194
g93
g94
ssg75
g1183
sg68
(lp1195
S':'
asbag61
(g82
g63
NtRp1196
(dp1197
g66
(dp1198
sg75
g1183
sg68
(lp1199
g61
(g62
g63
NtRp1200
(dp1201
g66
(dp1202
g74
I4
ssg75
g1196
sg68
(lp1203
S"<open file '<stderr>', mode 'w' at 0x01D300B0>"
p1204
asbasbasbag61
(g77
g63
NtRp1205
(dp1206
g66
(dp1207
sg75
g435
sg68
(lp1208
g61
(g82
g63
NtRp1209
(dp1210
g66
(dp1211
g86
g87
ssg75
g1205
sg68
(lp1212
S'wsgi_file_wrapper'
p1213
asbag61
(g82
g63
NtRp1214
(dp1215
g66
(dp1216
g93
g94
ssg75
g1205
sg68
(lp1217
S':'
asbag61
(g82
g63
NtRp1218
(dp1219
g66
(dp1220
sg75
g1205
sg68
(lp1221
g61
(g62
g63
NtRp1222
(dp1223
g66
(dp1224
g74
I4
ssg75
g1218
sg68
(lp1225
S'<class wsgiref.util.FileWrapper at 0x02CD6900>'
p1226
asbasbasbag61
(g77
g63
NtRp1227
(dp1228
g66
(dp1229
sg75
g435
sg68
(lp1230
g61
(g82
g63
NtRp1231
(dp1232
g66
(dp1233
g86
g87
ssg75
g1227
sg68
(lp1234
S'wsgi_input'
p1235
asbag61
(g82
g63
NtRp1236
(dp1237
g66
(dp1238
g93
g94
ssg75
g1227
sg68
(lp1239
S':'
asbag61
(g82
g63
NtRp1240
(dp1241
g66
(dp1242
sg75
g1227
sg68
(lp1243
g61
(g62
g63
NtRp1244
(dp1245
g66
(dp1246
g74
I4
ssg75
g1240
sg68
(lp1247
S'<socket._fileobject object at 0x073AB330>'
p1248
asbasbasbag61
(g77
g63
NtRp1249
(dp1250
g66
(dp1251
sg75
g435
sg68
(lp1252
g61
(g82
g63
NtRp1253
(dp1254
g66
(dp1255
g86
g87
ssg75
g1249
sg68
(lp1256
S'wsgi_multiprocess'
p1257
asbag61
(g82
g63
NtRp1258
(dp1259
g66
(dp1260
g93
g94
ssg75
g1249
sg68
(lp1261
S':'
asbag61
(g82
g63
NtRp1262
(dp1263
g66
(dp1264
sg75
g1249
sg68
(lp1265
g61
(g62
g63
NtRp1266
(dp1267
g66
(dp1268
g74
I4
ssg75
g1262
sg68
(lp1269
g104
asbasbasbag61
(g77
g63
NtRp1270
(dp1271
g66
(dp1272
sg75
g435
sg68
(lp1273
g61
(g82
g63
NtRp1274
(dp1275
g66
(dp1276
g86
g87
ssg75
g1270
sg68
(lp1277
S'wsgi_multithread'
p1278
asbag61
(g82
g63
NtRp1279
(dp1280
g66
(dp1281
g93
g94
ssg75
g1270
sg68
(lp1282
S':'
asbag61
(g82
g63
NtRp1283
(dp1284
g66
(dp1285
sg75
g1270
sg68
(lp1286
g61
(g62
g63
NtRp1287
(dp1288
g66
(dp1289
g74
I4
ssg75
g1283
sg68
(lp1290
g573
asbasbasbag61
(g77
g63
NtRp1291
(dp1292
g66
(dp1293
sg75
g435
sg68
(lp1294
g61
(g82
g63
NtRp1295
(dp1296
g66
(dp1297
g86
g87
ssg75
g1291
sg68
(lp1298
S'wsgi_run_once'
p1299
asbag61
(g82
g63
NtRp1300
(dp1301
g66
(dp1302
g93
g94
ssg75
g1291
sg68
(lp1303
S':'
asbag61
(g82
g63
NtRp1304
(dp1305
g66
(dp1306
sg75
g1291
sg68
(lp1307
g61
(g62
g63
NtRp1308
(dp1309
g66
(dp1310
g74
I4
ssg75
g1304
sg68
(lp1311
g104
asbasbasbag61
(g77
g63
NtRp1312
(dp1313
g66
(dp1314
sg75
g435
sg68
(lp1315
g61
(g82
g63
NtRp1316
(dp1317
g66
(dp1318
g86
g87
ssg75
g1312
sg68
(lp1319
S'wsgi_url_scheme'
p1320
asbag61
(g82
g63
NtRp1321
(dp1322
g66
(dp1323
g93
g94
ssg75
g1312
sg68
(lp1324
S':'
asbag61
(g82
g63
NtRp1325
(dp1326
g66
(dp1327
sg75
g1312
sg68
(lp1328
g61
(g62
g63
NtRp1329
(dp1330
g66
(dp1331
g74
I4
ssg75
g1325
sg68
(lp1332
S'http'
p1333
asbasbasbag61
(g77
g63
NtRp1334
(dp1335
g66
(dp1336
sg75
g435
sg68
(lp1337
g61
(g82
g63
NtRp1338
(dp1339
g66
(dp1340
g86
g87
ssg75
g1334
sg68
(lp1341
S'wsgi_version'
p1342
asbag61
(g82
g63
NtRp1343
(dp1344
g66
(dp1345
g93
g94
ssg75
g1334
sg68
(lp1346
S':'
asbag61
(g82
g63
NtRp1347
(dp1348
g66
(dp1349
sg75
g1334
sg68
(lp1350
g61
(g62
g63
NtRp1351
(dp1352
g66
(dp1353
g74
I4
ssg75
g1347
sg68
(lp1354
g61
(g70
g63
NtRp1355
(dp1356
g66
(dp1357
g74
I3
ssg75
Nsg68
(lp1358
g61
(g77
g63
NtRp1359
(dp1360
g66
(dp1361
sg75
g1355
sg68
(lp1362
g61
(g82
g63
NtRp1363
(dp1364
g66
(dp1365
sg75
g1359
sg68
(lp1366
g61
(g62
g63
NtRp1367
(dp1368
g66
(dp1369
g74
I3
ssg75
g1363
sg68
(lp1370
S'1'
asbasbasbag61
(g77
g63
NtRp1371
(dp1372
g66
(dp1373
sg75
g1355
sg68
(lp1374
g61
(g82
g63
NtRp1375
(dp1376
g66
(dp1377
sg75
g1371
sg68
(lp1378
g61
(g62
g63
NtRp1379
(dp1380
g66
(dp1381
g74
I3
ssg75
g1375
sg68
(lp1382
S'0'
asbasbasbasbasbasbasbasbasbasbasbag61
(g77
g63
NtRp1383
(dp1384
g66
(dp1385
sg75
g71
sg68
(lp1386
g61
(g82
g63
NtRp1387
(dp1388
g66
(dp1389
g86
g87
ssg75
g1383
sg68
(lp1390
S'extension'
p1391
asbag61
(g82
g63
NtRp1392
(dp1393
g66
(dp1394
g93
g94
ssg75
g1383
sg68
(lp1395
S':'
asbag61
(g82
g63
NtRp1396
(dp1397
g66
(dp1398
sg75
g1383
sg68
(lp1399
g61
(g62
g63
NtRp1400
(dp1401
g66
(dp1402
g74
I5
ssg75
g1396
sg68
(lp1403
S'html'
p1404
asbasbasbag61
(g77
g63
NtRp1405
(dp1406
g66
(dp1407
sg75
g71
sg68
(lp1408
g61
(g82
g63
NtRp1409
(dp1410
g66
(dp1411
g86
g87
ssg75
g1405
sg68
(lp1412
S'folder'
p1413
asbag61
(g82
g63
NtRp1414
(dp1415
g66
(dp1416
g93
g94
ssg75
g1405
sg68
(lp1417
S':'
asbag61
(g82
g63
NtRp1418
(dp1419
g66
(dp1420
sg75
g1405
sg68
(lp1421
g61
(g62
g63
NtRp1422
(dp1423
g66
(dp1424
g74
I5
ssg75
g1418
sg68
(lp1425
S'C:\\Users\\Bussiere\\Dropbox\\Projets\\jackpoint\\web2py\\applications\\init\\'
p1426
asbasbasbag61
(g77
g63
NtRp1427
(dp1428
g66
(dp1429
sg75
g71
sg68
(lp1430
g61
(g82
g63
NtRp1431
(dp1432
g66
(dp1433
g86
g87
ssg75
g1427
sg68
(lp1434
S'function'
p1435
asbag61
(g82
g63
NtRp1436
(dp1437
g66
(dp1438
g93
g94
ssg75
g1427
sg68
(lp1439
S':'
asbag61
(g82
g63
NtRp1440
(dp1441
g66
(dp1442
sg75
g1427
sg68
(lp1443
g61
(g62
g63
NtRp1444
(dp1445
g66
(dp1446
g74
I5
ssg75
g1440
sg68
(lp1447
S'index'
p1448
asbasbasbag61
(g77
g63
NtRp1449
(dp1450
g66
(dp1451
sg75
g71
sg68
(lp1452
g61
(g82
g63
NtRp1453
(dp1454
g66
(dp1455
g86
g87
ssg75
g1449
sg68
(lp1456
S'get_vars'
p1457
asbag61
(g82
g63
NtRp1458
(dp1459
g66
(dp1460
g93
g94
ssg75
g1449
sg68
(lp1461
S':'
asbag61
(g82
g63
NtRp1462
(dp1463
g66
(dp1464
sg75
g1449
sg68
(lp1465
g61
(g62
g63
NtRp1466
(dp1467
g66
(dp1468
g74
I5
ssg75
g1462
sg68
(lp1469
g61
(g70
g63
NtRp1470
(dp1471
g66
(dp1472
g74
I4
ssg75
Nsg68
(lp1473
sbasbasbasbag61
(g77
g63
NtRp1474
(dp1475
g66
(dp1476
sg75
g71
sg68
(lp1477
g61
(g82
g63
NtRp1478
(dp1479
g66
(dp1480
g86
g87
ssg75
g1474
sg68
(lp1481
S'global_settings'
p1482
asbag61
(g82
g63
NtRp1483
(dp1484
g66
(dp1485
g93
g94
ssg75
g1474
sg68
(lp1486
S':'
asbag61
(g82
g63
NtRp1487
(dp1488
g66
(dp1489
sg75
g1474
sg68
(lp1490
g61
(g62
g63
NtRp1491
(dp1492
g66
(dp1493
g74
I5
ssg75
g1487
sg68
(lp1494
g61
(g70
g63
NtRp1495
(dp1496
g66
(dp1497
g74
I4
ssg75
Nsg68
(lp1498
g61
(g77
g63
NtRp1499
(dp1500
g66
(dp1501
sg75
g1495
sg68
(lp1502
g61
(g82
g63
NtRp1503
(dp1504
g66
(dp1505
g86
g87
ssg75
g1499
sg68
(lp1506
g447
asbag61
(g82
g63
NtRp1507
(dp1508
g66
(dp1509
g93
g94
ssg75
g1499
sg68
(lp1510
S':'
asbag61
(g82
g63
NtRp1511
(dp1512
g66
(dp1513
sg75
g1499
sg68
(lp1514
g61
(g62
g63
NtRp1515
(dp1516
g66
(dp1517
g74
I4
ssg75
g1511
sg68
(lp1518
S"set(['C:\\\\Users\\\\Bussiere\\\\Dropbox\\\\Projets\\\\jackpoint\\\\web2py\\\\applications\\\\init\\\\', 'C:\\\\Users\\\\Bussiere\\\\Dropbox\\\\Projets\\\\jackpoint\\\\web2py\\\\applications\\\\admin\\\\'])"
p1519
asbasbasbag61
(g77
g63
NtRp1520
(dp1521
g66
(dp1522
sg75
g1495
sg68
(lp1523
g61
(g82
g63
NtRp1524
(dp1525
g66
(dp1526
g86
g87
ssg75
g1520
sg68
(lp1527
g469
asbag61
(g82
g63
NtRp1528
(dp1529
g66
(dp1530
g93
g94
ssg75
g1520
sg68
(lp1531
S':'
asbag61
(g82
g63
NtRp1532
(dp1533
g66
(dp1534
sg75
g1520
sg68
(lp1535
g61
(g62
g63
NtRp1536
(dp1537
g66
(dp1538
g74
I4
ssg75
g1532
sg68
(lp1539
g482
asbasbasbag61
(g77
g63
NtRp1540
(dp1541
g66
(dp1542
sg75
g1495
sg68
(lp1543
g61
(g82
g63
NtRp1544
(dp1545
g66
(dp1546
g86
g87
ssg75
g1540
sg68
(lp1547
g491
asbag61
(g82
g63
NtRp1548
(dp1549
g66
(dp1550
g93
g94
ssg75
g1540
sg68
(lp1551
S':'
asbag61
(g82
g63
NtRp1552
(dp1553
g66
(dp1554
sg75
g1540
sg68
(lp1555
g61
(g62
g63
NtRp1556
(dp1557
g66
(dp1558
g74
I4
ssg75
g1552
sg68
(lp1559
g61
(g70
g63
NtRp1560
(dp1561
g66
(dp1562
g74
I3
ssg75
Nsg68
(lp1563
sbasbasbasbag61
(g77
g63
NtRp1564
(dp1565
g66
(dp1566
sg75
g1495
sg68
(lp1567
g61
(g82
g63
NtRp1568
(dp1569
g66
(dp1570
g86
g87
ssg75
g1564
sg68
(lp1571
g516
asbag61
(g82
g63
NtRp1572
(dp1573
g66
(dp1574
g93
g94
ssg75
g1564
sg68
(lp1575
S':'
asbag61
(g82
g63
NtRp1576
(dp1577
g66
(dp1578
sg75
g1564
sg68
(lp1579
g61
(g62
g63
NtRp1580
(dp1581
g66
(dp1582
g74
I4
ssg75
g1576
sg68
(lp1583
S"<Values at 0x3e15fa8: {'verbose': False, 'ip': '127.0.0.1', 'shutdown_timeout': 5, 'taskbar': False, 'nocron': False, 'pid_filename': 'httpserver.pid', 'maxthreads': None, 'softcron': False, 'server_name': 'Batou', 'bpython': False, 'nogui': False, 'port': 8000, 'extcron': False, 'debuglevel': 30, 'test': None, 'folder': 'C:\\\\Users\\\\Bussiere\\\\Dropbox\\\\Projets\\\\jackpoint\\\\web2py', 'config': '', 'import_models': False, 'winservice': '', 'shell': None, 'run': '', 'log_filename': 'httpserver.log', 'args': [''], 'socket_timeout': 5, 'ssl_ca_certificate': None, 'scheduler': None, 'profiler_filename': None, 'ssl_private_key': '', 'password': '<ask>', 'request_queue_size': 5, 'ssl_certificate': '', 'cronjob': False, 'numthreads': None, 'quiet': False, 'interfaces': None, 'minthreads': None, 'timeout': 10, 'plain': False, 'nobanner': False}>"
p1584
asbasbasbag61
(g77
g63
NtRp1585
(dp1586
g66
(dp1587
sg75
g1495
sg68
(lp1588
g61
(g82
g63
NtRp1589
(dp1590
g66
(dp1591
g86
g87
ssg75
g1585
sg68
(lp1592
g538
asbag61
(g82
g63
NtRp1593
(dp1594
g66
(dp1595
g93
g94
ssg75
g1585
sg68
(lp1596
S':'
asbag61
(g82
g63
NtRp1597
(dp1598
g66
(dp1599
sg75
g1585
sg68
(lp1600
g61
(g62
g63
NtRp1601
(dp1602
g66
(dp1603
g74
I4
ssg75
g1597
sg68
(lp1604
S"set(['init'])"
p1605
asbasbasbag61
(g77
g63
NtRp1606
(dp1607
g66
(dp1608
sg75
g1495
sg68
(lp1609
g61
(g82
g63
NtRp1610
(dp1611
g66
(dp1612
g86
g87
ssg75
g1606
sg68
(lp1613
g560
asbag61
(g82
g63
NtRp1614
(dp1615
g66
(dp1616
g93
g94
ssg75
g1606
sg68
(lp1617
S':'
asbag61
(g82
g63
NtRp1618
(dp1619
g66
(dp1620
sg75
g1606
sg68
(lp1621
g61
(g62
g63
NtRp1622
(dp1623
g66
(dp1624
g74
I4
ssg75
g1618
sg68
(lp1625
g573
asbasbasbag61
(g77
g63
NtRp1626
(dp1627
g66
(dp1628
sg75
g1495
sg68
(lp1629
g61
(g82
g63
NtRp1630
(dp1631
g66
(dp1632
g86
g87
ssg75
g1626
sg68
(lp1633
g582
asbag61
(g82
g63
NtRp1634
(dp1635
g66
(dp1636
g93
g94
ssg75
g1626
sg68
(lp1637
S':'
asbag61
(g82
g63
NtRp1638
(dp1639
g66
(dp1640
sg75
g1626
sg68
(lp1641
g61
(g62
g63
NtRp1642
(dp1643
g66
(dp1644
g74
I4
ssg75
g1638
sg68
(lp1645
g595
asbasbasbag61
(g77
g63
NtRp1646
(dp1647
g66
(dp1648
sg75
g1495
sg68
(lp1649
g61
(g82
g63
NtRp1650
(dp1651
g66
(dp1652
g86
g87
ssg75
g1646
sg68
(lp1653
g802
asbag61
(g82
g63
NtRp1654
(dp1655
g66
(dp1656
g93
g94
ssg75
g1646
sg68
(lp1657
S':'
asbag61
(g82
g63
NtRp1658
(dp1659
g66
(dp1660
sg75
g1646
sg68
(lp1661
g61
(g62
g63
NtRp1662
(dp1663
g66
(dp1664
g74
I4
ssg75
g1658
sg68
(lp1665
g104
asbasbasbag61
(g77
g63
NtRp1666
(dp1667
g66
(dp1668
sg75
g1495
sg68
(lp1669
g61
(g82
g63
NtRp1670
(dp1671
g66
(dp1672
g86
g87
ssg75
g1666
sg68
(lp1673
g823
asbag61
(g82
g63
NtRp1674
(dp1675
g66
(dp1676
g93
g94
ssg75
g1666
sg68
(lp1677
S':'
asbag61
(g82
g63
NtRp1678
(dp1679
g66
(dp1680
sg75
g1666
sg68
(lp1681
g61
(g62
g63
NtRp1682
(dp1683
g66
(dp1684
g74
I4
ssg75
g1678
sg68
(lp1685
g104
asbasbasbag61
(g77
g63
NtRp1686
(dp1687
g66
(dp1688
sg75
g1495
sg68
(lp1689
g61
(g82
g63
NtRp1690
(dp1691
g66
(dp1692
g86
g87
ssg75
g1686
sg68
(lp1693
g1060
asbag61
(g82
g63
NtRp1694
(dp1695
g66
(dp1696
g93
g94
ssg75
g1686
sg68
(lp1697
S':'
asbag61
(g82
g63
NtRp1698
(dp1699
g66
(dp1700
sg75
g1686
sg68
(lp1701
g61
(g62
g63
NtRp1702
(dp1703
g66
(dp1704
g74
I4
ssg75
g1698
sg68
(lp1705
g1073
asbasbasbag61
(g77
g63
NtRp1706
(dp1707
g66
(dp1708
sg75
g1495
sg68
(lp1709
g61
(g82
g63
NtRp1710
(dp1711
g66
(dp1712
g86
g87
ssg75
g1706
sg68
(lp1713
g1103
asbag61
(g82
g63
NtRp1714
(dp1715
g66
(dp1716
g93
g94
ssg75
g1706
sg68
(lp1717
S':'
asbag61
(g82
g63
NtRp1718
(dp1719
g66
(dp1720
sg75
g1706
sg68
(lp1721
g61
(g62
g63
NtRp1722
(dp1723
g66
(dp1724
g74
I4
ssg75
g1718
sg68
(lp1725
g61
(g70
g63
NtRp1726
(dp1727
g66
(dp1728
g74
I3
ssg75
Nsg68
(lp1729
g61
(g77
g63
NtRp1730
(dp1731
g66
(dp1732
sg75
g1726
sg68
(lp1733
g61
(g82
g63
NtRp1734
(dp1735
g66
(dp1736
sg75
g1730
sg68
(lp1737
g61
(g62
g63
NtRp1738
(dp1739
g66
(dp1740
g74
I3
ssg75
g1734
sg68
(lp1741
S'1'
asbasbasbag61
(g77
g63
NtRp1742
(dp1743
g66
(dp1744
sg75
g1726
sg68
(lp1745
g61
(g82
g63
NtRp1746
(dp1747
g66
(dp1748
sg75
g1742
sg68
(lp1749
g61
(g62
g63
NtRp1750
(dp1751
g66
(dp1752
g74
I3
ssg75
g1746
sg68
(lp1753
S'99'
p1754
asbasbasbag61
(g77
g63
NtRp1755
(dp1756
g66
(dp1757
sg75
g1726
sg68
(lp1758
g61
(g82
g63
NtRp1759
(dp1760
g66
(dp1761
sg75
g1755
sg68
(lp1762
g61
(g62
g63
NtRp1763
(dp1764
g66
(dp1765
g74
I3
ssg75
g1759
sg68
(lp1766
S'7'
asbasbasbag61
(g77
g63
NtRp1767
(dp1768
g66
(dp1769
sg75
g1726
sg68
(lp1770
g61
(g82
g63
NtRp1771
(dp1772
g66
(dp1773
sg75
g1767
sg68
(lp1774
g61
(g62
g63
NtRp1775
(dp1776
g66
(dp1777
g74
I3
ssg75
g1771
sg68
(lp1778
S'datetime.datetime(2012, 3, 4, 22, 12, 8)'
p1779
asbasbasbag61
(g77
g63
NtRp1780
(dp1781
g66
(dp1782
sg75
g1726
sg68
(lp1783
g61
(g82
g63
NtRp1784
(dp1785
g66
(dp1786
sg75
g1780
sg68
(lp1787
g61
(g62
g63
NtRp1788
(dp1789
g66
(dp1790
g74
I3
ssg75
g1784
sg68
(lp1791
g1182
asbasbasbasbasbasbasbasbasbasbasbag61
(g77
g63
NtRp1792
(dp1793
g66
(dp1794
sg75
g71
sg68
(lp1795
g61
(g82
g63
NtRp1796
(dp1797
g66
(dp1798
g86
g87
ssg75
g1792
sg68
(lp1799
S'is_https'
p1800
asbag61
(g82
g63
NtRp1801
(dp1802
g66
(dp1803
g93
g94
ssg75
g1792
sg68
(lp1804
S':'
asbag61
(g82
g63
NtRp1805
(dp1806
g66
(dp1807
sg75
g1792
sg68
(lp1808
g61
(g62
g63
NtRp1809
(dp1810
g66
(dp1811
g74
I5
ssg75
g1805
sg68
(lp1812
g104
asbasbasbag61
(g77
g63
NtRp1813
(dp1814
g66
(dp1815
sg75
g71
sg68
(lp1816
g61
(g82
g63
NtRp1817
(dp1818
g66
(dp1819
g86
g87
ssg75
g1813
sg68
(lp1820
S'is_local'
p1821
asbag61
(g82
g63
NtRp1822
(dp1823
g66
(dp1824
g93
g94
ssg75
g1813
sg68
(lp1825
S':'
asbag61
(g82
g63
NtRp1826
(dp1827
g66
(dp1828
sg75
g1813
sg68
(lp1829
g61
(g62
g63
NtRp1830
(dp1831
g66
(dp1832
g74
I5
ssg75
g1826
sg68
(lp1833
g573
asbasbasbag61
(g77
g63
NtRp1834
(dp1835
g66
(dp1836
sg75
g71
sg68
(lp1837
g61
(g82
g63
NtRp1838
(dp1839
g66
(dp1840
g86
g87
ssg75
g1834
sg68
(lp1841
S'is_restful'
p1842
asbag61
(g82
g63
NtRp1843
(dp1844
g66
(dp1845
g93
g94
ssg75
g1834
sg68
(lp1846
S':'
asbag61
(g82
g63
NtRp1847
(dp1848
g66
(dp1849
sg75
g1834
sg68
(lp1850
g61
(g62
g63
NtRp1851
(dp1852
g66
(dp1853
g74
I5
ssg75
g1847
sg68
(lp1854
g104
asbasbasbag61
(g77
g63
NtRp1855
(dp1856
g66
(dp1857
sg75
g71
sg68
(lp1858
g61
(g82
g63
NtRp1859
(dp1860
g66
(dp1861
g86
g87
ssg75
g1855
sg68
(lp1862
S'now'
p1863
asbag61
(g82
g63
NtRp1864
(dp1865
g66
(dp1866
g93
g94
ssg75
g1855
sg68
(lp1867
S':'
asbag61
(g82
g63
NtRp1868
(dp1869
g66
(dp1870
sg75
g1855
sg68
(lp1871
g61
(g62
g63
NtRp1872
(dp1873
g66
(dp1874
g74
I5
ssg75
g1868
sg68
(lp1875
S'datetime.datetime(2012, 3, 23, 10, 41, 57, 261000)'
p1876
asbasbasbag61
(g77
g63
NtRp1877
(dp1878
g66
(dp1879
sg75
g71
sg68
(lp1880
g61
(g82
g63
NtRp1881
(dp1882
g66
(dp1883
g86
g87
ssg75
g1877
sg68
(lp1884
S'post_vars'
p1885
asbag61
(g82
g63
NtRp1886
(dp1887
g66
(dp1888
g93
g94
ssg75
g1877
sg68
(lp1889
S':'
asbag61
(g82
g63
NtRp1890
(dp1891
g66
(dp1892
sg75
g1877
sg68
(lp1893
g61
(g62
g63
NtRp1894
(dp1895
g66
(dp1896
g74
I5
ssg75
g1890
sg68
(lp1897
g61
(g70
g63
NtRp1898
(dp1899
g66
(dp1900
g74
I4
ssg75
Nsg68
(lp1901
sbasbasbasbag61
(g77
g63
NtRp1902
(dp1903
g66
(dp1904
sg75
g71
sg68
(lp1905
g61
(g82
g63
NtRp1906
(dp1907
g66
(dp1908
g86
g87
ssg75
g1902
sg68
(lp1909
S'url'
p1910
asbag61
(g82
g63
NtRp1911
(dp1912
g66
(dp1913
g93
g94
ssg75
g1902
sg68
(lp1914
S':'
asbag61
(g82
g63
NtRp1915
(dp1916
g66
(dp1917
sg75
g1902
sg68
(lp1918
g61
(g62
g63
NtRp1919
(dp1920
g66
(dp1921
g74
I5
ssg75
g1915
sg68
(lp1922
S'/init/default/index'
p1923
asbasbasbag61
(g77
g63
NtRp1924
(dp1925
g66
(dp1926
sg75
g71
sg68
(lp1927
g61
(g82
g63
NtRp1928
(dp1929
g66
(dp1930
g86
g87
ssg75
g1924
sg68
(lp1931
S'utcnow'
p1932
asbag61
(g82
g63
NtRp1933
(dp1934
g66
(dp1935
g93
g94
ssg75
g1924
sg68
(lp1936
S':'
asbag61
(g82
g63
NtRp1937
(dp1938
g66
(dp1939
sg75
g1924
sg68
(lp1940
g61
(g62
g63
NtRp1941
(dp1942
g66
(dp1943
g74
I5
ssg75
g1937
sg68
(lp1944
S'datetime.datetime(2012, 3, 23, 9, 41, 57, 261000)'
p1945
asbasbasbag61
(g77
g63
NtRp1946
(dp1947
g66
(dp1948
sg75
g71
sg68
(lp1949
g61
(g82
g63
NtRp1950
(dp1951
g66
(dp1952
g86
g87
ssg75
g1946
sg68
(lp1953
S'uuid'
p1954
asbag61
(g82
g63
NtRp1955
(dp1956
g66
(dp1957
g93
g94
ssg75
g1946
sg68
(lp1958
S':'
asbag61
(g82
g63
NtRp1959
(dp1960
g66
(dp1961
sg75
g1946
sg68
(lp1962
g61
(g62
g63
NtRp1963
(dp1964
g66
(dp1965
g74
I5
ssg75
g1959
sg68
(lp1966
S'init/127.0.0.1.2012-03-23.10-41-57.29b04b50-7130-4820-ae5a-46648c0fc356'
p1967
asbasbasbag61
(g77
g63
NtRp1968
(dp1969
g66
(dp1970
sg75
g71
sg68
(lp1971
g61
(g82
g63
NtRp1972
(dp1973
g66
(dp1974
g86
g87
ssg75
g1968
sg68
(lp1975
S'vars'
p1976
asbag61
(g82
g63
NtRp1977
(dp1978
g66
(dp1979
g93
g94
ssg75
g1968
sg68
(lp1980
S':'
asbag61
(g82
g63
NtRp1981
(dp1982
g66
(dp1983
sg75
g1968
sg68
(lp1984
g61
(g62
g63
NtRp1985
(dp1986
g66
(dp1987
g74
I5
ssg75
g1981
sg68
(lp1988
g61
(g70
g63
NtRp1989
(dp1990
g66
(dp1991
g74
I4
ssg75
Nsg68
(lp1992
sbasbasbasbag61
(g77
g63
NtRp1993
(dp1994
g66
(dp1995
sg75
g71
sg68
(lp1996
g61
(g82
g63
NtRp1997
(dp1998
g66
(dp1999
g86
g87
ssg75
g1993
sg68
(lp2000
S'wsgi'
p2001
asbag61
(g82
g63
NtRp2002
(dp2003
g66
(dp2004
g93
g94
ssg75
g1993
sg68
(lp2005
S':'
asbag61
(g82
g63
NtRp2006
(dp2007
g66
(dp2008
sg75
g1993
sg68
(lp2009
g61
(g62
g63
NtRp2010
(dp2011
g66
(dp2012
g74
I5
ssg75
g2006
sg68
(lp2013
g61
(g70
g63
NtRp2014
(dp2015
g66
(dp2016
g74
I4
ssg75
Nsg68
(lp2017
g61
(g77
g63
NtRp2018
(dp2019
g66
(dp2020
sg75
g2014
sg68
(lp2021
g61
(g82
g63
NtRp2022
(dp2023
g66
(dp2024
g86
g87
ssg75
g2018
sg68
(lp2025
S'environ'
p2026
asbag61
(g82
g63
NtRp2027
(dp2028
g66
(dp2029
g93
g94
ssg75
g2018
sg68
(lp2030
S':'
asbag61
(g82
g63
NtRp2031
(dp2032
g66
(dp2033
sg75
g2018
sg68
(lp2034
g61
(g62
g63
NtRp2035
(dp2036
g66
(dp2037
g74
I4
ssg75
g2031
sg68
(lp2038
g61
(g70
g63
NtRp2039
(dp2040
g66
(dp2041
g74
I3
ssg75
Nsg68
(lp2042
g61
(g77
g63
NtRp2043
(dp2044
g66
(dp2045
sg75
g2039
sg68
(lp2046
g61
(g82
g63
NtRp2047
(dp2048
g66
(dp2049
g86
g87
ssg75
g2043
sg68
(lp2050
S'HTTP_ACCEPT'
p2051
asbag61
(g82
g63
NtRp2052
(dp2053
g66
(dp2054
g93
g94
ssg75
g2043
sg68
(lp2055
S':'
asbag61
(g82
g63
NtRp2056
(dp2057
g66
(dp2058
sg75
g2043
sg68
(lp2059
g61
(g62
g63
NtRp2060
(dp2061
g66
(dp2062
g74
I3
ssg75
g2056
sg68
(lp2063
g617
asbasbasbag61
(g77
g63
NtRp2064
(dp2065
g66
(dp2066
sg75
g2039
sg68
(lp2067
g61
(g82
g63
NtRp2068
(dp2069
g66
(dp2070
g86
g87
ssg75
g2064
sg68
(lp2071
S'HTTP_ACCEPT_CHARSET'
p2072
asbag61
(g82
g63
NtRp2073
(dp2074
g66
(dp2075
g93
g94
ssg75
g2064
sg68
(lp2076
S':'
asbag61
(g82
g63
NtRp2077
(dp2078
g66
(dp2079
sg75
g2064
sg68
(lp2080
g61
(g62
g63
NtRp2081
(dp2082
g66
(dp2083
g74
I3
ssg75
g2077
sg68
(lp2084
g639
asbasbasbag61
(g77
g63
NtRp2085
(dp2086
g66
(dp2087
sg75
g2039
sg68
(lp2088
g61
(g82
g63
NtRp2089
(dp2090
g66
(dp2091
g86
g87
ssg75
g2085
sg68
(lp2092
S'HTTP_ACCEPT_ENCODING'
p2093
asbag61
(g82
g63
NtRp2094
(dp2095
g66
(dp2096
g93
g94
ssg75
g2085
sg68
(lp2097
S':'
asbag61
(g82
g63
NtRp2098
(dp2099
g66
(dp2100
sg75
g2085
sg68
(lp2101
g61
(g62
g63
NtRp2102
(dp2103
g66
(dp2104
g74
I3
ssg75
g2098
sg68
(lp2105
g661
asbasbasbag61
(g77
g63
NtRp2106
(dp2107
g66
(dp2108
sg75
g2039
sg68
(lp2109
g61
(g82
g63
NtRp2110
(dp2111
g66
(dp2112
g86
g87
ssg75
g2106
sg68
(lp2113
S'HTTP_ACCEPT_LANGUAGE'
p2114
asbag61
(g82
g63
NtRp2115
(dp2116
g66
(dp2117
g93
g94
ssg75
g2106
sg68
(lp2118
S':'
asbag61
(g82
g63
NtRp2119
(dp2120
g66
(dp2121
sg75
g2106
sg68
(lp2122
g61
(g62
g63
NtRp2123
(dp2124
g66
(dp2125
g74
I3
ssg75
g2119
sg68
(lp2126
g683
asbasbasbag61
(g77
g63
NtRp2127
(dp2128
g66
(dp2129
sg75
g2039
sg68
(lp2130
g61
(g82
g63
NtRp2131
(dp2132
g66
(dp2133
g86
g87
ssg75
g2127
sg68
(lp2134
S'HTTP_CACHE_CONTROL'
p2135
asbag61
(g82
g63
NtRp2136
(dp2137
g66
(dp2138
g93
g94
ssg75
g2127
sg68
(lp2139
S':'
asbag61
(g82
g63
NtRp2140
(dp2141
g66
(dp2142
sg75
g2127
sg68
(lp2143
g61
(g62
g63
NtRp2144
(dp2145
g66
(dp2146
g74
I3
ssg75
g2140
sg68
(lp2147
g705
asbasbasbag61
(g77
g63
NtRp2148
(dp2149
g66
(dp2150
sg75
g2039
sg68
(lp2151
g61
(g82
g63
NtRp2152
(dp2153
g66
(dp2154
g86
g87
ssg75
g2148
sg68
(lp2155
S'HTTP_CONNECTION'
p2156
asbag61
(g82
g63
NtRp2157
(dp2158
g66
(dp2159
g93
g94
ssg75
g2148
sg68
(lp2160
S':'
asbag61
(g82
g63
NtRp2161
(dp2162
g66
(dp2163
sg75
g2148
sg68
(lp2164
g61
(g62
g63
NtRp2165
(dp2166
g66
(dp2167
g74
I3
ssg75
g2161
sg68
(lp2168
g727
asbasbasbag61
(g77
g63
NtRp2169
(dp2170
g66
(dp2171
sg75
g2039
sg68
(lp2172
g61
(g82
g63
NtRp2173
(dp2174
g66
(dp2175
g86
g87
ssg75
g2169
sg68
(lp2176
S'HTTP_COOKIE'
p2177
asbag61
(g82
g63
NtRp2178
(dp2179
g66
(dp2180
g93
g94
ssg75
g2169
sg68
(lp2181
S':'
asbag61
(g82
g63
NtRp2182
(dp2183
g66
(dp2184
sg75
g2169
sg68
(lp2185
g61
(g62
g63
NtRp2186
(dp2187
g66
(dp2188
g74
I3
ssg75
g2182
sg68
(lp2189
g749
asbasbasbag61
(g77
g63
NtRp2190
(dp2191
g66
(dp2192
sg75
g2039
sg68
(lp2193
g61
(g82
g63
NtRp2194
(dp2195
g66
(dp2196
g86
g87
ssg75
g2190
sg68
(lp2197
S'HTTP_HOST'
p2198
asbag61
(g82
g63
NtRp2199
(dp2200
g66
(dp2201
g93
g94
ssg75
g2190
sg68
(lp2202
S':'
asbag61
(g82
g63
NtRp2203
(dp2204
g66
(dp2205
sg75
g2190
sg68
(lp2206
g61
(g62
g63
NtRp2207
(dp2208
g66
(dp2209
g74
I3
ssg75
g2203
sg68
(lp2210
g771
asbasbasbag61
(g77
g63
NtRp2211
(dp2212
g66
(dp2213
sg75
g2039
sg68
(lp2214
g61
(g82
g63
NtRp2215
(dp2216
g66
(dp2217
g86
g87
ssg75
g2211
sg68
(lp2218
S'HTTP_USER_AGENT'
p2219
asbag61
(g82
g63
NtRp2220
(dp2221
g66
(dp2222
g93
g94
ssg75
g2211
sg68
(lp2223
S':'
asbag61
(g82
g63
NtRp2224
(dp2225
g66
(dp2226
sg75
g2211
sg68
(lp2227
g61
(g62
g63
NtRp2228
(dp2229
g66
(dp2230
g74
I3
ssg75
g2224
sg68
(lp2231
g793
asbasbasbag61
(g77
g63
NtRp2232
(dp2233
g66
(dp2234
sg75
g2039
sg68
(lp2235
g61
(g82
g63
NtRp2236
(dp2237
g66
(dp2238
g86
g87
ssg75
g2232
sg68
(lp2239
S'PATH_INFO'
p2240
asbag61
(g82
g63
NtRp2241
(dp2242
g66
(dp2243
g93
g94
ssg75
g2232
sg68
(lp2244
S':'
asbag61
(g82
g63
NtRp2245
(dp2246
g66
(dp2247
sg75
g2232
sg68
(lp2248
g61
(g62
g63
NtRp2249
(dp2250
g66
(dp2251
g74
I3
ssg75
g2245
sg68
(lp2252
S'/'
asbasbasbag61
(g77
g63
NtRp2253
(dp2254
g66
(dp2255
sg75
g2039
sg68
(lp2256
g61
(g82
g63
NtRp2257
(dp2258
g66
(dp2259
g86
g87
ssg75
g2253
sg68
(lp2260
S'QUERY_STRING'
p2261
asbag61
(g82
g63
NtRp2262
(dp2263
g66
(dp2264
g93
g94
ssg75
g2253
sg68
(lp2265
S':'
asbag61
(g82
g63
NtRp2266
(dp2267
g66
(dp2268
sg75
g2253
sg68
(lp2269
g61
(g62
g63
NtRp2270
(dp2271
g66
(dp2272
g74
I3
ssg75
g2266
sg68
(lp2273
S''
asbasbasbag61
(g77
g63
NtRp2274
(dp2275
g66
(dp2276
sg75
g2039
sg68
(lp2277
g61
(g82
g63
NtRp2278
(dp2279
g66
(dp2280
g86
g87
ssg75
g2274
sg68
(lp2281
S'REMOTE_ADDR'
p2282
asbag61
(g82
g63
NtRp2283
(dp2284
g66
(dp2285
g93
g94
ssg75
g2274
sg68
(lp2286
S':'
asbag61
(g82
g63
NtRp2287
(dp2288
g66
(dp2289
sg75
g2274
sg68
(lp2290
g61
(g62
g63
NtRp2291
(dp2292
g66
(dp2293
g74
I3
ssg75
g2287
sg68
(lp2294
g194
asbasbasbag61
(g77
g63
NtRp2295
(dp2296
g66
(dp2297
sg75
g2039
sg68
(lp2298
g61
(g82
g63
NtRp2299
(dp2300
g66
(dp2301
g86
g87
ssg75
g2295
sg68
(lp2302
S'REMOTE_PORT'
p2303
asbag61
(g82
g63
NtRp2304
(dp2305
g66
(dp2306
g93
g94
ssg75
g2295
sg68
(lp2307
S':'
asbag61
(g82
g63
NtRp2308
(dp2309
g66
(dp2310
sg75
g2295
sg68
(lp2311
g61
(g62
g63
NtRp2312
(dp2313
g66
(dp2314
g74
I3
ssg75
g2308
sg68
(lp2315
g920
asbasbasbag61
(g77
g63
NtRp2316
(dp2317
g66
(dp2318
sg75
g2039
sg68
(lp2319
g61
(g82
g63
NtRp2320
(dp2321
g66
(dp2322
g86
g87
ssg75
g2316
sg68
(lp2323
S'REQUEST_METHOD'
p2324
asbag61
(g82
g63
NtRp2325
(dp2326
g66
(dp2327
g93
g94
ssg75
g2316
sg68
(lp2328
S':'
asbag61
(g82
g63
NtRp2329
(dp2330
g66
(dp2331
sg75
g2316
sg68
(lp2332
g61
(g62
g63
NtRp2333
(dp2334
g66
(dp2335
g74
I3
ssg75
g2329
sg68
(lp2336
g942
asbasbasbag61
(g77
g63
NtRp2337
(dp2338
g66
(dp2339
sg75
g2039
sg68
(lp2340
g61
(g82
g63
NtRp2341
(dp2342
g66
(dp2343
g86
g87
ssg75
g2337
sg68
(lp2344
S'SCRIPT_NAME'
p2345
asbag61
(g82
g63
NtRp2346
(dp2347
g66
(dp2348
g93
g94
ssg75
g2337
sg68
(lp2349
S':'
asbag61
(g82
g63
NtRp2350
(dp2351
g66
(dp2352
sg75
g2337
sg68
(lp2353
g61
(g62
g63
NtRp2354
(dp2355
g66
(dp2356
g74
I3
ssg75
g2350
sg68
(lp2357
S''
asbasbasbag61
(g77
g63
NtRp2358
(dp2359
g66
(dp2360
sg75
g2039
sg68
(lp2361
g61
(g82
g63
NtRp2362
(dp2363
g66
(dp2364
g86
g87
ssg75
g2358
sg68
(lp2365
S'SERVER_NAME'
p2366
asbag61
(g82
g63
NtRp2367
(dp2368
g66
(dp2369
g93
g94
ssg75
g2358
sg68
(lp2370
S':'
asbag61
(g82
g63
NtRp2371
(dp2372
g66
(dp2373
sg75
g2358
sg68
(lp2374
g61
(g62
g63
NtRp2375
(dp2376
g66
(dp2377
g74
I3
ssg75
g2371
sg68
(lp2378
g985
asbasbasbag61
(g77
g63
NtRp2379
(dp2380
g66
(dp2381
sg75
g2039
sg68
(lp2382
g61
(g82
g63
NtRp2383
(dp2384
g66
(dp2385
g86
g87
ssg75
g2379
sg68
(lp2386
S'SERVER_PORT'
p2387
asbag61
(g82
g63
NtRp2388
(dp2389
g66
(dp2390
g93
g94
ssg75
g2379
sg68
(lp2391
S':'
asbag61
(g82
g63
NtRp2392
(dp2393
g66
(dp2394
sg75
g2379
sg68
(lp2395
g61
(g62
g63
NtRp2396
(dp2397
g66
(dp2398
g74
I3
ssg75
g2392
sg68
(lp2399
g1007
asbasbasbag61
(g77
g63
NtRp2400
(dp2401
g66
(dp2402
sg75
g2039
sg68
(lp2403
g61
(g82
g63
NtRp2404
(dp2405
g66
(dp2406
g86
g87
ssg75
g2400
sg68
(lp2407
S'SERVER_PROTOCOL'
p2408
asbag61
(g82
g63
NtRp2409
(dp2410
g66
(dp2411
g93
g94
ssg75
g2400
sg68
(lp2412
S':'
asbag61
(g82
g63
NtRp2413
(dp2414
g66
(dp2415
sg75
g2400
sg68
(lp2416
g61
(g62
g63
NtRp2417
(dp2418
g66
(dp2419
g74
I3
ssg75
g2413
sg68
(lp2420
g1029
asbasbasbag61
(g77
g63
NtRp2421
(dp2422
g66
(dp2423
sg75
g2039
sg68
(lp2424
g61
(g82
g63
NtRp2425
(dp2426
g66
(dp2427
g86
g87
ssg75
g2421
sg68
(lp2428
S'SERVER_SOFTWARE'
p2429
asbag61
(g82
g63
NtRp2430
(dp2431
g66
(dp2432
g93
g94
ssg75
g2421
sg68
(lp2433
S':'
asbag61
(g82
g63
NtRp2434
(dp2435
g66
(dp2436
sg75
g2421
sg68
(lp2437
g61
(g62
g63
NtRp2438
(dp2439
g66
(dp2440
g74
I3
ssg75
g2434
sg68
(lp2441
g1051
asbasbasbag61
(g77
g63
NtRp2442
(dp2443
g66
(dp2444
sg75
g2039
sg68
(lp2445
g61
(g82
g63
NtRp2446
(dp2447
g66
(dp2448
g86
g87
ssg75
g2442
sg68
(lp2449
S'wsgi.errors'
p2450
asbag61
(g82
g63
NtRp2451
(dp2452
g66
(dp2453
g93
g94
ssg75
g2442
sg68
(lp2454
S':'
asbag61
(g82
g63
NtRp2455
(dp2456
g66
(dp2457
sg75
g2442
sg68
(lp2458
g61
(g62
g63
NtRp2459
(dp2460
g66
(dp2461
g74
I3
ssg75
g2455
sg68
(lp2462
S"<open file '<stderr>', mode 'w' at 0x01D300B0>"
p2463
asbasbasbag61
(g77
g63
NtRp2464
(dp2465
g66
(dp2466
sg75
g2039
sg68
(lp2467
g61
(g82
g63
NtRp2468
(dp2469
g66
(dp2470
g86
g87
ssg75
g2464
sg68
(lp2471
S'wsgi.file_wrapper'
p2472
asbag61
(g82
g63
NtRp2473
(dp2474
g66
(dp2475
g93
g94
ssg75
g2464
sg68
(lp2476
S':'
asbag61
(g82
g63
NtRp2477
(dp2478
g66
(dp2479
sg75
g2464
sg68
(lp2480
g61
(g62
g63
NtRp2481
(dp2482
g66
(dp2483
g74
I3
ssg75
g2477
sg68
(lp2484
S'<class wsgiref.util.FileWrapper at 0x02CD6900>'
p2485
asbasbasbag61
(g77
g63
NtRp2486
(dp2487
g66
(dp2488
sg75
g2039
sg68
(lp2489
g61
(g82
g63
NtRp2490
(dp2491
g66
(dp2492
g86
g87
ssg75
g2486
sg68
(lp2493
S'wsgi.input'
p2494
asbag61
(g82
g63
NtRp2495
(dp2496
g66
(dp2497
g93
g94
ssg75
g2486
sg68
(lp2498
S':'
asbag61
(g82
g63
NtRp2499
(dp2500
g66
(dp2501
sg75
g2486
sg68
(lp2502
g61
(g62
g63
NtRp2503
(dp2504
g66
(dp2505
g74
I3
ssg75
g2499
sg68
(lp2506
S'<cStringIO.StringO object at 0x043F3300>'
p2507
asbasbasbag61
(g77
g63
NtRp2508
(dp2509
g66
(dp2510
sg75
g2039
sg68
(lp2511
g61
(g82
g63
NtRp2512
(dp2513
g66
(dp2514
g86
g87
ssg75
g2508
sg68
(lp2515
S'wsgi.multiprocess'
p2516
asbag61
(g82
g63
NtRp2517
(dp2518
g66
(dp2519
g93
g94
ssg75
g2508
sg68
(lp2520
S':'
asbag61
(g82
g63
NtRp2521
(dp2522
g66
(dp2523
sg75
g2508
sg68
(lp2524
g61
(g62
g63
NtRp2525
(dp2526
g66
(dp2527
g74
I3
ssg75
g2521
sg68
(lp2528
g104
asbasbasbag61
(g77
g63
NtRp2529
(dp2530
g66
(dp2531
sg75
g2039
sg68
(lp2532
g61
(g82
g63
NtRp2533
(dp2534
g66
(dp2535
g86
g87
ssg75
g2529
sg68
(lp2536
S'wsgi.multithread'
p2537
asbag61
(g82
g63
NtRp2538
(dp2539
g66
(dp2540
g93
g94
ssg75
g2529
sg68
(lp2541
S':'
asbag61
(g82
g63
NtRp2542
(dp2543
g66
(dp2544
sg75
g2529
sg68
(lp2545
g61
(g62
g63
NtRp2546
(dp2547
g66
(dp2548
g74
I3
ssg75
g2542
sg68
(lp2549
g573
asbasbasbag61
(g77
g63
NtRp2550
(dp2551
g66
(dp2552
sg75
g2039
sg68
(lp2553
g61
(g82
g63
NtRp2554
(dp2555
g66
(dp2556
g86
g87
ssg75
g2550
sg68
(lp2557
S'wsgi.run_once'
p2558
asbag61
(g82
g63
NtRp2559
(dp2560
g66
(dp2561
g93
g94
ssg75
g2550
sg68
(lp2562
S':'
asbag61
(g82
g63
NtRp2563
(dp2564
g66
(dp2565
sg75
g2550
sg68
(lp2566
g61
(g62
g63
NtRp2567
(dp2568
g66
(dp2569
g74
I3
ssg75
g2563
sg68
(lp2570
g104
asbasbasbag61
(g77
g63
NtRp2571
(dp2572
g66
(dp2573
sg75
g2039
sg68
(lp2574
g61
(g82
g63
NtRp2575
(dp2576
g66
(dp2577
g86
g87
ssg75
g2571
sg68
(lp2578
S'wsgi.url_scheme'
p2579
asbag61
(g82
g63
NtRp2580
(dp2581
g66
(dp2582
g93
g94
ssg75
g2571
sg68
(lp2583
S':'
asbag61
(g82
g63
NtRp2584
(dp2585
g66
(dp2586
sg75
g2571
sg68
(lp2587
g61
(g62
g63
NtRp2588
(dp2589
g66
(dp2590
g74
I3
ssg75
g2584
sg68
(lp2591
g1333
asbasbasbag61
(g77
g63
NtRp2592
(dp2593
g66
(dp2594
sg75
g2039
sg68
(lp2595
g61
(g82
g63
NtRp2596
(dp2597
g66
(dp2598
g86
g87
ssg75
g2592
sg68
(lp2599
S'wsgi.version'
p2600
asbag61
(g82
g63
NtRp2601
(dp2602
g66
(dp2603
g93
g94
ssg75
g2592
sg68
(lp2604
S':'
asbag61
(g82
g63
NtRp2605
(dp2606
g66
(dp2607
sg75
g2592
sg68
(lp2608
g61
(g62
g63
NtRp2609
(dp2610
g66
(dp2611
g74
I3
ssg75
g2605
sg68
(lp2612
S'1'
asbasbasbasbasbasbasbasbasbasbasbasbasbsS'frames'
p2613
(lp2614
(dp2615
S'file'
p2616
S'C:\\Users\\Bussiere\\Dropbox\\Projets\\jackpoint\\web2py\\gluon\\restricted.py'
p2617
sS'dump'
p2618
(dp2619
sS'lnum'
p2620
I204
sS'lines'
p2621
(dp2622
I199
S"    environment['__name__'] = '__restricted__'"
p2623
sI200
S'    try:'
p2624
sI201
S'        if type(code) == types.CodeType:'
p2625
sI202
S'            ccode = code'
p2626
sI203
S'        else:'
p2627
sI204
S'            ccode = compile2(code,layer)'
p2628
sI205
S'        exec ccode in environment'
p2629
sI206
S'    except HTTP:'
p2630
sI207
S'        raise'
p2631
sI208
S'    except RestrictedError:'
p2632
ssS'call'
p2633
S"(code='# -*- coding: utf-8 -*-\\n# this file is released ...=crud())\\n\\nresponse._vars=response._caller(index)\\n', environment={'A': <class 'gluon.html.A'>, 'Auth': <class 'gluon.tools.Auth'>, 'AutocompleteWidget': <class 'gluon.sqlhtml.AutocompleteWidget'>, 'B': <class 'gluon.html.B'>, 'BEAUTIFY': <class 'gluon.html.BEAUTIFY'>, 'BODY': <class 'gluon.html.BODY'>, 'BR': <class 'gluon.html.BR'>, 'BUTTON': <class 'gluon.html.BUTTON'>, 'BooleanWidget': <class 'gluon.sqlhtml.BooleanWidget'>, 'CALLABLETYPES': (<type 'function'>, <type 'function'>, <type 'builtin_function_or_method'>, <type 'instancemethod'>, <type 'builtin_function_or_method'>), ...}, layer=r'C:\\Users\\Bussiere\\Dropbox\\Projets\\jackpoint\\web2py\\applications\\init\\controllers/default.py')"
p2634
sS'func'
p2635
S'restricted'
p2636
sa(dp2637
g2616
S'C:\\Users\\Bussiere\\Dropbox\\Projets\\jackpoint\\web2py\\gluon\\restricted.py'
p2638
sg2618
(dp2639
sg2620
I189
sg2621
(dp2640
I192
S'    """'
p2641
sI193
S'    runs code in environment and returns the output. if an exception occurs'
p2642
sI184
S''
sI185
S'def compile2(code,layer):'
p2643
sI186
S'    """'
p2644
sI187
S"    The +'\\n' is necessary else compile fails when code ends in a comment."
p2645
sI188
S'    """'
p2646
sI189
S"    return compile(code.rstrip().replace('\\r\\n','\\n')+'\\n', layer, 'exec')"
p2647
sI190
S''
sI191
S"def restricted(code, environment=None, layer='Unknown'):"
p2648
ssg2633
S"(code='# -*- coding: utf-8 -*-\\n# this file is released ...=crud())\\n\\nresponse._vars=response._caller(index)\\n', layer=r'C:\\Users\\Bussiere\\Dropbox\\Projets\\jackpoint\\web2py\\applications\\init\\controllers/default.py')"
p2649
sg2635
S'compile2'
p2650
sasS'pyver'
p2651
S'Python 2.5.4: C:\\Users\\Bussiere\\Dropbox\\Projets\\jackpoint\\web2py\\web2py.exe'
p2652
sS'session'
p2653
g61
(g62
g63
NtRp2654
(dp2655
g66
(dp2656
sg68
(lp2657
g61
(g70
g63
NtRp2658
(dp2659
g66
(dp2660
g74
I5
ssg75
Nsg68
(lp2661
sbasbsS'etype'
p2662
S"<type 'exceptions.SyntaxError'>"
p2663
sS'date'
p2664
S'Fri Mar 23 10:41:57 2012'
p2665
sS'response'
p2666
g61
(g62
g63
NtRp2667
(dp2668
g66
(dp2669
sg68
(lp2670
g61
(g70
g63
NtRp2671
(dp2672
g66
(dp2673
g74
I5
ssg75
Nsg68
(lp2674
g61
(g77
g63
NtRp2675
(dp2676
g66
(dp2677
sg75
g2671
sg68
(lp2678
g61
(g82
g63
NtRp2679
(dp2680
g66
(dp2681
g86
g87
ssg75
g2675
sg68
(lp2682
g159
asbag61
(g82
g63
NtRp2683
(dp2684
g66
(dp2685
g93
g94
ssg75
g2675
sg68
(lp2686
S':'
asbag61
(g82
g63
NtRp2687
(dp2688
g66
(dp2689
sg75
g2675
sg68
(lp2690
g61
(g62
g63
NtRp2691
(dp2692
g66
(dp2693
g74
I5
ssg75
g2687
sg68
(lp2694
S'<cStringIO.StringO object at 0x043F3920>'
p2695
asbasbasbag61
(g77
g63
NtRp2696
(dp2697
g66
(dp2698
sg75
g2671
sg68
(lp2699
g61
(g82
g63
NtRp2700
(dp2701
g66
(dp2702
g86
g87
ssg75
g2696
sg68
(lp2703
g225
asbag61
(g82
g63
NtRp2704
(dp2705
g66
(dp2706
g93
g94
ssg75
g2696
sg68
(lp2707
S':'
asbag61
(g82
g63
NtRp2708
(dp2709
g66
(dp2710
sg75
g2696
sg68
(lp2711
g61
(g62
g63
NtRp2712
(dp2713
g66
(dp2714
g74
I5
ssg75
g2708
sg68
(lp2715
g61
(g70
g63
NtRp2716
(dp2717
g66
(dp2718
g74
I4
ssg75
Nsg68
(lp2719
g61
(g77
g63
NtRp2720
(dp2721
g66
(dp2722
sg75
g2716
sg68
(lp2723
g61
(g82
g63
NtRp2724
(dp2725
g66
(dp2726
g86
g87
ssg75
g2720
sg68
(lp2727
S'session_id_init'
p2728
asbag61
(g82
g63
NtRp2729
(dp2730
g66
(dp2731
g93
g94
ssg75
g2720
sg68
(lp2732
S':'
asbag61
(g82
g63
NtRp2733
(dp2734
g66
(dp2735
sg75
g2720
sg68
(lp2736
g61
(g62
g63
NtRp2737
(dp2738
g66
(dp2739
g74
I4
ssg75
g2733
sg68
(lp2740
g61
(g70
g63
NtRp2741
(dp2742
g66
(dp2743
g74
I3
ssg75
Nsg68
(lp2744
g61
(g77
g63
NtRp2745
(dp2746
g66
(dp2747
sg75
g2741
sg68
(lp2748
g61
(g82
g63
NtRp2749
(dp2750
g66
(dp2751
g86
g87
ssg75
g2745
sg68
(lp2752
g275
asbag61
(g82
g63
NtRp2753
(dp2754
g66
(dp2755
g93
g94
ssg75
g2745
sg68
(lp2756
S':'
asbag61
(g82
g63
NtRp2757
(dp2758
g66
(dp2759
sg75
g2745
sg68
(lp2760
g61
(g62
g63
NtRp2761
(dp2762
g66
(dp2763
g74
I3
ssg75
g2757
sg68
(lp2764
S''
asbasbasbag61
(g77
g63
NtRp2765
(dp2766
g66
(dp2767
sg75
g2741
sg68
(lp2768
g61
(g82
g63
NtRp2769
(dp2770
g66
(dp2771
g86
g87
ssg75
g2765
sg68
(lp2772
g296
asbag61
(g82
g63
NtRp2773
(dp2774
g66
(dp2775
g93
g94
ssg75
g2765
sg68
(lp2776
S':'
asbag61
(g82
g63
NtRp2777
(dp2778
g66
(dp2779
sg75
g2765
sg68
(lp2780
g61
(g62
g63
NtRp2781
(dp2782
g66
(dp2783
g74
I3
ssg75
g2777
sg68
(lp2784
S''
asbasbasbag61
(g77
g63
NtRp2785
(dp2786
g66
(dp2787
sg75
g2741
sg68
(lp2788
g61
(g82
g63
NtRp2789
(dp2790
g66
(dp2791
g86
g87
ssg75
g2785
sg68
(lp2792
g317
asbag61
(g82
g63
NtRp2793
(dp2794
g66
(dp2795
g93
g94
ssg75
g2785
sg68
(lp2796
S':'
asbag61
(g82
g63
NtRp2797
(dp2798
g66
(dp2799
sg75
g2785
sg68
(lp2800
g61
(g62
g63
NtRp2801
(dp2802
g66
(dp2803
g74
I3
ssg75
g2797
sg68
(lp2804
S''
asbasbasbag61
(g77
g63
NtRp2805
(dp2806
g66
(dp2807
sg75
g2741
sg68
(lp2808
g61
(g82
g63
NtRp2809
(dp2810
g66
(dp2811
g86
g87
ssg75
g2805
sg68
(lp2812
g338
asbag61
(g82
g63
NtRp2813
(dp2814
g66
(dp2815
g93
g94
ssg75
g2805
sg68
(lp2816
S':'
asbag61
(g82
g63
NtRp2817
(dp2818
g66
(dp2819
sg75
g2805
sg68
(lp2820
g61
(g62
g63
NtRp2821
(dp2822
g66
(dp2823
g74
I3
ssg75
g2817
sg68
(lp2824
S''
asbasbasbag61
(g77
g63
NtRp2825
(dp2826
g66
(dp2827
sg75
g2741
sg68
(lp2828
g61
(g82
g63
NtRp2829
(dp2830
g66
(dp2831
g86
g87
ssg75
g2825
sg68
(lp2832
g359
asbag61
(g82
g63
NtRp2833
(dp2834
g66
(dp2835
g93
g94
ssg75
g2825
sg68
(lp2836
S':'
asbag61
(g82
g63
NtRp2837
(dp2838
g66
(dp2839
sg75
g2825
sg68
(lp2840
g61
(g62
g63
NtRp2841
(dp2842
g66
(dp2843
g74
I3
ssg75
g2837
sg68
(lp2844
S'/'
asbasbasbag61
(g77
g63
NtRp2845
(dp2846
g66
(dp2847
sg75
g2741
sg68
(lp2848
g61
(g82
g63
NtRp2849
(dp2850
g66
(dp2851
g86
g87
ssg75
g2845
sg68
(lp2852
g380
asbag61
(g82
g63
NtRp2853
(dp2854
g66
(dp2855
g93
g94
ssg75
g2845
sg68
(lp2856
S':'
asbag61
(g82
g63
NtRp2857
(dp2858
g66
(dp2859
sg75
g2845
sg68
(lp2860
g61
(g62
g63
NtRp2861
(dp2862
g66
(dp2863
g74
I3
ssg75
g2857
sg68
(lp2864
S''
asbasbasbag61
(g77
g63
NtRp2865
(dp2866
g66
(dp2867
sg75
g2741
sg68
(lp2868
g61
(g82
g63
NtRp2869
(dp2870
g66
(dp2871
g86
g87
ssg75
g2865
sg68
(lp2872
g401
asbag61
(g82
g63
NtRp2873
(dp2874
g66
(dp2875
g93
g94
ssg75
g2865
sg68
(lp2876
S':'
asbag61
(g82
g63
NtRp2877
(dp2878
g66
(dp2879
sg75
g2865
sg68
(lp2880
g61
(g62
g63
NtRp2881
(dp2882
g66
(dp2883
g74
I3
ssg75
g2877
sg68
(lp2884
S''
asbasbasbasbasbasbasbasbasbasbasbag61
(g77
g63
NtRp2885
(dp2886
g66
(dp2887
sg75
g2671
sg68
(lp2888
g61
(g82
g63
NtRp2889
(dp2890
g66
(dp2891
g86
g87
ssg75
g2885
sg68
(lp2892
S'delimiters'
p2893
asbag61
(g82
g63
NtRp2894
(dp2895
g66
(dp2896
g93
g94
ssg75
g2885
sg68
(lp2897
S':'
asbag61
(g82
g63
NtRp2898
(dp2899
g66
(dp2900
sg75
g2885
sg68
(lp2901
g61
(g62
g63
NtRp2902
(dp2903
g66
(dp2904
g74
I5
ssg75
g2898
sg68
(lp2905
g61
(g70
g63
NtRp2906
(dp2907
g66
(dp2908
g74
I4
ssg75
Nsg68
(lp2909
g61
(g77
g63
NtRp2910
(dp2911
g66
(dp2912
sg75
g2906
sg68
(lp2913
g61
(g82
g63
NtRp2914
(dp2915
g66
(dp2916
sg75
g2910
sg68
(lp2917
g61
(g62
g63
NtRp2918
(dp2919
g66
(dp2920
g74
I4
ssg75
g2914
sg68
(lp2921
S'{{'
p2922
asbasbasbag61
(g77
g63
NtRp2923
(dp2924
g66
(dp2925
sg75
g2906
sg68
(lp2926
g61
(g82
g63
NtRp2927
(dp2928
g66
(dp2929
sg75
g2923
sg68
(lp2930
g61
(g62
g63
NtRp2931
(dp2932
g66
(dp2933
g74
I4
ssg75
g2927
sg68
(lp2934
S'}}'
p2935
asbasbasbasbasbasbasbag61
(g77
g63
NtRp2936
(dp2937
g66
(dp2938
sg75
g2671
sg68
(lp2939
g61
(g82
g63
NtRp2940
(dp2941
g66
(dp2942
g86
g87
ssg75
g2936
sg68
(lp2943
S'files'
p2944
asbag61
(g82
g63
NtRp2945
(dp2946
g66
(dp2947
g93
g94
ssg75
g2936
sg68
(lp2948
S':'
asbag61
(g82
g63
NtRp2949
(dp2950
g66
(dp2951
sg75
g2936
sg68
(lp2952
g61
(g62
g63
NtRp2953
(dp2954
g66
(dp2955
g74
I5
ssg75
g2949
sg68
(lp2956
g61
(g70
g63
NtRp2957
(dp2958
g66
(dp2959
g74
I4
ssg75
Nsg68
(lp2960
sbasbasbasbag61
(g77
g63
NtRp2961
(dp2962
g66
(dp2963
sg75
g2671
sg68
(lp2964
g61
(g82
g63
NtRp2965
(dp2966
g66
(dp2967
g86
g87
ssg75
g2961
sg68
(lp2968
S'flash'
p2969
asbag61
(g82
g63
NtRp2970
(dp2971
g66
(dp2972
g93
g94
ssg75
g2961
sg68
(lp2973
S':'
asbag61
(g82
g63
NtRp2974
(dp2975
g66
(dp2976
sg75
g2961
sg68
(lp2977
g61
(g62
g63
NtRp2978
(dp2979
g66
(dp2980
g74
I5
ssg75
g2974
sg68
(lp2981
S''
asbasbasbag61
(g77
g63
NtRp2982
(dp2983
g66
(dp2984
sg75
g2671
sg68
(lp2985
g61
(g82
g63
NtRp2986
(dp2987
g66
(dp2988
g86
g87
ssg75
g2982
sg68
(lp2989
S'generic_patterns'
p2990
asbag61
(g82
g63
NtRp2991
(dp2992
g66
(dp2993
g93
g94
ssg75
g2982
sg68
(lp2994
S':'
asbag61
(g82
g63
NtRp2995
(dp2996
g66
(dp2997
sg75
g2982
sg68
(lp2998
g61
(g62
g63
NtRp2999
(dp3000
g66
(dp3001
g74
I5
ssg75
g2995
sg68
(lp3002
g61
(g70
g63
NtRp3003
(dp3004
g66
(dp3005
g74
I4
ssg75
Nsg68
(lp3006
g61
(g77
g63
NtRp3007
(dp3008
g66
(dp3009
sg75
g3003
sg68
(lp3010
g61
(g82
g63
NtRp3011
(dp3012
g66
(dp3013
sg75
g3007
sg68
(lp3014
g61
(g62
g63
NtRp3015
(dp3016
g66
(dp3017
g74
I4
ssg75
g3011
sg68
(lp3018
S'*'
asbasbasbasbasbasbasbag61
(g77
g63
NtRp3019
(dp3020
g66
(dp3021
sg75
g2671
sg68
(lp3022
g61
(g82
g63
NtRp3023
(dp3024
g66
(dp3025
g86
g87
ssg75
g3019
sg68
(lp3026
S'headers'
p3027
asbag61
(g82
g63
NtRp3028
(dp3029
g66
(dp3030
g93
g94
ssg75
g3019
sg68
(lp3031
S':'
asbag61
(g82
g63
NtRp3032
(dp3033
g66
(dp3034
sg75
g3019
sg68
(lp3035
g61
(g62
g63
NtRp3036
(dp3037
g66
(dp3038
g74
I5
ssg75
g3032
sg68
(lp3039
g61
(g70
g63
NtRp3040
(dp3041
g66
(dp3042
g74
I4
ssg75
Nsg68
(lp3043
g61
(g77
g63
NtRp3044
(dp3045
g66
(dp3046
sg75
g3040
sg68
(lp3047
g61
(g82
g63
NtRp3048
(dp3049
g66
(dp3050
g86
g87
ssg75
g3044
sg68
(lp3051
S'Cache-Control'
p3052
asbag61
(g82
g63
NtRp3053
(dp3054
g66
(dp3055
g93
g94
ssg75
g3044
sg68
(lp3056
S':'
asbag61
(g82
g63
NtRp3057
(dp3058
g66
(dp3059
sg75
g3044
sg68
(lp3060
g61
(g62
g63
NtRp3061
(dp3062
g66
(dp3063
g74
I4
ssg75
g3057
sg68
(lp3064
S'no-store, no-cache, must-revalidate, post-check=0, pre-check=0'
p3065
asbasbasbag61
(g77
g63
NtRp3066
(dp3067
g66
(dp3068
sg75
g3040
sg68
(lp3069
g61
(g82
g63
NtRp3070
(dp3071
g66
(dp3072
g86
g87
ssg75
g3066
sg68
(lp3073
S'Content-Type'
p3074
asbag61
(g82
g63
NtRp3075
(dp3076
g66
(dp3077
g93
g94
ssg75
g3066
sg68
(lp3078
S':'
asbag61
(g82
g63
NtRp3079
(dp3080
g66
(dp3081
sg75
g3066
sg68
(lp3082
g61
(g62
g63
NtRp3083
(dp3084
g66
(dp3085
g74
I4
ssg75
g3079
sg68
(lp3086
S'text/html; charset=utf-8'
p3087
asbasbasbag61
(g77
g63
NtRp3088
(dp3089
g66
(dp3090
sg75
g3040
sg68
(lp3091
g61
(g82
g63
NtRp3092
(dp3093
g66
(dp3094
g86
g87
ssg75
g3088
sg68
(lp3095
S'Expires'
p3096
asbag61
(g82
g63
NtRp3097
(dp3098
g66
(dp3099
g93
g94
ssg75
g3088
sg68
(lp3100
S':'
asbag61
(g82
g63
NtRp3101
(dp3102
g66
(dp3103
sg75
g3088
sg68
(lp3104
g61
(g62
g63
NtRp3105
(dp3106
g66
(dp3107
g74
I4
ssg75
g3101
sg68
(lp3108
S'Fri, 23 Mar 2012 09:41:57 GMT'
p3109
asbasbasbag61
(g77
g63
NtRp3110
(dp3111
g66
(dp3112
sg75
g3040
sg68
(lp3113
g61
(g82
g63
NtRp3114
(dp3115
g66
(dp3116
g86
g87
ssg75
g3110
sg68
(lp3117
S'Pragma'
p3118
asbag61
(g82
g63
NtRp3119
(dp3120
g66
(dp3121
g93
g94
ssg75
g3110
sg68
(lp3122
S':'
asbag61
(g82
g63
NtRp3123
(dp3124
g66
(dp3125
sg75
g3110
sg68
(lp3126
g61
(g62
g63
NtRp3127
(dp3128
g66
(dp3129
g74
I4
ssg75
g3123
sg68
(lp3130
S'no-cache'
p3131
asbasbasbag61
(g77
g63
NtRp3132
(dp3133
g66
(dp3134
sg75
g3040
sg68
(lp3135
g61
(g82
g63
NtRp3136
(dp3137
g66
(dp3138
g86
g87
ssg75
g3132
sg68
(lp3139
S'X-Powered-By'
p3140
asbag61
(g82
g63
NtRp3141
(dp3142
g66
(dp3143
g93
g94
ssg75
g3132
sg68
(lp3144
S':'
asbag61
(g82
g63
NtRp3145
(dp3146
g66
(dp3147
sg75
g3132
sg68
(lp3148
g61
(g62
g63
NtRp3149
(dp3150
g66
(dp3151
g74
I4
ssg75
g3145
sg68
(lp3152
S'web2py'
p3153
asbasbasbasbasbasbasbag61
(g77
g63
NtRp3154
(dp3155
g66
(dp3156
sg75
g2671
sg68
(lp3157
g61
(g82
g63
NtRp3158
(dp3159
g66
(dp3160
g86
g87
ssg75
g3154
sg68
(lp3161
S'menu'
p3162
asbag61
(g82
g63
NtRp3163
(dp3164
g66
(dp3165
g93
g94
ssg75
g3154
sg68
(lp3166
S':'
asbag61
(g82
g63
NtRp3167
(dp3168
g66
(dp3169
sg75
g3154
sg68
(lp3170
g61
(g62
g63
NtRp3171
(dp3172
g66
(dp3173
g74
I5
ssg75
g3167
sg68
(lp3174
g61
(g70
g63
NtRp3175
(dp3176
g66
(dp3177
g74
I4
ssg75
Nsg68
(lp3178
g61
(g77
g63
NtRp3179
(dp3180
g66
(dp3181
sg75
g3175
sg68
(lp3182
g61
(g82
g63
NtRp3183
(dp3184
g66
(dp3185
sg75
g3179
sg68
(lp3186
g61
(g62
g63
NtRp3187
(dp3188
g66
(dp3189
g74
I4
ssg75
g3183
sg68
(lp3190
g61
(g70
g63
NtRp3191
(dp3192
g66
(dp3193
g74
I3
ssg75
Nsg68
(lp3194
g61
(g77
g63
NtRp3195
(dp3196
g66
(dp3197
sg75
g3191
sg68
(lp3198
g61
(g82
g63
NtRp3199
(dp3200
g66
(dp3201
sg75
g3195
sg68
(lp3202
g61
(g62
g63
NtRp3203
(dp3204
g66
(dp3205
g74
I3
ssg75
g3199
sg68
(lp3206
cgluon.languages
lazyT_unpickle
p3207
(S's\x04\x00\x00\x00Home'
tRp3208
asbasbasbag61
(g77
g63
NtRp3209
(dp3210
g66
(dp3211
sg75
g3191
sg68
(lp3212
g61
(g82
g63
NtRp3213
(dp3214
g66
(dp3215
sg75
g3209
sg68
(lp3216
g61
(g62
g63
NtRp3217
(dp3218
g66
(dp3219
g74
I3
ssg75
g3213
sg68
(lp3220
g104
asbasbasbag61
(g77
g63
NtRp3221
(dp3222
g66
(dp3223
sg75
g3191
sg68
(lp3224
g61
(g82
g63
NtRp3225
(dp3226
g66
(dp3227
sg75
g3221
sg68
(lp3228
g61
(g62
g63
NtRp3229
(dp3230
g66
(dp3231
g74
I3
ssg75
g3225
sg68
(lp3232
S'/init/default/index'
p3233
asbasbasbag61
(g77
g63
NtRp3234
(dp3235
g66
(dp3236
sg75
g3191
sg68
(lp3237
g61
(g82
g63
NtRp3238
(dp3239
g66
(dp3240
sg75
g3234
sg68
(lp3241
g61
(g62
g63
NtRp3242
(dp3243
g66
(dp3244
g74
I3
ssg75
g3238
sg68
(lp3245
g61
(g70
g63
NtRp3246
(dp3247
g66
(dp3248
g74
I2
ssg75
Nsg68
(lp3249
sbasbasbasbasbasbasbasbag61
(g77
g63
NtRp3250
(dp3251
g66
(dp3252
sg75
g3175
sg68
(lp3253
g61
(g82
g63
NtRp3254
(dp3255
g66
(dp3256
sg75
g3250
sg68
(lp3257
g61
(g62
g63
NtRp3258
(dp3259
g66
(dp3260
g74
I4
ssg75
g3254
sg68
(lp3261
g61
(g70
g63
NtRp3262
(dp3263
g66
(dp3264
g74
I3
ssg75
Nsg68
(lp3265
g61
(g77
g63
NtRp3266
(dp3267
g66
(dp3268
sg75
g3262
sg68
(lp3269
g61
(g82
g63
NtRp3270
(dp3271
g66
(dp3272
sg75
g3266
sg68
(lp3273
g61
(g62
g63
NtRp3274
(dp3275
g66
(dp3276
g74
I3
ssg75
g3270
sg68
(lp3277
g61
(cgluon.html
SPAN
p3278
g63
NtRp3279
(dp3280
g66
(dp3281
g86
S'color:yellow'
p3282
ssg75
Nsg68
(lp3283
g3153
asbasbasbasbag61
(g77
g63
NtRp3284
(dp3285
g66
(dp3286
sg75
g3262
sg68
(lp3287
g61
(g82
g63
NtRp3288
(dp3289
g66
(dp3290
sg75
g3284
sg68
(lp3291
g61
(g62
g63
NtRp3292
(dp3293
g66
(dp3294
g74
I3
ssg75
g3288
sg68
(lp3295
g104
asbasbasbag61
(g77
g63
NtRp3296
(dp3297
g66
(dp3298
sg75
g3262
sg68
(lp3299
g61
(g82
g63
NtRp3300
(dp3301
g66
(dp3302
sg75
g3296
sg68
(lp3303
g61
(g62
g63
NtRp3304
(dp3305
g66
(dp3306
g74
I3
ssg75
g3300
sg68
(lp3307
S'None'
p3308
asbasbasbag61
(g77
g63
NtRp3309
(dp3310
g66
(dp3311
sg75
g3262
sg68
(lp3312
g61
(g82
g63
NtRp3313
(dp3314
g66
(dp3315
sg75
g3309
sg68
(lp3316
g61
(g62
g63
NtRp3317
(dp3318
g66
(dp3319
g74
I3
ssg75
g3313
sg68
(lp3320
g61
(g70
g63
NtRp3321
(dp3322
g66
(dp3323
g74
I2
ssg75
Nsg68
(lp3324
g61
(g77
g63
NtRp3325
(dp3326
g66
(dp3327
sg75
g3321
sg68
(lp3328
g61
(g82
g63
NtRp3329
(dp3330
g66
(dp3331
sg75
g3325
sg68
(lp3332
g61
(g62
g63
NtRp3333
(dp3334
g66
(dp3335
g74
I2
ssg75
g3329
sg68
(lp3336
g61
(g70
g63
NtRp3337
(dp3338
g66
(dp3339
g74
I1
ssg75
Nsg68
(lp3340
g61
(g77
g63
NtRp3341
(dp3342
g66
(dp3343
sg75
g3337
sg68
(lp3344
g61
(g82
g63
NtRp3345
(dp3346
g66
(dp3347
sg75
g3341
sg68
(lp3348
g61
(g62
g63
NtRp3349
(dp3350
g66
(dp3351
g74
I1
ssg75
g3345
sg68
(lp3352
g3207
(S's\x08\x00\x00\x00My Sites'
tRp3353
asbasbasbag61
(g77
g63
NtRp3354
(dp3355
g66
(dp3356
sg75
g3337
sg68
(lp3357
g61
(g82
g63
NtRp3358
(dp3359
g66
(dp3360
sg75
g3354
sg68
(lp3361
g61
(g62
g63
NtRp3362
(dp3363
g66
(dp3364
g74
I1
ssg75
g3358
sg68
(lp3365
I00
asbasbasbag61
(g77
g63
NtRp3366
(dp3367
g66
(dp3368
sg75
g3337
sg68
(lp3369
g61
(g82
g63
NtRp3370
(dp3371
g66
(dp3372
sg75
g3366
sg68
(lp3373
g61
(g62
g63
NtRp3374
(dp3375
g66
(dp3376
g74
I1
ssg75
g3370
sg68
(lp3377
S'/admin/default/site'
p3378
asbasbasbasbasbasbasbag61
(g77
g63
NtRp3379
(dp3380
g66
(dp3381
sg75
g3321
sg68
(lp3382
g61
(g82
g63
NtRp3383
(dp3384
g66
(dp3385
sg75
g3379
sg68
(lp3386
g61
(g62
g63
NtRp3387
(dp3388
g66
(dp3389
g74
I2
ssg75
g3383
sg68
(lp3390
g61
(g70
g63
NtRp3391
(dp3392
g66
(dp3393
g74
I1
ssg75
Nsg68
(lp3394
g61
(g77
g63
NtRp3395
(dp3396
g66
(dp3397
sg75
g3391
sg68
(lp3398
g61
(g82
g63
NtRp3399
(dp3400
g66
(dp3401
sg75
g3395
sg68
(lp3402
g61
(g62
g63
NtRp3403
(dp3404
g66
(dp3405
g74
I1
ssg75
g3399
sg68
(lp3406
g3207
(S's\x08\x00\x00\x00This App'
tRp3407
asbasbasbag61
(g77
g63
NtRp3408
(dp3409
g66
(dp3410
sg75
g3391
sg68
(lp3411
g61
(g82
g63
NtRp3412
(dp3413
g66
(dp3414
sg75
g3408
sg68
(lp3415
g61
(g62
g63
NtRp3416
(dp3417
g66
(dp3418
g74
I1
ssg75
g3412
sg68
(lp3419
I00
asbasbasbag61
(g77
g63
NtRp3420
(dp3421
g66
(dp3422
sg75
g3391
sg68
(lp3423
g61
(g82
g63
NtRp3424
(dp3425
g66
(dp3426
sg75
g3420
sg68
(lp3427
g61
(g62
g63
NtRp3428
(dp3429
g66
(dp3430
g74
I1
ssg75
g3424
sg68
(lp3431
S'/admin/default/design/init'
p3432
asbasbasbag61
(g77
g63
NtRp3433
(dp3434
g66
(dp3435
sg75
g3391
sg68
(lp3436
g61
(g82
g63
NtRp3437
(dp3438
g66
(dp3439
sg75
g3433
sg68
(lp3440
g61
(g62
g63
NtRp3441
(dp3442
g66
(dp3443
g74
I1
ssg75
g3437
sg68
(lp3444
(lp3445
(g3207
(S's\n\x00\x00\x00Controller'
tRp3446
I00
S'/admin/default/edit/init/controllers/default.py'
tp3447
a(g3207
(S's\x04\x00\x00\x00View'
tRp3448
I00
S'/admin/default/edit/init/views/default/index.html'
tp3449
a(g3207
(S's\x06\x00\x00\x00Layout'
tRp3450
I00
S'/admin/default/edit/init/views/layout.html'
tp3451
a(g3207
(S's\n\x00\x00\x00Stylesheet'
tRp3452
I00
S'/admin/default/edit/init/static/css/web2py.css'
tp3453
a(g3207
(S's\x08\x00\x00\x00DB Model'
tRp3454
I00
S'/admin/default/edit/init/models/db.py'
tp3455
a(g3207
(S's\n\x00\x00\x00Menu Model'
tRp3456
I00
S'/admin/default/edit/init/models/menu.py'
tp3457
a(g3207
(S's\x08\x00\x00\x00Database'
tRp3458
I00
S'/init/appadmin/index'
tp3459
a(g3207
(S's\x06\x00\x00\x00Errors'
tRp3460
I00
S'/admin/default/errors/init'
tp3461
a(g3207
(S's\x05\x00\x00\x00About'
tRp3462
I00
S'/admin/default/about/init'
tp3463
aasbasbasbasbasbasbasbag61
(g77
g63
NtRp3464
(dp3465
g66
(dp3466
sg75
g3321
sg68
(lp3467
g61
(g82
g63
NtRp3468
(dp3469
g66
(dp3470
sg75
g3464
sg68
(lp3471
g61
(g62
g63
NtRp3472
(dp3473
g66
(dp3474
g74
I2
ssg75
g3468
sg68
(lp3475
g61
(g70
g63
NtRp3476
(dp3477
g66
(dp3478
g74
I1
ssg75
Nsg68
(lp3479
g61
(g77
g63
NtRp3480
(dp3481
g66
(dp3482
sg75
g3476
sg68
(lp3483
g61
(g82
g63
NtRp3484
(dp3485
g66
(dp3486
sg75
g3480
sg68
(lp3487
g61
(g62
g63
NtRp3488
(dp3489
g66
(dp3490
g74
I1
ssg75
g3484
sg68
(lp3491
S'web2py.com'
p3492
asbasbasbag61
(g77
g63
NtRp3493
(dp3494
g66
(dp3495
sg75
g3476
sg68
(lp3496
g61
(g82
g63
NtRp3497
(dp3498
g66
(dp3499
sg75
g3493
sg68
(lp3500
g61
(g62
g63
NtRp3501
(dp3502
g66
(dp3503
g74
I1
ssg75
g3497
sg68
(lp3504
I00
asbasbasbag61
(g77
g63
NtRp3505
(dp3506
g66
(dp3507
sg75
g3476
sg68
(lp3508
g61
(g82
g63
NtRp3509
(dp3510
g66
(dp3511
sg75
g3505
sg68
(lp3512
g61
(g62
g63
NtRp3513
(dp3514
g66
(dp3515
g74
I1
ssg75
g3509
sg68
(lp3516
S'http://www.web2py.com'
p3517
asbasbasbag61
(g77
g63
NtRp3518
(dp3519
g66
(dp3520
sg75
g3476
sg68
(lp3521
g61
(g82
g63
NtRp3522
(dp3523
g66
(dp3524
sg75
g3518
sg68
(lp3525
g61
(g62
g63
NtRp3526
(dp3527
g66
(dp3528
g74
I1
ssg75
g3522
sg68
(lp3529
(lp3530
(g3207
(S's\x08\x00\x00\x00Download'
tRp3531
I00
S'http://www.web2py.com/examples/default/download'
p3532
tp3533
a(g3207
(S's\x07\x00\x00\x00Support'
tRp3534
I00
S'http://www.web2py.com/examples/default/support'
p3535
tp3536
a(g3207
(S's\x04\x00\x00\x00Demo'
tRp3537
I00
S'http://web2py.com/demo_admin'
p3538
tp3539
a(g3207
(S's\x0e\x00\x00\x00Quick Examples'
tRp3540
I00
S'http://web2py.com/examples/default/examples'
p3541
tp3542
a(g3207
(S's\x03\x00\x00\x00FAQ'
tRp3543
I00
S'http://web2py.com/AlterEgo'
p3544
tp3545
a(g3207
(S's\x06\x00\x00\x00Videos'
tRp3546
I00
S'http://www.web2py.com/examples/default/videos/'
p3547
tp3548
a(g3207
(S's\x11\x00\x00\x00Free Applications'
tRp3549
I00
S'http://web2py.com/appliances'
p3550
tp3551
a(g3207
(S's\x07\x00\x00\x00Plugins'
tRp3552
I00
S'http://web2py.com/plugins'
p3553
tp3554
a(g3207
(S's\x07\x00\x00\x00Layouts'
tRp3555
I00
S'http://web2py.com/layouts'
p3556
tp3557
a(g3207
(S's\x07\x00\x00\x00Recipes'
tRp3558
I00
S'http://web2pyslices.com/'
p3559
tp3560
a(g3207
(S's\x08\x00\x00\x00Semantic'
tRp3561
I00
S'http://web2py.com/semantic'
p3562
tp3563
aasbasbasbasbasbasbasbag61
(g77
g63
NtRp3564
(dp3565
g66
(dp3566
sg75
g3321
sg68
(lp3567
g61
(g82
g63
NtRp3568
(dp3569
g66
(dp3570
sg75
g3564
sg68
(lp3571
g61
(g62
g63
NtRp3572
(dp3573
g66
(dp3574
g74
I2
ssg75
g3568
sg68
(lp3575
g61
(g70
g63
NtRp3576
(dp3577
g66
(dp3578
g74
I1
ssg75
Nsg68
(lp3579
g61
(g77
g63
NtRp3580
(dp3581
g66
(dp3582
sg75
g3576
sg68
(lp3583
g61
(g82
g63
NtRp3584
(dp3585
g66
(dp3586
sg75
g3580
sg68
(lp3587
g61
(g62
g63
NtRp3588
(dp3589
g66
(dp3590
g74
I1
ssg75
g3584
sg68
(lp3591
g3207
(S's\r\x00\x00\x00Documentation'
tRp3592
asbasbasbag61
(g77
g63
NtRp3593
(dp3594
g66
(dp3595
sg75
g3576
sg68
(lp3596
g61
(g82
g63
NtRp3597
(dp3598
g66
(dp3599
sg75
g3593
sg68
(lp3600
g61
(g62
g63
NtRp3601
(dp3602
g66
(dp3603
g74
I1
ssg75
g3597
sg68
(lp3604
I00
asbasbasbag61
(g77
g63
NtRp3605
(dp3606
g66
(dp3607
sg75
g3576
sg68
(lp3608
g61
(g82
g63
NtRp3609
(dp3610
g66
(dp3611
sg75
g3605
sg68
(lp3612
g61
(g62
g63
NtRp3613
(dp3614
g66
(dp3615
g74
I1
ssg75
g3609
sg68
(lp3616
S'http://www.web2py.com/book'
p3617
asbasbasbag61
(g77
g63
NtRp3618
(dp3619
g66
(dp3620
sg75
g3576
sg68
(lp3621
g61
(g82
g63
NtRp3622
(dp3623
g66
(dp3624
sg75
g3618
sg68
(lp3625
g61
(g62
g63
NtRp3626
(dp3627
g66
(dp3628
g74
I1
ssg75
g3622
sg68
(lp3629
(lp3630
(g3207
(S's\x07\x00\x00\x00Preface'
tRp3631
I00
S'http://www.web2py.com/book/default/chapter/00'
p3632
tp3633
a(g3207
(S's\x0c\x00\x00\x00Introduction'
tRp3634
I00
S'http://www.web2py.com/book/default/chapter/01'
p3635
tp3636
a(g3207
(S's\x06\x00\x00\x00Python'
tRp3637
I00
S'http://www.web2py.com/book/default/chapter/02'
p3638
tp3639
a(g3207
(S's\x08\x00\x00\x00Overview'
tRp3640
I00
S'http://www.web2py.com/book/default/chapter/03'
p3641
tp3642
a(g3207
(S's\x08\x00\x00\x00The Core'
tRp3643
I00
S'http://www.web2py.com/book/default/chapter/04'
p3644
tp3645
a(g3207
(S's\t\x00\x00\x00The Views'
tRp3646
I00
S'http://www.web2py.com/book/default/chapter/05'
p3647
tp3648
a(g3207
(S's\x08\x00\x00\x00Database'
tRp3649
I00
S'http://www.web2py.com/book/default/chapter/06'
p3650
tp3651
a(g3207
(S's\x14\x00\x00\x00Forms and Validators'
tRp3652
I00
S'http://www.web2py.com/book/default/chapter/07'
p3653
tp3654
a(g3207
(S's\r\x00\x00\x00Email and SMS'
tRp3655
I00
S'http://www.web2py.com/book/default/chapter/08'
p3656
tp3657
a(g3207
(S's\x0e\x00\x00\x00Access Control'
tRp3658
I00
S'http://www.web2py.com/book/default/chapter/09'
p3659
tp3660
a(g3207
(S's\x08\x00\x00\x00Services'
tRp3661
I00
S'http://www.web2py.com/book/default/chapter/10'
p3662
tp3663
a(g3207
(S's\x0c\x00\x00\x00Ajax Recipes'
tRp3664
I00
S'http://www.web2py.com/book/default/chapter/11'
p3665
tp3666
a(g3207
(S's\x16\x00\x00\x00Components and Plugins'
tRp3667
I00
S'http://www.web2py.com/book/default/chapter/12'
p3668
tp3669
a(g3207
(S's\x12\x00\x00\x00Deployment Recipes'
tRp3670
I00
S'http://www.web2py.com/book/default/chapter/13'
p3671
tp3672
a(g3207
(S's\r\x00\x00\x00Other Recipes'
tRp3673
I00
S'http://www.web2py.com/book/default/chapter/14'
p3674
tp3675
a(g3207
(S's\r\x00\x00\x00Buy this book'
tRp3676
I00
S'http://stores.lulu.com/web2py'
p3677
tp3678
aasbasbasbasbasbasbasbag61
(g77
g63
NtRp3679
(dp3680
g66
(dp3681
sg75
g3321
sg68
(lp3682
g61
(g82
g63
NtRp3683
(dp3684
g66
(dp3685
sg75
g3679
sg68
(lp3686
g61
(g62
g63
NtRp3687
(dp3688
g66
(dp3689
g74
I2
ssg75
g3683
sg68
(lp3690
g61
(g70
g63
NtRp3691
(dp3692
g66
(dp3693
g74
I1
ssg75
Nsg68
(lp3694
g61
(g77
g63
NtRp3695
(dp3696
g66
(dp3697
sg75
g3691
sg68
(lp3698
g61
(g82
g63
NtRp3699
(dp3700
g66
(dp3701
sg75
g3695
sg68
(lp3702
g61
(g62
g63
NtRp3703
(dp3704
g66
(dp3705
g74
I1
ssg75
g3699
sg68
(lp3706
g3207
(S's\t\x00\x00\x00Community'
tRp3707
asbasbasbag61
(g77
g63
NtRp3708
(dp3709
g66
(dp3710
sg75
g3691
sg68
(lp3711
g61
(g82
g63
NtRp3712
(dp3713
g66
(dp3714
sg75
g3708
sg68
(lp3715
g61
(g62
g63
NtRp3716
(dp3717
g66
(dp3718
g74
I1
ssg75
g3712
sg68
(lp3719
I00
asbasbasbag61
(g77
g63
NtRp3720
(dp3721
g66
(dp3722
sg75
g3691
sg68
(lp3723
g61
(g82
g63
NtRp3724
(dp3725
g66
(dp3726
sg75
g3720
sg68
(lp3727
g61
(g62
g63
NtRp3728
(dp3729
g66
(dp3730
g74
I1
ssg75
g3724
sg68
(lp3731
Nasbasbasbag61
(g77
g63
NtRp3732
(dp3733
g66
(dp3734
sg75
g3691
sg68
(lp3735
g61
(g82
g63
NtRp3736
(dp3737
g66
(dp3738
sg75
g3732
sg68
(lp3739
g61
(g62
g63
NtRp3740
(dp3741
g66
(dp3742
g74
I1
ssg75
g3736
sg68
(lp3743
(lp3744
(g3207
(S's\x06\x00\x00\x00Groups'
tRp3745
I00
S'http://www.web2py.com/examples/default/usergroups'
p3746
tp3747
a(g3207
(S's\x07\x00\x00\x00Twitter'
tRp3748
I00
S'http://twitter.com/web2py'
p3749
tp3750
a(g3207
(S's\t\x00\x00\x00Live Chat'
tRp3751
I00
S'http://webchat.freenode.net/?channels=web2py'
p3752
tp3753
aasbasbasbasbasbasbasbag61
(g77
g63
NtRp3754
(dp3755
g66
(dp3756
sg75
g3321
sg68
(lp3757
g61
(g82
g63
NtRp3758
(dp3759
g66
(dp3760
sg75
g3754
sg68
(lp3761
g61
(g62
g63
NtRp3762
(dp3763
g66
(dp3764
g74
I2
ssg75
g3758
sg68
(lp3765
g61
(g70
g63
NtRp3766
(dp3767
g66
(dp3768
g74
I1
ssg75
Nsg68
(lp3769
g61
(g77
g63
NtRp3770
(dp3771
g66
(dp3772
sg75
g3766
sg68
(lp3773
g61
(g82
g63
NtRp3774
(dp3775
g66
(dp3776
sg75
g3770
sg68
(lp3777
g61
(g62
g63
NtRp3778
(dp3779
g66
(dp3780
g74
I1
ssg75
g3774
sg68
(lp3781
g3207
(S's\x07\x00\x00\x00Plugins'
tRp3782
asbasbasbag61
(g77
g63
NtRp3783
(dp3784
g66
(dp3785
sg75
g3766
sg68
(lp3786
g61
(g82
g63
NtRp3787
(dp3788
g66
(dp3789
sg75
g3783
sg68
(lp3790
g61
(g62
g63
NtRp3791
(dp3792
g66
(dp3793
g74
I1
ssg75
g3787
sg68
(lp3794
I00
asbasbasbag61
(g77
g63
NtRp3795
(dp3796
g66
(dp3797
sg75
g3766
sg68
(lp3798
g61
(g82
g63
NtRp3799
(dp3800
g66
(dp3801
sg75
g3795
sg68
(lp3802
g61
(g62
g63
NtRp3803
(dp3804
g66
(dp3805
g74
I1
ssg75
g3799
sg68
(lp3806
Nasbasbasbag61
(g77
g63
NtRp3807
(dp3808
g66
(dp3809
sg75
g3766
sg68
(lp3810
g61
(g82
g63
NtRp3811
(dp3812
g66
(dp3813
sg75
g3807
sg68
(lp3814
g61
(g62
g63
NtRp3815
(dp3816
g66
(dp3817
g74
I1
ssg75
g3811
sg68
(lp3818
(lp3819
(S'plugin_wiki'
p3820
I00
S'http://web2py.com/examples/default/download'
p3821
tp3822
a(g3207
(S's\r\x00\x00\x00Other Plugins'
tRp3823
I00
g3553
tp3824
a(g3207
(S's\x0e\x00\x00\x00Layout Plugins'
tRp3825
I00
g3556
tp3826
aasbasbasbasbasbasbasbasbasbasbasbasbasbasbasbasbasbasbasbag61
(g77
g63
NtRp3827
(dp3828
g66
(dp3829
sg75
g2671
sg68
(lp3830
g61
(g82
g63
NtRp3831
(dp3832
g66
(dp3833
g86
g87
ssg75
g3827
sg68
(lp3834
S'meta'
p3835
asbag61
(g82
g63
NtRp3836
(dp3837
g66
(dp3838
g93
g94
ssg75
g3827
sg68
(lp3839
S':'
asbag61
(g82
g63
NtRp3840
(dp3841
g66
(dp3842
sg75
g3827
sg68
(lp3843
g61
(g62
g63
NtRp3844
(dp3845
g66
(dp3846
g74
I5
ssg75
g3840
sg68
(lp3847
g61
(g70
g63
NtRp3848
(dp3849
g66
(dp3850
g74
I4
ssg75
Nsg68
(lp3851
g61
(g77
g63
NtRp3852
(dp3853
g66
(dp3854
sg75
g3848
sg68
(lp3855
g61
(g82
g63
NtRp3856
(dp3857
g66
(dp3858
g86
g87
ssg75
g3852
sg68
(lp3859
S'author'
p3860
asbag61
(g82
g63
NtRp3861
(dp3862
g66
(dp3863
g93
g94
ssg75
g3852
sg68
(lp3864
S':'
asbag61
(g82
g63
NtRp3865
(dp3866
g66
(dp3867
sg75
g3852
sg68
(lp3868
g61
(g62
g63
NtRp3869
(dp3870
g66
(dp3871
g74
I4
ssg75
g3865
sg68
(lp3872
S'Your Name <you@example.com>'
p3873
asbasbasbag61
(g77
g63
NtRp3874
(dp3875
g66
(dp3876
sg75
g3848
sg68
(lp3877
g61
(g82
g63
NtRp3878
(dp3879
g66
(dp3880
g86
g87
ssg75
g3874
sg68
(lp3881
S'copyright'
p3882
asbag61
(g82
g63
NtRp3883
(dp3884
g66
(dp3885
g93
g94
ssg75
g3874
sg68
(lp3886
S':'
asbag61
(g82
g63
NtRp3887
(dp3888
g66
(dp3889
sg75
g3874
sg68
(lp3890
g61
(g62
g63
NtRp3891
(dp3892
g66
(dp3893
g74
I4
ssg75
g3887
sg68
(lp3894
S'Copyright 2011'
p3895
asbasbasbag61
(g77
g63
NtRp3896
(dp3897
g66
(dp3898
sg75
g3848
sg68
(lp3899
g61
(g82
g63
NtRp3900
(dp3901
g66
(dp3902
g86
g87
ssg75
g3896
sg68
(lp3903
S'description'
p3904
asbag61
(g82
g63
NtRp3905
(dp3906
g66
(dp3907
g93
g94
ssg75
g3896
sg68
(lp3908
S':'
asbag61
(g82
g63
NtRp3909
(dp3910
g66
(dp3911
sg75
g3896
sg68
(lp3912
g61
(g62
g63
NtRp3913
(dp3914
g66
(dp3915
g74
I4
ssg75
g3909
sg68
(lp3916
S'a cool new app'
p3917
asbasbasbag61
(g77
g63
NtRp3918
(dp3919
g66
(dp3920
sg75
g3848
sg68
(lp3921
g61
(g82
g63
NtRp3922
(dp3923
g66
(dp3924
g86
g87
ssg75
g3918
sg68
(lp3925
S'generator'
p3926
asbag61
(g82
g63
NtRp3927
(dp3928
g66
(dp3929
g93
g94
ssg75
g3918
sg68
(lp3930
S':'
asbag61
(g82
g63
NtRp3931
(dp3932
g66
(dp3933
sg75
g3918
sg68
(lp3934
g61
(g62
g63
NtRp3935
(dp3936
g66
(dp3937
g74
I4
ssg75
g3931
sg68
(lp3938
S'Web2py Web Framework'
p3939
asbasbasbag61
(g77
g63
NtRp3940
(dp3941
g66
(dp3942
sg75
g3848
sg68
(lp3943
g61
(g82
g63
NtRp3944
(dp3945
g66
(dp3946
g86
g87
ssg75
g3940
sg68
(lp3947
S'keywords'
p3948
asbag61
(g82
g63
NtRp3949
(dp3950
g66
(dp3951
g93
g94
ssg75
g3940
sg68
(lp3952
S':'
asbag61
(g82
g63
NtRp3953
(dp3954
g66
(dp3955
sg75
g3940
sg68
(lp3956
g61
(g62
g63
NtRp3957
(dp3958
g66
(dp3959
g74
I4
ssg75
g3953
sg68
(lp3960
S'web2py, python, framework'
p3961
asbasbasbasbasbasbasbag61
(g77
g63
NtRp3962
(dp3963
g66
(dp3964
sg75
g2671
sg68
(lp3965
g61
(g82
g63
NtRp3966
(dp3967
g66
(dp3968
g86
g87
ssg75
g3962
sg68
(lp3969
S'postprocessing'
p3970
asbag61
(g82
g63
NtRp3971
(dp3972
g66
(dp3973
g93
g94
ssg75
g3962
sg68
(lp3974
S':'
asbag61
(g82
g63
NtRp3975
(dp3976
g66
(dp3977
sg75
g3962
sg68
(lp3978
g61
(g62
g63
NtRp3979
(dp3980
g66
(dp3981
g74
I5
ssg75
g3975
sg68
(lp3982
g61
(g70
g63
NtRp3983
(dp3984
g66
(dp3985
g74
I4
ssg75
Nsg68
(lp3986
sbasbasbasbag61
(g77
g63
NtRp3987
(dp3988
g66
(dp3989
sg75
g2671
sg68
(lp3990
g61
(g82
g63
NtRp3991
(dp3992
g66
(dp3993
g86
g87
ssg75
g3987
sg68
(lp3994
S'session_db'
p3995
asbag61
(g82
g63
NtRp3996
(dp3997
g66
(dp3998
g93
g94
ssg75
g3987
sg68
(lp3999
S':'
asbag61
(g82
g63
NtRp4000
(dp4001
g66
(dp4002
sg75
g3987
sg68
(lp4003
g61
(g62
g63
NtRp4004
(dp4005
g66
(dp4006
g74
I5
ssg75
g4000
sg68
(lp4007
g573
asbasbasbag61
(g77
g63
NtRp4008
(dp4009
g66
(dp4010
sg75
g2671
sg68
(lp4011
g61
(g82
g63
NtRp4012
(dp4013
g66
(dp4014
g86
g87
ssg75
g4008
sg68
(lp4015
S'session_id'
p4016
asbag61
(g82
g63
NtRp4017
(dp4018
g66
(dp4019
g93
g94
ssg75
g4008
sg68
(lp4020
S':'
asbag61
(g82
g63
NtRp4021
(dp4022
g66
(dp4023
sg75
g4008
sg68
(lp4024
g61
(g62
g63
NtRp4025
(dp4026
g66
(dp4027
g74
I5
ssg75
g4021
sg68
(lp4028
S'None:94b786bb-a85f-4561-95fa-0902d746d505'
p4029
asbasbasbag61
(g77
g63
NtRp4030
(dp4031
g66
(dp4032
sg75
g2671
sg68
(lp4033
g61
(g82
g63
NtRp4034
(dp4035
g66
(dp4036
g86
g87
ssg75
g4030
sg68
(lp4037
S'session_id_name'
p4038
asbag61
(g82
g63
NtRp4039
(dp4040
g66
(dp4041
g93
g94
ssg75
g4030
sg68
(lp4042
S':'
asbag61
(g82
g63
NtRp4043
(dp4044
g66
(dp4045
sg75
g4030
sg68
(lp4046
g61
(g62
g63
NtRp4047
(dp4048
g66
(dp4049
g74
I5
ssg75
g4043
sg68
(lp4050
S'session_id_init'
p4051
asbasbasbag61
(g77
g63
NtRp4052
(dp4053
g66
(dp4054
sg75
g2671
sg68
(lp4055
g61
(g82
g63
NtRp4056
(dp4057
g66
(dp4058
g86
g87
ssg75
g4052
sg68
(lp4059
S'status'
p4060
asbag61
(g82
g63
NtRp4061
(dp4062
g66
(dp4063
g93
g94
ssg75
g4052
sg68
(lp4064
S':'
asbag61
(g82
g63
NtRp4065
(dp4066
g66
(dp4067
sg75
g4052
sg68
(lp4068
g61
(g62
g63
NtRp4069
(dp4070
g66
(dp4071
g74
I5
ssg75
g4065
sg68
(lp4072
S'200'
p4073
asbasbasbag61
(g77
g63
NtRp4074
(dp4075
g66
(dp4076
sg75
g2671
sg68
(lp4077
g61
(g82
g63
NtRp4078
(dp4079
g66
(dp4080
g86
g87
ssg75
g4074
sg68
(lp4081
S'subtitle'
p4082
asbag61
(g82
g63
NtRp4083
(dp4084
g66
(dp4085
g93
g94
ssg75
g4074
sg68
(lp4086
S':'
asbag61
(g82
g63
NtRp4087
(dp4088
g66
(dp4089
sg75
g4074
sg68
(lp4090
g61
(g62
g63
NtRp4091
(dp4092
g66
(dp4093
g74
I5
ssg75
g4087
sg68
(lp4094
g3207
(S's\r\x00\x00\x00customize me!'
tRp4095
asbasbasbag61
(g77
g63
NtRp4096
(dp4097
g66
(dp4098
sg75
g2671
sg68
(lp4099
g61
(g82
g63
NtRp4100
(dp4101
g66
(dp4102
g86
g87
ssg75
g4096
sg68
(lp4103
S'title'
p4104
asbag61
(g82
g63
NtRp4105
(dp4106
g66
(dp4107
g93
g94
ssg75
g4096
sg68
(lp4108
S':'
asbag61
(g82
g63
NtRp4109
(dp4110
g66
(dp4111
sg75
g4096
sg68
(lp4112
g61
(g62
g63
NtRp4113
(dp4114
g66
(dp4115
g74
I5
ssg75
g4109
sg68
(lp4116
S'Init'
p4117
asbasbasbag61
(g77
g63
NtRp4118
(dp4119
g66
(dp4120
sg75
g2671
sg68
(lp4121
g61
(g82
g63
NtRp4122
(dp4123
g66
(dp4124
g86
g87
ssg75
g4118
sg68
(lp4125
g1954
asbag61
(g82
g63
NtRp4126
(dp4127
g66
(dp4128
g93
g94
ssg75
g4118
sg68
(lp4129
S':'
asbag61
(g82
g63
NtRp4130
(dp4131
g66
(dp4132
sg75
g4118
sg68
(lp4133
g61
(g62
g63
NtRp4134
(dp4135
g66
(dp4136
g74
I5
ssg75
g4130
sg68
(lp4137
g1967
asbasbasbag61
(g77
g63
NtRp4138
(dp4139
g66
(dp4140
sg75
g2671
sg68
(lp4141
g61
(g82
g63
NtRp4142
(dp4143
g66
(dp4144
g86
g87
ssg75
g4138
sg68
(lp4145
S'view'
p4146
asbag61
(g82
g63
NtRp4147
(dp4148
g66
(dp4149
g93
g94
ssg75
g4138
sg68
(lp4150
S':'
asbag61
(g82
g63
NtRp4151
(dp4152
g66
(dp4153
sg75
g4138
sg68
(lp4154
g61
(g62
g63
NtRp4155
(dp4156
g66
(dp4157
g74
I5
ssg75
g4151
sg68
(lp4158
S'default/index.html'
p4159
asbasbasbasbasbsS'locals'
p4160
(dp4161
g4
S"r'C:\\Users\\Bussiere\\Dropbox\\Projets\\jackpoint\\web2py\\applications\\init\\controllers/default.py'"
p4162
sg6
S"'# -*- coding: utf-8 -*-\\n# this file is released ...=crud())\\n\\nresponse._vars=response._caller(index)\\n'"
p4163
sssS'traceback'
p4164
S'Traceback (most recent call last):\n  File "gluon/restricted.py", line 204, in restricted\n  File "gluon/restricted.py", line 189, in compile2\n  File "C:\\Users\\Bussiere\\Dropbox\\Projets\\jackpoint\\web2py\\applications\\init\\controllers/default.py", line 270\n    user = __ensure_first_user("john","doe",form.vars.email,form.vars.invitation)\xe2\x80\x8b\n                                                                                 ^\nSyntaxError: invalid syntax\n'
p4165
s.