(dp1
S'output'
p2
S"<type 'exceptions.NameError'> global name 'skills' is not defined"
p3
sS'layer'
p4
S'C:\\Users\\Bussiere\\Dropbox\\Projets\\jackpoint\\web2py\\applications\\init\\controllers/default.py'
p5
sS'code'
p6
S'\xef\xbb\xbf# -*- coding: utf-8 -*-\n# this file is released under public domain and you can use without limitations\n\n#########################################################################\n## This is a samples controller\n## - index is the default action of any application\n## - user is required for authentication and authorization\n## - download is for downloading files uploaded in the db (does streaming)\n## - call exposes all registered services (none by default)\n#########################################################################\n# Static analyzer import helpers: (STATIC_IMPORT_MARK)\nif 0: \n    import gluon\n    global cache; cache = gluon.cache.Cache()\n    global LOAD; LOAD  = gluon.compileapp.LoadFactory()\n    import gluon.compileapp.local_import_aux as local_import #@UnusedImport\n    from gluon.contrib.gql import GQLDB #@UnusedImport\n    from gluon.dal import Field #@UnusedImport\n    global request; request = gluon.globals.Request()\n    global response; response = gluon.globals.Response()\n    global session; session = gluon.globals.Session()\n    from gluon.html import A #@UnusedImport\n    from gluon.html import B #@UnusedImport\n    from gluon.html import BEAUTIFY #@UnusedImport\n    from gluon.html import BODY #@UnusedImport\n    from gluon.html import BR #@UnusedImport\n    from gluon.html import CENTER #@UnusedImport\n    from gluon.html import CODE #@UnusedImport\n    from gluon.html import DIV #@UnusedImport\n    from gluon.html import EM #@UnusedImport\n    from gluon.html import EMBED #@UnusedImport\n    from gluon.html import embed64 #@UnusedImport\n    from gluon.html import FIELDSET #@UnusedImport\n    from gluon.html import FORM #@UnusedImport\n    from gluon.html import H1 #@UnusedImport\n    from gluon.html import H2 #@UnusedImport\n    from gluon.html import H3 #@UnusedImport\n    from gluon.html import H4 #@UnusedImport\n    from gluon.html import H5 #@UnusedImport\n    from gluon.html import H6 #@UnusedImport\n    from gluon.html import HEAD #@UnusedImport\n    from gluon.html import HR #@UnusedImport\n    from gluon.html import HTML #@UnusedImport\n    from gluon.html import I #@UnusedImport\n    from gluon.html import IFRAME #@UnusedImport\n    from gluon.html import IMG #@UnusedImport\n    from gluon.html import INPUT #@UnusedImport\n    from gluon.html import LABEL #@UnusedImport\n    from gluon.html import LEGEND #@UnusedImport\n    from gluon.html import LI #@UnusedImport\n    from gluon.html import LINK #@UnusedImport\n    from gluon.html import MARKMIN #@UnusedImport\n    from gluon.html import MENU #@UnusedImport\n    from gluon.html import META #@UnusedImport\n    from gluon.html import OBJECT #@UnusedImport\n    from gluon.html import OL #@UnusedImport\n    from gluon.html import ON #@UnusedImport\n    from gluon.html import OPTGROUP #@UnusedImport\n    from gluon.html import OPTION #@UnusedImport\n    from gluon.html import P #@UnusedImport\n    from gluon.html import PRE #@UnusedImport\n    from gluon.html import STYLE #@UnusedImport\n    from gluon.html import SCRIPT #@UnusedImport\n    from gluon.html import SELECT #@UnusedImport\n    from gluon.html import SPAN #@UnusedImport\n    from gluon.html import TABLE #@UnusedImport\n    from gluon.html import TAG #@UnusedImport\n    from gluon.html import TBODY #@UnusedImport\n    from gluon.html import TD #@UnusedImport\n    from gluon.html import TEXTAREA #@UnusedImport\n    from gluon.html import TFOOT #@UnusedImport\n    from gluon.html import TH  #@UnusedImport\n    from gluon.html import THEAD #@UnusedImport\n    from gluon.html import TITLE #@UnusedImport\n    from gluon.html import TR #@UnusedImport\n    from gluon.html import TT #@UnusedImport\n    from gluon.html import UL #@UnusedImport\n    from gluon.html import URL #@UnusedImport\n    from gluon.html import XHTML #@UnusedImport\n    from gluon.html import XML #@UnusedImport\n    from gluon.html import xmlescape #@UnusedImport\n    from gluon.http import HTTP #@UnusedImport\n    from gluon.http import redirect #@UnusedImport\n    import gluon.languages.translator as T #@UnusedImport\n    from gluon.sql import DAL\n    global db; db = DAL()\n    from gluon.sql import SQLDB #@UnusedImport\n    from gluon.sql import SQLField #@UnusedImport\n    from gluon.sqlhtml import SQLFORM #@UnusedImport\n    from gluon.sqlhtml import SQLTABLE #@UnusedImport\n    from gluon.tools import  Auth\n    global auth; auth = Auth()\n    from gluon.tools import Crud\n    global crud; crud = Crud()\n    from gluon.tools import fetch #@UnusedImport\n    from gluon.tools import geocode #@UnusedImport\n    from gluon.tools import Mail\n    global mail; mail = Mail()\n    from gluon.tools import PluginManager\n    global plugins; plugins = PluginManager()\n    from gluon.tools import prettydate #@UnusedImport\n    from gluon.tools import Recaptcha #@UnusedImport\n    from gluon.tools import Service\n    global service; service = Service()\n    from gluon.validators import CLEANUP  #@UnusedImport\n    from gluon.validators import CRYPT #@UnusedImport\n    from gluon.validators import IS_ALPHANUMERIC #@UnusedImport\n    from gluon.validators import IS_DATE #@UnusedImport\n    from gluon.validators import IS_DATE_IN_RANGE #@UnusedImport\n    from gluon.validators import IS_DATETIME #@UnusedImport\n    from gluon.validators import IS_DATETIME_IN_RANGE #@UnusedImport\n    from gluon.validators import IS_DECIMAL_IN_RANGE #@UnusedImport\n    from gluon.validators import IS_EMAIL #@UnusedImport\n    from gluon.validators import IS_EMPTY_OR #@UnusedImport\n    from gluon.validators import IS_EQUAL_TO #@UnusedImport\n    from gluon.validators import IS_EXPR #@UnusedImport\n    from gluon.validators import IS_FLOAT_IN_RANGE #@UnusedImport\n    from gluon.validators import IS_IMAGE #@UnusedImport\n    from gluon.validators import IS_IN_DB #@UnusedImport\n    from gluon.validators import IS_IN_SET #@UnusedImport\n    from gluon.validators import IS_INT_IN_RANGE #@UnusedImport\n    from gluon.validators import IS_IPV4 #@UnusedImport\n    from gluon.validators import IS_LENGTH #@UnusedImport\n    from gluon.validators import IS_LIST_OF #@UnusedImport\n    from gluon.validators import IS_LOWER #@UnusedImport\n    from gluon.validators import IS_MATCH #@UnusedImport\n    from gluon.validators import IS_NOT_EMPTY #@UnusedImport\n    from gluon.validators import IS_NOT_IN_DB #@UnusedImport\n    from gluon.validators import IS_NULL_OR #@UnusedImport\n    from gluon.validators import IS_SLUG #@UnusedImport\n    from gluon.validators import IS_STRONG  #@UnusedImport\n    from gluon.validators import IS_TIME #@UnusedImport\n    from gluon.validators import IS_UPLOAD_FILENAME #@UnusedImport\n    from gluon.validators import IS_UPPER #@UnusedImpor\n\n\nimport random\nfrom uuid import uuid4\nfrom gluon.storage import Storage\nsettings = Storage()\n\n\ndef logout():\n    return auth.logout()\n\n\ndef index():\n    if auth.is_logged_in() :\n        return "You get the blue pills"\n    else :\n        return dict(form=auth.login(),faq=URL(\'faq\'))\n\n\n\ndef ensurefirstuser(Surnom, email, password):\n  users = db(db.auth_user.email == email).select()\n  if users:\n    user_id = users[0].id\n    created = False\n    print (\'found user_id so created equals %s\') % created\n    if settings.debug_ensure_first_user == True:\n      print (\'found user_id so created equals %s\') % created\n    return (user_id, created)\n\n  else:\n    my_crypt = CRYPT(key=auth.settings.hmac_key)\n    crypt_pass = my_crypt(password)[0]    \n    id_user = db.auth_user.insert(\n                   Surnom=Surnom,\n                   email=email,\n                   username=email,\n                   Items = None,\n                   Skills = None,\n                   password=crypt_pass,\n                                   )\n    db.commit()\n    created = True\n    print (\'creating user_id\')\n    if settings.debug_ensure_first_user == True:\n      print (\'creating user_id\')\n    return (id_user, created)\n\n    \n\n\ndef ensure_users():\n  user_id, created = _ensure_user(\'first\', \'last\', \'email@address.com\', \'UserPassword12345\')\n  if settings.debug_ensure_users == True:\n    print (\'user id %i\') % user_id\n    print (\'created %s\') % created\n\ndef ensure_group_role(role, description):\n  if not auth.id_group(role=role):  \n    auth.add_group(role=role, description=description)  \n    if settings.debug_ensure_group_role == True:\n      print (\'created role %s\') % (role)\n\ndef ensure_membership(group_id, user_id):\n  return_group_id = auth.add_membership(role=role, user_id=user_id)\n  if settings.debug_ensure_membership == True:\n    print (\'made user_id member of %s\') % (role)\n  return return_group_id\n \ndef ensure_permissions(role, description, user_id):\n  ensure_group_role(role, description)\n  return_group_id = ensure_membership(group_id, user_id)\n  if settings.debug_ensure_permissions == True:\n    print return_group_id\n\ndef generate_invitation(number,word=4,num=1,numdigit=5):\n    code = [\n[\'BELCHER\', \'FIX\', \'EEL\', \'PANZERBOY\', \'DESK_JOCKEY\', \'CHILLED\', \'ENFORCER\', \'CHERRY_PICKING\', \'COUNTRY_CLUB\', \'BOMBSHELL\', \'PLUGGED_IN\', \'FINI\', \'LEGIT\', \'JAM\', \'BONED_OUT\', \'BLADE\', \'ROUST\', \'SAMURAI\', \'DISK\', \'INPUT\', \'POST_TIME\', \'SOUNDS\', \'SKIP\', \'FLATBACKER\', \'WILSON\', \'SHOEMAKER\', \'DELTA_SIERRA\', \'HEART\', \'CROAK\', \'HEAD_HUNTER\', \'HOSHO_KAISHA\', "DELTA\'D", "\'FACE_(also,_FACE,_EYE-FACE,_I-FACE)", \'WEEFLE\', \'DIRTGIRL\', \'KEYBOARD\', \'BRAIN_BUCKET\', \'DRYING_OUT\', \'OVERCOOK\', \'PIG\', \'COLD_TEA\', \'RECONFIG\', \'PAD\', \'LIT_UP\', \'WRAITH\', \'HANDLE\', \'L.P.\', \'PINCH\', \'TAKE_A_CAB\', \'SPILL\', \'ACE_KOOL\', \'DO\', \'BIZ\', \'BROWNIE\', \'CANDLE_AND_BLOOD\', \'BLUEBOY\', \'UP_ON_IT\', \'BURN\', \'USER_INTERFACE\', \'HOB\', \'GYRO\', \'STUFFIT\', \'THATCH\', \'ICEBREAKER\', \'ZIP_GUN\', \'PETERMAN\', \'PLAY_DOUGH\', \'TREY-EIGHT\', \'SETTLE\', "CHIPPIN\'_IN", \'MEATBALL\', \'RAFFLES\', \'YUBITSUME\', \'CROAKER\', \'SUCKER_POCKETS\', \'L.A.M.A.\', \'GEEK\', \'BUTTONHEAD\'],\n[\'TAKE\', \'TEKIYA\', \'KURUMAKU\', \'BLOC\', \'GAT\', \'JOHATSU\', \'CRYSTAL\', \'A.I.\', \'ZEROED\', \'OVER_THE_SHOULDER\', \'GRAB_GEE\', \'PANZER\', \'GO_LEO\', \'WASHED\', \'I.C.E.\', \'COPSHOP\', \'COLLATERAL_DAMAGE\', \'BIG_DARK\', \'DOUBLE-DEUCE\', \'ZONEDANCE\', \'MARK\', \'COBBERS\', \'CHIMPIRA\', \'TRIADS\', \'SHANK\', \'FRAG\', \'BREATH_VAC\', "CHARLIE\'S_ANGEL", \'MULE\', \'BURNER\', "PACKIN\'", \'HOTDOGGER\', \'BOSOZOKU\', \'RIPPERDOC\', \'THIRDMAN\', \'MAXIMUM,_MAX\', \'CHOOH2_("CHOO")\', \'CRYO_MAX\', \'HEATER\', \'SHARK\', \'JOYGIRL\', \'GURENTAI\', \'BANDIT\', \'VENICE\', \'MIZU_SHOBAI\', \'PASTA_BOYS\', \'SQUID\', \'CYBERED_UP\', \'DEAD_RECKONING\', \'POPSICLE\', \'FAUST\', \'COLLARBOY\', \'SHOES\', \'TORCH\', \'DELTAJOCK\', \'BUTTERFLY_MAN\', \'WISE_GUYS\', \'BOOST\', \'CAIN\', \'FOUR-FIVE\', \'BREAK-DOWN\', \'POLYMER_ONE-SHOT\', \'FLAG\', \'CALL_GIRL\', \'IN_THE_HUNT\', \'HYDRO\', \'DOCK\', \'FENCE\', \'SHAIKUJIN\', \'GOMI\', \'FILTER\', \'SAINT_NICK\', \'LINEFOOT\', \'CAVALRY\', \'PUKE\', \'CONVERSION\', \'FINGER\', \'CONTRACT\'],\n[\'PLASTIC\', \'CRYSTALJOCKEY,_CRYSTALJOCK\', \'SCREW\', \'TOYSTORE\', \'DREAM_TIME\', \'EXOTIC\', \'WALKABOUT\', \'DIAMOND_SEASON\', \'SARAKIN\', \'CHRISTMAS_BUNDLES\', \'SHADES\', \'BUTTON_MAN\', \'FOXTROT_UNIFORM\', \'KAI\', \'UNDER_THE_PAINT\', \'MINIMUM\', \'TRIPLE_A\', \'PIG_ON_A_WHEEL\', \'BAG_MAN\', \'DIP\', \'PIGEONS\', \'MAN\', \'ADAM_HENRY\', \'HIGH\', \'HEAT\', \'NINJO\', \'KNIFE_FIGHT\', \'MOUTHPIECE\', \'AGRIPLEX\', \'DATA_TERM\', \'LIZ\', \'CHROMER\', \'OUTPUT\', \'N.O.E.\', \'CLOSE_A_CONTRACT\', \'LASSIE\', \'FLATLINE\', \'CHIV\', \'SING\', \'AMMO\', \'RAT\', \'MATCHBOX\', \'PULL_AN_ASH\', \'BORYOKUDAN\', \'SQUEEZE\', \'RONIN\', \'HIT\', \'RAGS\', \'TAKE_OUT\', \'BEAT_THE_RAP\', \'GIRI\', \'RUNNING_THE_LINE\', \'HARNESS\', \'GRAVEROBBER\', \'DROP_A_DIME\', \'BADGE_ON_A_BEAVER\', \'FLETCHER\', \'AMPED-OUT\', \'NEUTRALIZE\', \'PETER\', \'CONFIG\', \'HARDFIRE\', \'B.A.M.A.\', \'CHROMATIC_ROCK\', \'MOLDED\', \'RAD\', \'CREASED\', \'CHATTER_BOX\', \'HAND_CANNON\', \'NIPPERS\', \'SIERRA_HOTEL\', \'HOOK_UP\', \'-JOCKEY,_-JOCK\', \'BUG\', \'BATMAN_AND_ROBIN\', \'BLACK_OPERATIONS\', "D.C.\'S", \'SO_KA\'],\n[\'_A.A.A.\', \'HOME_PLATE\', \'LITEJACK\', \'PINEAPPLE\', \'MAKE\', \'THE_STREET\', \'SITREP\', \'HANGING_PAPER\', \'PAINT_BOYS\', \'WETWORK\', \'NINER\', \'BOOKIE\', \'WHIPLASH\', \'TORPEDO\', \'HEATWAVE\', \'SOLAR_WIND\', \'QUIFF\', \'BIKE\', \'TRAFFIC\', \'WIRE_ROOM\', \'OYABUN\', \'COWBOY\', \'KOBUN\', \'MUDBOY\', \'COP_OUT\', \'SOKAIYA\', "\'DORPH", \'JOYBOY\', \'DIRTY\', \'BOAT\', \'DROP\', \'GRAV_or_GEE\', \'APOGEE\', \'BOOSTER\', \'BOOK\', \'FRY\', \'PULLING_TEETH\', \'ONE_LARGE\', \'COMBAT_DRUGS\', \'THRASH\', \'DO_A_GHOST\', \'DELTA\', \'RIN_TIN_TIN\', \'DROP_OUT\', \'GUMI\', \'ROCKERBOY/GIRL\', \'BULLET\', \'DEB\', \'THREADING_THE_NEEDLE\', \'MOTOR\', \'BLEEDER\', \'ARC\', \'BOPPER\', \'WASTE\', \'_DEMUKAI\', \'BREAK\', \'HOLDING_DOWN\', \'FEDS\', \'GAP\', \'RABBI\', \'BAKUTO\', \'CHOMBATTA_(CHOOMBA)\', \'BIG_HATS\', \'MR._JOHNSON\', \'EXEC\', \'BULL\', \'BULLSEYE\', \'POSERGANG\', \'CHAOL\', \'GEISHA\', \'SLAMMIT_ON\', \'POP_CAPS\', \'HARD_TIME\', \'BENJI\', \'MAKING_BANK\', \'PAPERHANGER\', \'NETRUN\', \'BOGEY\'],\n]     \n    i = 0\n    invits = []\n    print number\n    while (i < number):\n        invit = ""\n        j = 0\n        while (j < word):\n            debut = random.randint(0,len(code)-1)\n            codepick = code[debut][random.randint(0,len(code[debut])-1)]\n            j += 1\n            invit += codepick+"-"\n        j = 0\n        while (j < num):\n            invit += randomdig(numdigit)+"-"\n            j += 1\n        i+= 1\n        invit = invit[:-1]\n        if invit not in invits :\n            invits.append(invit[:-1])\n            print invit\n    return invits\n        \ndef randomdig(number):\n    max = "9"*number\n    max = int(max)\n    rand =  random.randint(0,max)\n    rand = str(rand)\n    rand = "0"*(number-len(rand))+rand\n    return rand\n\n@auth.requires_login()\ndef inscriptioninvit():\n    form = SQLFORM(db[auth.settings.table_user_name])\n    return dict(form=form)\n\n\ndef userstuff():\n    return dict(rows1 = db().select(db.Carac.ALL),rows2 = db().select(db.SkillLevel.ALL) )\n\ndef initdbjack():\n    if db(db.auth_user.username == "bussiere").count() == 0:\n            password= "titi" \n            my_crypt = CRYPT(key=auth.settings.hmac_key)\n            crypt_pass = my_crypt(password)[0]  \n            buss = db.auth_user.insert(\n               email= "bussiere2@gmail.com",\n               username="bussiere",\n               password=crypt_pass,\n            )\n            jack = auth.add_group(\'Jack\', \'Jack master of none\')\n            auth.add_membership(jack, buss)\n            db.commit()  \n    db.commit() \n    carac = ["Force","Logique","Volonte","Charisme","Apparence","Dexterite"]\n    skillls = { \n    "Physique":{\n                "Sport":{\n                         "Capoeira" :{ \n                                      "bengale":{}\n                                      },\n                        "Karate":{\n                                  "Nord" : {},\n                                  "Sud" : {},\n                                 },\n                         },\n            },\n\n\n    "Technique":{\n                "Mettalerrie" : {\n                                 "Forge" : {},\n                                  \n                                  },\n                 \n    },\n\n    "Savoir":{\n              "Informatique" : {\n                                   "Programmation" :{\n                                                     "Python" :{\n                                                                 "Django" : {} ,\n                                                                  "Web2py" : {}\n                                                                },\n                                                     "Methode" :{\n                                                                 "Uml":{},\n                                                                  "Merise": {}\n                                                                },\n                                                     },\n                                   },\n\n            },\n    }\n\n    for c in carac :\n        if db(db.Carac.Nom == c).count() == 0:\n            db.Carac.insert(Nom=c)\n\n    for level1 in skills.keys() :\n        i = 0\n        if db(db.SkillLevel.Skill.Nom == level1).count() == 0:\n            Skill1 = db.SkillLevel.insert(Skill = (db.Skill.insert(Nom=level1)),Level = i)\n\n            for level2 in level1.keys() :\n                i = 1\n                if db(db.SkillLevel.Skill.Nom == level2).count() == 0:\n                    Skill2 = db.SkillLevel.insert(Skill = (db.Skill.insert(Nom=level2)),Level = i,parent = Skill1)\n                    for level3 in level2.keys() :\n                        i = 2\n                        if db(db.SkillLevel.Skill.Nom == level3).count() == 0:\n                            Skill3 = db.SkillLevel.insert(Skill = (db.Skill.insert(Nom=level3)),Level = i,parent = Skill2)\n                            for level4 in level3.keys() :\n                                i = 3\n                            if db(db.SkillLevel.Skill.Nom == level4).count() == 0:\n                                Skill3 = db.SkillLevel.insert(Skill = (db.Skill.insert(Nom=level4)),Level = i,parent = Skill3)\n                                for level5 in level4.keys() :\n                                    i = 4\n                                    if db(db.SkillLevel.Skill.Nom == level5).count() == 0:\n                                        Skill3 = db.SkillLevel.insert(Skill = (db.Skill.insert(Nom=level4)),Level = i,parent = Skill4)\n    db.commit() \n\n\n\n\n\n\n\ndef liste_invitations():\n    return dict(rows = db().select(db.Invitation.ALL))\n\ndef liste_user():\n    return dict(rows = db().select(db.auth_user.ALL))\n\n#@auth.requires_membership(\'manager\')\ndef generate_invitationpage():\n   form=FORM("Nombre d\'invit a generer:", INPUT(_name=\'nmbreinvit\'), INPUT(_type=\'submit\'))\n   if form.process().accepted and form.vars.nmbreinvit != None :\n       i = form.vars.nmbreinvit\n       invitsgenere = generate_invitation(int(i))\n       for invit in invitsgenere :\n           db.Invitation.insert(Code=invit)\n           db.commit()\n       session.flash = \'invitation inserted\'\n       form=FORM("Nombre d\'invit a generer:", INPUT(_name=\'nmbreinvit\'), INPUT(_type=\'submit\'))\n       #db.Invitation.insert(Code="Toto-5542")\n       db.commit()\n   return dict(form=form)\n\ndef verif_invitation(form):\n    print form.vars.invitation\n    if db.Invitation(db.Invitation.Code==form.vars.invitation) == None :\n        form.errors.invitation = \'code invitation incorrect\'\n        print "mauvais"\n    else :\n        print "bon"\n\ndef invitation():\n    form=FORM("Code Invitation :", INPUT(_name=\'invitation\'),"<Email :",INPUT(_name=\'email\'),  INPUT(_type=\'submit\'))\n    if form.process(onvalidation=verif_invitation).accepted and  form.vars.invitation != None  :\n        email = form.vars.email\n        if db(db.auth_user.email == email).count() == 0:\n            password= form.vars.invitation  \n            my_crypt = CRYPT(key=auth.settings.hmac_key)\n            crypt_pass = my_crypt(password)[0]  \n            db.auth_user.insert(\n               email= email,\n               username="John_Doe",\n               password=crypt_pass,\n            )\n            db.commit()  \n            user = db(db.auth_user.email==email).select().first()\n            auth.user = Storage(auth.settings.table_user._filter_fields(user, id=True))\n            auth.environment.session.auth = Storage(user=user, last_visit=request.now,\n                                                expiration=auth.settings.expiration)\n            redirect(URL(\'inscriptioninvit\'))\n    return dict(form=form)\n\ndef faq():\n\n    return dict()\ndef user():\n    """\n    exposes:\n    http://..../[app]/default/user/login\n    http://..../[app]/default/user/logout\n    http://..../[app]/default/user/register\n    http://..../[app]/default/user/profile\n    http://..../[app]/default/user/retrieve_password\n    http://..../[app]/default/user/change_password\n    use @auth.requires_login()\n        @auth.requires_membership(\'group name\')\n        @auth.requires_permission(\'read\',\'table name\',record_id)\n    to decorate functions that need access control\n    """\n    return dict(form=auth())\n\n\ndef download():\n    """\n    allows downloading of uploaded files\n    http://..../[app]/default/download/[filename]\n    """\n    return response.download(request,db)\n\n\ndef call():\n    """\n    exposes services. for example:\n    http://..../[app]/default/call/jsonrpc\n    decorate with @services.jsonrpc the functions to expose\n    supports xml, json, xmlrpc, jsonrpc, amfrpc, rss, csv\n    """\n    return service()\n\n\n@auth.requires_signature()\ndef data():\n    """\n    http://..../[app]/default/data/tables\n    http://..../[app]/default/data/create/[table]\n    http://..../[app]/default/data/read/[table]/[id]\n    http://..../[app]/default/data/update/[table]/[id]\n    http://..../[app]/default/data/delete/[table]/[id]\n    http://..../[app]/default/data/select/[table]\n    http://..../[app]/default/data/search/[table]\n    but URLs must be signed, i.e. linked with\n      A(\'table\',_href=URL(\'data/tables\',user_signature=True))\n    or with the signed load operator\n      LOAD(\'default\',\'data.load\',args=\'tables\',ajax=True,user_signature=True)\n    """\n    return dict(form=crud())\n\nresponse._vars=response._caller(initdbjack)\n'
p7
sS'snapshot'
p8
(dp9
S'exception'
p10
(dp11
S'__hash__'
p12
S"<method-wrapper '__hash__' of exceptions.NameError object at 0x043A5440>"
p13
sS'__setattr__'
p14
S"<method-wrapper '__setattr__' of exceptions.NameError object at 0x043A5440>"
p15
sS'__reduce_ex__'
p16
S'<built-in method __reduce_ex__ of exceptions.NameError object at 0x043A5440>'
p17
sS'__getslice__'
p18
S"<method-wrapper '__getslice__' of exceptions.NameError object at 0x043A5440>"
p19
sS'__getitem__'
p20
S"<method-wrapper '__getitem__' of exceptions.NameError object at 0x043A5440>"
p21
sS'__setstate__'
p22
S'<built-in method __setstate__ of exceptions.NameError object at 0x043A5440>'
p23
sS'__reduce__'
p24
S'<built-in method __reduce__ of exceptions.NameError object at 0x043A5440>'
p25
sS'__str__'
p26
S"<method-wrapper '__str__' of exceptions.NameError object at 0x043A5440>"
p27
sS'args'
p28
S'("global name \'skills\' is not defined",)'
p29
sS'__getattribute__'
p30
S"<method-wrapper '__getattribute__' of exceptions.NameError object at 0x043A5440>"
p31
sS'__class__'
p32
S"<type 'exceptions.NameError'>"
p33
sS'__delattr__'
p34
S"<method-wrapper '__delattr__' of exceptions.NameError object at 0x043A5440>"
p35
sS'__repr__'
p36
S"<method-wrapper '__repr__' of exceptions.NameError object at 0x043A5440>"
p37
sS'__dict__'
p38
S'{}'
p39
sS'__doc__'
p40
S"'Name not found globally.'"
p41
sS'__init__'
p42
S"<method-wrapper '__init__' of exceptions.NameError object at 0x043A5440>"
p43
sS'__new__'
p44
S'<built-in method __new__ of type object at 0x1E1CD8D8>'
p45
ssS'evalue'
p46
S"global name 'skills' is not defined"
p47
sS'request'
p48
ccopy_reg
_reconstructor
p49
(cgluon.html
BEAUTIFY
p50
c__builtin__
object
p51
NtRp52
(dp53
S'attributes'
p54
(dp55
sS'components'
p56
(lp57
g49
(cgluon.html
TABLE
p58
g51
NtRp59
(dp60
g54
(dp61
S'level'
p62
I5
ssS'parent'
p63
Nsg56
(lp64
g49
(cgluon.html
TR
p65
g51
NtRp66
(dp67
g54
(dp68
sg63
g59
sg56
(lp69
g49
(cgluon.html
TD
p70
g51
NtRp71
(dp72
g54
(dp73
S'_style'
p74
S'font-weight:bold;vertical-align:top'
p75
ssg63
g66
sg56
(lp76
S'ajax'
p77
asbag49
(g70
g51
NtRp78
(dp79
g54
(dp80
S'_valign'
p81
S'top'
p82
ssg63
g66
sg56
(lp83
S':'
asbag49
(g70
g51
NtRp84
(dp85
g54
(dp86
sg63
g66
sg56
(lp87
g49
(g50
g51
NtRp88
(dp89
g54
(dp90
g62
I5
ssg63
g84
sg56
(lp91
S'False'
p92
asbasbasbag49
(g65
g51
NtRp93
(dp94
g54
(dp95
sg63
g59
sg56
(lp96
g49
(g70
g51
NtRp97
(dp98
g54
(dp99
g74
g75
ssg63
g93
sg56
(lp100
S'application'
p101
asbag49
(g70
g51
NtRp102
(dp103
g54
(dp104
g81
g82
ssg63
g93
sg56
(lp105
S':'
asbag49
(g70
g51
NtRp106
(dp107
g54
(dp108
sg63
g93
sg56
(lp109
g49
(g50
g51
NtRp110
(dp111
g54
(dp112
g62
I5
ssg63
g106
sg56
(lp113
S'init'
p114
asbasbasbag49
(g65
g51
NtRp115
(dp116
g54
(dp117
sg63
g59
sg56
(lp118
g49
(g70
g51
NtRp119
(dp120
g54
(dp121
g74
g75
ssg63
g115
sg56
(lp122
g28
asbag49
(g70
g51
NtRp123
(dp124
g54
(dp125
g81
g82
ssg63
g115
sg56
(lp126
S':'
asbag49
(g70
g51
NtRp127
(dp128
g54
(dp129
sg63
g115
sg56
(lp130
g49
(g50
g51
NtRp131
(dp132
g54
(dp133
g62
I5
ssg63
g127
sg56
(lp134
g49
(g58
g51
NtRp135
(dp136
g54
(dp137
g62
I4
ssg63
Nsg56
(lp138
sbasbasbasbag49
(g65
g51
NtRp139
(dp140
g54
(dp141
sg63
g59
sg56
(lp142
g49
(g70
g51
NtRp143
(dp144
g54
(dp145
g74
g75
ssg63
g139
sg56
(lp146
S'body'
p147
asbag49
(g70
g51
NtRp148
(dp149
g54
(dp150
g81
g82
ssg63
g139
sg56
(lp151
S':'
asbag49
(g70
g51
NtRp152
(dp153
g54
(dp154
sg63
g139
sg56
(lp155
g49
(g50
g51
NtRp156
(dp157
g54
(dp158
g62
I5
ssg63
g152
sg56
(lp159
S'<cStringIO.StringO object at 0x046173E0>'
p160
asbasbasbag49
(g65
g51
NtRp161
(dp162
g54
(dp163
sg63
g59
sg56
(lp164
g49
(g70
g51
NtRp165
(dp166
g54
(dp167
g74
g75
ssg63
g161
sg56
(lp168
S'client'
p169
asbag49
(g70
g51
NtRp170
(dp171
g54
(dp172
g81
g82
ssg63
g161
sg56
(lp173
S':'
asbag49
(g70
g51
NtRp174
(dp175
g54
(dp176
sg63
g161
sg56
(lp177
g49
(g50
g51
NtRp178
(dp179
g54
(dp180
g62
I5
ssg63
g174
sg56
(lp181
S'127.0.0.1'
p182
asbasbasbag49
(g65
g51
NtRp183
(dp184
g54
(dp185
sg63
g59
sg56
(lp186
g49
(g70
g51
NtRp187
(dp188
g54
(dp189
g74
g75
ssg63
g183
sg56
(lp190
S'controller'
p191
asbag49
(g70
g51
NtRp192
(dp193
g54
(dp194
g81
g82
ssg63
g183
sg56
(lp195
S':'
asbag49
(g70
g51
NtRp196
(dp197
g54
(dp198
sg63
g183
sg56
(lp199
g49
(g50
g51
NtRp200
(dp201
g54
(dp202
g62
I5
ssg63
g196
sg56
(lp203
S'default'
p204
asbasbasbag49
(g65
g51
NtRp205
(dp206
g54
(dp207
sg63
g59
sg56
(lp208
g49
(g70
g51
NtRp209
(dp210
g54
(dp211
g74
g75
ssg63
g205
sg56
(lp212
S'cookies'
p213
asbag49
(g70
g51
NtRp214
(dp215
g54
(dp216
g81
g82
ssg63
g205
sg56
(lp217
S':'
asbag49
(g70
g51
NtRp218
(dp219
g54
(dp220
sg63
g205
sg56
(lp221
g49
(g50
g51
NtRp222
(dp223
g54
(dp224
g62
I5
ssg63
g218
sg56
(lp225
g49
(g58
g51
NtRp226
(dp227
g54
(dp228
g62
I4
ssg63
Nsg56
(lp229
g49
(g65
g51
NtRp230
(dp231
g54
(dp232
sg63
g226
sg56
(lp233
g49
(g70
g51
NtRp234
(dp235
g54
(dp236
g74
g75
ssg63
g230
sg56
(lp237
S'session_id_admin'
p238
asbag49
(g70
g51
NtRp239
(dp240
g54
(dp241
g81
g82
ssg63
g230
sg56
(lp242
S':'
asbag49
(g70
g51
NtRp243
(dp244
g54
(dp245
sg63
g230
sg56
(lp246
g49
(g50
g51
NtRp247
(dp248
g54
(dp249
g62
I4
ssg63
g243
sg56
(lp250
g49
(g58
g51
NtRp251
(dp252
g54
(dp253
g62
I3
ssg63
Nsg56
(lp254
g49
(g65
g51
NtRp255
(dp256
g54
(dp257
sg63
g251
sg56
(lp258
g49
(g70
g51
NtRp259
(dp260
g54
(dp261
g74
g75
ssg63
g255
sg56
(lp262
S'comment'
p263
asbag49
(g70
g51
NtRp264
(dp265
g54
(dp266
g81
g82
ssg63
g255
sg56
(lp267
S':'
asbag49
(g70
g51
NtRp268
(dp269
g54
(dp270
sg63
g255
sg56
(lp271
g49
(g50
g51
NtRp272
(dp273
g54
(dp274
g62
I3
ssg63
g268
sg56
(lp275
S''
asbasbasbag49
(g65
g51
NtRp276
(dp277
g54
(dp278
sg63
g251
sg56
(lp279
g49
(g70
g51
NtRp280
(dp281
g54
(dp282
g74
g75
ssg63
g276
sg56
(lp283
S'domain'
p284
asbag49
(g70
g51
NtRp285
(dp286
g54
(dp287
g81
g82
ssg63
g276
sg56
(lp288
S':'
asbag49
(g70
g51
NtRp289
(dp290
g54
(dp291
sg63
g276
sg56
(lp292
g49
(g50
g51
NtRp293
(dp294
g54
(dp295
g62
I3
ssg63
g289
sg56
(lp296
S''
asbasbasbag49
(g65
g51
NtRp297
(dp298
g54
(dp299
sg63
g251
sg56
(lp300
g49
(g70
g51
NtRp301
(dp302
g54
(dp303
g74
g75
ssg63
g297
sg56
(lp304
S'expires'
p305
asbag49
(g70
g51
NtRp306
(dp307
g54
(dp308
g81
g82
ssg63
g297
sg56
(lp309
S':'
asbag49
(g70
g51
NtRp310
(dp311
g54
(dp312
sg63
g297
sg56
(lp313
g49
(g50
g51
NtRp314
(dp315
g54
(dp316
g62
I3
ssg63
g310
sg56
(lp317
S''
asbasbasbag49
(g65
g51
NtRp318
(dp319
g54
(dp320
sg63
g251
sg56
(lp321
g49
(g70
g51
NtRp322
(dp323
g54
(dp324
g74
g75
ssg63
g318
sg56
(lp325
S'max-age'
p326
asbag49
(g70
g51
NtRp327
(dp328
g54
(dp329
g81
g82
ssg63
g318
sg56
(lp330
S':'
asbag49
(g70
g51
NtRp331
(dp332
g54
(dp333
sg63
g318
sg56
(lp334
g49
(g50
g51
NtRp335
(dp336
g54
(dp337
g62
I3
ssg63
g331
sg56
(lp338
S''
asbasbasbag49
(g65
g51
NtRp339
(dp340
g54
(dp341
sg63
g251
sg56
(lp342
g49
(g70
g51
NtRp343
(dp344
g54
(dp345
g74
g75
ssg63
g339
sg56
(lp346
S'path'
p347
asbag49
(g70
g51
NtRp348
(dp349
g54
(dp350
g81
g82
ssg63
g339
sg56
(lp351
S':'
asbag49
(g70
g51
NtRp352
(dp353
g54
(dp354
sg63
g339
sg56
(lp355
g49
(g50
g51
NtRp356
(dp357
g54
(dp358
g62
I3
ssg63
g352
sg56
(lp359
S''
asbasbasbag49
(g65
g51
NtRp360
(dp361
g54
(dp362
sg63
g251
sg56
(lp363
g49
(g70
g51
NtRp364
(dp365
g54
(dp366
g74
g75
ssg63
g360
sg56
(lp367
S'secure'
p368
asbag49
(g70
g51
NtRp369
(dp370
g54
(dp371
g81
g82
ssg63
g360
sg56
(lp372
S':'
asbag49
(g70
g51
NtRp373
(dp374
g54
(dp375
sg63
g360
sg56
(lp376
g49
(g50
g51
NtRp377
(dp378
g54
(dp379
g62
I3
ssg63
g373
sg56
(lp380
S''
asbasbasbag49
(g65
g51
NtRp381
(dp382
g54
(dp383
sg63
g251
sg56
(lp384
g49
(g70
g51
NtRp385
(dp386
g54
(dp387
g74
g75
ssg63
g381
sg56
(lp388
S'version'
p389
asbag49
(g70
g51
NtRp390
(dp391
g54
(dp392
g81
g82
ssg63
g381
sg56
(lp393
S':'
asbag49
(g70
g51
NtRp394
(dp395
g54
(dp396
sg63
g381
sg56
(lp397
g49
(g50
g51
NtRp398
(dp399
g54
(dp400
g62
I3
ssg63
g394
sg56
(lp401
S''
asbasbasbasbasbasbasbag49
(g65
g51
NtRp402
(dp403
g54
(dp404
sg63
g226
sg56
(lp405
g49
(g70
g51
NtRp406
(dp407
g54
(dp408
g74
g75
ssg63
g402
sg56
(lp409
S'session_id_init'
p410
asbag49
(g70
g51
NtRp411
(dp412
g54
(dp413
g81
g82
ssg63
g402
sg56
(lp414
S':'
asbag49
(g70
g51
NtRp415
(dp416
g54
(dp417
sg63
g402
sg56
(lp418
g49
(g50
g51
NtRp419
(dp420
g54
(dp421
g62
I4
ssg63
g415
sg56
(lp422
g49
(g58
g51
NtRp423
(dp424
g54
(dp425
g62
I3
ssg63
Nsg56
(lp426
g49
(g65
g51
NtRp427
(dp428
g54
(dp429
sg63
g423
sg56
(lp430
g49
(g70
g51
NtRp431
(dp432
g54
(dp433
g74
g75
ssg63
g427
sg56
(lp434
g263
asbag49
(g70
g51
NtRp435
(dp436
g54
(dp437
g81
g82
ssg63
g427
sg56
(lp438
S':'
asbag49
(g70
g51
NtRp439
(dp440
g54
(dp441
sg63
g427
sg56
(lp442
g49
(g50
g51
NtRp443
(dp444
g54
(dp445
g62
I3
ssg63
g439
sg56
(lp446
S''
asbasbasbag49
(g65
g51
NtRp447
(dp448
g54
(dp449
sg63
g423
sg56
(lp450
g49
(g70
g51
NtRp451
(dp452
g54
(dp453
g74
g75
ssg63
g447
sg56
(lp454
g284
asbag49
(g70
g51
NtRp455
(dp456
g54
(dp457
g81
g82
ssg63
g447
sg56
(lp458
S':'
asbag49
(g70
g51
NtRp459
(dp460
g54
(dp461
sg63
g447
sg56
(lp462
g49
(g50
g51
NtRp463
(dp464
g54
(dp465
g62
I3
ssg63
g459
sg56
(lp466
S''
asbasbasbag49
(g65
g51
NtRp467
(dp468
g54
(dp469
sg63
g423
sg56
(lp470
g49
(g70
g51
NtRp471
(dp472
g54
(dp473
g74
g75
ssg63
g467
sg56
(lp474
g305
asbag49
(g70
g51
NtRp475
(dp476
g54
(dp477
g81
g82
ssg63
g467
sg56
(lp478
S':'
asbag49
(g70
g51
NtRp479
(dp480
g54
(dp481
sg63
g467
sg56
(lp482
g49
(g50
g51
NtRp483
(dp484
g54
(dp485
g62
I3
ssg63
g479
sg56
(lp486
S''
asbasbasbag49
(g65
g51
NtRp487
(dp488
g54
(dp489
sg63
g423
sg56
(lp490
g49
(g70
g51
NtRp491
(dp492
g54
(dp493
g74
g75
ssg63
g487
sg56
(lp494
g326
asbag49
(g70
g51
NtRp495
(dp496
g54
(dp497
g81
g82
ssg63
g487
sg56
(lp498
S':'
asbag49
(g70
g51
NtRp499
(dp500
g54
(dp501
sg63
g487
sg56
(lp502
g49
(g50
g51
NtRp503
(dp504
g54
(dp505
g62
I3
ssg63
g499
sg56
(lp506
S''
asbasbasbag49
(g65
g51
NtRp507
(dp508
g54
(dp509
sg63
g423
sg56
(lp510
g49
(g70
g51
NtRp511
(dp512
g54
(dp513
g74
g75
ssg63
g507
sg56
(lp514
g347
asbag49
(g70
g51
NtRp515
(dp516
g54
(dp517
g81
g82
ssg63
g507
sg56
(lp518
S':'
asbag49
(g70
g51
NtRp519
(dp520
g54
(dp521
sg63
g507
sg56
(lp522
g49
(g50
g51
NtRp523
(dp524
g54
(dp525
g62
I3
ssg63
g519
sg56
(lp526
S''
asbasbasbag49
(g65
g51
NtRp527
(dp528
g54
(dp529
sg63
g423
sg56
(lp530
g49
(g70
g51
NtRp531
(dp532
g54
(dp533
g74
g75
ssg63
g527
sg56
(lp534
g368
asbag49
(g70
g51
NtRp535
(dp536
g54
(dp537
g81
g82
ssg63
g527
sg56
(lp538
S':'
asbag49
(g70
g51
NtRp539
(dp540
g54
(dp541
sg63
g527
sg56
(lp542
g49
(g50
g51
NtRp543
(dp544
g54
(dp545
g62
I3
ssg63
g539
sg56
(lp546
S''
asbasbasbag49
(g65
g51
NtRp547
(dp548
g54
(dp549
sg63
g423
sg56
(lp550
g49
(g70
g51
NtRp551
(dp552
g54
(dp553
g74
g75
ssg63
g547
sg56
(lp554
g389
asbag49
(g70
g51
NtRp555
(dp556
g54
(dp557
g81
g82
ssg63
g547
sg56
(lp558
S':'
asbag49
(g70
g51
NtRp559
(dp560
g54
(dp561
sg63
g547
sg56
(lp562
g49
(g50
g51
NtRp563
(dp564
g54
(dp565
g62
I3
ssg63
g559
sg56
(lp566
S''
asbasbasbasbasbasbasbasbasbasbasbag49
(g65
g51
NtRp567
(dp568
g54
(dp569
sg63
g59
sg56
(lp570
g49
(g70
g51
NtRp571
(dp572
g54
(dp573
g74
g75
ssg63
g567
sg56
(lp574
S'env'
p575
asbag49
(g70
g51
NtRp576
(dp577
g54
(dp578
g81
g82
ssg63
g567
sg56
(lp579
S':'
asbag49
(g70
g51
NtRp580
(dp581
g54
(dp582
sg63
g567
sg56
(lp583
g49
(g50
g51
NtRp584
(dp585
g54
(dp586
g62
I5
ssg63
g580
sg56
(lp587
g49
(g58
g51
NtRp588
(dp589
g54
(dp590
g62
I4
ssg63
Nsg56
(lp591
g49
(g65
g51
NtRp592
(dp593
g54
(dp594
sg63
g588
sg56
(lp595
g49
(g70
g51
NtRp596
(dp597
g54
(dp598
g74
g75
ssg63
g592
sg56
(lp599
S'app_folders'
p600
asbag49
(g70
g51
NtRp601
(dp602
g54
(dp603
g81
g82
ssg63
g592
sg56
(lp604
S':'
asbag49
(g70
g51
NtRp605
(dp606
g54
(dp607
sg63
g592
sg56
(lp608
g49
(g50
g51
NtRp609
(dp610
g54
(dp611
g62
I4
ssg63
g605
sg56
(lp612
S"set(['C:\\\\Users\\\\Bussiere\\\\Dropbox\\\\Projets\\\\jackpoint\\\\web2py\\\\applications\\\\init\\\\', 'C:\\\\Users\\\\Bussiere\\\\Dropbox\\\\Projets\\\\jackpoint\\\\web2py\\\\applications\\\\admin\\\\'])"
p613
asbasbasbag49
(g65
g51
NtRp614
(dp615
g54
(dp616
sg63
g588
sg56
(lp617
g49
(g70
g51
NtRp618
(dp619
g54
(dp620
g74
g75
ssg63
g614
sg56
(lp621
S'applications_parent'
p622
asbag49
(g70
g51
NtRp623
(dp624
g54
(dp625
g81
g82
ssg63
g614
sg56
(lp626
S':'
asbag49
(g70
g51
NtRp627
(dp628
g54
(dp629
sg63
g614
sg56
(lp630
g49
(g50
g51
NtRp631
(dp632
g54
(dp633
g62
I4
ssg63
g627
sg56
(lp634
S'C:\\Users\\Bussiere\\Dropbox\\Projets\\jackpoint\\web2py'
p635
asbasbasbag49
(g65
g51
NtRp636
(dp637
g54
(dp638
sg63
g588
sg56
(lp639
g49
(g70
g51
NtRp640
(dp641
g54
(dp642
g74
g75
ssg63
g636
sg56
(lp643
S'cmd_args'
p644
asbag49
(g70
g51
NtRp645
(dp646
g54
(dp647
g81
g82
ssg63
g636
sg56
(lp648
S':'
asbag49
(g70
g51
NtRp649
(dp650
g54
(dp651
sg63
g636
sg56
(lp652
g49
(g50
g51
NtRp653
(dp654
g54
(dp655
g62
I4
ssg63
g649
sg56
(lp656
g49
(g58
g51
NtRp657
(dp658
g54
(dp659
g62
I3
ssg63
Nsg56
(lp660
sbasbasbasbag49
(g65
g51
NtRp661
(dp662
g54
(dp663
sg63
g588
sg56
(lp664
g49
(g70
g51
NtRp665
(dp666
g54
(dp667
g74
g75
ssg63
g661
sg56
(lp668
S'cmd_options'
p669
asbag49
(g70
g51
NtRp670
(dp671
g54
(dp672
g81
g82
ssg63
g661
sg56
(lp673
S':'
asbag49
(g70
g51
NtRp674
(dp675
g54
(dp676
sg63
g661
sg56
(lp677
g49
(g50
g51
NtRp678
(dp679
g54
(dp680
g62
I4
ssg63
g674
sg56
(lp681
S"<Values at 0x3d15fa8: {'verbose': False, 'ip': '127.0.0.1', 'shutdown_timeout': 5, 'taskbar': False, 'nocron': False, 'pid_filename': 'httpserver.pid', 'maxthreads': None, 'softcron': False, 'server_name': 'Batou', 'bpython': False, 'nogui': False, 'port': 8000, 'extcron': False, 'debuglevel': 30, 'test': None, 'folder': 'C:\\\\Users\\\\Bussiere\\\\Dropbox\\\\Projets\\\\jackpoint\\\\web2py', 'config': '', 'import_models': False, 'winservice': '', 'shell': None, 'run': '', 'log_filename': 'httpserver.log', 'args': [''], 'socket_timeout': 5, 'ssl_ca_certificate': None, 'scheduler': None, 'profiler_filename': None, 'ssl_private_key': '', 'password': '<ask>', 'request_queue_size': 5, 'ssl_certificate': '', 'cronjob': False, 'numthreads': None, 'quiet': False, 'interfaces': None, 'minthreads': None, 'timeout': 10, 'plain': False, 'nobanner': False}>"
p682
asbasbasbag49
(g65
g51
NtRp683
(dp684
g54
(dp685
sg63
g588
sg56
(lp686
g49
(g70
g51
NtRp687
(dp688
g54
(dp689
g74
g75
ssg63
g683
sg56
(lp690
S'db_sessions'
p691
asbag49
(g70
g51
NtRp692
(dp693
g54
(dp694
g81
g82
ssg63
g683
sg56
(lp695
S':'
asbag49
(g70
g51
NtRp696
(dp697
g54
(dp698
sg63
g683
sg56
(lp699
g49
(g50
g51
NtRp700
(dp701
g54
(dp702
g62
I4
ssg63
g696
sg56
(lp703
S"set(['init'])"
p704
asbasbasbag49
(g65
g51
NtRp705
(dp706
g54
(dp707
sg63
g588
sg56
(lp708
g49
(g70
g51
NtRp709
(dp710
g54
(dp711
g74
g75
ssg63
g705
sg56
(lp712
S'debugging'
p713
asbag49
(g70
g51
NtRp714
(dp715
g54
(dp716
g81
g82
ssg63
g705
sg56
(lp717
S':'
asbag49
(g70
g51
NtRp718
(dp719
g54
(dp720
sg63
g705
sg56
(lp721
g49
(g50
g51
NtRp722
(dp723
g54
(dp724
g62
I4
ssg63
g718
sg56
(lp725
S'True'
p726
asbasbasbag49
(g65
g51
NtRp727
(dp728
g54
(dp729
sg63
g588
sg56
(lp730
g49
(g70
g51
NtRp731
(dp732
g54
(dp733
g74
g75
ssg63
g727
sg56
(lp734
S'gluon_parent'
p735
asbag49
(g70
g51
NtRp736
(dp737
g54
(dp738
g81
g82
ssg63
g727
sg56
(lp739
S':'
asbag49
(g70
g51
NtRp740
(dp741
g54
(dp742
sg63
g727
sg56
(lp743
g49
(g50
g51
NtRp744
(dp745
g54
(dp746
g62
I4
ssg63
g740
sg56
(lp747
S'C:\\Users\\Bussiere\\Dropbox\\Projets\\jackpoint\\web2py'
p748
asbasbasbag49
(g65
g51
NtRp749
(dp750
g54
(dp751
sg63
g588
sg56
(lp752
g49
(g70
g51
NtRp753
(dp754
g54
(dp755
g74
g75
ssg63
g749
sg56
(lp756
S'http_accept'
p757
asbag49
(g70
g51
NtRp758
(dp759
g54
(dp760
g81
g82
ssg63
g749
sg56
(lp761
S':'
asbag49
(g70
g51
NtRp762
(dp763
g54
(dp764
sg63
g749
sg56
(lp765
g49
(g50
g51
NtRp766
(dp767
g54
(dp768
g62
I4
ssg63
g762
sg56
(lp769
S'text/html,application/xhtml+xml,application/xml;q=0.9,*/*;q=0.8'
p770
asbasbasbag49
(g65
g51
NtRp771
(dp772
g54
(dp773
sg63
g588
sg56
(lp774
g49
(g70
g51
NtRp775
(dp776
g54
(dp777
g74
g75
ssg63
g771
sg56
(lp778
S'http_accept_charset'
p779
asbag49
(g70
g51
NtRp780
(dp781
g54
(dp782
g81
g82
ssg63
g771
sg56
(lp783
S':'
asbag49
(g70
g51
NtRp784
(dp785
g54
(dp786
sg63
g771
sg56
(lp787
g49
(g50
g51
NtRp788
(dp789
g54
(dp790
g62
I4
ssg63
g784
sg56
(lp791
S'ISO-8859-1,utf-8;q=0.7,*;q=0.3'
p792
asbasbasbag49
(g65
g51
NtRp793
(dp794
g54
(dp795
sg63
g588
sg56
(lp796
g49
(g70
g51
NtRp797
(dp798
g54
(dp799
g74
g75
ssg63
g793
sg56
(lp800
S'http_accept_encoding'
p801
asbag49
(g70
g51
NtRp802
(dp803
g54
(dp804
g81
g82
ssg63
g793
sg56
(lp805
S':'
asbag49
(g70
g51
NtRp806
(dp807
g54
(dp808
sg63
g793
sg56
(lp809
g49
(g50
g51
NtRp810
(dp811
g54
(dp812
g62
I4
ssg63
g806
sg56
(lp813
S'gzip,deflate,sdch'
p814
asbasbasbag49
(g65
g51
NtRp815
(dp816
g54
(dp817
sg63
g588
sg56
(lp818
g49
(g70
g51
NtRp819
(dp820
g54
(dp821
g74
g75
ssg63
g815
sg56
(lp822
S'http_accept_language'
p823
asbag49
(g70
g51
NtRp824
(dp825
g54
(dp826
g81
g82
ssg63
g815
sg56
(lp827
S':'
asbag49
(g70
g51
NtRp828
(dp829
g54
(dp830
sg63
g815
sg56
(lp831
g49
(g50
g51
NtRp832
(dp833
g54
(dp834
g62
I4
ssg63
g828
sg56
(lp835
S'fr-FR,fr;q=0.8,en-US;q=0.6,en;q=0.4'
p836
asbasbasbag49
(g65
g51
NtRp837
(dp838
g54
(dp839
sg63
g588
sg56
(lp840
g49
(g70
g51
NtRp841
(dp842
g54
(dp843
g74
g75
ssg63
g837
sg56
(lp844
S'http_cache_control'
p845
asbag49
(g70
g51
NtRp846
(dp847
g54
(dp848
g81
g82
ssg63
g837
sg56
(lp849
S':'
asbag49
(g70
g51
NtRp850
(dp851
g54
(dp852
sg63
g837
sg56
(lp853
g49
(g50
g51
NtRp854
(dp855
g54
(dp856
g62
I4
ssg63
g850
sg56
(lp857
S'max-age=0'
p858
asbasbasbag49
(g65
g51
NtRp859
(dp860
g54
(dp861
sg63
g588
sg56
(lp862
g49
(g70
g51
NtRp863
(dp864
g54
(dp865
g74
g75
ssg63
g859
sg56
(lp866
S'http_connection'
p867
asbag49
(g70
g51
NtRp868
(dp869
g54
(dp870
g81
g82
ssg63
g859
sg56
(lp871
S':'
asbag49
(g70
g51
NtRp872
(dp873
g54
(dp874
sg63
g859
sg56
(lp875
g49
(g50
g51
NtRp876
(dp877
g54
(dp878
g62
I4
ssg63
g872
sg56
(lp879
S'keep-alive'
p880
asbasbasbag49
(g65
g51
NtRp881
(dp882
g54
(dp883
sg63
g588
sg56
(lp884
g49
(g70
g51
NtRp885
(dp886
g54
(dp887
g74
g75
ssg63
g881
sg56
(lp888
S'http_cookie'
p889
asbag49
(g70
g51
NtRp890
(dp891
g54
(dp892
g81
g82
ssg63
g881
sg56
(lp893
S':'
asbag49
(g70
g51
NtRp894
(dp895
g54
(dp896
sg63
g881
sg56
(lp897
g49
(g50
g51
NtRp898
(dp899
g54
(dp900
g62
I4
ssg63
g894
sg56
(lp901
S'session_id_init="19:a8687721-5787-4713-9329-1674aeb3f1bb"; session_id_admin=127.0.0.1-e7ba9533-971b-48d8-b9b4-ae4775a353f8'
p902
asbasbasbag49
(g65
g51
NtRp903
(dp904
g54
(dp905
sg63
g588
sg56
(lp906
g49
(g70
g51
NtRp907
(dp908
g54
(dp909
g74
g75
ssg63
g903
sg56
(lp910
S'http_host'
p911
asbag49
(g70
g51
NtRp912
(dp913
g54
(dp914
g81
g82
ssg63
g903
sg56
(lp915
S':'
asbag49
(g70
g51
NtRp916
(dp917
g54
(dp918
sg63
g903
sg56
(lp919
g49
(g50
g51
NtRp920
(dp921
g54
(dp922
g62
I4
ssg63
g916
sg56
(lp923
S'localhost:8000'
p924
asbasbasbag49
(g65
g51
NtRp925
(dp926
g54
(dp927
sg63
g588
sg56
(lp928
g49
(g70
g51
NtRp929
(dp930
g54
(dp931
g74
g75
ssg63
g925
sg56
(lp932
S'http_user_agent'
p933
asbag49
(g70
g51
NtRp934
(dp935
g54
(dp936
g81
g82
ssg63
g925
sg56
(lp937
S':'
asbag49
(g70
g51
NtRp938
(dp939
g54
(dp940
sg63
g925
sg56
(lp941
g49
(g50
g51
NtRp942
(dp943
g54
(dp944
g62
I4
ssg63
g938
sg56
(lp945
S'Mozilla/5.0 (Windows NT 6.1; WOW64) AppleWebKit/535.11 (KHTML, like Gecko) Chrome/17.0.963.83 Safari/535.11'
p946
asbasbasbag49
(g65
g51
NtRp947
(dp948
g54
(dp949
sg63
g588
sg56
(lp950
g49
(g70
g51
NtRp951
(dp952
g54
(dp953
g74
g75
ssg63
g947
sg56
(lp954
S'is_jython'
p955
asbag49
(g70
g51
NtRp956
(dp957
g54
(dp958
g81
g82
ssg63
g947
sg56
(lp959
S':'
asbag49
(g70
g51
NtRp960
(dp961
g54
(dp962
sg63
g947
sg56
(lp963
g49
(g50
g51
NtRp964
(dp965
g54
(dp966
g62
I4
ssg63
g960
sg56
(lp967
g92
asbasbasbag49
(g65
g51
NtRp968
(dp969
g54
(dp970
sg63
g588
sg56
(lp971
g49
(g70
g51
NtRp972
(dp973
g54
(dp974
g74
g75
ssg63
g968
sg56
(lp975
S'is_pypy'
p976
asbag49
(g70
g51
NtRp977
(dp978
g54
(dp979
g81
g82
ssg63
g968
sg56
(lp980
S':'
asbag49
(g70
g51
NtRp981
(dp982
g54
(dp983
sg63
g968
sg56
(lp984
g49
(g50
g51
NtRp985
(dp986
g54
(dp987
g62
I4
ssg63
g981
sg56
(lp988
g92
asbasbasbag49
(g65
g51
NtRp989
(dp990
g54
(dp991
sg63
g588
sg56
(lp992
g49
(g70
g51
NtRp993
(dp994
g54
(dp995
g74
g75
ssg63
g989
sg56
(lp996
S'path_info'
p997
asbag49
(g70
g51
NtRp998
(dp999
g54
(dp1000
g81
g82
ssg63
g989
sg56
(lp1001
S':'
asbag49
(g70
g51
NtRp1002
(dp1003
g54
(dp1004
sg63
g989
sg56
(lp1005
g49
(g50
g51
NtRp1006
(dp1007
g54
(dp1008
g62
I4
ssg63
g1002
sg56
(lp1009
S'/init/default/initdbjack'
p1010
asbasbasbag49
(g65
g51
NtRp1011
(dp1012
g54
(dp1013
sg63
g588
sg56
(lp1014
g49
(g70
g51
NtRp1015
(dp1016
g54
(dp1017
g74
g75
ssg63
g1011
sg56
(lp1018
S'query_string'
p1019
asbag49
(g70
g51
NtRp1020
(dp1021
g54
(dp1022
g81
g82
ssg63
g1011
sg56
(lp1023
S':'
asbag49
(g70
g51
NtRp1024
(dp1025
g54
(dp1026
sg63
g1011
sg56
(lp1027
g49
(g50
g51
NtRp1028
(dp1029
g54
(dp1030
g62
I4
ssg63
g1024
sg56
(lp1031
S''
asbasbasbag49
(g65
g51
NtRp1032
(dp1033
g54
(dp1034
sg63
g588
sg56
(lp1035
g49
(g70
g51
NtRp1036
(dp1037
g54
(dp1038
g74
g75
ssg63
g1032
sg56
(lp1039
S'remote_addr'
p1040
asbag49
(g70
g51
NtRp1041
(dp1042
g54
(dp1043
g81
g82
ssg63
g1032
sg56
(lp1044
S':'
asbag49
(g70
g51
NtRp1045
(dp1046
g54
(dp1047
sg63
g1032
sg56
(lp1048
g49
(g50
g51
NtRp1049
(dp1050
g54
(dp1051
g62
I4
ssg63
g1045
sg56
(lp1052
g182
asbasbasbag49
(g65
g51
NtRp1053
(dp1054
g54
(dp1055
sg63
g588
sg56
(lp1056
g49
(g70
g51
NtRp1057
(dp1058
g54
(dp1059
g74
g75
ssg63
g1053
sg56
(lp1060
S'remote_port'
p1061
asbag49
(g70
g51
NtRp1062
(dp1063
g54
(dp1064
g81
g82
ssg63
g1053
sg56
(lp1065
S':'
asbag49
(g70
g51
NtRp1066
(dp1067
g54
(dp1068
sg63
g1053
sg56
(lp1069
g49
(g50
g51
NtRp1070
(dp1071
g54
(dp1072
g62
I4
ssg63
g1066
sg56
(lp1073
S'60036'
p1074
asbasbasbag49
(g65
g51
NtRp1075
(dp1076
g54
(dp1077
sg63
g588
sg56
(lp1078
g49
(g70
g51
NtRp1079
(dp1080
g54
(dp1081
g74
g75
ssg63
g1075
sg56
(lp1082
S'request_method'
p1083
asbag49
(g70
g51
NtRp1084
(dp1085
g54
(dp1086
g81
g82
ssg63
g1075
sg56
(lp1087
S':'
asbag49
(g70
g51
NtRp1088
(dp1089
g54
(dp1090
sg63
g1075
sg56
(lp1091
g49
(g50
g51
NtRp1092
(dp1093
g54
(dp1094
g62
I4
ssg63
g1088
sg56
(lp1095
S'GET'
p1096
asbasbasbag49
(g65
g51
NtRp1097
(dp1098
g54
(dp1099
sg63
g588
sg56
(lp1100
g49
(g70
g51
NtRp1101
(dp1102
g54
(dp1103
g74
g75
ssg63
g1097
sg56
(lp1104
S'script_name'
p1105
asbag49
(g70
g51
NtRp1106
(dp1107
g54
(dp1108
g81
g82
ssg63
g1097
sg56
(lp1109
S':'
asbag49
(g70
g51
NtRp1110
(dp1111
g54
(dp1112
sg63
g1097
sg56
(lp1113
g49
(g50
g51
NtRp1114
(dp1115
g54
(dp1116
g62
I4
ssg63
g1110
sg56
(lp1117
S''
asbasbasbag49
(g65
g51
NtRp1118
(dp1119
g54
(dp1120
sg63
g588
sg56
(lp1121
g49
(g70
g51
NtRp1122
(dp1123
g54
(dp1124
g74
g75
ssg63
g1118
sg56
(lp1125
S'server_name'
p1126
asbag49
(g70
g51
NtRp1127
(dp1128
g54
(dp1129
g81
g82
ssg63
g1118
sg56
(lp1130
S':'
asbag49
(g70
g51
NtRp1131
(dp1132
g54
(dp1133
sg63
g1118
sg56
(lp1134
g49
(g50
g51
NtRp1135
(dp1136
g54
(dp1137
g62
I4
ssg63
g1131
sg56
(lp1138
S'Batou'
p1139
asbasbasbag49
(g65
g51
NtRp1140
(dp1141
g54
(dp1142
sg63
g588
sg56
(lp1143
g49
(g70
g51
NtRp1144
(dp1145
g54
(dp1146
g74
g75
ssg63
g1140
sg56
(lp1147
S'server_port'
p1148
asbag49
(g70
g51
NtRp1149
(dp1150
g54
(dp1151
g81
g82
ssg63
g1140
sg56
(lp1152
S':'
asbag49
(g70
g51
NtRp1153
(dp1154
g54
(dp1155
sg63
g1140
sg56
(lp1156
g49
(g50
g51
NtRp1157
(dp1158
g54
(dp1159
g62
I4
ssg63
g1153
sg56
(lp1160
S'8000'
p1161
asbasbasbag49
(g65
g51
NtRp1162
(dp1163
g54
(dp1164
sg63
g588
sg56
(lp1165
g49
(g70
g51
NtRp1166
(dp1167
g54
(dp1168
g74
g75
ssg63
g1162
sg56
(lp1169
S'server_protocol'
p1170
asbag49
(g70
g51
NtRp1171
(dp1172
g54
(dp1173
g81
g82
ssg63
g1162
sg56
(lp1174
S':'
asbag49
(g70
g51
NtRp1175
(dp1176
g54
(dp1177
sg63
g1162
sg56
(lp1178
g49
(g50
g51
NtRp1179
(dp1180
g54
(dp1181
g62
I4
ssg63
g1175
sg56
(lp1182
S'HTTP/1.1'
p1183
asbasbasbag49
(g65
g51
NtRp1184
(dp1185
g54
(dp1186
sg63
g588
sg56
(lp1187
g49
(g70
g51
NtRp1188
(dp1189
g54
(dp1190
g74
g75
ssg63
g1184
sg56
(lp1191
S'server_software'
p1192
asbag49
(g70
g51
NtRp1193
(dp1194
g54
(dp1195
g81
g82
ssg63
g1184
sg56
(lp1196
S':'
asbag49
(g70
g51
NtRp1197
(dp1198
g54
(dp1199
sg63
g1184
sg56
(lp1200
g49
(g50
g51
NtRp1201
(dp1202
g54
(dp1203
g62
I4
ssg63
g1197
sg56
(lp1204
S'Rocket 1.2.4'
p1205
asbasbasbag49
(g65
g51
NtRp1206
(dp1207
g54
(dp1208
sg63
g588
sg56
(lp1209
g49
(g70
g51
NtRp1210
(dp1211
g54
(dp1212
g74
g75
ssg63
g1206
sg56
(lp1213
S'web2py_crontype'
p1214
asbag49
(g70
g51
NtRp1215
(dp1216
g54
(dp1217
g81
g82
ssg63
g1206
sg56
(lp1218
S':'
asbag49
(g70
g51
NtRp1219
(dp1220
g54
(dp1221
sg63
g1206
sg56
(lp1222
g49
(g50
g51
NtRp1223
(dp1224
g54
(dp1225
g62
I4
ssg63
g1219
sg56
(lp1226
S'hard'
p1227
asbasbasbag49
(g65
g51
NtRp1228
(dp1229
g54
(dp1230
sg63
g588
sg56
(lp1231
g49
(g70
g51
NtRp1232
(dp1233
g54
(dp1234
g74
g75
ssg63
g1228
sg56
(lp1235
S'web2py_path'
p1236
asbag49
(g70
g51
NtRp1237
(dp1238
g54
(dp1239
g81
g82
ssg63
g1228
sg56
(lp1240
S':'
asbag49
(g70
g51
NtRp1241
(dp1242
g54
(dp1243
sg63
g1228
sg56
(lp1244
g49
(g50
g51
NtRp1245
(dp1246
g54
(dp1247
g62
I4
ssg63
g1241
sg56
(lp1248
g635
asbasbasbag49
(g65
g51
NtRp1249
(dp1250
g54
(dp1251
sg63
g588
sg56
(lp1252
g49
(g70
g51
NtRp1253
(dp1254
g54
(dp1255
g74
g75
ssg63
g1249
sg56
(lp1256
S'web2py_version'
p1257
asbag49
(g70
g51
NtRp1258
(dp1259
g54
(dp1260
g81
g82
ssg63
g1249
sg56
(lp1261
S':'
asbag49
(g70
g51
NtRp1262
(dp1263
g54
(dp1264
sg63
g1249
sg56
(lp1265
g49
(g50
g51
NtRp1266
(dp1267
g54
(dp1268
g62
I4
ssg63
g1262
sg56
(lp1269
g49
(g58
g51
NtRp1270
(dp1271
g54
(dp1272
g62
I3
ssg63
Nsg56
(lp1273
g49
(g65
g51
NtRp1274
(dp1275
g54
(dp1276
sg63
g1270
sg56
(lp1277
g49
(g70
g51
NtRp1278
(dp1279
g54
(dp1280
sg63
g1274
sg56
(lp1281
g49
(g50
g51
NtRp1282
(dp1283
g54
(dp1284
g62
I3
ssg63
g1278
sg56
(lp1285
S'1'
asbasbasbag49
(g65
g51
NtRp1286
(dp1287
g54
(dp1288
sg63
g1270
sg56
(lp1289
g49
(g70
g51
NtRp1290
(dp1291
g54
(dp1292
sg63
g1286
sg56
(lp1293
g49
(g50
g51
NtRp1294
(dp1295
g54
(dp1296
g62
I3
ssg63
g1290
sg56
(lp1297
S'99'
p1298
asbasbasbag49
(g65
g51
NtRp1299
(dp1300
g54
(dp1301
sg63
g1270
sg56
(lp1302
g49
(g70
g51
NtRp1303
(dp1304
g54
(dp1305
sg63
g1299
sg56
(lp1306
g49
(g50
g51
NtRp1307
(dp1308
g54
(dp1309
g62
I3
ssg63
g1303
sg56
(lp1310
S'7'
asbasbasbag49
(g65
g51
NtRp1311
(dp1312
g54
(dp1313
sg63
g1270
sg56
(lp1314
g49
(g70
g51
NtRp1315
(dp1316
g54
(dp1317
sg63
g1311
sg56
(lp1318
g49
(g50
g51
NtRp1319
(dp1320
g54
(dp1321
g62
I3
ssg63
g1315
sg56
(lp1322
S'datetime.datetime(2012, 3, 4, 22, 12, 8)'
p1323
asbasbasbag49
(g65
g51
NtRp1324
(dp1325
g54
(dp1326
sg63
g1270
sg56
(lp1327
g49
(g70
g51
NtRp1328
(dp1329
g54
(dp1330
sg63
g1324
sg56
(lp1331
g49
(g50
g51
NtRp1332
(dp1333
g54
(dp1334
g62
I3
ssg63
g1328
sg56
(lp1335
S'stable'
p1336
asbasbasbasbasbasbasbag49
(g65
g51
NtRp1337
(dp1338
g54
(dp1339
sg63
g588
sg56
(lp1340
g49
(g70
g51
NtRp1341
(dp1342
g54
(dp1343
g74
g75
ssg63
g1337
sg56
(lp1344
S'wsgi_errors'
p1345
asbag49
(g70
g51
NtRp1346
(dp1347
g54
(dp1348
g81
g82
ssg63
g1337
sg56
(lp1349
S':'
asbag49
(g70
g51
NtRp1350
(dp1351
g54
(dp1352
sg63
g1337
sg56
(lp1353
g49
(g50
g51
NtRp1354
(dp1355
g54
(dp1356
g62
I4
ssg63
g1350
sg56
(lp1357
S"<open file '<stderr>', mode 'w' at 0x005300B0>"
p1358
asbasbasbag49
(g65
g51
NtRp1359
(dp1360
g54
(dp1361
sg63
g588
sg56
(lp1362
g49
(g70
g51
NtRp1363
(dp1364
g54
(dp1365
g74
g75
ssg63
g1359
sg56
(lp1366
S'wsgi_file_wrapper'
p1367
asbag49
(g70
g51
NtRp1368
(dp1369
g54
(dp1370
g81
g82
ssg63
g1359
sg56
(lp1371
S':'
asbag49
(g70
g51
NtRp1372
(dp1373
g54
(dp1374
sg63
g1359
sg56
(lp1375
g49
(g50
g51
NtRp1376
(dp1377
g54
(dp1378
g62
I4
ssg63
g1372
sg56
(lp1379
S'<class wsgiref.util.FileWrapper at 0x02C34900>'
p1380
asbasbasbag49
(g65
g51
NtRp1381
(dp1382
g54
(dp1383
sg63
g588
sg56
(lp1384
g49
(g70
g51
NtRp1385
(dp1386
g54
(dp1387
g74
g75
ssg63
g1381
sg56
(lp1388
S'wsgi_input'
p1389
asbag49
(g70
g51
NtRp1390
(dp1391
g54
(dp1392
g81
g82
ssg63
g1381
sg56
(lp1393
S':'
asbag49
(g70
g51
NtRp1394
(dp1395
g54
(dp1396
sg63
g1381
sg56
(lp1397
g49
(g50
g51
NtRp1398
(dp1399
g54
(dp1400
g62
I4
ssg63
g1394
sg56
(lp1401
S'<socket._fileobject object at 0x03FB4E70>'
p1402
asbasbasbag49
(g65
g51
NtRp1403
(dp1404
g54
(dp1405
sg63
g588
sg56
(lp1406
g49
(g70
g51
NtRp1407
(dp1408
g54
(dp1409
g74
g75
ssg63
g1403
sg56
(lp1410
S'wsgi_multiprocess'
p1411
asbag49
(g70
g51
NtRp1412
(dp1413
g54
(dp1414
g81
g82
ssg63
g1403
sg56
(lp1415
S':'
asbag49
(g70
g51
NtRp1416
(dp1417
g54
(dp1418
sg63
g1403
sg56
(lp1419
g49
(g50
g51
NtRp1420
(dp1421
g54
(dp1422
g62
I4
ssg63
g1416
sg56
(lp1423
g92
asbasbasbag49
(g65
g51
NtRp1424
(dp1425
g54
(dp1426
sg63
g588
sg56
(lp1427
g49
(g70
g51
NtRp1428
(dp1429
g54
(dp1430
g74
g75
ssg63
g1424
sg56
(lp1431
S'wsgi_multithread'
p1432
asbag49
(g70
g51
NtRp1433
(dp1434
g54
(dp1435
g81
g82
ssg63
g1424
sg56
(lp1436
S':'
asbag49
(g70
g51
NtRp1437
(dp1438
g54
(dp1439
sg63
g1424
sg56
(lp1440
g49
(g50
g51
NtRp1441
(dp1442
g54
(dp1443
g62
I4
ssg63
g1437
sg56
(lp1444
g726
asbasbasbag49
(g65
g51
NtRp1445
(dp1446
g54
(dp1447
sg63
g588
sg56
(lp1448
g49
(g70
g51
NtRp1449
(dp1450
g54
(dp1451
g74
g75
ssg63
g1445
sg56
(lp1452
S'wsgi_run_once'
p1453
asbag49
(g70
g51
NtRp1454
(dp1455
g54
(dp1456
g81
g82
ssg63
g1445
sg56
(lp1457
S':'
asbag49
(g70
g51
NtRp1458
(dp1459
g54
(dp1460
sg63
g1445
sg56
(lp1461
g49
(g50
g51
NtRp1462
(dp1463
g54
(dp1464
g62
I4
ssg63
g1458
sg56
(lp1465
g92
asbasbasbag49
(g65
g51
NtRp1466
(dp1467
g54
(dp1468
sg63
g588
sg56
(lp1469
g49
(g70
g51
NtRp1470
(dp1471
g54
(dp1472
g74
g75
ssg63
g1466
sg56
(lp1473
S'wsgi_url_scheme'
p1474
asbag49
(g70
g51
NtRp1475
(dp1476
g54
(dp1477
g81
g82
ssg63
g1466
sg56
(lp1478
S':'
asbag49
(g70
g51
NtRp1479
(dp1480
g54
(dp1481
sg63
g1466
sg56
(lp1482
g49
(g50
g51
NtRp1483
(dp1484
g54
(dp1485
g62
I4
ssg63
g1479
sg56
(lp1486
S'http'
p1487
asbasbasbag49
(g65
g51
NtRp1488
(dp1489
g54
(dp1490
sg63
g588
sg56
(lp1491
g49
(g70
g51
NtRp1492
(dp1493
g54
(dp1494
g74
g75
ssg63
g1488
sg56
(lp1495
S'wsgi_version'
p1496
asbag49
(g70
g51
NtRp1497
(dp1498
g54
(dp1499
g81
g82
ssg63
g1488
sg56
(lp1500
S':'
asbag49
(g70
g51
NtRp1501
(dp1502
g54
(dp1503
sg63
g1488
sg56
(lp1504
g49
(g50
g51
NtRp1505
(dp1506
g54
(dp1507
g62
I4
ssg63
g1501
sg56
(lp1508
g49
(g58
g51
NtRp1509
(dp1510
g54
(dp1511
g62
I3
ssg63
Nsg56
(lp1512
g49
(g65
g51
NtRp1513
(dp1514
g54
(dp1515
sg63
g1509
sg56
(lp1516
g49
(g70
g51
NtRp1517
(dp1518
g54
(dp1519
sg63
g1513
sg56
(lp1520
g49
(g50
g51
NtRp1521
(dp1522
g54
(dp1523
g62
I3
ssg63
g1517
sg56
(lp1524
S'1'
asbasbasbag49
(g65
g51
NtRp1525
(dp1526
g54
(dp1527
sg63
g1509
sg56
(lp1528
g49
(g70
g51
NtRp1529
(dp1530
g54
(dp1531
sg63
g1525
sg56
(lp1532
g49
(g50
g51
NtRp1533
(dp1534
g54
(dp1535
g62
I3
ssg63
g1529
sg56
(lp1536
S'0'
asbasbasbasbasbasbasbasbasbasbasbag49
(g65
g51
NtRp1537
(dp1538
g54
(dp1539
sg63
g59
sg56
(lp1540
g49
(g70
g51
NtRp1541
(dp1542
g54
(dp1543
g74
g75
ssg63
g1537
sg56
(lp1544
S'extension'
p1545
asbag49
(g70
g51
NtRp1546
(dp1547
g54
(dp1548
g81
g82
ssg63
g1537
sg56
(lp1549
S':'
asbag49
(g70
g51
NtRp1550
(dp1551
g54
(dp1552
sg63
g1537
sg56
(lp1553
g49
(g50
g51
NtRp1554
(dp1555
g54
(dp1556
g62
I5
ssg63
g1550
sg56
(lp1557
S'html'
p1558
asbasbasbag49
(g65
g51
NtRp1559
(dp1560
g54
(dp1561
sg63
g59
sg56
(lp1562
g49
(g70
g51
NtRp1563
(dp1564
g54
(dp1565
g74
g75
ssg63
g1559
sg56
(lp1566
S'folder'
p1567
asbag49
(g70
g51
NtRp1568
(dp1569
g54
(dp1570
g81
g82
ssg63
g1559
sg56
(lp1571
S':'
asbag49
(g70
g51
NtRp1572
(dp1573
g54
(dp1574
sg63
g1559
sg56
(lp1575
g49
(g50
g51
NtRp1576
(dp1577
g54
(dp1578
g62
I5
ssg63
g1572
sg56
(lp1579
S'C:\\Users\\Bussiere\\Dropbox\\Projets\\jackpoint\\web2py\\applications\\init\\'
p1580
asbasbasbag49
(g65
g51
NtRp1581
(dp1582
g54
(dp1583
sg63
g59
sg56
(lp1584
g49
(g70
g51
NtRp1585
(dp1586
g54
(dp1587
g74
g75
ssg63
g1581
sg56
(lp1588
S'function'
p1589
asbag49
(g70
g51
NtRp1590
(dp1591
g54
(dp1592
g81
g82
ssg63
g1581
sg56
(lp1593
S':'
asbag49
(g70
g51
NtRp1594
(dp1595
g54
(dp1596
sg63
g1581
sg56
(lp1597
g49
(g50
g51
NtRp1598
(dp1599
g54
(dp1600
g62
I5
ssg63
g1594
sg56
(lp1601
S'initdbjack'
p1602
asbasbasbag49
(g65
g51
NtRp1603
(dp1604
g54
(dp1605
sg63
g59
sg56
(lp1606
g49
(g70
g51
NtRp1607
(dp1608
g54
(dp1609
g74
g75
ssg63
g1603
sg56
(lp1610
S'get_vars'
p1611
asbag49
(g70
g51
NtRp1612
(dp1613
g54
(dp1614
g81
g82
ssg63
g1603
sg56
(lp1615
S':'
asbag49
(g70
g51
NtRp1616
(dp1617
g54
(dp1618
sg63
g1603
sg56
(lp1619
g49
(g50
g51
NtRp1620
(dp1621
g54
(dp1622
g62
I5
ssg63
g1616
sg56
(lp1623
g49
(g58
g51
NtRp1624
(dp1625
g54
(dp1626
g62
I4
ssg63
Nsg56
(lp1627
sbasbasbasbag49
(g65
g51
NtRp1628
(dp1629
g54
(dp1630
sg63
g59
sg56
(lp1631
g49
(g70
g51
NtRp1632
(dp1633
g54
(dp1634
g74
g75
ssg63
g1628
sg56
(lp1635
S'global_settings'
p1636
asbag49
(g70
g51
NtRp1637
(dp1638
g54
(dp1639
g81
g82
ssg63
g1628
sg56
(lp1640
S':'
asbag49
(g70
g51
NtRp1641
(dp1642
g54
(dp1643
sg63
g1628
sg56
(lp1644
g49
(g50
g51
NtRp1645
(dp1646
g54
(dp1647
g62
I5
ssg63
g1641
sg56
(lp1648
g49
(g58
g51
NtRp1649
(dp1650
g54
(dp1651
g62
I4
ssg63
Nsg56
(lp1652
g49
(g65
g51
NtRp1653
(dp1654
g54
(dp1655
sg63
g1649
sg56
(lp1656
g49
(g70
g51
NtRp1657
(dp1658
g54
(dp1659
g74
g75
ssg63
g1653
sg56
(lp1660
g600
asbag49
(g70
g51
NtRp1661
(dp1662
g54
(dp1663
g81
g82
ssg63
g1653
sg56
(lp1664
S':'
asbag49
(g70
g51
NtRp1665
(dp1666
g54
(dp1667
sg63
g1653
sg56
(lp1668
g49
(g50
g51
NtRp1669
(dp1670
g54
(dp1671
g62
I4
ssg63
g1665
sg56
(lp1672
S"set(['C:\\\\Users\\\\Bussiere\\\\Dropbox\\\\Projets\\\\jackpoint\\\\web2py\\\\applications\\\\init\\\\', 'C:\\\\Users\\\\Bussiere\\\\Dropbox\\\\Projets\\\\jackpoint\\\\web2py\\\\applications\\\\admin\\\\'])"
p1673
asbasbasbag49
(g65
g51
NtRp1674
(dp1675
g54
(dp1676
sg63
g1649
sg56
(lp1677
g49
(g70
g51
NtRp1678
(dp1679
g54
(dp1680
g74
g75
ssg63
g1674
sg56
(lp1681
g622
asbag49
(g70
g51
NtRp1682
(dp1683
g54
(dp1684
g81
g82
ssg63
g1674
sg56
(lp1685
S':'
asbag49
(g70
g51
NtRp1686
(dp1687
g54
(dp1688
sg63
g1674
sg56
(lp1689
g49
(g50
g51
NtRp1690
(dp1691
g54
(dp1692
g62
I4
ssg63
g1686
sg56
(lp1693
g635
asbasbasbag49
(g65
g51
NtRp1694
(dp1695
g54
(dp1696
sg63
g1649
sg56
(lp1697
g49
(g70
g51
NtRp1698
(dp1699
g54
(dp1700
g74
g75
ssg63
g1694
sg56
(lp1701
g644
asbag49
(g70
g51
NtRp1702
(dp1703
g54
(dp1704
g81
g82
ssg63
g1694
sg56
(lp1705
S':'
asbag49
(g70
g51
NtRp1706
(dp1707
g54
(dp1708
sg63
g1694
sg56
(lp1709
g49
(g50
g51
NtRp1710
(dp1711
g54
(dp1712
g62
I4
ssg63
g1706
sg56
(lp1713
g49
(g58
g51
NtRp1714
(dp1715
g54
(dp1716
g62
I3
ssg63
Nsg56
(lp1717
sbasbasbasbag49
(g65
g51
NtRp1718
(dp1719
g54
(dp1720
sg63
g1649
sg56
(lp1721
g49
(g70
g51
NtRp1722
(dp1723
g54
(dp1724
g74
g75
ssg63
g1718
sg56
(lp1725
g669
asbag49
(g70
g51
NtRp1726
(dp1727
g54
(dp1728
g81
g82
ssg63
g1718
sg56
(lp1729
S':'
asbag49
(g70
g51
NtRp1730
(dp1731
g54
(dp1732
sg63
g1718
sg56
(lp1733
g49
(g50
g51
NtRp1734
(dp1735
g54
(dp1736
g62
I4
ssg63
g1730
sg56
(lp1737
S"<Values at 0x3d15fa8: {'verbose': False, 'ip': '127.0.0.1', 'shutdown_timeout': 5, 'taskbar': False, 'nocron': False, 'pid_filename': 'httpserver.pid', 'maxthreads': None, 'softcron': False, 'server_name': 'Batou', 'bpython': False, 'nogui': False, 'port': 8000, 'extcron': False, 'debuglevel': 30, 'test': None, 'folder': 'C:\\\\Users\\\\Bussiere\\\\Dropbox\\\\Projets\\\\jackpoint\\\\web2py', 'config': '', 'import_models': False, 'winservice': '', 'shell': None, 'run': '', 'log_filename': 'httpserver.log', 'args': [''], 'socket_timeout': 5, 'ssl_ca_certificate': None, 'scheduler': None, 'profiler_filename': None, 'ssl_private_key': '', 'password': '<ask>', 'request_queue_size': 5, 'ssl_certificate': '', 'cronjob': False, 'numthreads': None, 'quiet': False, 'interfaces': None, 'minthreads': None, 'timeout': 10, 'plain': False, 'nobanner': False}>"
p1738
asbasbasbag49
(g65
g51
NtRp1739
(dp1740
g54
(dp1741
sg63
g1649
sg56
(lp1742
g49
(g70
g51
NtRp1743
(dp1744
g54
(dp1745
g74
g75
ssg63
g1739
sg56
(lp1746
g691
asbag49
(g70
g51
NtRp1747
(dp1748
g54
(dp1749
g81
g82
ssg63
g1739
sg56
(lp1750
S':'
asbag49
(g70
g51
NtRp1751
(dp1752
g54
(dp1753
sg63
g1739
sg56
(lp1754
g49
(g50
g51
NtRp1755
(dp1756
g54
(dp1757
g62
I4
ssg63
g1751
sg56
(lp1758
S"set(['init'])"
p1759
asbasbasbag49
(g65
g51
NtRp1760
(dp1761
g54
(dp1762
sg63
g1649
sg56
(lp1763
g49
(g70
g51
NtRp1764
(dp1765
g54
(dp1766
g74
g75
ssg63
g1760
sg56
(lp1767
g713
asbag49
(g70
g51
NtRp1768
(dp1769
g54
(dp1770
g81
g82
ssg63
g1760
sg56
(lp1771
S':'
asbag49
(g70
g51
NtRp1772
(dp1773
g54
(dp1774
sg63
g1760
sg56
(lp1775
g49
(g50
g51
NtRp1776
(dp1777
g54
(dp1778
g62
I4
ssg63
g1772
sg56
(lp1779
g726
asbasbasbag49
(g65
g51
NtRp1780
(dp1781
g54
(dp1782
sg63
g1649
sg56
(lp1783
g49
(g70
g51
NtRp1784
(dp1785
g54
(dp1786
g74
g75
ssg63
g1780
sg56
(lp1787
g735
asbag49
(g70
g51
NtRp1788
(dp1789
g54
(dp1790
g81
g82
ssg63
g1780
sg56
(lp1791
S':'
asbag49
(g70
g51
NtRp1792
(dp1793
g54
(dp1794
sg63
g1780
sg56
(lp1795
g49
(g50
g51
NtRp1796
(dp1797
g54
(dp1798
g62
I4
ssg63
g1792
sg56
(lp1799
g748
asbasbasbag49
(g65
g51
NtRp1800
(dp1801
g54
(dp1802
sg63
g1649
sg56
(lp1803
g49
(g70
g51
NtRp1804
(dp1805
g54
(dp1806
g74
g75
ssg63
g1800
sg56
(lp1807
g955
asbag49
(g70
g51
NtRp1808
(dp1809
g54
(dp1810
g81
g82
ssg63
g1800
sg56
(lp1811
S':'
asbag49
(g70
g51
NtRp1812
(dp1813
g54
(dp1814
sg63
g1800
sg56
(lp1815
g49
(g50
g51
NtRp1816
(dp1817
g54
(dp1818
g62
I4
ssg63
g1812
sg56
(lp1819
g92
asbasbasbag49
(g65
g51
NtRp1820
(dp1821
g54
(dp1822
sg63
g1649
sg56
(lp1823
g49
(g70
g51
NtRp1824
(dp1825
g54
(dp1826
g74
g75
ssg63
g1820
sg56
(lp1827
g976
asbag49
(g70
g51
NtRp1828
(dp1829
g54
(dp1830
g81
g82
ssg63
g1820
sg56
(lp1831
S':'
asbag49
(g70
g51
NtRp1832
(dp1833
g54
(dp1834
sg63
g1820
sg56
(lp1835
g49
(g50
g51
NtRp1836
(dp1837
g54
(dp1838
g62
I4
ssg63
g1832
sg56
(lp1839
g92
asbasbasbag49
(g65
g51
NtRp1840
(dp1841
g54
(dp1842
sg63
g1649
sg56
(lp1843
g49
(g70
g51
NtRp1844
(dp1845
g54
(dp1846
g74
g75
ssg63
g1840
sg56
(lp1847
g1214
asbag49
(g70
g51
NtRp1848
(dp1849
g54
(dp1850
g81
g82
ssg63
g1840
sg56
(lp1851
S':'
asbag49
(g70
g51
NtRp1852
(dp1853
g54
(dp1854
sg63
g1840
sg56
(lp1855
g49
(g50
g51
NtRp1856
(dp1857
g54
(dp1858
g62
I4
ssg63
g1852
sg56
(lp1859
g1227
asbasbasbag49
(g65
g51
NtRp1860
(dp1861
g54
(dp1862
sg63
g1649
sg56
(lp1863
g49
(g70
g51
NtRp1864
(dp1865
g54
(dp1866
g74
g75
ssg63
g1860
sg56
(lp1867
g1257
asbag49
(g70
g51
NtRp1868
(dp1869
g54
(dp1870
g81
g82
ssg63
g1860
sg56
(lp1871
S':'
asbag49
(g70
g51
NtRp1872
(dp1873
g54
(dp1874
sg63
g1860
sg56
(lp1875
g49
(g50
g51
NtRp1876
(dp1877
g54
(dp1878
g62
I4
ssg63
g1872
sg56
(lp1879
g49
(g58
g51
NtRp1880
(dp1881
g54
(dp1882
g62
I3
ssg63
Nsg56
(lp1883
g49
(g65
g51
NtRp1884
(dp1885
g54
(dp1886
sg63
g1880
sg56
(lp1887
g49
(g70
g51
NtRp1888
(dp1889
g54
(dp1890
sg63
g1884
sg56
(lp1891
g49
(g50
g51
NtRp1892
(dp1893
g54
(dp1894
g62
I3
ssg63
g1888
sg56
(lp1895
S'1'
asbasbasbag49
(g65
g51
NtRp1896
(dp1897
g54
(dp1898
sg63
g1880
sg56
(lp1899
g49
(g70
g51
NtRp1900
(dp1901
g54
(dp1902
sg63
g1896
sg56
(lp1903
g49
(g50
g51
NtRp1904
(dp1905
g54
(dp1906
g62
I3
ssg63
g1900
sg56
(lp1907
S'99'
p1908
asbasbasbag49
(g65
g51
NtRp1909
(dp1910
g54
(dp1911
sg63
g1880
sg56
(lp1912
g49
(g70
g51
NtRp1913
(dp1914
g54
(dp1915
sg63
g1909
sg56
(lp1916
g49
(g50
g51
NtRp1917
(dp1918
g54
(dp1919
g62
I3
ssg63
g1913
sg56
(lp1920
S'7'
asbasbasbag49
(g65
g51
NtRp1921
(dp1922
g54
(dp1923
sg63
g1880
sg56
(lp1924
g49
(g70
g51
NtRp1925
(dp1926
g54
(dp1927
sg63
g1921
sg56
(lp1928
g49
(g50
g51
NtRp1929
(dp1930
g54
(dp1931
g62
I3
ssg63
g1925
sg56
(lp1932
S'datetime.datetime(2012, 3, 4, 22, 12, 8)'
p1933
asbasbasbag49
(g65
g51
NtRp1934
(dp1935
g54
(dp1936
sg63
g1880
sg56
(lp1937
g49
(g70
g51
NtRp1938
(dp1939
g54
(dp1940
sg63
g1934
sg56
(lp1941
g49
(g50
g51
NtRp1942
(dp1943
g54
(dp1944
g62
I3
ssg63
g1938
sg56
(lp1945
g1336
asbasbasbasbasbasbasbasbasbasbasbag49
(g65
g51
NtRp1946
(dp1947
g54
(dp1948
sg63
g59
sg56
(lp1949
g49
(g70
g51
NtRp1950
(dp1951
g54
(dp1952
g74
g75
ssg63
g1946
sg56
(lp1953
S'is_https'
p1954
asbag49
(g70
g51
NtRp1955
(dp1956
g54
(dp1957
g81
g82
ssg63
g1946
sg56
(lp1958
S':'
asbag49
(g70
g51
NtRp1959
(dp1960
g54
(dp1961
sg63
g1946
sg56
(lp1962
g49
(g50
g51
NtRp1963
(dp1964
g54
(dp1965
g62
I5
ssg63
g1959
sg56
(lp1966
g92
asbasbasbag49
(g65
g51
NtRp1967
(dp1968
g54
(dp1969
sg63
g59
sg56
(lp1970
g49
(g70
g51
NtRp1971
(dp1972
g54
(dp1973
g74
g75
ssg63
g1967
sg56
(lp1974
S'is_local'
p1975
asbag49
(g70
g51
NtRp1976
(dp1977
g54
(dp1978
g81
g82
ssg63
g1967
sg56
(lp1979
S':'
asbag49
(g70
g51
NtRp1980
(dp1981
g54
(dp1982
sg63
g1967
sg56
(lp1983
g49
(g50
g51
NtRp1984
(dp1985
g54
(dp1986
g62
I5
ssg63
g1980
sg56
(lp1987
g726
asbasbasbag49
(g65
g51
NtRp1988
(dp1989
g54
(dp1990
sg63
g59
sg56
(lp1991
g49
(g70
g51
NtRp1992
(dp1993
g54
(dp1994
g74
g75
ssg63
g1988
sg56
(lp1995
S'is_restful'
p1996
asbag49
(g70
g51
NtRp1997
(dp1998
g54
(dp1999
g81
g82
ssg63
g1988
sg56
(lp2000
S':'
asbag49
(g70
g51
NtRp2001
(dp2002
g54
(dp2003
sg63
g1988
sg56
(lp2004
g49
(g50
g51
NtRp2005
(dp2006
g54
(dp2007
g62
I5
ssg63
g2001
sg56
(lp2008
g92
asbasbasbag49
(g65
g51
NtRp2009
(dp2010
g54
(dp2011
sg63
g59
sg56
(lp2012
g49
(g70
g51
NtRp2013
(dp2014
g54
(dp2015
g74
g75
ssg63
g2009
sg56
(lp2016
S'now'
p2017
asbag49
(g70
g51
NtRp2018
(dp2019
g54
(dp2020
g81
g82
ssg63
g2009
sg56
(lp2021
S':'
asbag49
(g70
g51
NtRp2022
(dp2023
g54
(dp2024
sg63
g2009
sg56
(lp2025
g49
(g50
g51
NtRp2026
(dp2027
g54
(dp2028
g62
I5
ssg63
g2022
sg56
(lp2029
S'datetime.datetime(2012, 3, 29, 11, 46, 45, 558000)'
p2030
asbasbasbag49
(g65
g51
NtRp2031
(dp2032
g54
(dp2033
sg63
g59
sg56
(lp2034
g49
(g70
g51
NtRp2035
(dp2036
g54
(dp2037
g74
g75
ssg63
g2031
sg56
(lp2038
S'post_vars'
p2039
asbag49
(g70
g51
NtRp2040
(dp2041
g54
(dp2042
g81
g82
ssg63
g2031
sg56
(lp2043
S':'
asbag49
(g70
g51
NtRp2044
(dp2045
g54
(dp2046
sg63
g2031
sg56
(lp2047
g49
(g50
g51
NtRp2048
(dp2049
g54
(dp2050
g62
I5
ssg63
g2044
sg56
(lp2051
g49
(g58
g51
NtRp2052
(dp2053
g54
(dp2054
g62
I4
ssg63
Nsg56
(lp2055
sbasbasbasbag49
(g65
g51
NtRp2056
(dp2057
g54
(dp2058
sg63
g59
sg56
(lp2059
g49
(g70
g51
NtRp2060
(dp2061
g54
(dp2062
g74
g75
ssg63
g2056
sg56
(lp2063
S'url'
p2064
asbag49
(g70
g51
NtRp2065
(dp2066
g54
(dp2067
g81
g82
ssg63
g2056
sg56
(lp2068
S':'
asbag49
(g70
g51
NtRp2069
(dp2070
g54
(dp2071
sg63
g2056
sg56
(lp2072
g49
(g50
g51
NtRp2073
(dp2074
g54
(dp2075
g62
I5
ssg63
g2069
sg56
(lp2076
S'/init/default/initdbjack'
p2077
asbasbasbag49
(g65
g51
NtRp2078
(dp2079
g54
(dp2080
sg63
g59
sg56
(lp2081
g49
(g70
g51
NtRp2082
(dp2083
g54
(dp2084
g74
g75
ssg63
g2078
sg56
(lp2085
S'utcnow'
p2086
asbag49
(g70
g51
NtRp2087
(dp2088
g54
(dp2089
g81
g82
ssg63
g2078
sg56
(lp2090
S':'
asbag49
(g70
g51
NtRp2091
(dp2092
g54
(dp2093
sg63
g2078
sg56
(lp2094
g49
(g50
g51
NtRp2095
(dp2096
g54
(dp2097
g62
I5
ssg63
g2091
sg56
(lp2098
S'datetime.datetime(2012, 3, 29, 9, 46, 45, 558000)'
p2099
asbasbasbag49
(g65
g51
NtRp2100
(dp2101
g54
(dp2102
sg63
g59
sg56
(lp2103
g49
(g70
g51
NtRp2104
(dp2105
g54
(dp2106
g74
g75
ssg63
g2100
sg56
(lp2107
S'uuid'
p2108
asbag49
(g70
g51
NtRp2109
(dp2110
g54
(dp2111
g81
g82
ssg63
g2100
sg56
(lp2112
S':'
asbag49
(g70
g51
NtRp2113
(dp2114
g54
(dp2115
sg63
g2100
sg56
(lp2116
g49
(g50
g51
NtRp2117
(dp2118
g54
(dp2119
g62
I5
ssg63
g2113
sg56
(lp2120
S'init/127.0.0.1.2012-03-29.11-46-45.d332c4f8-6d49-4849-89e4-8ec41b46a156'
p2121
asbasbasbag49
(g65
g51
NtRp2122
(dp2123
g54
(dp2124
sg63
g59
sg56
(lp2125
g49
(g70
g51
NtRp2126
(dp2127
g54
(dp2128
g74
g75
ssg63
g2122
sg56
(lp2129
S'vars'
p2130
asbag49
(g70
g51
NtRp2131
(dp2132
g54
(dp2133
g81
g82
ssg63
g2122
sg56
(lp2134
S':'
asbag49
(g70
g51
NtRp2135
(dp2136
g54
(dp2137
sg63
g2122
sg56
(lp2138
g49
(g50
g51
NtRp2139
(dp2140
g54
(dp2141
g62
I5
ssg63
g2135
sg56
(lp2142
g49
(g58
g51
NtRp2143
(dp2144
g54
(dp2145
g62
I4
ssg63
Nsg56
(lp2146
sbasbasbasbag49
(g65
g51
NtRp2147
(dp2148
g54
(dp2149
sg63
g59
sg56
(lp2150
g49
(g70
g51
NtRp2151
(dp2152
g54
(dp2153
g74
g75
ssg63
g2147
sg56
(lp2154
S'wsgi'
p2155
asbag49
(g70
g51
NtRp2156
(dp2157
g54
(dp2158
g81
g82
ssg63
g2147
sg56
(lp2159
S':'
asbag49
(g70
g51
NtRp2160
(dp2161
g54
(dp2162
sg63
g2147
sg56
(lp2163
g49
(g50
g51
NtRp2164
(dp2165
g54
(dp2166
g62
I5
ssg63
g2160
sg56
(lp2167
g49
(g58
g51
NtRp2168
(dp2169
g54
(dp2170
g62
I4
ssg63
Nsg56
(lp2171
g49
(g65
g51
NtRp2172
(dp2173
g54
(dp2174
sg63
g2168
sg56
(lp2175
g49
(g70
g51
NtRp2176
(dp2177
g54
(dp2178
g74
g75
ssg63
g2172
sg56
(lp2179
S'environ'
p2180
asbag49
(g70
g51
NtRp2181
(dp2182
g54
(dp2183
g81
g82
ssg63
g2172
sg56
(lp2184
S':'
asbag49
(g70
g51
NtRp2185
(dp2186
g54
(dp2187
sg63
g2172
sg56
(lp2188
g49
(g50
g51
NtRp2189
(dp2190
g54
(dp2191
g62
I4
ssg63
g2185
sg56
(lp2192
g49
(g58
g51
NtRp2193
(dp2194
g54
(dp2195
g62
I3
ssg63
Nsg56
(lp2196
g49
(g65
g51
NtRp2197
(dp2198
g54
(dp2199
sg63
g2193
sg56
(lp2200
g49
(g70
g51
NtRp2201
(dp2202
g54
(dp2203
g74
g75
ssg63
g2197
sg56
(lp2204
S'HTTP_ACCEPT'
p2205
asbag49
(g70
g51
NtRp2206
(dp2207
g54
(dp2208
g81
g82
ssg63
g2197
sg56
(lp2209
S':'
asbag49
(g70
g51
NtRp2210
(dp2211
g54
(dp2212
sg63
g2197
sg56
(lp2213
g49
(g50
g51
NtRp2214
(dp2215
g54
(dp2216
g62
I3
ssg63
g2210
sg56
(lp2217
g770
asbasbasbag49
(g65
g51
NtRp2218
(dp2219
g54
(dp2220
sg63
g2193
sg56
(lp2221
g49
(g70
g51
NtRp2222
(dp2223
g54
(dp2224
g74
g75
ssg63
g2218
sg56
(lp2225
S'HTTP_ACCEPT_CHARSET'
p2226
asbag49
(g70
g51
NtRp2227
(dp2228
g54
(dp2229
g81
g82
ssg63
g2218
sg56
(lp2230
S':'
asbag49
(g70
g51
NtRp2231
(dp2232
g54
(dp2233
sg63
g2218
sg56
(lp2234
g49
(g50
g51
NtRp2235
(dp2236
g54
(dp2237
g62
I3
ssg63
g2231
sg56
(lp2238
g792
asbasbasbag49
(g65
g51
NtRp2239
(dp2240
g54
(dp2241
sg63
g2193
sg56
(lp2242
g49
(g70
g51
NtRp2243
(dp2244
g54
(dp2245
g74
g75
ssg63
g2239
sg56
(lp2246
S'HTTP_ACCEPT_ENCODING'
p2247
asbag49
(g70
g51
NtRp2248
(dp2249
g54
(dp2250
g81
g82
ssg63
g2239
sg56
(lp2251
S':'
asbag49
(g70
g51
NtRp2252
(dp2253
g54
(dp2254
sg63
g2239
sg56
(lp2255
g49
(g50
g51
NtRp2256
(dp2257
g54
(dp2258
g62
I3
ssg63
g2252
sg56
(lp2259
g814
asbasbasbag49
(g65
g51
NtRp2260
(dp2261
g54
(dp2262
sg63
g2193
sg56
(lp2263
g49
(g70
g51
NtRp2264
(dp2265
g54
(dp2266
g74
g75
ssg63
g2260
sg56
(lp2267
S'HTTP_ACCEPT_LANGUAGE'
p2268
asbag49
(g70
g51
NtRp2269
(dp2270
g54
(dp2271
g81
g82
ssg63
g2260
sg56
(lp2272
S':'
asbag49
(g70
g51
NtRp2273
(dp2274
g54
(dp2275
sg63
g2260
sg56
(lp2276
g49
(g50
g51
NtRp2277
(dp2278
g54
(dp2279
g62
I3
ssg63
g2273
sg56
(lp2280
g836
asbasbasbag49
(g65
g51
NtRp2281
(dp2282
g54
(dp2283
sg63
g2193
sg56
(lp2284
g49
(g70
g51
NtRp2285
(dp2286
g54
(dp2287
g74
g75
ssg63
g2281
sg56
(lp2288
S'HTTP_CACHE_CONTROL'
p2289
asbag49
(g70
g51
NtRp2290
(dp2291
g54
(dp2292
g81
g82
ssg63
g2281
sg56
(lp2293
S':'
asbag49
(g70
g51
NtRp2294
(dp2295
g54
(dp2296
sg63
g2281
sg56
(lp2297
g49
(g50
g51
NtRp2298
(dp2299
g54
(dp2300
g62
I3
ssg63
g2294
sg56
(lp2301
g858
asbasbasbag49
(g65
g51
NtRp2302
(dp2303
g54
(dp2304
sg63
g2193
sg56
(lp2305
g49
(g70
g51
NtRp2306
(dp2307
g54
(dp2308
g74
g75
ssg63
g2302
sg56
(lp2309
S'HTTP_CONNECTION'
p2310
asbag49
(g70
g51
NtRp2311
(dp2312
g54
(dp2313
g81
g82
ssg63
g2302
sg56
(lp2314
S':'
asbag49
(g70
g51
NtRp2315
(dp2316
g54
(dp2317
sg63
g2302
sg56
(lp2318
g49
(g50
g51
NtRp2319
(dp2320
g54
(dp2321
g62
I3
ssg63
g2315
sg56
(lp2322
g880
asbasbasbag49
(g65
g51
NtRp2323
(dp2324
g54
(dp2325
sg63
g2193
sg56
(lp2326
g49
(g70
g51
NtRp2327
(dp2328
g54
(dp2329
g74
g75
ssg63
g2323
sg56
(lp2330
S'HTTP_COOKIE'
p2331
asbag49
(g70
g51
NtRp2332
(dp2333
g54
(dp2334
g81
g82
ssg63
g2323
sg56
(lp2335
S':'
asbag49
(g70
g51
NtRp2336
(dp2337
g54
(dp2338
sg63
g2323
sg56
(lp2339
g49
(g50
g51
NtRp2340
(dp2341
g54
(dp2342
g62
I3
ssg63
g2336
sg56
(lp2343
g902
asbasbasbag49
(g65
g51
NtRp2344
(dp2345
g54
(dp2346
sg63
g2193
sg56
(lp2347
g49
(g70
g51
NtRp2348
(dp2349
g54
(dp2350
g74
g75
ssg63
g2344
sg56
(lp2351
S'HTTP_HOST'
p2352
asbag49
(g70
g51
NtRp2353
(dp2354
g54
(dp2355
g81
g82
ssg63
g2344
sg56
(lp2356
S':'
asbag49
(g70
g51
NtRp2357
(dp2358
g54
(dp2359
sg63
g2344
sg56
(lp2360
g49
(g50
g51
NtRp2361
(dp2362
g54
(dp2363
g62
I3
ssg63
g2357
sg56
(lp2364
g924
asbasbasbag49
(g65
g51
NtRp2365
(dp2366
g54
(dp2367
sg63
g2193
sg56
(lp2368
g49
(g70
g51
NtRp2369
(dp2370
g54
(dp2371
g74
g75
ssg63
g2365
sg56
(lp2372
S'HTTP_USER_AGENT'
p2373
asbag49
(g70
g51
NtRp2374
(dp2375
g54
(dp2376
g81
g82
ssg63
g2365
sg56
(lp2377
S':'
asbag49
(g70
g51
NtRp2378
(dp2379
g54
(dp2380
sg63
g2365
sg56
(lp2381
g49
(g50
g51
NtRp2382
(dp2383
g54
(dp2384
g62
I3
ssg63
g2378
sg56
(lp2385
g946
asbasbasbag49
(g65
g51
NtRp2386
(dp2387
g54
(dp2388
sg63
g2193
sg56
(lp2389
g49
(g70
g51
NtRp2390
(dp2391
g54
(dp2392
g74
g75
ssg63
g2386
sg56
(lp2393
S'PATH_INFO'
p2394
asbag49
(g70
g51
NtRp2395
(dp2396
g54
(dp2397
g81
g82
ssg63
g2386
sg56
(lp2398
S':'
asbag49
(g70
g51
NtRp2399
(dp2400
g54
(dp2401
sg63
g2386
sg56
(lp2402
g49
(g50
g51
NtRp2403
(dp2404
g54
(dp2405
g62
I3
ssg63
g2399
sg56
(lp2406
g1010
asbasbasbag49
(g65
g51
NtRp2407
(dp2408
g54
(dp2409
sg63
g2193
sg56
(lp2410
g49
(g70
g51
NtRp2411
(dp2412
g54
(dp2413
g74
g75
ssg63
g2407
sg56
(lp2414
S'QUERY_STRING'
p2415
asbag49
(g70
g51
NtRp2416
(dp2417
g54
(dp2418
g81
g82
ssg63
g2407
sg56
(lp2419
S':'
asbag49
(g70
g51
NtRp2420
(dp2421
g54
(dp2422
sg63
g2407
sg56
(lp2423
g49
(g50
g51
NtRp2424
(dp2425
g54
(dp2426
g62
I3
ssg63
g2420
sg56
(lp2427
S''
asbasbasbag49
(g65
g51
NtRp2428
(dp2429
g54
(dp2430
sg63
g2193
sg56
(lp2431
g49
(g70
g51
NtRp2432
(dp2433
g54
(dp2434
g74
g75
ssg63
g2428
sg56
(lp2435
S'REMOTE_ADDR'
p2436
asbag49
(g70
g51
NtRp2437
(dp2438
g54
(dp2439
g81
g82
ssg63
g2428
sg56
(lp2440
S':'
asbag49
(g70
g51
NtRp2441
(dp2442
g54
(dp2443
sg63
g2428
sg56
(lp2444
g49
(g50
g51
NtRp2445
(dp2446
g54
(dp2447
g62
I3
ssg63
g2441
sg56
(lp2448
g182
asbasbasbag49
(g65
g51
NtRp2449
(dp2450
g54
(dp2451
sg63
g2193
sg56
(lp2452
g49
(g70
g51
NtRp2453
(dp2454
g54
(dp2455
g74
g75
ssg63
g2449
sg56
(lp2456
S'REMOTE_PORT'
p2457
asbag49
(g70
g51
NtRp2458
(dp2459
g54
(dp2460
g81
g82
ssg63
g2449
sg56
(lp2461
S':'
asbag49
(g70
g51
NtRp2462
(dp2463
g54
(dp2464
sg63
g2449
sg56
(lp2465
g49
(g50
g51
NtRp2466
(dp2467
g54
(dp2468
g62
I3
ssg63
g2462
sg56
(lp2469
g1074
asbasbasbag49
(g65
g51
NtRp2470
(dp2471
g54
(dp2472
sg63
g2193
sg56
(lp2473
g49
(g70
g51
NtRp2474
(dp2475
g54
(dp2476
g74
g75
ssg63
g2470
sg56
(lp2477
S'REQUEST_METHOD'
p2478
asbag49
(g70
g51
NtRp2479
(dp2480
g54
(dp2481
g81
g82
ssg63
g2470
sg56
(lp2482
S':'
asbag49
(g70
g51
NtRp2483
(dp2484
g54
(dp2485
sg63
g2470
sg56
(lp2486
g49
(g50
g51
NtRp2487
(dp2488
g54
(dp2489
g62
I3
ssg63
g2483
sg56
(lp2490
g1096
asbasbasbag49
(g65
g51
NtRp2491
(dp2492
g54
(dp2493
sg63
g2193
sg56
(lp2494
g49
(g70
g51
NtRp2495
(dp2496
g54
(dp2497
g74
g75
ssg63
g2491
sg56
(lp2498
S'SCRIPT_NAME'
p2499
asbag49
(g70
g51
NtRp2500
(dp2501
g54
(dp2502
g81
g82
ssg63
g2491
sg56
(lp2503
S':'
asbag49
(g70
g51
NtRp2504
(dp2505
g54
(dp2506
sg63
g2491
sg56
(lp2507
g49
(g50
g51
NtRp2508
(dp2509
g54
(dp2510
g62
I3
ssg63
g2504
sg56
(lp2511
S''
asbasbasbag49
(g65
g51
NtRp2512
(dp2513
g54
(dp2514
sg63
g2193
sg56
(lp2515
g49
(g70
g51
NtRp2516
(dp2517
g54
(dp2518
g74
g75
ssg63
g2512
sg56
(lp2519
S'SERVER_NAME'
p2520
asbag49
(g70
g51
NtRp2521
(dp2522
g54
(dp2523
g81
g82
ssg63
g2512
sg56
(lp2524
S':'
asbag49
(g70
g51
NtRp2525
(dp2526
g54
(dp2527
sg63
g2512
sg56
(lp2528
g49
(g50
g51
NtRp2529
(dp2530
g54
(dp2531
g62
I3
ssg63
g2525
sg56
(lp2532
g1139
asbasbasbag49
(g65
g51
NtRp2533
(dp2534
g54
(dp2535
sg63
g2193
sg56
(lp2536
g49
(g70
g51
NtRp2537
(dp2538
g54
(dp2539
g74
g75
ssg63
g2533
sg56
(lp2540
S'SERVER_PORT'
p2541
asbag49
(g70
g51
NtRp2542
(dp2543
g54
(dp2544
g81
g82
ssg63
g2533
sg56
(lp2545
S':'
asbag49
(g70
g51
NtRp2546
(dp2547
g54
(dp2548
sg63
g2533
sg56
(lp2549
g49
(g50
g51
NtRp2550
(dp2551
g54
(dp2552
g62
I3
ssg63
g2546
sg56
(lp2553
g1161
asbasbasbag49
(g65
g51
NtRp2554
(dp2555
g54
(dp2556
sg63
g2193
sg56
(lp2557
g49
(g70
g51
NtRp2558
(dp2559
g54
(dp2560
g74
g75
ssg63
g2554
sg56
(lp2561
S'SERVER_PROTOCOL'
p2562
asbag49
(g70
g51
NtRp2563
(dp2564
g54
(dp2565
g81
g82
ssg63
g2554
sg56
(lp2566
S':'
asbag49
(g70
g51
NtRp2567
(dp2568
g54
(dp2569
sg63
g2554
sg56
(lp2570
g49
(g50
g51
NtRp2571
(dp2572
g54
(dp2573
g62
I3
ssg63
g2567
sg56
(lp2574
g1183
asbasbasbag49
(g65
g51
NtRp2575
(dp2576
g54
(dp2577
sg63
g2193
sg56
(lp2578
g49
(g70
g51
NtRp2579
(dp2580
g54
(dp2581
g74
g75
ssg63
g2575
sg56
(lp2582
S'SERVER_SOFTWARE'
p2583
asbag49
(g70
g51
NtRp2584
(dp2585
g54
(dp2586
g81
g82
ssg63
g2575
sg56
(lp2587
S':'
asbag49
(g70
g51
NtRp2588
(dp2589
g54
(dp2590
sg63
g2575
sg56
(lp2591
g49
(g50
g51
NtRp2592
(dp2593
g54
(dp2594
g62
I3
ssg63
g2588
sg56
(lp2595
g1205
asbasbasbag49
(g65
g51
NtRp2596
(dp2597
g54
(dp2598
sg63
g2193
sg56
(lp2599
g49
(g70
g51
NtRp2600
(dp2601
g54
(dp2602
g74
g75
ssg63
g2596
sg56
(lp2603
S'wsgi.errors'
p2604
asbag49
(g70
g51
NtRp2605
(dp2606
g54
(dp2607
g81
g82
ssg63
g2596
sg56
(lp2608
S':'
asbag49
(g70
g51
NtRp2609
(dp2610
g54
(dp2611
sg63
g2596
sg56
(lp2612
g49
(g50
g51
NtRp2613
(dp2614
g54
(dp2615
g62
I3
ssg63
g2609
sg56
(lp2616
S"<open file '<stderr>', mode 'w' at 0x005300B0>"
p2617
asbasbasbag49
(g65
g51
NtRp2618
(dp2619
g54
(dp2620
sg63
g2193
sg56
(lp2621
g49
(g70
g51
NtRp2622
(dp2623
g54
(dp2624
g74
g75
ssg63
g2618
sg56
(lp2625
S'wsgi.file_wrapper'
p2626
asbag49
(g70
g51
NtRp2627
(dp2628
g54
(dp2629
g81
g82
ssg63
g2618
sg56
(lp2630
S':'
asbag49
(g70
g51
NtRp2631
(dp2632
g54
(dp2633
sg63
g2618
sg56
(lp2634
g49
(g50
g51
NtRp2635
(dp2636
g54
(dp2637
g62
I3
ssg63
g2631
sg56
(lp2638
S'<class wsgiref.util.FileWrapper at 0x02C34900>'
p2639
asbasbasbag49
(g65
g51
NtRp2640
(dp2641
g54
(dp2642
sg63
g2193
sg56
(lp2643
g49
(g70
g51
NtRp2644
(dp2645
g54
(dp2646
g74
g75
ssg63
g2640
sg56
(lp2647
S'wsgi.input'
p2648
asbag49
(g70
g51
NtRp2649
(dp2650
g54
(dp2651
g81
g82
ssg63
g2640
sg56
(lp2652
S':'
asbag49
(g70
g51
NtRp2653
(dp2654
g54
(dp2655
sg63
g2640
sg56
(lp2656
g49
(g50
g51
NtRp2657
(dp2658
g54
(dp2659
g62
I3
ssg63
g2653
sg56
(lp2660
S'<cStringIO.StringO object at 0x046173E0>'
p2661
asbasbasbag49
(g65
g51
NtRp2662
(dp2663
g54
(dp2664
sg63
g2193
sg56
(lp2665
g49
(g70
g51
NtRp2666
(dp2667
g54
(dp2668
g74
g75
ssg63
g2662
sg56
(lp2669
S'wsgi.multiprocess'
p2670
asbag49
(g70
g51
NtRp2671
(dp2672
g54
(dp2673
g81
g82
ssg63
g2662
sg56
(lp2674
S':'
asbag49
(g70
g51
NtRp2675
(dp2676
g54
(dp2677
sg63
g2662
sg56
(lp2678
g49
(g50
g51
NtRp2679
(dp2680
g54
(dp2681
g62
I3
ssg63
g2675
sg56
(lp2682
g92
asbasbasbag49
(g65
g51
NtRp2683
(dp2684
g54
(dp2685
sg63
g2193
sg56
(lp2686
g49
(g70
g51
NtRp2687
(dp2688
g54
(dp2689
g74
g75
ssg63
g2683
sg56
(lp2690
S'wsgi.multithread'
p2691
asbag49
(g70
g51
NtRp2692
(dp2693
g54
(dp2694
g81
g82
ssg63
g2683
sg56
(lp2695
S':'
asbag49
(g70
g51
NtRp2696
(dp2697
g54
(dp2698
sg63
g2683
sg56
(lp2699
g49
(g50
g51
NtRp2700
(dp2701
g54
(dp2702
g62
I3
ssg63
g2696
sg56
(lp2703
g726
asbasbasbag49
(g65
g51
NtRp2704
(dp2705
g54
(dp2706
sg63
g2193
sg56
(lp2707
g49
(g70
g51
NtRp2708
(dp2709
g54
(dp2710
g74
g75
ssg63
g2704
sg56
(lp2711
S'wsgi.run_once'
p2712
asbag49
(g70
g51
NtRp2713
(dp2714
g54
(dp2715
g81
g82
ssg63
g2704
sg56
(lp2716
S':'
asbag49
(g70
g51
NtRp2717
(dp2718
g54
(dp2719
sg63
g2704
sg56
(lp2720
g49
(g50
g51
NtRp2721
(dp2722
g54
(dp2723
g62
I3
ssg63
g2717
sg56
(lp2724
g92
asbasbasbag49
(g65
g51
NtRp2725
(dp2726
g54
(dp2727
sg63
g2193
sg56
(lp2728
g49
(g70
g51
NtRp2729
(dp2730
g54
(dp2731
g74
g75
ssg63
g2725
sg56
(lp2732
S'wsgi.url_scheme'
p2733
asbag49
(g70
g51
NtRp2734
(dp2735
g54
(dp2736
g81
g82
ssg63
g2725
sg56
(lp2737
S':'
asbag49
(g70
g51
NtRp2738
(dp2739
g54
(dp2740
sg63
g2725
sg56
(lp2741
g49
(g50
g51
NtRp2742
(dp2743
g54
(dp2744
g62
I3
ssg63
g2738
sg56
(lp2745
g1487
asbasbasbag49
(g65
g51
NtRp2746
(dp2747
g54
(dp2748
sg63
g2193
sg56
(lp2749
g49
(g70
g51
NtRp2750
(dp2751
g54
(dp2752
g74
g75
ssg63
g2746
sg56
(lp2753
S'wsgi.version'
p2754
asbag49
(g70
g51
NtRp2755
(dp2756
g54
(dp2757
g81
g82
ssg63
g2746
sg56
(lp2758
S':'
asbag49
(g70
g51
NtRp2759
(dp2760
g54
(dp2761
sg63
g2746
sg56
(lp2762
g49
(g50
g51
NtRp2763
(dp2764
g54
(dp2765
g62
I3
ssg63
g2759
sg56
(lp2766
S'1'
asbasbasbasbasbasbasbasbasbasbasbasbasbsS'frames'
p2767
(lp2768
(dp2769
S'file'
p2770
S'C:\\Users\\Bussiere\\Dropbox\\Projets\\jackpoint\\web2py\\gluon\\restricted.py'
p2771
sS'dump'
p2772
(dp2773
sS'lnum'
p2774
I205
sS'lines'
p2775
(dp2776
I200
S'    try:'
p2777
sI201
S'        if type(code) == types.CodeType:'
p2778
sI202
S'            ccode = code'
p2779
sI203
S'        else:'
p2780
sI204
S'            ccode = compile2(code,layer)'
p2781
sI205
S'        exec ccode in environment'
p2782
sI206
S'    except HTTP:'
p2783
sI207
S'        raise'
p2784
sI208
S'    except RestrictedError:'
p2785
sI209
S'        # do not encapsulate (obfuscate) the original RestrictedError'
p2786
ssS'call'
p2787
S"(code='\\xef\\xbb\\xbf# -*- coding: utf-8 -*-\\n# this file is releas...())\\n\\nresponse._vars=response._caller(initdbjack)\\n', environment={'A': <class 'gluon.html.A'>, 'Auth': <class 'gluon.tools.Auth'>, 'AutocompleteWidget': <class 'gluon.sqlhtml.AutocompleteWidget'>, 'B': <class 'gluon.html.B'>, 'BEAUTIFY': <class 'gluon.html.BEAUTIFY'>, 'BODY': <class 'gluon.html.BODY'>, 'BR': <class 'gluon.html.BR'>, 'BUTTON': <class 'gluon.html.BUTTON'>, 'BooleanWidget': <class 'gluon.sqlhtml.BooleanWidget'>, 'CALLABLETYPES': (<type 'function'>, <type 'function'>, <type 'builtin_function_or_method'>, <type 'instancemethod'>, <type 'builtin_function_or_method'>), ...}, layer=r'C:\\Users\\Bussiere\\Dropbox\\Projets\\jackpoint\\web2py\\applications\\init\\controllers/default.py')"
p2788
sS'func'
p2789
S'restricted'
p2790
sa(dp2791
g2770
S'C:\\Users\\Bussiere\\Dropbox\\Projets\\jackpoint\\web2py\\applications\\init\\controllers\\default.py'
p2792
sg2772
(dp2793
sg2774
I448
sg2775
(dp2794
I437
S'    http://..../[app]/default/data/update/[table]/[id]'
p2795
sI438
S'    http://..../[app]/default/data/delete/[table]/[id]'
p2796
sI439
S'    http://..../[app]/default/data/select/[table]'
p2797
sI440
S'    http://..../[app]/default/data/search/[table]'
p2798
sI441
S'    but URLs must be signed, i.e. linked with'
p2799
sI442
S"      A('table',_href=URL('data/tables',user_signature=True))"
p2800
sI443
S'    or with the signed load operator'
p2801
sI444
S"      LOAD('default','data.load',args='tables',ajax=True,user_signature=True)"
p2802
sI445
S'    """'
p2803
sI446
S'    return dict(form=crud())'
p2804
ssg2787
S'()'
p2805
sg2789
S'<module>'
p2806
sa(dp2807
g2770
S'C:\\Users\\Bussiere\\Dropbox\\Projets\\jackpoint\\web2py\\gluon\\globals.py'
p2808
sg2772
(dp2809
sg2774
I173
sg2775
(dp2810
I168
S'        self.menu = []             # used by the default view layout'
p2811
sI169
S'        self.files = []            # used by web2py_ajax.html'
p2812
sI170
S'        self.generic_patterns = [] # patterns to allow generic views'
p2813
sI171
S"        self.delimiters = ('{{','}}')"
p2814
sI172
S'        self._vars = None'
p2815
sI173
S'        self._caller = lambda f: f()'
p2816
sI174
S'        self._view_environment = None'
p2817
sI175
S'        self._custom_commit = None'
p2818
sI176
S'        self._custom_rollback = None'
p2819
sI177
S''
ssg2787
S'(f=<function initdbjack at 0x0433CE30>)'
p2820
sg2789
S'<lambda>'
p2821
sa(dp2822
g2770
S'C:\\Users\\Bussiere\\Dropbox\\Projets\\jackpoint\\web2py\\applications\\init\\controllers\\default.py'
p2823
sg2772
(dp2824
sg2774
I314
sg2775
(dp2825
I309
S''
sI310
S'    for c in carac :'
p2826
sI311
S'        if db(db.Carac.Nom == c).count() == 0:'
p2827
sI312
S'            db.Carac.insert(Nom=c)'
p2828
sI313
S''
sI314
S'    for level1 in skills.keys() :'
p2829
sI315
S'        i = 0'
p2830
sI316
S'        if db(db.SkillLevel.Skill.Nom == level1).count() == 0:'
p2831
sI317
S'            Skill1 = db.SkillLevel.insert(Skill = (db.Skill.insert(Nom=level1)),Level = i)'
p2832
sI318
S''
ssg2787
S'()'
p2833
sg2789
S'initdbjack'
p2834
sasS'pyver'
p2835
S'Python 2.5.4: C:\\Users\\Bussiere\\Dropbox\\Projets\\jackpoint\\web2py\\web2py.exe'
p2836
sS'session'
p2837
g49
(g50
g51
NtRp2838
(dp2839
g54
(dp2840
sg56
(lp2841
g49
(g58
g51
NtRp2842
(dp2843
g54
(dp2844
g62
I5
ssg63
Nsg56
(lp2845
sbasbsS'etype'
p2846
S"<type 'exceptions.NameError'>"
p2847
sS'date'
p2848
S'Thu Mar 29 11:46:46 2012'
p2849
sS'response'
p2850
g49
(g50
g51
NtRp2851
(dp2852
g54
(dp2853
sg56
(lp2854
g49
(g58
g51
NtRp2855
(dp2856
g54
(dp2857
g62
I5
ssg63
Nsg56
(lp2858
g49
(g65
g51
NtRp2859
(dp2860
g54
(dp2861
sg63
g2855
sg56
(lp2862
g49
(g70
g51
NtRp2863
(dp2864
g54
(dp2865
g74
g75
ssg63
g2859
sg56
(lp2866
g147
asbag49
(g70
g51
NtRp2867
(dp2868
g54
(dp2869
g81
g82
ssg63
g2859
sg56
(lp2870
S':'
asbag49
(g70
g51
NtRp2871
(dp2872
g54
(dp2873
sg63
g2859
sg56
(lp2874
g49
(g50
g51
NtRp2875
(dp2876
g54
(dp2877
g62
I5
ssg63
g2871
sg56
(lp2878
S'<cStringIO.StringO object at 0x046170A0>'
p2879
asbasbasbag49
(g65
g51
NtRp2880
(dp2881
g54
(dp2882
sg63
g2855
sg56
(lp2883
g49
(g70
g51
NtRp2884
(dp2885
g54
(dp2886
g74
g75
ssg63
g2880
sg56
(lp2887
g213
asbag49
(g70
g51
NtRp2888
(dp2889
g54
(dp2890
g81
g82
ssg63
g2880
sg56
(lp2891
S':'
asbag49
(g70
g51
NtRp2892
(dp2893
g54
(dp2894
sg63
g2880
sg56
(lp2895
g49
(g50
g51
NtRp2896
(dp2897
g54
(dp2898
g62
I5
ssg63
g2892
sg56
(lp2899
g49
(g58
g51
NtRp2900
(dp2901
g54
(dp2902
g62
I4
ssg63
Nsg56
(lp2903
g49
(g65
g51
NtRp2904
(dp2905
g54
(dp2906
sg63
g2900
sg56
(lp2907
g49
(g70
g51
NtRp2908
(dp2909
g54
(dp2910
g74
g75
ssg63
g2904
sg56
(lp2911
S'session_id_init'
p2912
asbag49
(g70
g51
NtRp2913
(dp2914
g54
(dp2915
g81
g82
ssg63
g2904
sg56
(lp2916
S':'
asbag49
(g70
g51
NtRp2917
(dp2918
g54
(dp2919
sg63
g2904
sg56
(lp2920
g49
(g50
g51
NtRp2921
(dp2922
g54
(dp2923
g62
I4
ssg63
g2917
sg56
(lp2924
g49
(g58
g51
NtRp2925
(dp2926
g54
(dp2927
g62
I3
ssg63
Nsg56
(lp2928
g49
(g65
g51
NtRp2929
(dp2930
g54
(dp2931
sg63
g2925
sg56
(lp2932
g49
(g70
g51
NtRp2933
(dp2934
g54
(dp2935
g74
g75
ssg63
g2929
sg56
(lp2936
g263
asbag49
(g70
g51
NtRp2937
(dp2938
g54
(dp2939
g81
g82
ssg63
g2929
sg56
(lp2940
S':'
asbag49
(g70
g51
NtRp2941
(dp2942
g54
(dp2943
sg63
g2929
sg56
(lp2944
g49
(g50
g51
NtRp2945
(dp2946
g54
(dp2947
g62
I3
ssg63
g2941
sg56
(lp2948
S''
asbasbasbag49
(g65
g51
NtRp2949
(dp2950
g54
(dp2951
sg63
g2925
sg56
(lp2952
g49
(g70
g51
NtRp2953
(dp2954
g54
(dp2955
g74
g75
ssg63
g2949
sg56
(lp2956
g284
asbag49
(g70
g51
NtRp2957
(dp2958
g54
(dp2959
g81
g82
ssg63
g2949
sg56
(lp2960
S':'
asbag49
(g70
g51
NtRp2961
(dp2962
g54
(dp2963
sg63
g2949
sg56
(lp2964
g49
(g50
g51
NtRp2965
(dp2966
g54
(dp2967
g62
I3
ssg63
g2961
sg56
(lp2968
S''
asbasbasbag49
(g65
g51
NtRp2969
(dp2970
g54
(dp2971
sg63
g2925
sg56
(lp2972
g49
(g70
g51
NtRp2973
(dp2974
g54
(dp2975
g74
g75
ssg63
g2969
sg56
(lp2976
g305
asbag49
(g70
g51
NtRp2977
(dp2978
g54
(dp2979
g81
g82
ssg63
g2969
sg56
(lp2980
S':'
asbag49
(g70
g51
NtRp2981
(dp2982
g54
(dp2983
sg63
g2969
sg56
(lp2984
g49
(g50
g51
NtRp2985
(dp2986
g54
(dp2987
g62
I3
ssg63
g2981
sg56
(lp2988
S''
asbasbasbag49
(g65
g51
NtRp2989
(dp2990
g54
(dp2991
sg63
g2925
sg56
(lp2992
g49
(g70
g51
NtRp2993
(dp2994
g54
(dp2995
g74
g75
ssg63
g2989
sg56
(lp2996
g326
asbag49
(g70
g51
NtRp2997
(dp2998
g54
(dp2999
g81
g82
ssg63
g2989
sg56
(lp3000
S':'
asbag49
(g70
g51
NtRp3001
(dp3002
g54
(dp3003
sg63
g2989
sg56
(lp3004
g49
(g50
g51
NtRp3005
(dp3006
g54
(dp3007
g62
I3
ssg63
g3001
sg56
(lp3008
S''
asbasbasbag49
(g65
g51
NtRp3009
(dp3010
g54
(dp3011
sg63
g2925
sg56
(lp3012
g49
(g70
g51
NtRp3013
(dp3014
g54
(dp3015
g74
g75
ssg63
g3009
sg56
(lp3016
g347
asbag49
(g70
g51
NtRp3017
(dp3018
g54
(dp3019
g81
g82
ssg63
g3009
sg56
(lp3020
S':'
asbag49
(g70
g51
NtRp3021
(dp3022
g54
(dp3023
sg63
g3009
sg56
(lp3024
g49
(g50
g51
NtRp3025
(dp3026
g54
(dp3027
g62
I3
ssg63
g3021
sg56
(lp3028
S'/'
asbasbasbag49
(g65
g51
NtRp3029
(dp3030
g54
(dp3031
sg63
g2925
sg56
(lp3032
g49
(g70
g51
NtRp3033
(dp3034
g54
(dp3035
g74
g75
ssg63
g3029
sg56
(lp3036
g368
asbag49
(g70
g51
NtRp3037
(dp3038
g54
(dp3039
g81
g82
ssg63
g3029
sg56
(lp3040
S':'
asbag49
(g70
g51
NtRp3041
(dp3042
g54
(dp3043
sg63
g3029
sg56
(lp3044
g49
(g50
g51
NtRp3045
(dp3046
g54
(dp3047
g62
I3
ssg63
g3041
sg56
(lp3048
S''
asbasbasbag49
(g65
g51
NtRp3049
(dp3050
g54
(dp3051
sg63
g2925
sg56
(lp3052
g49
(g70
g51
NtRp3053
(dp3054
g54
(dp3055
g74
g75
ssg63
g3049
sg56
(lp3056
g389
asbag49
(g70
g51
NtRp3057
(dp3058
g54
(dp3059
g81
g82
ssg63
g3049
sg56
(lp3060
S':'
asbag49
(g70
g51
NtRp3061
(dp3062
g54
(dp3063
sg63
g3049
sg56
(lp3064
g49
(g50
g51
NtRp3065
(dp3066
g54
(dp3067
g62
I3
ssg63
g3061
sg56
(lp3068
S''
asbasbasbasbasbasbasbasbasbasbasbag49
(g65
g51
NtRp3069
(dp3070
g54
(dp3071
sg63
g2855
sg56
(lp3072
g49
(g70
g51
NtRp3073
(dp3074
g54
(dp3075
g74
g75
ssg63
g3069
sg56
(lp3076
S'delimiters'
p3077
asbag49
(g70
g51
NtRp3078
(dp3079
g54
(dp3080
g81
g82
ssg63
g3069
sg56
(lp3081
S':'
asbag49
(g70
g51
NtRp3082
(dp3083
g54
(dp3084
sg63
g3069
sg56
(lp3085
g49
(g50
g51
NtRp3086
(dp3087
g54
(dp3088
g62
I5
ssg63
g3082
sg56
(lp3089
g49
(g58
g51
NtRp3090
(dp3091
g54
(dp3092
g62
I4
ssg63
Nsg56
(lp3093
g49
(g65
g51
NtRp3094
(dp3095
g54
(dp3096
sg63
g3090
sg56
(lp3097
g49
(g70
g51
NtRp3098
(dp3099
g54
(dp3100
sg63
g3094
sg56
(lp3101
g49
(g50
g51
NtRp3102
(dp3103
g54
(dp3104
g62
I4
ssg63
g3098
sg56
(lp3105
S'{{'
p3106
asbasbasbag49
(g65
g51
NtRp3107
(dp3108
g54
(dp3109
sg63
g3090
sg56
(lp3110
g49
(g70
g51
NtRp3111
(dp3112
g54
(dp3113
sg63
g3107
sg56
(lp3114
g49
(g50
g51
NtRp3115
(dp3116
g54
(dp3117
g62
I4
ssg63
g3111
sg56
(lp3118
S'}}'
p3119
asbasbasbasbasbasbasbag49
(g65
g51
NtRp3120
(dp3121
g54
(dp3122
sg63
g2855
sg56
(lp3123
g49
(g70
g51
NtRp3124
(dp3125
g54
(dp3126
g74
g75
ssg63
g3120
sg56
(lp3127
S'files'
p3128
asbag49
(g70
g51
NtRp3129
(dp3130
g54
(dp3131
g81
g82
ssg63
g3120
sg56
(lp3132
S':'
asbag49
(g70
g51
NtRp3133
(dp3134
g54
(dp3135
sg63
g3120
sg56
(lp3136
g49
(g50
g51
NtRp3137
(dp3138
g54
(dp3139
g62
I5
ssg63
g3133
sg56
(lp3140
g49
(g58
g51
NtRp3141
(dp3142
g54
(dp3143
g62
I4
ssg63
Nsg56
(lp3144
sbasbasbasbag49
(g65
g51
NtRp3145
(dp3146
g54
(dp3147
sg63
g2855
sg56
(lp3148
g49
(g70
g51
NtRp3149
(dp3150
g54
(dp3151
g74
g75
ssg63
g3145
sg56
(lp3152
S'flash'
p3153
asbag49
(g70
g51
NtRp3154
(dp3155
g54
(dp3156
g81
g82
ssg63
g3145
sg56
(lp3157
S':'
asbag49
(g70
g51
NtRp3158
(dp3159
g54
(dp3160
sg63
g3145
sg56
(lp3161
g49
(g50
g51
NtRp3162
(dp3163
g54
(dp3164
g62
I5
ssg63
g3158
sg56
(lp3165
S''
asbasbasbag49
(g65
g51
NtRp3166
(dp3167
g54
(dp3168
sg63
g2855
sg56
(lp3169
g49
(g70
g51
NtRp3170
(dp3171
g54
(dp3172
g74
g75
ssg63
g3166
sg56
(lp3173
S'generic_patterns'
p3174
asbag49
(g70
g51
NtRp3175
(dp3176
g54
(dp3177
g81
g82
ssg63
g3166
sg56
(lp3178
S':'
asbag49
(g70
g51
NtRp3179
(dp3180
g54
(dp3181
sg63
g3166
sg56
(lp3182
g49
(g50
g51
NtRp3183
(dp3184
g54
(dp3185
g62
I5
ssg63
g3179
sg56
(lp3186
g49
(g58
g51
NtRp3187
(dp3188
g54
(dp3189
g62
I4
ssg63
Nsg56
(lp3190
g49
(g65
g51
NtRp3191
(dp3192
g54
(dp3193
sg63
g3187
sg56
(lp3194
g49
(g70
g51
NtRp3195
(dp3196
g54
(dp3197
sg63
g3191
sg56
(lp3198
g49
(g50
g51
NtRp3199
(dp3200
g54
(dp3201
g62
I4
ssg63
g3195
sg56
(lp3202
S'*'
asbasbasbasbasbasbasbag49
(g65
g51
NtRp3203
(dp3204
g54
(dp3205
sg63
g2855
sg56
(lp3206
g49
(g70
g51
NtRp3207
(dp3208
g54
(dp3209
g74
g75
ssg63
g3203
sg56
(lp3210
S'headers'
p3211
asbag49
(g70
g51
NtRp3212
(dp3213
g54
(dp3214
g81
g82
ssg63
g3203
sg56
(lp3215
S':'
asbag49
(g70
g51
NtRp3216
(dp3217
g54
(dp3218
sg63
g3203
sg56
(lp3219
g49
(g50
g51
NtRp3220
(dp3221
g54
(dp3222
g62
I5
ssg63
g3216
sg56
(lp3223
g49
(g58
g51
NtRp3224
(dp3225
g54
(dp3226
g62
I4
ssg63
Nsg56
(lp3227
g49
(g65
g51
NtRp3228
(dp3229
g54
(dp3230
sg63
g3224
sg56
(lp3231
g49
(g70
g51
NtRp3232
(dp3233
g54
(dp3234
g74
g75
ssg63
g3228
sg56
(lp3235
S'Cache-Control'
p3236
asbag49
(g70
g51
NtRp3237
(dp3238
g54
(dp3239
g81
g82
ssg63
g3228
sg56
(lp3240
S':'
asbag49
(g70
g51
NtRp3241
(dp3242
g54
(dp3243
sg63
g3228
sg56
(lp3244
g49
(g50
g51
NtRp3245
(dp3246
g54
(dp3247
g62
I4
ssg63
g3241
sg56
(lp3248
S'no-store, no-cache, must-revalidate, post-check=0, pre-check=0'
p3249
asbasbasbag49
(g65
g51
NtRp3250
(dp3251
g54
(dp3252
sg63
g3224
sg56
(lp3253
g49
(g70
g51
NtRp3254
(dp3255
g54
(dp3256
g74
g75
ssg63
g3250
sg56
(lp3257
S'Content-Type'
p3258
asbag49
(g70
g51
NtRp3259
(dp3260
g54
(dp3261
g81
g82
ssg63
g3250
sg56
(lp3262
S':'
asbag49
(g70
g51
NtRp3263
(dp3264
g54
(dp3265
sg63
g3250
sg56
(lp3266
g49
(g50
g51
NtRp3267
(dp3268
g54
(dp3269
g62
I4
ssg63
g3263
sg56
(lp3270
S'text/html; charset=utf-8'
p3271
asbasbasbag49
(g65
g51
NtRp3272
(dp3273
g54
(dp3274
sg63
g3224
sg56
(lp3275
g49
(g70
g51
NtRp3276
(dp3277
g54
(dp3278
g74
g75
ssg63
g3272
sg56
(lp3279
S'Expires'
p3280
asbag49
(g70
g51
NtRp3281
(dp3282
g54
(dp3283
g81
g82
ssg63
g3272
sg56
(lp3284
S':'
asbag49
(g70
g51
NtRp3285
(dp3286
g54
(dp3287
sg63
g3272
sg56
(lp3288
g49
(g50
g51
NtRp3289
(dp3290
g54
(dp3291
g62
I4
ssg63
g3285
sg56
(lp3292
S'Thu, 29 Mar 2012 09:46:45 GMT'
p3293
asbasbasbag49
(g65
g51
NtRp3294
(dp3295
g54
(dp3296
sg63
g3224
sg56
(lp3297
g49
(g70
g51
NtRp3298
(dp3299
g54
(dp3300
g74
g75
ssg63
g3294
sg56
(lp3301
S'Pragma'
p3302
asbag49
(g70
g51
NtRp3303
(dp3304
g54
(dp3305
g81
g82
ssg63
g3294
sg56
(lp3306
S':'
asbag49
(g70
g51
NtRp3307
(dp3308
g54
(dp3309
sg63
g3294
sg56
(lp3310
g49
(g50
g51
NtRp3311
(dp3312
g54
(dp3313
g62
I4
ssg63
g3307
sg56
(lp3314
S'no-cache'
p3315
asbasbasbag49
(g65
g51
NtRp3316
(dp3317
g54
(dp3318
sg63
g3224
sg56
(lp3319
g49
(g70
g51
NtRp3320
(dp3321
g54
(dp3322
g74
g75
ssg63
g3316
sg56
(lp3323
S'X-Powered-By'
p3324
asbag49
(g70
g51
NtRp3325
(dp3326
g54
(dp3327
g81
g82
ssg63
g3316
sg56
(lp3328
S':'
asbag49
(g70
g51
NtRp3329
(dp3330
g54
(dp3331
sg63
g3316
sg56
(lp3332
g49
(g50
g51
NtRp3333
(dp3334
g54
(dp3335
g62
I4
ssg63
g3329
sg56
(lp3336
S'web2py'
p3337
asbasbasbasbasbasbasbag49
(g65
g51
NtRp3338
(dp3339
g54
(dp3340
sg63
g2855
sg56
(lp3341
g49
(g70
g51
NtRp3342
(dp3343
g54
(dp3344
g74
g75
ssg63
g3338
sg56
(lp3345
S'menu'
p3346
asbag49
(g70
g51
NtRp3347
(dp3348
g54
(dp3349
g81
g82
ssg63
g3338
sg56
(lp3350
S':'
asbag49
(g70
g51
NtRp3351
(dp3352
g54
(dp3353
sg63
g3338
sg56
(lp3354
g49
(g50
g51
NtRp3355
(dp3356
g54
(dp3357
g62
I5
ssg63
g3351
sg56
(lp3358
g49
(g58
g51
NtRp3359
(dp3360
g54
(dp3361
g62
I4
ssg63
Nsg56
(lp3362
g49
(g65
g51
NtRp3363
(dp3364
g54
(dp3365
sg63
g3359
sg56
(lp3366
g49
(g70
g51
NtRp3367
(dp3368
g54
(dp3369
sg63
g3363
sg56
(lp3370
g49
(g50
g51
NtRp3371
(dp3372
g54
(dp3373
g62
I4
ssg63
g3367
sg56
(lp3374
g49
(g58
g51
NtRp3375
(dp3376
g54
(dp3377
g62
I3
ssg63
Nsg56
(lp3378
g49
(g65
g51
NtRp3379
(dp3380
g54
(dp3381
sg63
g3375
sg56
(lp3382
g49
(g70
g51
NtRp3383
(dp3384
g54
(dp3385
sg63
g3379
sg56
(lp3386
g49
(g50
g51
NtRp3387
(dp3388
g54
(dp3389
g62
I3
ssg63
g3383
sg56
(lp3390
cgluon.languages
lazyT_unpickle
p3391
(S't\x07\x00\x00\x00Accueil'
tRp3392
asbasbasbag49
(g65
g51
NtRp3393
(dp3394
g54
(dp3395
sg63
g3375
sg56
(lp3396
g49
(g70
g51
NtRp3397
(dp3398
g54
(dp3399
sg63
g3393
sg56
(lp3400
g49
(g50
g51
NtRp3401
(dp3402
g54
(dp3403
g62
I3
ssg63
g3397
sg56
(lp3404
g92
asbasbasbag49
(g65
g51
NtRp3405
(dp3406
g54
(dp3407
sg63
g3375
sg56
(lp3408
g49
(g70
g51
NtRp3409
(dp3410
g54
(dp3411
sg63
g3405
sg56
(lp3412
g49
(g50
g51
NtRp3413
(dp3414
g54
(dp3415
g62
I3
ssg63
g3409
sg56
(lp3416
S'/init/default/index'
p3417
asbasbasbag49
(g65
g51
NtRp3418
(dp3419
g54
(dp3420
sg63
g3375
sg56
(lp3421
g49
(g70
g51
NtRp3422
(dp3423
g54
(dp3424
sg63
g3418
sg56
(lp3425
g49
(g50
g51
NtRp3426
(dp3427
g54
(dp3428
g62
I3
ssg63
g3422
sg56
(lp3429
g49
(g58
g51
NtRp3430
(dp3431
g54
(dp3432
g62
I2
ssg63
Nsg56
(lp3433
sbasbasbasbasbasbasbasbag49
(g65
g51
NtRp3434
(dp3435
g54
(dp3436
sg63
g3359
sg56
(lp3437
g49
(g70
g51
NtRp3438
(dp3439
g54
(dp3440
sg63
g3434
sg56
(lp3441
g49
(g50
g51
NtRp3442
(dp3443
g54
(dp3444
g62
I4
ssg63
g3438
sg56
(lp3445
g49
(g58
g51
NtRp3446
(dp3447
g54
(dp3448
g62
I3
ssg63
Nsg56
(lp3449
g49
(g65
g51
NtRp3450
(dp3451
g54
(dp3452
sg63
g3446
sg56
(lp3453
g49
(g70
g51
NtRp3454
(dp3455
g54
(dp3456
sg63
g3450
sg56
(lp3457
g49
(g50
g51
NtRp3458
(dp3459
g54
(dp3460
g62
I3
ssg63
g3454
sg56
(lp3461
g49
(cgluon.html
SPAN
p3462
g51
NtRp3463
(dp3464
g54
(dp3465
g74
S'color:yellow'
p3466
ssg63
Nsg56
(lp3467
g3337
asbasbasbasbag49
(g65
g51
NtRp3468
(dp3469
g54
(dp3470
sg63
g3446
sg56
(lp3471
g49
(g70
g51
NtRp3472
(dp3473
g54
(dp3474
sg63
g3468
sg56
(lp3475
g49
(g50
g51
NtRp3476
(dp3477
g54
(dp3478
g62
I3
ssg63
g3472
sg56
(lp3479
g92
asbasbasbag49
(g65
g51
NtRp3480
(dp3481
g54
(dp3482
sg63
g3446
sg56
(lp3483
g49
(g70
g51
NtRp3484
(dp3485
g54
(dp3486
sg63
g3480
sg56
(lp3487
g49
(g50
g51
NtRp3488
(dp3489
g54
(dp3490
g62
I3
ssg63
g3484
sg56
(lp3491
S'None'
p3492
asbasbasbag49
(g65
g51
NtRp3493
(dp3494
g54
(dp3495
sg63
g3446
sg56
(lp3496
g49
(g70
g51
NtRp3497
(dp3498
g54
(dp3499
sg63
g3493
sg56
(lp3500
g49
(g50
g51
NtRp3501
(dp3502
g54
(dp3503
g62
I3
ssg63
g3497
sg56
(lp3504
g49
(g58
g51
NtRp3505
(dp3506
g54
(dp3507
g62
I2
ssg63
Nsg56
(lp3508
g49
(g65
g51
NtRp3509
(dp3510
g54
(dp3511
sg63
g3505
sg56
(lp3512
g49
(g70
g51
NtRp3513
(dp3514
g54
(dp3515
sg63
g3509
sg56
(lp3516
g49
(g50
g51
NtRp3517
(dp3518
g54
(dp3519
g62
I2
ssg63
g3513
sg56
(lp3520
g49
(g58
g51
NtRp3521
(dp3522
g54
(dp3523
g62
I1
ssg63
Nsg56
(lp3524
g49
(g65
g51
NtRp3525
(dp3526
g54
(dp3527
sg63
g3521
sg56
(lp3528
g49
(g70
g51
NtRp3529
(dp3530
g54
(dp3531
sg63
g3525
sg56
(lp3532
g49
(g50
g51
NtRp3533
(dp3534
g54
(dp3535
g62
I1
ssg63
g3529
sg56
(lp3536
g3391
(S's\x08\x00\x00\x00My Sites'
tRp3537
asbasbasbag49
(g65
g51
NtRp3538
(dp3539
g54
(dp3540
sg63
g3521
sg56
(lp3541
g49
(g70
g51
NtRp3542
(dp3543
g54
(dp3544
sg63
g3538
sg56
(lp3545
g49
(g50
g51
NtRp3546
(dp3547
g54
(dp3548
g62
I1
ssg63
g3542
sg56
(lp3549
I00
asbasbasbag49
(g65
g51
NtRp3550
(dp3551
g54
(dp3552
sg63
g3521
sg56
(lp3553
g49
(g70
g51
NtRp3554
(dp3555
g54
(dp3556
sg63
g3550
sg56
(lp3557
g49
(g50
g51
NtRp3558
(dp3559
g54
(dp3560
g62
I1
ssg63
g3554
sg56
(lp3561
S'/admin/default/site'
p3562
asbasbasbasbasbasbasbag49
(g65
g51
NtRp3563
(dp3564
g54
(dp3565
sg63
g3505
sg56
(lp3566
g49
(g70
g51
NtRp3567
(dp3568
g54
(dp3569
sg63
g3563
sg56
(lp3570
g49
(g50
g51
NtRp3571
(dp3572
g54
(dp3573
g62
I2
ssg63
g3567
sg56
(lp3574
g49
(g58
g51
NtRp3575
(dp3576
g54
(dp3577
g62
I1
ssg63
Nsg56
(lp3578
g49
(g65
g51
NtRp3579
(dp3580
g54
(dp3581
sg63
g3575
sg56
(lp3582
g49
(g70
g51
NtRp3583
(dp3584
g54
(dp3585
sg63
g3579
sg56
(lp3586
g49
(g50
g51
NtRp3587
(dp3588
g54
(dp3589
g62
I1
ssg63
g3583
sg56
(lp3590
g3391
(S's\x0b\x00\x00\x00Cette Appli'
tRp3591
asbasbasbag49
(g65
g51
NtRp3592
(dp3593
g54
(dp3594
sg63
g3575
sg56
(lp3595
g49
(g70
g51
NtRp3596
(dp3597
g54
(dp3598
sg63
g3592
sg56
(lp3599
g49
(g50
g51
NtRp3600
(dp3601
g54
(dp3602
g62
I1
ssg63
g3596
sg56
(lp3603
I00
asbasbasbag49
(g65
g51
NtRp3604
(dp3605
g54
(dp3606
sg63
g3575
sg56
(lp3607
g49
(g70
g51
NtRp3608
(dp3609
g54
(dp3610
sg63
g3604
sg56
(lp3611
g49
(g50
g51
NtRp3612
(dp3613
g54
(dp3614
g62
I1
ssg63
g3608
sg56
(lp3615
S'/admin/default/design/init'
p3616
asbasbasbag49
(g65
g51
NtRp3617
(dp3618
g54
(dp3619
sg63
g3575
sg56
(lp3620
g49
(g70
g51
NtRp3621
(dp3622
g54
(dp3623
sg63
g3617
sg56
(lp3624
g49
(g50
g51
NtRp3625
(dp3626
g54
(dp3627
g62
I1
ssg63
g3621
sg56
(lp3628
(lp3629
(g3391
(S's\x0b\x00\x00\x00Contr\xc3\xb4leur'
tRp3630
I00
S'/admin/default/edit/init/controllers/default.py'
tp3631
a(g3391
(S's\r\x00\x00\x00Pr\xc3\xa9sentation'
tRp3632
I00
S'/admin/default/edit/init/views/default/initdbjack.html'
tp3633
a(g3391
(S's\x0c\x00\x00\x00Mise en page'
tRp3634
I00
S'/admin/default/edit/init/views/layout.html'
tp3635
a(g3391
(S's\x10\x00\x00\x00Feuille de style'
tRp3636
I00
S'/admin/default/edit/init/static/css/web2py.css'
tp3637
a(g3391
(S's\n\x00\x00\x00Mod\xc3\xa8le DB'
tRp3638
I00
S'/admin/default/edit/init/models/db.py'
tp3639
a(g3391
(S's\x0c\x00\x00\x00Menu mod\xc3\xa8le'
tRp3640
I00
S'/admin/default/edit/init/models/menu.py'
tp3641
a(g3391
(S's\x10\x00\x00\x00Base de donn\xc3\xa9es'
tRp3642
I00
S'/init/appadmin/index'
tp3643
a(g3391
(S't\x07\x00\x00\x00Erreurs'
tRp3644
I00
S'/admin/default/errors/init'
tp3645
a(g3391
(S's\t\x00\x00\x00\xc3\x80 propos'
tRp3646
I00
S'/admin/default/about/init'
tp3647
aasbasbasbasbasbasbasbag49
(g65
g51
NtRp3648
(dp3649
g54
(dp3650
sg63
g3505
sg56
(lp3651
g49
(g70
g51
NtRp3652
(dp3653
g54
(dp3654
sg63
g3648
sg56
(lp3655
g49
(g50
g51
NtRp3656
(dp3657
g54
(dp3658
g62
I2
ssg63
g3652
sg56
(lp3659
g49
(g58
g51
NtRp3660
(dp3661
g54
(dp3662
g62
I1
ssg63
Nsg56
(lp3663
g49
(g65
g51
NtRp3664
(dp3665
g54
(dp3666
sg63
g3660
sg56
(lp3667
g49
(g70
g51
NtRp3668
(dp3669
g54
(dp3670
sg63
g3664
sg56
(lp3671
g49
(g50
g51
NtRp3672
(dp3673
g54
(dp3674
g62
I1
ssg63
g3668
sg56
(lp3675
S'web2py.com'
p3676
asbasbasbag49
(g65
g51
NtRp3677
(dp3678
g54
(dp3679
sg63
g3660
sg56
(lp3680
g49
(g70
g51
NtRp3681
(dp3682
g54
(dp3683
sg63
g3677
sg56
(lp3684
g49
(g50
g51
NtRp3685
(dp3686
g54
(dp3687
g62
I1
ssg63
g3681
sg56
(lp3688
I00
asbasbasbag49
(g65
g51
NtRp3689
(dp3690
g54
(dp3691
sg63
g3660
sg56
(lp3692
g49
(g70
g51
NtRp3693
(dp3694
g54
(dp3695
sg63
g3689
sg56
(lp3696
g49
(g50
g51
NtRp3697
(dp3698
g54
(dp3699
g62
I1
ssg63
g3693
sg56
(lp3700
S'http://www.web2py.com'
p3701
asbasbasbag49
(g65
g51
NtRp3702
(dp3703
g54
(dp3704
sg63
g3660
sg56
(lp3705
g49
(g70
g51
NtRp3706
(dp3707
g54
(dp3708
sg63
g3702
sg56
(lp3709
g49
(g50
g51
NtRp3710
(dp3711
g54
(dp3712
g62
I1
ssg63
g3706
sg56
(lp3713
(lp3714
(g3391
(S's\x10\x00\x00\x00T\xc3\xa9l\xc3\xa9chargement'
tRp3715
I00
S'http://www.web2py.com/examples/default/download'
p3716
tp3717
a(g3391
(S't\x07\x00\x00\x00Support'
tRp3718
I00
S'http://www.web2py.com/examples/default/support'
p3719
tp3720
a(g3391
(S's\x05\x00\x00\x00D\xc3\xa9mo'
tRp3721
I00
S'http://web2py.com/demo_admin'
p3722
tp3723
a(g3391
(S's\x10\x00\x00\x00Examples Rapides'
tRp3724
I00
S'http://web2py.com/examples/default/examples'
p3725
tp3726
a(g3391
(S't\x03\x00\x00\x00FAQ'
tRp3727
I00
S'http://web2py.com/AlterEgo'
p3728
tp3729
a(g3391
(S's\x07\x00\x00\x00Vid\xc3\xa9os'
tRp3730
I00
S'http://www.web2py.com/examples/default/videos/'
p3731
tp3732
a(g3391
(S's\x16\x00\x00\x00Applications gratuites'
tRp3733
I00
S'http://web2py.com/appliances'
p3734
tp3735
a(g3391
(S't\n\x00\x00\x00Plugiciels'
tRp3736
I00
S'http://web2py.com/plugins'
p3737
tp3738
a(g3391
(S't\x07\x00\x00\x00Layouts'
tRp3739
I00
S'http://web2py.com/layouts'
p3740
tp3741
a(g3391
(S't\x08\x00\x00\x00Recettes'
tRp3742
I00
S'http://web2pyslices.com/'
p3743
tp3744
a(g3391
(S's\x0b\x00\x00\x00S\xc3\xa9mantique'
tRp3745
I00
S'http://web2py.com/semantic'
p3746
tp3747
aasbasbasbasbasbasbasbag49
(g65
g51
NtRp3748
(dp3749
g54
(dp3750
sg63
g3505
sg56
(lp3751
g49
(g70
g51
NtRp3752
(dp3753
g54
(dp3754
sg63
g3748
sg56
(lp3755
g49
(g50
g51
NtRp3756
(dp3757
g54
(dp3758
g62
I2
ssg63
g3752
sg56
(lp3759
g49
(g58
g51
NtRp3760
(dp3761
g54
(dp3762
g62
I1
ssg63
Nsg56
(lp3763
g49
(g65
g51
NtRp3764
(dp3765
g54
(dp3766
sg63
g3760
sg56
(lp3767
g49
(g70
g51
NtRp3768
(dp3769
g54
(dp3770
sg63
g3764
sg56
(lp3771
g49
(g50
g51
NtRp3772
(dp3773
g54
(dp3774
g62
I1
ssg63
g3768
sg56
(lp3775
g3391
(S't\r\x00\x00\x00Documentation'
tRp3776
asbasbasbag49
(g65
g51
NtRp3777
(dp3778
g54
(dp3779
sg63
g3760
sg56
(lp3780
g49
(g70
g51
NtRp3781
(dp3782
g54
(dp3783
sg63
g3777
sg56
(lp3784
g49
(g50
g51
NtRp3785
(dp3786
g54
(dp3787
g62
I1
ssg63
g3781
sg56
(lp3788
I00
asbasbasbag49
(g65
g51
NtRp3789
(dp3790
g54
(dp3791
sg63
g3760
sg56
(lp3792
g49
(g70
g51
NtRp3793
(dp3794
g54
(dp3795
sg63
g3789
sg56
(lp3796
g49
(g50
g51
NtRp3797
(dp3798
g54
(dp3799
g62
I1
ssg63
g3793
sg56
(lp3800
S'http://www.web2py.com/book'
p3801
asbasbasbag49
(g65
g51
NtRp3802
(dp3803
g54
(dp3804
sg63
g3760
sg56
(lp3805
g49
(g70
g51
NtRp3806
(dp3807
g54
(dp3808
sg63
g3802
sg56
(lp3809
g49
(g50
g51
NtRp3810
(dp3811
g54
(dp3812
g62
I1
ssg63
g3806
sg56
(lp3813
(lp3814
(g3391
(S's\x08\x00\x00\x00Pr\xc3\xa9face'
tRp3815
I00
S'http://www.web2py.com/book/default/chapter/00'
p3816
tp3817
a(g3391
(S't\x0c\x00\x00\x00Introduction'
tRp3818
I00
S'http://www.web2py.com/book/default/chapter/01'
p3819
tp3820
a(g3391
(S't\x06\x00\x00\x00Python'
tRp3821
I00
S'http://www.web2py.com/book/default/chapter/02'
p3822
tp3823
a(g3391
(S's\r\x00\x00\x00Pr\xc3\xa9sentation'
tRp3824
I00
S'http://www.web2py.com/book/default/chapter/03'
p3825
tp3826
a(g3391
(S's\x08\x00\x00\x00Le noyau'
tRp3827
I00
S'http://www.web2py.com/book/default/chapter/04'
p3828
tp3829
a(g3391
(S's\x08\x00\x00\x00Les Vues'
tRp3830
I00
S'http://www.web2py.com/book/default/chapter/05'
p3831
tp3832
a(g3391
(S's\x10\x00\x00\x00Base de donn\xc3\xa9es'
tRp3833
I00
S'http://www.web2py.com/book/default/chapter/06'
p3834
tp3835
a(g3391
(S's\x1a\x00\x00\x00Formulaires et Validateurs'
tRp3836
I00
S'http://www.web2py.com/book/default/chapter/07'
p3837
tp3838
a(g3391
(S's\r\x00\x00\x00Email and SMS'
tRp3839
I00
S'http://www.web2py.com/book/default/chapter/08'
p3840
tp3841
a(g3391
(S"s\x12\x00\x00\x00Contr\xc3\xb4le d'acc\xc3\xa8s"
tRp3842
I00
S'http://www.web2py.com/book/default/chapter/09'
p3843
tp3844
a(g3391
(S't\x08\x00\x00\x00Services'
tRp3845
I00
S'http://www.web2py.com/book/default/chapter/10'
p3846
tp3847
a(g3391
(S's\r\x00\x00\x00Recettes Ajax'
tRp3848
I00
S'http://www.web2py.com/book/default/chapter/11'
p3849
tp3850
a(g3391
(S's\x16\x00\x00\x00Components and Plugins'
tRp3851
I00
S'http://www.web2py.com/book/default/chapter/12'
p3852
tp3853
a(g3391
(S's\x18\x00\x00\x00Recettes de d\xc3\xa9ploiement'
tRp3854
I00
S'http://www.web2py.com/book/default/chapter/13'
p3855
tp3856
a(g3391
(S's\x0f\x00\x00\x00Autres recettes'
tRp3857
I00
S'http://www.web2py.com/book/default/chapter/14'
p3858
tp3859
a(g3391
(S's\x10\x00\x00\x00Acheter ce livre'
tRp3860
I00
S'http://stores.lulu.com/web2py'
p3861
tp3862
aasbasbasbasbasbasbasbag49
(g65
g51
NtRp3863
(dp3864
g54
(dp3865
sg63
g3505
sg56
(lp3866
g49
(g70
g51
NtRp3867
(dp3868
g54
(dp3869
sg63
g3863
sg56
(lp3870
g49
(g50
g51
NtRp3871
(dp3872
g54
(dp3873
g62
I2
ssg63
g3867
sg56
(lp3874
g49
(g58
g51
NtRp3875
(dp3876
g54
(dp3877
g62
I1
ssg63
Nsg56
(lp3878
g49
(g65
g51
NtRp3879
(dp3880
g54
(dp3881
sg63
g3875
sg56
(lp3882
g49
(g70
g51
NtRp3883
(dp3884
g54
(dp3885
sg63
g3879
sg56
(lp3886
g49
(g50
g51
NtRp3887
(dp3888
g54
(dp3889
g62
I1
ssg63
g3883
sg56
(lp3890
g3391
(S's\x0b\x00\x00\x00Communaut\xc3\xa9'
tRp3891
asbasbasbag49
(g65
g51
NtRp3892
(dp3893
g54
(dp3894
sg63
g3875
sg56
(lp3895
g49
(g70
g51
NtRp3896
(dp3897
g54
(dp3898
sg63
g3892
sg56
(lp3899
g49
(g50
g51
NtRp3900
(dp3901
g54
(dp3902
g62
I1
ssg63
g3896
sg56
(lp3903
I00
asbasbasbag49
(g65
g51
NtRp3904
(dp3905
g54
(dp3906
sg63
g3875
sg56
(lp3907
g49
(g70
g51
NtRp3908
(dp3909
g54
(dp3910
sg63
g3904
sg56
(lp3911
g49
(g50
g51
NtRp3912
(dp3913
g54
(dp3914
g62
I1
ssg63
g3908
sg56
(lp3915
Nasbasbasbag49
(g65
g51
NtRp3916
(dp3917
g54
(dp3918
sg63
g3875
sg56
(lp3919
g49
(g70
g51
NtRp3920
(dp3921
g54
(dp3922
sg63
g3916
sg56
(lp3923
g49
(g50
g51
NtRp3924
(dp3925
g54
(dp3926
g62
I1
ssg63
g3920
sg56
(lp3927
(lp3928
(g3391
(S't\x06\x00\x00\x00Groups'
tRp3929
I00
S'http://www.web2py.com/examples/default/usergroups'
p3930
tp3931
a(g3391
(S't\x07\x00\x00\x00Twitter'
tRp3932
I00
S'http://twitter.com/web2py'
p3933
tp3934
a(g3391
(S's\t\x00\x00\x00Live Chat'
tRp3935
I00
S'http://webchat.freenode.net/?channels=web2py'
p3936
tp3937
aasbasbasbasbasbasbasbag49
(g65
g51
NtRp3938
(dp3939
g54
(dp3940
sg63
g3505
sg56
(lp3941
g49
(g70
g51
NtRp3942
(dp3943
g54
(dp3944
sg63
g3938
sg56
(lp3945
g49
(g50
g51
NtRp3946
(dp3947
g54
(dp3948
g62
I2
ssg63
g3942
sg56
(lp3949
g49
(g58
g51
NtRp3950
(dp3951
g54
(dp3952
g62
I1
ssg63
Nsg56
(lp3953
g49
(g65
g51
NtRp3954
(dp3955
g54
(dp3956
sg63
g3950
sg56
(lp3957
g49
(g70
g51
NtRp3958
(dp3959
g54
(dp3960
sg63
g3954
sg56
(lp3961
g49
(g50
g51
NtRp3962
(dp3963
g54
(dp3964
g62
I1
ssg63
g3958
sg56
(lp3965
g3391
(S't\n\x00\x00\x00Plugiciels'
tRp3966
asbasbasbag49
(g65
g51
NtRp3967
(dp3968
g54
(dp3969
sg63
g3950
sg56
(lp3970
g49
(g70
g51
NtRp3971
(dp3972
g54
(dp3973
sg63
g3967
sg56
(lp3974
g49
(g50
g51
NtRp3975
(dp3976
g54
(dp3977
g62
I1
ssg63
g3971
sg56
(lp3978
I00
asbasbasbag49
(g65
g51
NtRp3979
(dp3980
g54
(dp3981
sg63
g3950
sg56
(lp3982
g49
(g70
g51
NtRp3983
(dp3984
g54
(dp3985
sg63
g3979
sg56
(lp3986
g49
(g50
g51
NtRp3987
(dp3988
g54
(dp3989
g62
I1
ssg63
g3983
sg56
(lp3990
Nasbasbasbag49
(g65
g51
NtRp3991
(dp3992
g54
(dp3993
sg63
g3950
sg56
(lp3994
g49
(g70
g51
NtRp3995
(dp3996
g54
(dp3997
sg63
g3991
sg56
(lp3998
g49
(g50
g51
NtRp3999
(dp4000
g54
(dp4001
g62
I1
ssg63
g3995
sg56
(lp4002
(lp4003
(S'plugin_wiki'
p4004
I00
S'http://web2py.com/examples/default/download'
p4005
tp4006
a(g3391
(S's\r\x00\x00\x00Other Plugins'
tRp4007
I00
g3737
tp4008
a(g3391
(S's\x0e\x00\x00\x00Layout Plugins'
tRp4009
I00
g3740
tp4010
aasbasbasbasbasbasbasbasbasbasbasbasbasbasbasbasbasbasbasbag49
(g65
g51
NtRp4011
(dp4012
g54
(dp4013
sg63
g2855
sg56
(lp4014
g49
(g70
g51
NtRp4015
(dp4016
g54
(dp4017
g74
g75
ssg63
g4011
sg56
(lp4018
S'meta'
p4019
asbag49
(g70
g51
NtRp4020
(dp4021
g54
(dp4022
g81
g82
ssg63
g4011
sg56
(lp4023
S':'
asbag49
(g70
g51
NtRp4024
(dp4025
g54
(dp4026
sg63
g4011
sg56
(lp4027
g49
(g50
g51
NtRp4028
(dp4029
g54
(dp4030
g62
I5
ssg63
g4024
sg56
(lp4031
g49
(g58
g51
NtRp4032
(dp4033
g54
(dp4034
g62
I4
ssg63
Nsg56
(lp4035
g49
(g65
g51
NtRp4036
(dp4037
g54
(dp4038
sg63
g4032
sg56
(lp4039
g49
(g70
g51
NtRp4040
(dp4041
g54
(dp4042
g74
g75
ssg63
g4036
sg56
(lp4043
S'author'
p4044
asbag49
(g70
g51
NtRp4045
(dp4046
g54
(dp4047
g81
g82
ssg63
g4036
sg56
(lp4048
S':'
asbag49
(g70
g51
NtRp4049
(dp4050
g54
(dp4051
sg63
g4036
sg56
(lp4052
g49
(g50
g51
NtRp4053
(dp4054
g54
(dp4055
g62
I4
ssg63
g4049
sg56
(lp4056
S'Your Name <you@example.com>'
p4057
asbasbasbag49
(g65
g51
NtRp4058
(dp4059
g54
(dp4060
sg63
g4032
sg56
(lp4061
g49
(g70
g51
NtRp4062
(dp4063
g54
(dp4064
g74
g75
ssg63
g4058
sg56
(lp4065
S'copyright'
p4066
asbag49
(g70
g51
NtRp4067
(dp4068
g54
(dp4069
g81
g82
ssg63
g4058
sg56
(lp4070
S':'
asbag49
(g70
g51
NtRp4071
(dp4072
g54
(dp4073
sg63
g4058
sg56
(lp4074
g49
(g50
g51
NtRp4075
(dp4076
g54
(dp4077
g62
I4
ssg63
g4071
sg56
(lp4078
S'Copyright 2011'
p4079
asbasbasbag49
(g65
g51
NtRp4080
(dp4081
g54
(dp4082
sg63
g4032
sg56
(lp4083
g49
(g70
g51
NtRp4084
(dp4085
g54
(dp4086
g74
g75
ssg63
g4080
sg56
(lp4087
S'description'
p4088
asbag49
(g70
g51
NtRp4089
(dp4090
g54
(dp4091
g81
g82
ssg63
g4080
sg56
(lp4092
S':'
asbag49
(g70
g51
NtRp4093
(dp4094
g54
(dp4095
sg63
g4080
sg56
(lp4096
g49
(g50
g51
NtRp4097
(dp4098
g54
(dp4099
g62
I4
ssg63
g4093
sg56
(lp4100
S'a cool new app'
p4101
asbasbasbag49
(g65
g51
NtRp4102
(dp4103
g54
(dp4104
sg63
g4032
sg56
(lp4105
g49
(g70
g51
NtRp4106
(dp4107
g54
(dp4108
g74
g75
ssg63
g4102
sg56
(lp4109
S'generator'
p4110
asbag49
(g70
g51
NtRp4111
(dp4112
g54
(dp4113
g81
g82
ssg63
g4102
sg56
(lp4114
S':'
asbag49
(g70
g51
NtRp4115
(dp4116
g54
(dp4117
sg63
g4102
sg56
(lp4118
g49
(g50
g51
NtRp4119
(dp4120
g54
(dp4121
g62
I4
ssg63
g4115
sg56
(lp4122
S'Web2py Web Framework'
p4123
asbasbasbag49
(g65
g51
NtRp4124
(dp4125
g54
(dp4126
sg63
g4032
sg56
(lp4127
g49
(g70
g51
NtRp4128
(dp4129
g54
(dp4130
g74
g75
ssg63
g4124
sg56
(lp4131
S'keywords'
p4132
asbag49
(g70
g51
NtRp4133
(dp4134
g54
(dp4135
g81
g82
ssg63
g4124
sg56
(lp4136
S':'
asbag49
(g70
g51
NtRp4137
(dp4138
g54
(dp4139
sg63
g4124
sg56
(lp4140
g49
(g50
g51
NtRp4141
(dp4142
g54
(dp4143
g62
I4
ssg63
g4137
sg56
(lp4144
S'web2py, python, framework'
p4145
asbasbasbasbasbasbasbag49
(g65
g51
NtRp4146
(dp4147
g54
(dp4148
sg63
g2855
sg56
(lp4149
g49
(g70
g51
NtRp4150
(dp4151
g54
(dp4152
g74
g75
ssg63
g4146
sg56
(lp4153
S'postprocessing'
p4154
asbag49
(g70
g51
NtRp4155
(dp4156
g54
(dp4157
g81
g82
ssg63
g4146
sg56
(lp4158
S':'
asbag49
(g70
g51
NtRp4159
(dp4160
g54
(dp4161
sg63
g4146
sg56
(lp4162
g49
(g50
g51
NtRp4163
(dp4164
g54
(dp4165
g62
I5
ssg63
g4159
sg56
(lp4166
g49
(g58
g51
NtRp4167
(dp4168
g54
(dp4169
g62
I4
ssg63
Nsg56
(lp4170
sbasbasbasbag49
(g65
g51
NtRp4171
(dp4172
g54
(dp4173
sg63
g2855
sg56
(lp4174
g49
(g70
g51
NtRp4175
(dp4176
g54
(dp4177
g74
g75
ssg63
g4171
sg56
(lp4178
S'session_db'
p4179
asbag49
(g70
g51
NtRp4180
(dp4181
g54
(dp4182
g81
g82
ssg63
g4171
sg56
(lp4183
S':'
asbag49
(g70
g51
NtRp4184
(dp4185
g54
(dp4186
sg63
g4171
sg56
(lp4187
g49
(g50
g51
NtRp4188
(dp4189
g54
(dp4190
g62
I5
ssg63
g4184
sg56
(lp4191
g726
asbasbasbag49
(g65
g51
NtRp4192
(dp4193
g54
(dp4194
sg63
g2855
sg56
(lp4195
g49
(g70
g51
NtRp4196
(dp4197
g54
(dp4198
g74
g75
ssg63
g4192
sg56
(lp4199
S'session_id'
p4200
asbag49
(g70
g51
NtRp4201
(dp4202
g54
(dp4203
g81
g82
ssg63
g4192
sg56
(lp4204
S':'
asbag49
(g70
g51
NtRp4205
(dp4206
g54
(dp4207
sg63
g4192
sg56
(lp4208
g49
(g50
g51
NtRp4209
(dp4210
g54
(dp4211
g62
I5
ssg63
g4205
sg56
(lp4212
S'19:a8687721-5787-4713-9329-1674aeb3f1bb'
p4213
asbasbasbag49
(g65
g51
NtRp4214
(dp4215
g54
(dp4216
sg63
g2855
sg56
(lp4217
g49
(g70
g51
NtRp4218
(dp4219
g54
(dp4220
g74
g75
ssg63
g4214
sg56
(lp4221
S'session_id_name'
p4222
asbag49
(g70
g51
NtRp4223
(dp4224
g54
(dp4225
g81
g82
ssg63
g4214
sg56
(lp4226
S':'
asbag49
(g70
g51
NtRp4227
(dp4228
g54
(dp4229
sg63
g4214
sg56
(lp4230
g49
(g50
g51
NtRp4231
(dp4232
g54
(dp4233
g62
I5
ssg63
g4227
sg56
(lp4234
S'session_id_init'
p4235
asbasbasbag49
(g65
g51
NtRp4236
(dp4237
g54
(dp4238
sg63
g2855
sg56
(lp4239
g49
(g70
g51
NtRp4240
(dp4241
g54
(dp4242
g74
g75
ssg63
g4236
sg56
(lp4243
S'status'
p4244
asbag49
(g70
g51
NtRp4245
(dp4246
g54
(dp4247
g81
g82
ssg63
g4236
sg56
(lp4248
S':'
asbag49
(g70
g51
NtRp4249
(dp4250
g54
(dp4251
sg63
g4236
sg56
(lp4252
g49
(g50
g51
NtRp4253
(dp4254
g54
(dp4255
g62
I5
ssg63
g4249
sg56
(lp4256
S'200'
p4257
asbasbasbag49
(g65
g51
NtRp4258
(dp4259
g54
(dp4260
sg63
g2855
sg56
(lp4261
g49
(g70
g51
NtRp4262
(dp4263
g54
(dp4264
g74
g75
ssg63
g4258
sg56
(lp4265
S'subtitle'
p4266
asbag49
(g70
g51
NtRp4267
(dp4268
g54
(dp4269
g81
g82
ssg63
g4258
sg56
(lp4270
S':'
asbag49
(g70
g51
NtRp4271
(dp4272
g54
(dp4273
sg63
g4258
sg56
(lp4274
g49
(g50
g51
NtRp4275
(dp4276
g54
(dp4277
g62
I5
ssg63
g4271
sg56
(lp4278
g3391
(S's\x12\x00\x00\x00personnalisez-moi!'
tRp4279
asbasbasbag49
(g65
g51
NtRp4280
(dp4281
g54
(dp4282
sg63
g2855
sg56
(lp4283
g49
(g70
g51
NtRp4284
(dp4285
g54
(dp4286
g74
g75
ssg63
g4280
sg56
(lp4287
S'title'
p4288
asbag49
(g70
g51
NtRp4289
(dp4290
g54
(dp4291
g81
g82
ssg63
g4280
sg56
(lp4292
S':'
asbag49
(g70
g51
NtRp4293
(dp4294
g54
(dp4295
sg63
g4280
sg56
(lp4296
g49
(g50
g51
NtRp4297
(dp4298
g54
(dp4299
g62
I5
ssg63
g4293
sg56
(lp4300
S'Init'
p4301
asbasbasbag49
(g65
g51
NtRp4302
(dp4303
g54
(dp4304
sg63
g2855
sg56
(lp4305
g49
(g70
g51
NtRp4306
(dp4307
g54
(dp4308
g74
g75
ssg63
g4302
sg56
(lp4309
g2108
asbag49
(g70
g51
NtRp4310
(dp4311
g54
(dp4312
g81
g82
ssg63
g4302
sg56
(lp4313
S':'
asbag49
(g70
g51
NtRp4314
(dp4315
g54
(dp4316
sg63
g4302
sg56
(lp4317
g49
(g50
g51
NtRp4318
(dp4319
g54
(dp4320
g62
I5
ssg63
g4314
sg56
(lp4321
g2121
asbasbasbag49
(g65
g51
NtRp4322
(dp4323
g54
(dp4324
sg63
g2855
sg56
(lp4325
g49
(g70
g51
NtRp4326
(dp4327
g54
(dp4328
g74
g75
ssg63
g4322
sg56
(lp4329
S'view'
p4330
asbag49
(g70
g51
NtRp4331
(dp4332
g54
(dp4333
g81
g82
ssg63
g4322
sg56
(lp4334
S':'
asbag49
(g70
g51
NtRp4335
(dp4336
g54
(dp4337
sg63
g4322
sg56
(lp4338
g49
(g50
g51
NtRp4339
(dp4340
g54
(dp4341
g62
I5
ssg63
g4335
sg56
(lp4342
S'default/initdbjack.html'
p4343
asbasbasbasbasbsS'locals'
p4344
(dp4345
S'c'
S"'Dexterite'"
p4346
sS'carac'
p4347
S"['Force', 'Logique', 'Volonte', 'Charisme', 'Apparence', 'Dexterite']"
p4348
sS'crypt_pass'
p4349
S"'b718cac2c616a8bda72d25a1273e7b36'"
p4350
sS'skillls'
p4351
S"{'Physique': {'Sport': {'Capoeira': {'bengale': {}}, 'Karate': {'Nord': {}, 'Sud': {}}}}, 'Savoir': {'Informatique': {'Programmation': {'Methode': {'Merise': {}, 'Uml': {}}, 'Python': {'Django': {}, 'Web2py': {}}}}}, 'Technique': {'Mettalerrie': {'Forge': {}}}}"
p4352
sS'buss'
p4353
S'15'
p4354
sS'jack'
p4355
S'1'
sS'password'
p4356
S"'titi'"
p4357
sS'my_crypt'
p4358
S'<gluon.validators.CRYPT object at 0x04366950>'
p4359
sssS'traceback'
p4360
S'Traceback (most recent call last):\n  File "gluon/restricted.py", line 205, in restricted\n  File "C:\\Users\\Bussiere\\Dropbox\\Projets\\jackpoint\\web2py\\applications\\init\\controllers/default.py", line 448, in <module>\n  File "gluon/globals.py", line 173, in <lambda>\n  File "C:\\Users\\Bussiere\\Dropbox\\Projets\\jackpoint\\web2py\\applications\\init\\controllers/default.py", line 314, in initdbjack\nNameError: global name \'skills\' is not defined\n'
p4361
s.