(dp1
S'output'
p2
S"<type 'exceptions.AttributeError'> 'TR' object has no attribute '_adapter'"
p3
sS'layer'
p4
S'C:\\Users\\Bussiere\\Dropbox\\Projets\\jackpoint\\web2py\\applications\\init\\controllers/default.py'
p5
sS'code'
p6
S'\xef\xbb\xbf# -*- coding: utf-8 -*-\n# this file is released under public domain and you can use without limitations\n\n#########################################################################\n## This is a samples controller\n## - index is the default action of any application\n## - user is required for authentication and authorization\n## - download is for downloading files uploaded in the db (does streaming)\n## - call exposes all registered services (none by default)\n#########################################################################\n# Static analyzer import helpers: (STATIC_IMPORT_MARK)\nif 0: \n    import gluon\n    global cache; cache = gluon.cache.Cache()\n    global LOAD; LOAD  = gluon.compileapp.LoadFactory()\n    import gluon.compileapp.local_import_aux as local_import #@UnusedImport\n    from gluon.contrib.gql import GQLDB #@UnusedImport\n    from gluon.dal import Field #@UnusedImport\n    global request; request = gluon.globals.Request()\n    global response; response = gluon.globals.Response()\n    global session; session = gluon.globals.Session()\n    from gluon.html import A #@UnusedImport\n    from gluon.html import B #@UnusedImport\n    from gluon.html import BEAUTIFY #@UnusedImport\n    from gluon.html import BODY #@UnusedImport\n    from gluon.html import BR #@UnusedImport\n    from gluon.html import CENTER #@UnusedImport\n    from gluon.html import CODE #@UnusedImport\n    from gluon.html import DIV #@UnusedImport\n    from gluon.html import EM #@UnusedImport\n    from gluon.html import EMBED #@UnusedImport\n    from gluon.html import embed64 #@UnusedImport\n    from gluon.html import FIELDSET #@UnusedImport\n    from gluon.html import FORM #@UnusedImport\n    from gluon.html import H1 #@UnusedImport\n    from gluon.html import H2 #@UnusedImport\n    from gluon.html import H3 #@UnusedImport\n    from gluon.html import H4 #@UnusedImport\n    from gluon.html import H5 #@UnusedImport\n    from gluon.html import H6 #@UnusedImport\n    from gluon.html import HEAD #@UnusedImport\n    from gluon.html import HR #@UnusedImport\n    from gluon.html import HTML #@UnusedImport\n    from gluon.html import I #@UnusedImport\n    from gluon.html import IFRAME #@UnusedImport\n    from gluon.html import IMG #@UnusedImport\n    from gluon.html import INPUT #@UnusedImport\n    from gluon.html import LABEL #@UnusedImport\n    from gluon.html import LEGEND #@UnusedImport\n    from gluon.html import LI #@UnusedImport\n    from gluon.html import LINK #@UnusedImport\n    from gluon.html import MARKMIN #@UnusedImport\n    from gluon.html import MENU #@UnusedImport\n    from gluon.html import META #@UnusedImport\n    from gluon.html import OBJECT #@UnusedImport\n    from gluon.html import OL #@UnusedImport\n    from gluon.html import ON #@UnusedImport\n    from gluon.html import OPTGROUP #@UnusedImport\n    from gluon.html import OPTION #@UnusedImport\n    from gluon.html import P #@UnusedImport\n    from gluon.html import PRE #@UnusedImport\n    from gluon.html import STYLE #@UnusedImport\n    from gluon.html import SCRIPT #@UnusedImport\n    from gluon.html import SELECT #@UnusedImport\n    from gluon.html import SPAN #@UnusedImport\n    from gluon.html import TABLE #@UnusedImport\n    from gluon.html import TAG #@UnusedImport\n    from gluon.html import TBODY #@UnusedImport\n    from gluon.html import TD #@UnusedImport\n    from gluon.html import TEXTAREA #@UnusedImport\n    from gluon.html import TFOOT #@UnusedImport\n    from gluon.html import TH  #@UnusedImport\n    from gluon.html import THEAD #@UnusedImport\n    from gluon.html import TITLE #@UnusedImport\n    from gluon.html import TR #@UnusedImport\n    from gluon.html import TT #@UnusedImport\n    from gluon.html import UL #@UnusedImport\n    from gluon.html import URL #@UnusedImport\n    from gluon.html import XHTML #@UnusedImport\n    from gluon.html import XML #@UnusedImport\n    from gluon.html import xmlescape #@UnusedImport\n    from gluon.http import HTTP #@UnusedImport\n    from gluon.http import redirect #@UnusedImport\n    import gluon.languages.translator as T #@UnusedImport\n    from gluon.sql import DAL\n    global db; db = DAL()\n    from gluon.sql import SQLDB #@UnusedImport\n    from gluon.sql import SQLField #@UnusedImport\n    from gluon.sqlhtml import SQLFORM #@UnusedImport\n    from gluon.sqlhtml import SQLTABLE #@UnusedImport\n    from gluon.tools import  Auth\n    global auth; auth = Auth()\n    from gluon.tools import Crud\n    global crud; crud = Crud()\n    from gluon.tools import fetch #@UnusedImport\n    from gluon.tools import geocode #@UnusedImport\n    from gluon.tools import Mail\n    global mail; mail = Mail()\n    from gluon.tools import PluginManager\n    global plugins; plugins = PluginManager()\n    from gluon.tools import prettydate #@UnusedImport\n    from gluon.tools import Recaptcha #@UnusedImport\n    from gluon.tools import Service\n    global service; service = Service()\n    from gluon.validators import CLEANUP  #@UnusedImport\n    from gluon.validators import CRYPT #@UnusedImport\n    from gluon.validators import IS_ALPHANUMERIC #@UnusedImport\n    from gluon.validators import IS_DATE #@UnusedImport\n    from gluon.validators import IS_DATE_IN_RANGE #@UnusedImport\n    from gluon.validators import IS_DATETIME #@UnusedImport\n    from gluon.validators import IS_DATETIME_IN_RANGE #@UnusedImport\n    from gluon.validators import IS_DECIMAL_IN_RANGE #@UnusedImport\n    from gluon.validators import IS_EMAIL #@UnusedImport\n    from gluon.validators import IS_EMPTY_OR #@UnusedImport\n    from gluon.validators import IS_EQUAL_TO #@UnusedImport\n    from gluon.validators import IS_EXPR #@UnusedImport\n    from gluon.validators import IS_FLOAT_IN_RANGE #@UnusedImport\n    from gluon.validators import IS_IMAGE #@UnusedImport\n    from gluon.validators import IS_IN_DB #@UnusedImport\n    from gluon.validators import IS_IN_SET #@UnusedImport\n    from gluon.validators import IS_INT_IN_RANGE #@UnusedImport\n    from gluon.validators import IS_IPV4 #@UnusedImport\n    from gluon.validators import IS_LENGTH #@UnusedImport\n    from gluon.validators import IS_LIST_OF #@UnusedImport\n    from gluon.validators import IS_LOWER #@UnusedImport\n    from gluon.validators import IS_MATCH #@UnusedImport\n    from gluon.validators import IS_NOT_EMPTY #@UnusedImport\n    from gluon.validators import IS_NOT_IN_DB #@UnusedImport\n    from gluon.validators import IS_NULL_OR #@UnusedImport\n    from gluon.validators import IS_SLUG #@UnusedImport\n    from gluon.validators import IS_STRONG  #@UnusedImport\n    from gluon.validators import IS_TIME #@UnusedImport\n    from gluon.validators import IS_UPLOAD_FILENAME #@UnusedImport\n    from gluon.validators import IS_UPPER #@UnusedImpor\n\n\nimport random\nfrom uuid import uuid4\nfrom gluon.storage import Storage\nsettings = Storage()\n\n\ndef logout():\n    return auth.logout()\n\n\ndef index():\n    if auth.is_logged_in() :\n       redirect(URL(\'interfaceuser\'))\n    else :\n        return dict(form=auth.login(),faq=URL(\'faq\'))\n\n\n\ndef index2():\n    if auth.is_logged_in() :\n        return "You get the blue pills"\n    else :\n        return dict(form=auth.login(),faq=URL(\'faq\'))\n\ndef ensurefirstuser(Surnom, email, password):\n  users = db(db.auth_user.email == email).select()\n  if users:\n    user_id = users[0].id\n    created = False\n    print (\'found user_id so created equals %s\') % created\n    if settings.debug_ensure_first_user == True:\n      print (\'found user_id so created equals %s\') % created\n    return (user_id, created)\n\n  else:\n    my_crypt = CRYPT(key=auth.settings.hmac_key)\n    crypt_pass = my_crypt(password)[0]    \n    id_user = db.auth_user.insert(\n                   Surnom=Surnom,\n                   email=email,\n                   username=email,\n                   Items = None,\n                   Skills = None,\n                   password=crypt_pass,\n                                   )\n    db.commit()\n    created = True\n    print (\'creating user_id\')\n    if settings.debug_ensure_first_user == True:\n      print (\'creating user_id\')\n    return (id_user, created)\n\n    \n\n\ndef ensure_users():\n  user_id, created = _ensure_user(\'first\', \'last\', \'email@address.com\', \'UserPassword12345\')\n  if settings.debug_ensure_users == True:\n    print (\'user id %i\') % user_id\n    print (\'created %s\') % created\n\ndef ensure_group_role(role, description):\n  if not auth.id_group(role=role):  \n    auth.add_group(role=role, description=description)  \n    if settings.debug_ensure_group_role == True:\n      print (\'created role %s\') % (role)\n\ndef ensure_membership(group_id, user_id):\n  return_group_id = auth.add_membership(role=role, user_id=user_id)\n  if settings.debug_ensure_membership == True:\n    print (\'made user_id member of %s\') % (role)\n  return return_group_id\n \ndef ensure_permissions(role, description, user_id):\n  ensure_group_role(role, description)\n  return_group_id = ensure_membership(group_id, user_id)\n  if settings.debug_ensure_permissions == True:\n    print return_group_id\n\ndef generate_invitation(number,word=4,num=1,numdigit=5):\n    code = [\n[\'BELCHER\', \'FIX\', \'EEL\', \'PANZERBOY\', \'DESK_JOCKEY\', \'CHILLED\', \'ENFORCER\', \'CHERRY_PICKING\', \'COUNTRY_CLUB\', \'BOMBSHELL\', \'PLUGGED_IN\', \'FINI\', \'LEGIT\', \'JAM\', \'BONED_OUT\', \'BLADE\', \'ROUST\', \'SAMURAI\', \'DISK\', \'INPUT\', \'POST_TIME\', \'SOUNDS\', \'SKIP\', \'FLATBACKER\', \'WILSON\', \'SHOEMAKER\', \'DELTA_SIERRA\', \'HEART\', \'CROAK\', \'HEAD_HUNTER\', \'HOSHO_KAISHA\', "DELTA\'D", "\'FACE_(also,_FACE,_EYE-FACE,_I-FACE)", \'WEEFLE\', \'DIRTGIRL\', \'KEYBOARD\', \'BRAIN_BUCKET\', \'DRYING_OUT\', \'OVERCOOK\', \'PIG\', \'COLD_TEA\', \'RECONFIG\', \'PAD\', \'LIT_UP\', \'WRAITH\', \'HANDLE\', \'L.P.\', \'PINCH\', \'TAKE_A_CAB\', \'SPILL\', \'ACE_KOOL\', \'DO\', \'BIZ\', \'BROWNIE\', \'CANDLE_AND_BLOOD\', \'BLUEBOY\', \'UP_ON_IT\', \'BURN\', \'USER_INTERFACE\', \'HOB\', \'GYRO\', \'STUFFIT\', \'THATCH\', \'ICEBREAKER\', \'ZIP_GUN\', \'PETERMAN\', \'PLAY_DOUGH\', \'TREY-EIGHT\', \'SETTLE\', "CHIPPIN\'_IN", \'MEATBALL\', \'RAFFLES\', \'YUBITSUME\', \'CROAKER\', \'SUCKER_POCKETS\', \'L.A.M.A.\', \'GEEK\', \'BUTTONHEAD\'],\n[\'TAKE\', \'TEKIYA\', \'KURUMAKU\', \'BLOC\', \'GAT\', \'JOHATSU\', \'CRYSTAL\', \'A.I.\', \'ZEROED\', \'OVER_THE_SHOULDER\', \'GRAB_GEE\', \'PANZER\', \'GO_LEO\', \'WASHED\', \'I.C.E.\', \'COPSHOP\', \'COLLATERAL_DAMAGE\', \'BIG_DARK\', \'DOUBLE-DEUCE\', \'ZONEDANCE\', \'MARK\', \'COBBERS\', \'CHIMPIRA\', \'TRIADS\', \'SHANK\', \'FRAG\', \'BREATH_VAC\', "CHARLIE\'S_ANGEL", \'MULE\', \'BURNER\', "PACKIN\'", \'HOTDOGGER\', \'BOSOZOKU\', \'RIPPERDOC\', \'THIRDMAN\', \'MAXIMUM,_MAX\', \'CHOOH2_("CHOO")\', \'CRYO_MAX\', \'HEATER\', \'SHARK\', \'JOYGIRL\', \'GURENTAI\', \'BANDIT\', \'VENICE\', \'MIZU_SHOBAI\', \'PASTA_BOYS\', \'SQUID\', \'CYBERED_UP\', \'DEAD_RECKONING\', \'POPSICLE\', \'FAUST\', \'COLLARBOY\', \'SHOES\', \'TORCH\', \'DELTAJOCK\', \'BUTTERFLY_MAN\', \'WISE_GUYS\', \'BOOST\', \'CAIN\', \'FOUR-FIVE\', \'BREAK-DOWN\', \'POLYMER_ONE-SHOT\', \'FLAG\', \'CALL_GIRL\', \'IN_THE_HUNT\', \'HYDRO\', \'DOCK\', \'FENCE\', \'SHAIKUJIN\', \'GOMI\', \'FILTER\', \'SAINT_NICK\', \'LINEFOOT\', \'CAVALRY\', \'PUKE\', \'CONVERSION\', \'FINGER\', \'CONTRACT\'],\n[\'PLASTIC\', \'CRYSTALJOCKEY,_CRYSTALJOCK\', \'SCREW\', \'TOYSTORE\', \'DREAM_TIME\', \'EXOTIC\', \'WALKABOUT\', \'DIAMOND_SEASON\', \'SARAKIN\', \'CHRISTMAS_BUNDLES\', \'SHADES\', \'BUTTON_MAN\', \'FOXTROT_UNIFORM\', \'KAI\', \'UNDER_THE_PAINT\', \'MINIMUM\', \'TRIPLE_A\', \'PIG_ON_A_WHEEL\', \'BAG_MAN\', \'DIP\', \'PIGEONS\', \'MAN\', \'ADAM_HENRY\', \'HIGH\', \'HEAT\', \'NINJO\', \'KNIFE_FIGHT\', \'MOUTHPIECE\', \'AGRIPLEX\', \'DATA_TERM\', \'LIZ\', \'CHROMER\', \'OUTPUT\', \'N.O.E.\', \'CLOSE_A_CONTRACT\', \'LASSIE\', \'FLATLINE\', \'CHIV\', \'SING\', \'AMMO\', \'RAT\', \'MATCHBOX\', \'PULL_AN_ASH\', \'BORYOKUDAN\', \'SQUEEZE\', \'RONIN\', \'HIT\', \'RAGS\', \'TAKE_OUT\', \'BEAT_THE_RAP\', \'GIRI\', \'RUNNING_THE_LINE\', \'HARNESS\', \'GRAVEROBBER\', \'DROP_A_DIME\', \'BADGE_ON_A_BEAVER\', \'FLETCHER\', \'AMPED-OUT\', \'NEUTRALIZE\', \'PETER\', \'CONFIG\', \'HARDFIRE\', \'B.A.M.A.\', \'CHROMATIC_ROCK\', \'MOLDED\', \'RAD\', \'CREASED\', \'CHATTER_BOX\', \'HAND_CANNON\', \'NIPPERS\', \'SIERRA_HOTEL\', \'HOOK_UP\', \'-JOCKEY,_-JOCK\', \'BUG\', \'BATMAN_AND_ROBIN\', \'BLACK_OPERATIONS\', "D.C.\'S", \'SO_KA\'],\n[\'_A.A.A.\', \'HOME_PLATE\', \'LITEJACK\', \'PINEAPPLE\', \'MAKE\', \'THE_STREET\', \'SITREP\', \'HANGING_PAPER\', \'PAINT_BOYS\', \'WETWORK\', \'NINER\', \'BOOKIE\', \'WHIPLASH\', \'TORPEDO\', \'HEATWAVE\', \'SOLAR_WIND\', \'QUIFF\', \'BIKE\', \'TRAFFIC\', \'WIRE_ROOM\', \'OYABUN\', \'COWBOY\', \'KOBUN\', \'MUDBOY\', \'COP_OUT\', \'SOKAIYA\', "\'DORPH", \'JOYBOY\', \'DIRTY\', \'BOAT\', \'DROP\', \'GRAV_or_GEE\', \'APOGEE\', \'BOOSTER\', \'BOOK\', \'FRY\', \'PULLING_TEETH\', \'ONE_LARGE\', \'COMBAT_DRUGS\', \'THRASH\', \'DO_A_GHOST\', \'DELTA\', \'RIN_TIN_TIN\', \'DROP_OUT\', \'GUMI\', \'ROCKERBOY/GIRL\', \'BULLET\', \'DEB\', \'THREADING_THE_NEEDLE\', \'MOTOR\', \'BLEEDER\', \'ARC\', \'BOPPER\', \'WASTE\', \'_DEMUKAI\', \'BREAK\', \'HOLDING_DOWN\', \'FEDS\', \'GAP\', \'RABBI\', \'BAKUTO\', \'CHOMBATTA_(CHOOMBA)\', \'BIG_HATS\', \'MR._JOHNSON\', \'EXEC\', \'BULL\', \'BULLSEYE\', \'POSERGANG\', \'CHAOL\', \'GEISHA\', \'SLAMMIT_ON\', \'POP_CAPS\', \'HARD_TIME\', \'BENJI\', \'MAKING_BANK\', \'PAPERHANGER\', \'NETRUN\', \'BOGEY\'],\n]     \n    i = 0\n    invits = []\n    print number\n    while (i < number):\n        invit = ""\n        j = 0\n        while (j < word):\n            debut = random.randint(0,len(code)-1)\n            codepick = code[debut][random.randint(0,len(code[debut])-1)]\n            j += 1\n            invit += codepick+"-"\n        j = 0\n        while (j < num):\n            invit += randomdig(numdigit)+"-"\n            j += 1\n        i+= 1\n        invit = invit[:-1]\n        if invit not in invits :\n            invits.append(invit[:-1])\n            print invit\n    return invits\n        \ndef randomdig(number):\n    max = "9"*number\n    max = int(max)\n    rand =  random.randint(0,max)\n    rand = str(rand)\n    rand = "0"*(number-len(rand))+rand\n    return rand\n\n@auth.requires_login()\ndef inscriptioninvit():\n    user = auth.environment.session.auth.user\n    caracs = db().select(db.Carac.ALL)\n    form=TABLE(\n        TR(\n            TD(\n                TABLE(\n        TR(\n\n                TD(\n                    LABEL(\'Username : \')\n                    ),\n                TD( \n                    INPUT(_name=\'Username\')\n                    )\n            ),\n    TR(\n        TD(\n            LABEL(\'Email: \')\n            ), \n        TD(\n            INPUT(_name=\'email\',_value=user.email)\n            )\n        ),\n             \n    TR(\n        TD(\n            LABEL(\'Password : \')\n            ), \n        TD(\n            INPUT(_name=\'password1\',_type=\'password\')\n            )\n        ),\n\n     TR(\n        TD(\n            LABEL(\'Password verification : \')\n            ), \n        TD(\n            INPUT(_name=\'password2\',_type=\'password\')\n            )\n        ),\n    \n    \n    )\n                )\n            )\n        )\n            \n\n\n    \n    form.append(TR(LABEL(\'1 = mauvais, 2 = bof, 3 = Moyen,4 = Bon , 5 = Tres Bon\')))\n    for carac in caracs :\n        form.append(\n            TR(\n\n                TD(LABEL(\'%s : \'%carac.Nom)),\n                TD(INPUT(_type=\'radio\',_name=\'carac_%d\'%carac.id,_value=\'1\',value=\'1\'),"1 "),\n                TD(INPUT(_type=\'radio\',_name=\'carac_%d\'%carac.id,_value=\'2\'),"2 "),\n                TD(INPUT(_type=\'radio\',_name=\'carac_%d\'%carac.id,_value=\'3\'),"3 "),\n                TD(INPUT(_type=\'radio\',_name=\'carac_%d\'%carac.id,_value=\'4\'),"4 "),\n                TD(INPUT(_type=\'radio\',_name=\'carac_%d\'%carac.id,_value=\'5\'),"5        "),\n\n                TD(LABEL(\'Private: \')),\n                TD(INPUT(_type=\'radio\',_name=\'carac_%d_private\'%carac.id,_value=\'1\'),"oui "),\n                TD(INPUT(_type=\'radio\',_name=\'carac_%d_private\'%carac.id,_value=\'0\',value=\'0\'),"non ")\n                )\n        )\n \n    # form.insert(-1, TR(LABEL(\'titi : \'),INPUT(_name=\'titi\',_value=\'titi\'))\n    # form.insert(-1, TR(LABEL(\'toto : \'),INPUT(_name=\'toto\',_value=\'toto\'))\n\n    form.append(TR(LABEL(\'0 = Inconnu, 1 = mauvais, 2 = bof, 3 = Moyen,4 = Bon , 5 = Moyen\')))\n    \n    #TODO a revoir algo crade :\n    skills1 = db(db.SkillLevel.Level==0).select()\n    skills2 = db(db.SkillLevel.Level==1).select()\n    skills3 = db(db.SkillLevel.Level==2).select()\n    skills4 = db(db.SkillLevel.Level==3).select()\n    skills5 = db(db.SkillLevel.Level==4).select()\n    Listeskill = UL()\n    for skill1 in skills1 :\n        Nom1 = db.Skill(skill1.Skill.id).Nom\n        retour1 = skillstab(Nom1)\n        for skill2 in skills2 :\n            if (skill2.Parent.id == skill1.Skill.id) :\n                Nom2 = db.Skill(skill2.Skill.id).Nom\n                retour2 = skillstab(Nom2)\n                for skill3 in skills3 :\n                    if (skill3.Parent.id == skill2.Skill.id) :\n                        Nom3 = db.Skill(skill3.Skill.id).Nom\n                        retour3 = skillstab(Nom3)\n                        for skill4 in skills4 :\n                            if (skill4.Parent.id == skill3.Skill.id) :\n                                Nom4 = db.Skill(skill4.Skill.id).Nom\n                                retour4 = skillstab(Nom4)\n                                for skill5 in skills5 :\n                                    if (skill5.Parent.id == skill4.Skill.id) :\n                                        Nom5 = db.Skill(skill5.Skill.id).Nom\n                                        retour5 = skillstab(Nom5)\n                                        retour4.append(UL(retour5))\n                                retour3.append(UL(retour4))\n                        retour2.append(UL(retour3))\n                retour1.append(UL(retour2))\n        Listeskill.append(retour1)\n       \n\n\n\n    form.append(TR(Listeskill))\n\n    Items = db().select(db.Item.ALL)\n    \n    #TODO\n    # crade a revoir\n\n    for item in Items :\n        try :\n            SkillNom = db.Skill(item.Skill.id).Nom\n        except :\n            SkillNom = ""\n        form.append(\n            TR(\n                TD(item.Nom),\n                TD(SkillNom),\n                TD(INPUT(_type=\'checkbox\',_name=\'%s\'%item.Nom)), \n                TD(LABEL(\'Private: \')),\n                TD(INPUT(_type=\'radio\',_name=\'%s_private\'%item.Nom,_value=\'1\'),"oui "),\n                TD(INPUT(_type=\'radio\',_name=\'%s_private\'%item.Nom,_value=\'0\',value=\'0\'),"non ")\n            )\n        )\n\n\n    form.append(TR(Table(\n        TR(\n        TD("Suggestion (Rajout,skills,caracs,items):"),\n           \n            ),\n    TR(\n        TD(\n            TEXTAREA(_name=\'suggestion\', _rows="4", _cols="140")\n            )\n        )\n    )\n    )\n    )\n\n    form.append(TR(INPUT(_type=\'submit\')))\n    form = FORM(TABLE(form)) \n    if form.process(onvalidation=forminscription_processing).accepted:\n       session.flash = \'record inserted\'\n       redirect(URL(\'interfaceuser\'))\n    return dict(form=form)\n\n@auth.requires_login()\ndef demandecoupdemain():\n    pass\n\n#process de la validation de l\'utilisateur\ndef forminscription_processing(form):\n    for var in form.vars :\n        print var\n\n@auth.requires_login()\ndef interfaceuser():\n    pass\n\ndef skillstab(Nom) :\n    skills = db(db.Skill.Nom==Nom).select()\n    for skill in skills :\n        idskill = skill.id \n    tab =  LI( Nom," : ",TABLE(\n                    TR(\n                TD(INPUT(_type=\'radio\',_name=\'skill_%d\'%idskill,_value=\'0\',value=\'0\'),"0 "),\n                TD(INPUT(_type=\'radio\',_name=\'skill_%d\'%idskill,_value=\'1\'),"1 "),\n                TD(INPUT(_type=\'radio\',_name=\'skill_%d\'%idskill,_value=\'2\'),"2 "),\n                TD(INPUT(_type=\'radio\',_name=\'skill_%d\'%idskill,_value=\'3\'),"3 "),\n                TD(INPUT(_type=\'radio\',_name=\'skill_%d\'%idskill,_value=\'4\'),"4 "),\n                TD(INPUT(_type=\'radio\',_name=\'skill_%d\'%idskill,_value=\'5\'),"5        "),\n\n                TD(LABEL(\'Private: \')),\n                TD(INPUT(_type=\'radio\',_name=\'skill_%d_private\'%idskill,_value=\'1\'),"oui "),\n                TD(INPUT(_type=\'radio\',_name=\'skill_%d_private\'%idskill,_value=\'0\',value=\'0\'),"non ")\n                )\n\n                )\n    )\n    return tab\n\ndef userstuff():\n    return dict(rows1 = db().select(db.Carac.ALL),rows2 = db().select(db.SkillLevel.ALL),rows3 = db().select(db.Item.ALL) )\n\ndef initdbjack():\n    auth.add_group(\'UserValide\', \'User ayant valide l inscription\')\n    auth.add_group(\'UserTemp\', \'User ayant pas valide l inscription\')\n    if db(db.auth_user.username == "bussiere").count() == 0:\n            password= "titi" \n            my_crypt = CRYPT(key=auth.settings.hmac_key)\n            crypt_pass = my_crypt(password)[0]  \n            buss = db.auth_user.insert(\n               email= "bussiere2@gmail.com",\n               username="bussiere",\n               password=crypt_pass,\n            )\n            jack = auth.add_group(\'Jack\', \'Jack master of none\')\n            auth.add_membership(jack, buss)\n            db.commit()  \n    db.commit() \n    carac = ["Force","Logique","Volonte","Charisme","Apparence","Dexterite"]\n    skills = { \n    "Physique":{\n                "Sport":{\n                         "Capoeira" :{ \n                                      "bengale":{}\n                                      },\n                        "Karate":{\n                                  "Nord" : {},\n                                  "Sud" : {},\n                                 },\n                         },\n            },\n\n\n    "Technique":{\n                "Mettalerrie" : {\n                                 "Forge" : {},\n                                  \n                                  },\n                 "Couture" : {\n                                  \n                                  },\n                "Conduite" : {\n                                  \n                                  },\n                 \n    },\n\n    "Savoir":{\n              "Informatique" : {\n                                   "Programmation" :{\n                                                     "Python" :{\n                                                                 "Django" : {} ,\n                                                                  "Web2py" : {}\n                                                                },\n                                                     "Methode" :{\n                                                                 "Uml":{},\n                                                                  "Merise": {}\n                                                                },\n                                                     },\n                                   },\n\n            },\n    }\n\n    for c in carac :\n        if db(db.Carac.Nom == c).count() == 0:\n            db.Carac.insert(Nom=c)\n\n    #TODO a revoir tout pourris on peut rien rajouter de nouveau\n    for level1 in skills.keys() :\n        i = 0\n        if db(db.Skill.Nom == level1).count() == 0:\n            Skill1 = db.SkillLevel.insert(Skill = (db.Skill.insert(Nom=level1)),Level = i)\n\n            for level2 in skills[level1].keys() :\n                i = 1\n                if db(db.Skill.Nom == level2).count() == 0:\n                    #Todo\n                    # c\'est crade a revoir :\n                    for row in db((db.Skill.Nom==level1) & (db.Skill.id)).select() :\n                        parent = row.id\n                    #fin du truc a revoir\n                    Skill2 = db.SkillLevel.insert(Skill = (db.Skill.insert(Nom=level2)),Level = i,Parent = parent )\n                    for level3 in skills[level1][level2].keys() :\n                        i = 2\n                        if db(db.Skill.Nom == level3).count() == 0:\n                            #Todo\n                            # c\'est crade a revoir :\n                            for row in db((db.Skill.Nom==level2) & (db.Skill.id)).select() :\n                                parent = row.id\n                            #fin du truc a revoir\n                            Skill3 = db.SkillLevel.insert(Skill = (db.Skill.insert(Nom=level3)),Level = i,Parent = parent)\n                            for level4 in skills[level1][level2][level3].keys() :\n                                i = 3\n                                if db(db.Skill.Nom == level4).count() == 0:\n                                #Todo\n                                # c\'est crade a revoir :\n                                    for row in db((db.Skill.Nom==level3) & (db.Skill.id)).select() :\n                                        parent = row.id\n                                #fin du truc a revoir\n                                    Skill3 = db.SkillLevel.insert(Skill = (db.Skill.insert(Nom=level4)),Level = i,Parent = parent)\n                                    for level5 in skills[level1][level2][level3][level4].keys() :\n                                        i = 4\n                                        if db(db.Skill.Nom == level5).count() == 0:\n                                        #Todo\n                                        # c\'est crade a revoir :\n                                            for row in db((db.Skill.Nom==level4) & (db.Skill.id)).select() :\n                                                parent = row.id\n                                        #fin du truc a revoir\n                                            Skill4 = db.SkillLevel.insert(Skill = (db.Skill.insert(Nom=level5)),Level = i,Parent = parent)\n\n\n\n    Item = {\n    "Machine a Coudre" : "Couture",\n    "Voiture" : "Conduite",\n    "Decoupeuse a plasma" : "Mettalerrie",\n    }\n\n\n    for row in Item.keys() :\n        if db(db.Item.Nom == Item[row]).count() == 0:\n            db.Item.insert(Nom=row,Skill=db.Skill(Nom=Item[row]))                                       \n    db.commit() \n\n\n\n\n\n\n\ndef liste_invitations():\n    return dict(rows = db().select(db.Invitation.ALL))\n\ndef liste_user():\n    return dict(rows = db().select(db.auth_user.ALL))\n\n#@auth.requires_membership(\'manager\')\ndef generate_invitationpage():\n   form=FORM("Nombre d\'invit a generer:", INPUT(_name=\'nmbreinvit\'), INPUT(_type=\'submit\'))\n   if form.process().accepted and form.vars.nmbreinvit != None :\n       i = form.vars.nmbreinvit\n       invitsgenere = generate_invitation(int(i))\n       for invit in invitsgenere :\n           db.Invitation.insert(Code=invit)\n           db.commit()\n       session.flash = \'invitation inserted\'\n       form=FORM("Nombre d\'invit a generer:", INPUT(_name=\'nmbreinvit\'), INPUT(_type=\'submit\'))\n       #db.Invitation.insert(Code="Toto-5542")\n       db.commit()\n   return dict(form=form)\n\ndef verif_invitation(form):\n    print form.vars.invitation\n    if db.Invitation(db.Invitation.Code==form.vars.invitation) == None :\n        form.errors.invitation = \'code invitation incorrect\'\n        print "mauvais"\n    else :\n        print "bon"\n\ndef invitation():\n    form=FORM("Code Invitation :", INPUT(_name=\'invitation\'),"<Email :",INPUT(_name=\'email\'),  INPUT(_type=\'submit\'))\n    if form.process(onvalidation=verif_invitation).accepted and  form.vars.invitation != None  :\n        email = form.vars.email\n        if db(db.auth_user.email == email).count() == 0:\n            password= form.vars.invitation  \n            my_crypt = CRYPT(key=auth.settings.hmac_key)\n            crypt_pass = my_crypt(password)[0]  \n            db.auth_user.insert(\n               email= email,\n               username="John_Doe",\n               password=crypt_pass,\n            )\n            db.commit()  \n            user = db(db.auth_user.email==email).select().first()\n            auth.user = Storage(auth.settings.table_user._filter_fields(user, id=True))\n            auth.environment.session.auth = Storage(user=user, last_visit=request.now,\n                                                expiration=auth.settings.expiration)\n            redirect(URL(\'inscriptioninvit\'))\n    return dict(form=form)\n\ndef faq():\n\n    return dict()\ndef user():\n    """\n    exposes:\n    http://..../[app]/default/user/login\n    http://..../[app]/default/user/logout\n    http://..../[app]/default/user/register\n    http://..../[app]/default/user/profile\n    http://..../[app]/default/user/retrieve_password\n    http://..../[app]/default/user/change_password\n    use @auth.requires_login()\n        @auth.requires_membership(\'group name\')\n        @auth.requires_permission(\'read\',\'table name\',record_id)\n    to decorate functions that need access control\n    """\n    return dict(form=auth())\n\n\ndef download():\n    """\n    allows downloading of uploaded files\n    http://..../[app]/default/download/[filename]\n    """\n    return response.download(request,db)\n\n\ndef call():\n    """\n    exposes services. for example:\n    http://..../[app]/default/call/jsonrpc\n    decorate with @services.jsonrpc the functions to expose\n    supports xml, json, xmlrpc, jsonrpc, amfrpc, rss, csv\n    """\n    return service()\n\n\n@auth.requires_signature()\ndef data():\n    """\n    http://..../[app]/default/data/tables\n    http://..../[app]/default/data/create/[table]\n    http://..../[app]/default/data/read/[table]/[id]\n    http://..../[app]/default/data/update/[table]/[id]\n    http://..../[app]/default/data/delete/[table]/[id]\n    http://..../[app]/default/data/select/[table]\n    http://..../[app]/default/data/search/[table]\n    but URLs must be signed, i.e. linked with\n      A(\'table\',_href=URL(\'data/tables\',user_signature=True))\n    or with the signed load operator\n      LOAD(\'default\',\'data.load\',args=\'tables\',ajax=True,user_signature=True)\n    """\n    return dict(form=crud())\n\nresponse._vars=response._caller(inscriptioninvit)\n'
p7
sS'snapshot'
p8
(dp9
S'exception'
p10
(dp11
S'__hash__'
p12
S"<method-wrapper '__hash__' of exceptions.AttributeError object at 0x078C3850>"
p13
sS'__setattr__'
p14
S"<method-wrapper '__setattr__' of exceptions.AttributeError object at 0x078C3850>"
p15
sS'__reduce_ex__'
p16
S'<built-in method __reduce_ex__ of exceptions.AttributeError object at 0x078C3850>'
p17
sS'__getslice__'
p18
S"<method-wrapper '__getslice__' of exceptions.AttributeError object at 0x078C3850>"
p19
sS'__getitem__'
p20
S"<method-wrapper '__getitem__' of exceptions.AttributeError object at 0x078C3850>"
p21
sS'__setstate__'
p22
S'<built-in method __setstate__ of exceptions.AttributeError object at 0x078C3850>'
p23
sS'__reduce__'
p24
S'<built-in method __reduce__ of exceptions.AttributeError object at 0x078C3850>'
p25
sS'__str__'
p26
S"<method-wrapper '__str__' of exceptions.AttributeError object at 0x078C3850>"
p27
sS'args'
p28
S'("\'TR\' object has no attribute \'_adapter\'",)'
p29
sS'__getattribute__'
p30
S"<method-wrapper '__getattribute__' of exceptions.AttributeError object at 0x078C3850>"
p31
sS'__class__'
p32
S"<type 'exceptions.AttributeError'>"
p33
sS'__delattr__'
p34
S"<method-wrapper '__delattr__' of exceptions.AttributeError object at 0x078C3850>"
p35
sS'__repr__'
p36
S"<method-wrapper '__repr__' of exceptions.AttributeError object at 0x078C3850>"
p37
sS'__dict__'
p38
S'{}'
p39
sS'__doc__'
p40
S"'Attribute not found.'"
p41
sS'__init__'
p42
S"<method-wrapper '__init__' of exceptions.AttributeError object at 0x078C3850>"
p43
sS'__new__'
p44
S'<built-in method __new__ of type object at 0x1E1CDA68>'
p45
ssS'evalue'
p46
S"'TR' object has no attribute '_adapter'"
p47
sS'request'
p48
ccopy_reg
_reconstructor
p49
(cgluon.html
BEAUTIFY
p50
c__builtin__
object
p51
NtRp52
(dp53
S'attributes'
p54
(dp55
sS'components'
p56
(lp57
g49
(cgluon.html
TABLE
p58
g51
NtRp59
(dp60
g54
(dp61
S'level'
p62
I5
ssS'parent'
p63
Nsg56
(lp64
g49
(cgluon.html
TR
p65
g51
NtRp66
(dp67
g54
(dp68
sg63
g59
sg56
(lp69
g49
(cgluon.html
TD
p70
g51
NtRp71
(dp72
g54
(dp73
S'_style'
p74
S'font-weight:bold;vertical-align:top'
p75
ssg63
g66
sg56
(lp76
S'ajax'
p77
asbag49
(g70
g51
NtRp78
(dp79
g54
(dp80
S'_valign'
p81
S'top'
p82
ssg63
g66
sg56
(lp83
S':'
asbag49
(g70
g51
NtRp84
(dp85
g54
(dp86
sg63
g66
sg56
(lp87
g49
(g50
g51
NtRp88
(dp89
g54
(dp90
g62
I5
ssg63
g84
sg56
(lp91
S'False'
p92
asbasbasbag49
(g65
g51
NtRp93
(dp94
g54
(dp95
sg63
g59
sg56
(lp96
g49
(g70
g51
NtRp97
(dp98
g54
(dp99
g74
g75
ssg63
g93
sg56
(lp100
S'application'
p101
asbag49
(g70
g51
NtRp102
(dp103
g54
(dp104
g81
g82
ssg63
g93
sg56
(lp105
S':'
asbag49
(g70
g51
NtRp106
(dp107
g54
(dp108
sg63
g93
sg56
(lp109
g49
(g50
g51
NtRp110
(dp111
g54
(dp112
g62
I5
ssg63
g106
sg56
(lp113
S'init'
p114
asbasbasbag49
(g65
g51
NtRp115
(dp116
g54
(dp117
sg63
g59
sg56
(lp118
g49
(g70
g51
NtRp119
(dp120
g54
(dp121
g74
g75
ssg63
g115
sg56
(lp122
g28
asbag49
(g70
g51
NtRp123
(dp124
g54
(dp125
g81
g82
ssg63
g115
sg56
(lp126
S':'
asbag49
(g70
g51
NtRp127
(dp128
g54
(dp129
sg63
g115
sg56
(lp130
g49
(g50
g51
NtRp131
(dp132
g54
(dp133
g62
I5
ssg63
g127
sg56
(lp134
g49
(g58
g51
NtRp135
(dp136
g54
(dp137
g62
I4
ssg63
Nsg56
(lp138
sbasbasbasbag49
(g65
g51
NtRp139
(dp140
g54
(dp141
sg63
g59
sg56
(lp142
g49
(g70
g51
NtRp143
(dp144
g54
(dp145
g74
g75
ssg63
g139
sg56
(lp146
S'body'
p147
asbag49
(g70
g51
NtRp148
(dp149
g54
(dp150
g81
g82
ssg63
g139
sg56
(lp151
S':'
asbag49
(g70
g51
NtRp152
(dp153
g54
(dp154
sg63
g139
sg56
(lp155
g49
(g50
g51
NtRp156
(dp157
g54
(dp158
g62
I5
ssg63
g152
sg56
(lp159
S'<cStringIO.StringO object at 0x0765B220>'
p160
asbasbasbag49
(g65
g51
NtRp161
(dp162
g54
(dp163
sg63
g59
sg56
(lp164
g49
(g70
g51
NtRp165
(dp166
g54
(dp167
g74
g75
ssg63
g161
sg56
(lp168
S'client'
p169
asbag49
(g70
g51
NtRp170
(dp171
g54
(dp172
g81
g82
ssg63
g161
sg56
(lp173
S':'
asbag49
(g70
g51
NtRp174
(dp175
g54
(dp176
sg63
g161
sg56
(lp177
g49
(g50
g51
NtRp178
(dp179
g54
(dp180
g62
I5
ssg63
g174
sg56
(lp181
S'127.0.0.1'
p182
asbasbasbag49
(g65
g51
NtRp183
(dp184
g54
(dp185
sg63
g59
sg56
(lp186
g49
(g70
g51
NtRp187
(dp188
g54
(dp189
g74
g75
ssg63
g183
sg56
(lp190
S'controller'
p191
asbag49
(g70
g51
NtRp192
(dp193
g54
(dp194
g81
g82
ssg63
g183
sg56
(lp195
S':'
asbag49
(g70
g51
NtRp196
(dp197
g54
(dp198
sg63
g183
sg56
(lp199
g49
(g50
g51
NtRp200
(dp201
g54
(dp202
g62
I5
ssg63
g196
sg56
(lp203
S'default'
p204
asbasbasbag49
(g65
g51
NtRp205
(dp206
g54
(dp207
sg63
g59
sg56
(lp208
g49
(g70
g51
NtRp209
(dp210
g54
(dp211
g74
g75
ssg63
g205
sg56
(lp212
S'cookies'
p213
asbag49
(g70
g51
NtRp214
(dp215
g54
(dp216
g81
g82
ssg63
g205
sg56
(lp217
S':'
asbag49
(g70
g51
NtRp218
(dp219
g54
(dp220
sg63
g205
sg56
(lp221
g49
(g50
g51
NtRp222
(dp223
g54
(dp224
g62
I5
ssg63
g218
sg56
(lp225
g49
(g58
g51
NtRp226
(dp227
g54
(dp228
g62
I4
ssg63
Nsg56
(lp229
g49
(g65
g51
NtRp230
(dp231
g54
(dp232
sg63
g226
sg56
(lp233
g49
(g70
g51
NtRp234
(dp235
g54
(dp236
g74
g75
ssg63
g230
sg56
(lp237
S'session_id_admin'
p238
asbag49
(g70
g51
NtRp239
(dp240
g54
(dp241
g81
g82
ssg63
g230
sg56
(lp242
S':'
asbag49
(g70
g51
NtRp243
(dp244
g54
(dp245
sg63
g230
sg56
(lp246
g49
(g50
g51
NtRp247
(dp248
g54
(dp249
g62
I4
ssg63
g243
sg56
(lp250
g49
(g58
g51
NtRp251
(dp252
g54
(dp253
g62
I3
ssg63
Nsg56
(lp254
g49
(g65
g51
NtRp255
(dp256
g54
(dp257
sg63
g251
sg56
(lp258
g49
(g70
g51
NtRp259
(dp260
g54
(dp261
g74
g75
ssg63
g255
sg56
(lp262
S'comment'
p263
asbag49
(g70
g51
NtRp264
(dp265
g54
(dp266
g81
g82
ssg63
g255
sg56
(lp267
S':'
asbag49
(g70
g51
NtRp268
(dp269
g54
(dp270
sg63
g255
sg56
(lp271
g49
(g50
g51
NtRp272
(dp273
g54
(dp274
g62
I3
ssg63
g268
sg56
(lp275
S''
asbasbasbag49
(g65
g51
NtRp276
(dp277
g54
(dp278
sg63
g251
sg56
(lp279
g49
(g70
g51
NtRp280
(dp281
g54
(dp282
g74
g75
ssg63
g276
sg56
(lp283
S'domain'
p284
asbag49
(g70
g51
NtRp285
(dp286
g54
(dp287
g81
g82
ssg63
g276
sg56
(lp288
S':'
asbag49
(g70
g51
NtRp289
(dp290
g54
(dp291
sg63
g276
sg56
(lp292
g49
(g50
g51
NtRp293
(dp294
g54
(dp295
g62
I3
ssg63
g289
sg56
(lp296
S''
asbasbasbag49
(g65
g51
NtRp297
(dp298
g54
(dp299
sg63
g251
sg56
(lp300
g49
(g70
g51
NtRp301
(dp302
g54
(dp303
g74
g75
ssg63
g297
sg56
(lp304
S'expires'
p305
asbag49
(g70
g51
NtRp306
(dp307
g54
(dp308
g81
g82
ssg63
g297
sg56
(lp309
S':'
asbag49
(g70
g51
NtRp310
(dp311
g54
(dp312
sg63
g297
sg56
(lp313
g49
(g50
g51
NtRp314
(dp315
g54
(dp316
g62
I3
ssg63
g310
sg56
(lp317
S''
asbasbasbag49
(g65
g51
NtRp318
(dp319
g54
(dp320
sg63
g251
sg56
(lp321
g49
(g70
g51
NtRp322
(dp323
g54
(dp324
g74
g75
ssg63
g318
sg56
(lp325
S'max-age'
p326
asbag49
(g70
g51
NtRp327
(dp328
g54
(dp329
g81
g82
ssg63
g318
sg56
(lp330
S':'
asbag49
(g70
g51
NtRp331
(dp332
g54
(dp333
sg63
g318
sg56
(lp334
g49
(g50
g51
NtRp335
(dp336
g54
(dp337
g62
I3
ssg63
g331
sg56
(lp338
S''
asbasbasbag49
(g65
g51
NtRp339
(dp340
g54
(dp341
sg63
g251
sg56
(lp342
g49
(g70
g51
NtRp343
(dp344
g54
(dp345
g74
g75
ssg63
g339
sg56
(lp346
S'path'
p347
asbag49
(g70
g51
NtRp348
(dp349
g54
(dp350
g81
g82
ssg63
g339
sg56
(lp351
S':'
asbag49
(g70
g51
NtRp352
(dp353
g54
(dp354
sg63
g339
sg56
(lp355
g49
(g50
g51
NtRp356
(dp357
g54
(dp358
g62
I3
ssg63
g352
sg56
(lp359
S''
asbasbasbag49
(g65
g51
NtRp360
(dp361
g54
(dp362
sg63
g251
sg56
(lp363
g49
(g70
g51
NtRp364
(dp365
g54
(dp366
g74
g75
ssg63
g360
sg56
(lp367
S'secure'
p368
asbag49
(g70
g51
NtRp369
(dp370
g54
(dp371
g81
g82
ssg63
g360
sg56
(lp372
S':'
asbag49
(g70
g51
NtRp373
(dp374
g54
(dp375
sg63
g360
sg56
(lp376
g49
(g50
g51
NtRp377
(dp378
g54
(dp379
g62
I3
ssg63
g373
sg56
(lp380
S''
asbasbasbag49
(g65
g51
NtRp381
(dp382
g54
(dp383
sg63
g251
sg56
(lp384
g49
(g70
g51
NtRp385
(dp386
g54
(dp387
g74
g75
ssg63
g381
sg56
(lp388
S'version'
p389
asbag49
(g70
g51
NtRp390
(dp391
g54
(dp392
g81
g82
ssg63
g381
sg56
(lp393
S':'
asbag49
(g70
g51
NtRp394
(dp395
g54
(dp396
sg63
g381
sg56
(lp397
g49
(g50
g51
NtRp398
(dp399
g54
(dp400
g62
I3
ssg63
g394
sg56
(lp401
S''
asbasbasbasbasbasbasbag49
(g65
g51
NtRp402
(dp403
g54
(dp404
sg63
g226
sg56
(lp405
g49
(g70
g51
NtRp406
(dp407
g54
(dp408
g74
g75
ssg63
g402
sg56
(lp409
S'session_id_init'
p410
asbag49
(g70
g51
NtRp411
(dp412
g54
(dp413
g81
g82
ssg63
g402
sg56
(lp414
S':'
asbag49
(g70
g51
NtRp415
(dp416
g54
(dp417
sg63
g402
sg56
(lp418
g49
(g50
g51
NtRp419
(dp420
g54
(dp421
g62
I4
ssg63
g415
sg56
(lp422
g49
(g58
g51
NtRp423
(dp424
g54
(dp425
g62
I3
ssg63
Nsg56
(lp426
g49
(g65
g51
NtRp427
(dp428
g54
(dp429
sg63
g423
sg56
(lp430
g49
(g70
g51
NtRp431
(dp432
g54
(dp433
g74
g75
ssg63
g427
sg56
(lp434
g263
asbag49
(g70
g51
NtRp435
(dp436
g54
(dp437
g81
g82
ssg63
g427
sg56
(lp438
S':'
asbag49
(g70
g51
NtRp439
(dp440
g54
(dp441
sg63
g427
sg56
(lp442
g49
(g50
g51
NtRp443
(dp444
g54
(dp445
g62
I3
ssg63
g439
sg56
(lp446
S''
asbasbasbag49
(g65
g51
NtRp447
(dp448
g54
(dp449
sg63
g423
sg56
(lp450
g49
(g70
g51
NtRp451
(dp452
g54
(dp453
g74
g75
ssg63
g447
sg56
(lp454
g284
asbag49
(g70
g51
NtRp455
(dp456
g54
(dp457
g81
g82
ssg63
g447
sg56
(lp458
S':'
asbag49
(g70
g51
NtRp459
(dp460
g54
(dp461
sg63
g447
sg56
(lp462
g49
(g50
g51
NtRp463
(dp464
g54
(dp465
g62
I3
ssg63
g459
sg56
(lp466
S''
asbasbasbag49
(g65
g51
NtRp467
(dp468
g54
(dp469
sg63
g423
sg56
(lp470
g49
(g70
g51
NtRp471
(dp472
g54
(dp473
g74
g75
ssg63
g467
sg56
(lp474
g305
asbag49
(g70
g51
NtRp475
(dp476
g54
(dp477
g81
g82
ssg63
g467
sg56
(lp478
S':'
asbag49
(g70
g51
NtRp479
(dp480
g54
(dp481
sg63
g467
sg56
(lp482
g49
(g50
g51
NtRp483
(dp484
g54
(dp485
g62
I3
ssg63
g479
sg56
(lp486
S''
asbasbasbag49
(g65
g51
NtRp487
(dp488
g54
(dp489
sg63
g423
sg56
(lp490
g49
(g70
g51
NtRp491
(dp492
g54
(dp493
g74
g75
ssg63
g487
sg56
(lp494
g326
asbag49
(g70
g51
NtRp495
(dp496
g54
(dp497
g81
g82
ssg63
g487
sg56
(lp498
S':'
asbag49
(g70
g51
NtRp499
(dp500
g54
(dp501
sg63
g487
sg56
(lp502
g49
(g50
g51
NtRp503
(dp504
g54
(dp505
g62
I3
ssg63
g499
sg56
(lp506
S''
asbasbasbag49
(g65
g51
NtRp507
(dp508
g54
(dp509
sg63
g423
sg56
(lp510
g49
(g70
g51
NtRp511
(dp512
g54
(dp513
g74
g75
ssg63
g507
sg56
(lp514
g347
asbag49
(g70
g51
NtRp515
(dp516
g54
(dp517
g81
g82
ssg63
g507
sg56
(lp518
S':'
asbag49
(g70
g51
NtRp519
(dp520
g54
(dp521
sg63
g507
sg56
(lp522
g49
(g50
g51
NtRp523
(dp524
g54
(dp525
g62
I3
ssg63
g519
sg56
(lp526
S''
asbasbasbag49
(g65
g51
NtRp527
(dp528
g54
(dp529
sg63
g423
sg56
(lp530
g49
(g70
g51
NtRp531
(dp532
g54
(dp533
g74
g75
ssg63
g527
sg56
(lp534
g368
asbag49
(g70
g51
NtRp535
(dp536
g54
(dp537
g81
g82
ssg63
g527
sg56
(lp538
S':'
asbag49
(g70
g51
NtRp539
(dp540
g54
(dp541
sg63
g527
sg56
(lp542
g49
(g50
g51
NtRp543
(dp544
g54
(dp545
g62
I3
ssg63
g539
sg56
(lp546
S''
asbasbasbag49
(g65
g51
NtRp547
(dp548
g54
(dp549
sg63
g423
sg56
(lp550
g49
(g70
g51
NtRp551
(dp552
g54
(dp553
g74
g75
ssg63
g547
sg56
(lp554
g389
asbag49
(g70
g51
NtRp555
(dp556
g54
(dp557
g81
g82
ssg63
g547
sg56
(lp558
S':'
asbag49
(g70
g51
NtRp559
(dp560
g54
(dp561
sg63
g547
sg56
(lp562
g49
(g50
g51
NtRp563
(dp564
g54
(dp565
g62
I3
ssg63
g559
sg56
(lp566
S''
asbasbasbasbasbasbasbasbasbasbasbag49
(g65
g51
NtRp567
(dp568
g54
(dp569
sg63
g59
sg56
(lp570
g49
(g70
g51
NtRp571
(dp572
g54
(dp573
g74
g75
ssg63
g567
sg56
(lp574
S'env'
p575
asbag49
(g70
g51
NtRp576
(dp577
g54
(dp578
g81
g82
ssg63
g567
sg56
(lp579
S':'
asbag49
(g70
g51
NtRp580
(dp581
g54
(dp582
sg63
g567
sg56
(lp583
g49
(g50
g51
NtRp584
(dp585
g54
(dp586
g62
I5
ssg63
g580
sg56
(lp587
g49
(g58
g51
NtRp588
(dp589
g54
(dp590
g62
I4
ssg63
Nsg56
(lp591
g49
(g65
g51
NtRp592
(dp593
g54
(dp594
sg63
g588
sg56
(lp595
g49
(g70
g51
NtRp596
(dp597
g54
(dp598
g74
g75
ssg63
g592
sg56
(lp599
S'app_folders'
p600
asbag49
(g70
g51
NtRp601
(dp602
g54
(dp603
g81
g82
ssg63
g592
sg56
(lp604
S':'
asbag49
(g70
g51
NtRp605
(dp606
g54
(dp607
sg63
g592
sg56
(lp608
g49
(g50
g51
NtRp609
(dp610
g54
(dp611
g62
I4
ssg63
g605
sg56
(lp612
S"set(['C:\\\\Users\\\\Bussiere\\\\Dropbox\\\\Projets\\\\jackpoint\\\\web2py\\\\applications\\\\init\\\\', 'C:\\\\Users\\\\Bussiere\\\\Dropbox\\\\Projets\\\\jackpoint\\\\web2py\\\\applications\\\\admin\\\\'])"
p613
asbasbasbag49
(g65
g51
NtRp614
(dp615
g54
(dp616
sg63
g588
sg56
(lp617
g49
(g70
g51
NtRp618
(dp619
g54
(dp620
g74
g75
ssg63
g614
sg56
(lp621
S'applications_parent'
p622
asbag49
(g70
g51
NtRp623
(dp624
g54
(dp625
g81
g82
ssg63
g614
sg56
(lp626
S':'
asbag49
(g70
g51
NtRp627
(dp628
g54
(dp629
sg63
g614
sg56
(lp630
g49
(g50
g51
NtRp631
(dp632
g54
(dp633
g62
I4
ssg63
g627
sg56
(lp634
S'C:\\Users\\Bussiere\\Dropbox\\Projets\\jackpoint\\web2py'
p635
asbasbasbag49
(g65
g51
NtRp636
(dp637
g54
(dp638
sg63
g588
sg56
(lp639
g49
(g70
g51
NtRp640
(dp641
g54
(dp642
g74
g75
ssg63
g636
sg56
(lp643
S'cmd_args'
p644
asbag49
(g70
g51
NtRp645
(dp646
g54
(dp647
g81
g82
ssg63
g636
sg56
(lp648
S':'
asbag49
(g70
g51
NtRp649
(dp650
g54
(dp651
sg63
g636
sg56
(lp652
g49
(g50
g51
NtRp653
(dp654
g54
(dp655
g62
I4
ssg63
g649
sg56
(lp656
g49
(g58
g51
NtRp657
(dp658
g54
(dp659
g62
I3
ssg63
Nsg56
(lp660
sbasbasbasbag49
(g65
g51
NtRp661
(dp662
g54
(dp663
sg63
g588
sg56
(lp664
g49
(g70
g51
NtRp665
(dp666
g54
(dp667
g74
g75
ssg63
g661
sg56
(lp668
S'cmd_options'
p669
asbag49
(g70
g51
NtRp670
(dp671
g54
(dp672
g81
g82
ssg63
g661
sg56
(lp673
S':'
asbag49
(g70
g51
NtRp674
(dp675
g54
(dp676
sg63
g661
sg56
(lp677
g49
(g50
g51
NtRp678
(dp679
g54
(dp680
g62
I4
ssg63
g674
sg56
(lp681
S"<Values at 0x3c25fa8: {'verbose': False, 'ip': '127.0.0.1', 'shutdown_timeout': 5, 'taskbar': False, 'nocron': False, 'pid_filename': 'httpserver.pid', 'maxthreads': None, 'softcron': False, 'server_name': 'Batou', 'bpython': False, 'nogui': False, 'port': 8000, 'extcron': False, 'debuglevel': 30, 'test': None, 'folder': 'C:\\\\Users\\\\Bussiere\\\\Dropbox\\\\Projets\\\\jackpoint\\\\web2py', 'config': '', 'import_models': False, 'winservice': '', 'shell': None, 'run': '', 'log_filename': 'httpserver.log', 'args': [''], 'socket_timeout': 5, 'ssl_ca_certificate': None, 'scheduler': None, 'profiler_filename': None, 'ssl_private_key': '', 'password': '<ask>', 'request_queue_size': 5, 'ssl_certificate': '', 'cronjob': False, 'numthreads': None, 'quiet': False, 'interfaces': None, 'minthreads': None, 'timeout': 10, 'plain': False, 'nobanner': False}>"
p682
asbasbasbag49
(g65
g51
NtRp683
(dp684
g54
(dp685
sg63
g588
sg56
(lp686
g49
(g70
g51
NtRp687
(dp688
g54
(dp689
g74
g75
ssg63
g683
sg56
(lp690
S'db_sessions'
p691
asbag49
(g70
g51
NtRp692
(dp693
g54
(dp694
g81
g82
ssg63
g683
sg56
(lp695
S':'
asbag49
(g70
g51
NtRp696
(dp697
g54
(dp698
sg63
g683
sg56
(lp699
g49
(g50
g51
NtRp700
(dp701
g54
(dp702
g62
I4
ssg63
g696
sg56
(lp703
S"set(['init'])"
p704
asbasbasbag49
(g65
g51
NtRp705
(dp706
g54
(dp707
sg63
g588
sg56
(lp708
g49
(g70
g51
NtRp709
(dp710
g54
(dp711
g74
g75
ssg63
g705
sg56
(lp712
S'debugging'
p713
asbag49
(g70
g51
NtRp714
(dp715
g54
(dp716
g81
g82
ssg63
g705
sg56
(lp717
S':'
asbag49
(g70
g51
NtRp718
(dp719
g54
(dp720
sg63
g705
sg56
(lp721
g49
(g50
g51
NtRp722
(dp723
g54
(dp724
g62
I4
ssg63
g718
sg56
(lp725
S'True'
p726
asbasbasbag49
(g65
g51
NtRp727
(dp728
g54
(dp729
sg63
g588
sg56
(lp730
g49
(g70
g51
NtRp731
(dp732
g54
(dp733
g74
g75
ssg63
g727
sg56
(lp734
S'gluon_parent'
p735
asbag49
(g70
g51
NtRp736
(dp737
g54
(dp738
g81
g82
ssg63
g727
sg56
(lp739
S':'
asbag49
(g70
g51
NtRp740
(dp741
g54
(dp742
sg63
g727
sg56
(lp743
g49
(g50
g51
NtRp744
(dp745
g54
(dp746
g62
I4
ssg63
g740
sg56
(lp747
S'C:\\Users\\Bussiere\\Dropbox\\Projets\\jackpoint\\web2py'
p748
asbasbasbag49
(g65
g51
NtRp749
(dp750
g54
(dp751
sg63
g588
sg56
(lp752
g49
(g70
g51
NtRp753
(dp754
g54
(dp755
g74
g75
ssg63
g749
sg56
(lp756
S'http_accept'
p757
asbag49
(g70
g51
NtRp758
(dp759
g54
(dp760
g81
g82
ssg63
g749
sg56
(lp761
S':'
asbag49
(g70
g51
NtRp762
(dp763
g54
(dp764
sg63
g749
sg56
(lp765
g49
(g50
g51
NtRp766
(dp767
g54
(dp768
g62
I4
ssg63
g762
sg56
(lp769
S'text/html,application/xhtml+xml,application/xml;q=0.9,*/*;q=0.8'
p770
asbasbasbag49
(g65
g51
NtRp771
(dp772
g54
(dp773
sg63
g588
sg56
(lp774
g49
(g70
g51
NtRp775
(dp776
g54
(dp777
g74
g75
ssg63
g771
sg56
(lp778
S'http_accept_charset'
p779
asbag49
(g70
g51
NtRp780
(dp781
g54
(dp782
g81
g82
ssg63
g771
sg56
(lp783
S':'
asbag49
(g70
g51
NtRp784
(dp785
g54
(dp786
sg63
g771
sg56
(lp787
g49
(g50
g51
NtRp788
(dp789
g54
(dp790
g62
I4
ssg63
g784
sg56
(lp791
S'ISO-8859-1,utf-8;q=0.7,*;q=0.3'
p792
asbasbasbag49
(g65
g51
NtRp793
(dp794
g54
(dp795
sg63
g588
sg56
(lp796
g49
(g70
g51
NtRp797
(dp798
g54
(dp799
g74
g75
ssg63
g793
sg56
(lp800
S'http_accept_encoding'
p801
asbag49
(g70
g51
NtRp802
(dp803
g54
(dp804
g81
g82
ssg63
g793
sg56
(lp805
S':'
asbag49
(g70
g51
NtRp806
(dp807
g54
(dp808
sg63
g793
sg56
(lp809
g49
(g50
g51
NtRp810
(dp811
g54
(dp812
g62
I4
ssg63
g806
sg56
(lp813
S'gzip,deflate,sdch'
p814
asbasbasbag49
(g65
g51
NtRp815
(dp816
g54
(dp817
sg63
g588
sg56
(lp818
g49
(g70
g51
NtRp819
(dp820
g54
(dp821
g74
g75
ssg63
g815
sg56
(lp822
S'http_accept_language'
p823
asbag49
(g70
g51
NtRp824
(dp825
g54
(dp826
g81
g82
ssg63
g815
sg56
(lp827
S':'
asbag49
(g70
g51
NtRp828
(dp829
g54
(dp830
sg63
g815
sg56
(lp831
g49
(g50
g51
NtRp832
(dp833
g54
(dp834
g62
I4
ssg63
g828
sg56
(lp835
S'en-US,en;q=0.8'
p836
asbasbasbag49
(g65
g51
NtRp837
(dp838
g54
(dp839
sg63
g588
sg56
(lp840
g49
(g70
g51
NtRp841
(dp842
g54
(dp843
g74
g75
ssg63
g837
sg56
(lp844
S'http_cache_control'
p845
asbag49
(g70
g51
NtRp846
(dp847
g54
(dp848
g81
g82
ssg63
g837
sg56
(lp849
S':'
asbag49
(g70
g51
NtRp850
(dp851
g54
(dp852
sg63
g837
sg56
(lp853
g49
(g50
g51
NtRp854
(dp855
g54
(dp856
g62
I4
ssg63
g850
sg56
(lp857
S'max-age=0'
p858
asbasbasbag49
(g65
g51
NtRp859
(dp860
g54
(dp861
sg63
g588
sg56
(lp862
g49
(g70
g51
NtRp863
(dp864
g54
(dp865
g74
g75
ssg63
g859
sg56
(lp866
S'http_connection'
p867
asbag49
(g70
g51
NtRp868
(dp869
g54
(dp870
g81
g82
ssg63
g859
sg56
(lp871
S':'
asbag49
(g70
g51
NtRp872
(dp873
g54
(dp874
sg63
g859
sg56
(lp875
g49
(g50
g51
NtRp876
(dp877
g54
(dp878
g62
I4
ssg63
g872
sg56
(lp879
S'keep-alive'
p880
asbasbasbag49
(g65
g51
NtRp881
(dp882
g54
(dp883
sg63
g588
sg56
(lp884
g49
(g70
g51
NtRp885
(dp886
g54
(dp887
g74
g75
ssg63
g881
sg56
(lp888
S'http_cookie'
p889
asbag49
(g70
g51
NtRp890
(dp891
g54
(dp892
g81
g82
ssg63
g881
sg56
(lp893
S':'
asbag49
(g70
g51
NtRp894
(dp895
g54
(dp896
sg63
g881
sg56
(lp897
g49
(g50
g51
NtRp898
(dp899
g54
(dp900
g62
I4
ssg63
g894
sg56
(lp901
S'session_id_init="24:fc940c53-63d4-4b03-b7eb-6ddd9cd731aa"; session_id_admin=127.0.0.1-e1457306-3bd0-4998-a7b3-8cac3af988e6'
p902
asbasbasbag49
(g65
g51
NtRp903
(dp904
g54
(dp905
sg63
g588
sg56
(lp906
g49
(g70
g51
NtRp907
(dp908
g54
(dp909
g74
g75
ssg63
g903
sg56
(lp910
S'http_host'
p911
asbag49
(g70
g51
NtRp912
(dp913
g54
(dp914
g81
g82
ssg63
g903
sg56
(lp915
S':'
asbag49
(g70
g51
NtRp916
(dp917
g54
(dp918
sg63
g903
sg56
(lp919
g49
(g50
g51
NtRp920
(dp921
g54
(dp922
g62
I4
ssg63
g916
sg56
(lp923
S'localhost:8000'
p924
asbasbasbag49
(g65
g51
NtRp925
(dp926
g54
(dp927
sg63
g588
sg56
(lp928
g49
(g70
g51
NtRp929
(dp930
g54
(dp931
g74
g75
ssg63
g925
sg56
(lp932
S'http_referer'
p933
asbag49
(g70
g51
NtRp934
(dp935
g54
(dp936
g81
g82
ssg63
g925
sg56
(lp937
S':'
asbag49
(g70
g51
NtRp938
(dp939
g54
(dp940
sg63
g925
sg56
(lp941
g49
(g50
g51
NtRp942
(dp943
g54
(dp944
g62
I4
ssg63
g938
sg56
(lp945
S'http://localhost:8000/init/default/invitation'
p946
asbasbasbag49
(g65
g51
NtRp947
(dp948
g54
(dp949
sg63
g588
sg56
(lp950
g49
(g70
g51
NtRp951
(dp952
g54
(dp953
g74
g75
ssg63
g947
sg56
(lp954
S'http_user_agent'
p955
asbag49
(g70
g51
NtRp956
(dp957
g54
(dp958
g81
g82
ssg63
g947
sg56
(lp959
S':'
asbag49
(g70
g51
NtRp960
(dp961
g54
(dp962
sg63
g947
sg56
(lp963
g49
(g50
g51
NtRp964
(dp965
g54
(dp966
g62
I4
ssg63
g960
sg56
(lp967
S'Mozilla/5.0 (Windows NT 6.1; WOW64) AppleWebKit/535.18 (KHTML, like Gecko) Chrome/18.0.1011.0 Safari/535.18'
p968
asbasbasbag49
(g65
g51
NtRp969
(dp970
g54
(dp971
sg63
g588
sg56
(lp972
g49
(g70
g51
NtRp973
(dp974
g54
(dp975
g74
g75
ssg63
g969
sg56
(lp976
S'is_jython'
p977
asbag49
(g70
g51
NtRp978
(dp979
g54
(dp980
g81
g82
ssg63
g969
sg56
(lp981
S':'
asbag49
(g70
g51
NtRp982
(dp983
g54
(dp984
sg63
g969
sg56
(lp985
g49
(g50
g51
NtRp986
(dp987
g54
(dp988
g62
I4
ssg63
g982
sg56
(lp989
g92
asbasbasbag49
(g65
g51
NtRp990
(dp991
g54
(dp992
sg63
g588
sg56
(lp993
g49
(g70
g51
NtRp994
(dp995
g54
(dp996
g74
g75
ssg63
g990
sg56
(lp997
S'is_pypy'
p998
asbag49
(g70
g51
NtRp999
(dp1000
g54
(dp1001
g81
g82
ssg63
g990
sg56
(lp1002
S':'
asbag49
(g70
g51
NtRp1003
(dp1004
g54
(dp1005
sg63
g990
sg56
(lp1006
g49
(g50
g51
NtRp1007
(dp1008
g54
(dp1009
g62
I4
ssg63
g1003
sg56
(lp1010
g92
asbasbasbag49
(g65
g51
NtRp1011
(dp1012
g54
(dp1013
sg63
g588
sg56
(lp1014
g49
(g70
g51
NtRp1015
(dp1016
g54
(dp1017
g74
g75
ssg63
g1011
sg56
(lp1018
S'path_info'
p1019
asbag49
(g70
g51
NtRp1020
(dp1021
g54
(dp1022
g81
g82
ssg63
g1011
sg56
(lp1023
S':'
asbag49
(g70
g51
NtRp1024
(dp1025
g54
(dp1026
sg63
g1011
sg56
(lp1027
g49
(g50
g51
NtRp1028
(dp1029
g54
(dp1030
g62
I4
ssg63
g1024
sg56
(lp1031
S'/init/default/inscriptioninvit'
p1032
asbasbasbag49
(g65
g51
NtRp1033
(dp1034
g54
(dp1035
sg63
g588
sg56
(lp1036
g49
(g70
g51
NtRp1037
(dp1038
g54
(dp1039
g74
g75
ssg63
g1033
sg56
(lp1040
S'query_string'
p1041
asbag49
(g70
g51
NtRp1042
(dp1043
g54
(dp1044
g81
g82
ssg63
g1033
sg56
(lp1045
S':'
asbag49
(g70
g51
NtRp1046
(dp1047
g54
(dp1048
sg63
g1033
sg56
(lp1049
g49
(g50
g51
NtRp1050
(dp1051
g54
(dp1052
g62
I4
ssg63
g1046
sg56
(lp1053
S''
asbasbasbag49
(g65
g51
NtRp1054
(dp1055
g54
(dp1056
sg63
g588
sg56
(lp1057
g49
(g70
g51
NtRp1058
(dp1059
g54
(dp1060
g74
g75
ssg63
g1054
sg56
(lp1061
S'remote_addr'
p1062
asbag49
(g70
g51
NtRp1063
(dp1064
g54
(dp1065
g81
g82
ssg63
g1054
sg56
(lp1066
S':'
asbag49
(g70
g51
NtRp1067
(dp1068
g54
(dp1069
sg63
g1054
sg56
(lp1070
g49
(g50
g51
NtRp1071
(dp1072
g54
(dp1073
g62
I4
ssg63
g1067
sg56
(lp1074
g182
asbasbasbag49
(g65
g51
NtRp1075
(dp1076
g54
(dp1077
sg63
g588
sg56
(lp1078
g49
(g70
g51
NtRp1079
(dp1080
g54
(dp1081
g74
g75
ssg63
g1075
sg56
(lp1082
S'remote_port'
p1083
asbag49
(g70
g51
NtRp1084
(dp1085
g54
(dp1086
g81
g82
ssg63
g1075
sg56
(lp1087
S':'
asbag49
(g70
g51
NtRp1088
(dp1089
g54
(dp1090
sg63
g1075
sg56
(lp1091
g49
(g50
g51
NtRp1092
(dp1093
g54
(dp1094
g62
I4
ssg63
g1088
sg56
(lp1095
S'51877'
p1096
asbasbasbag49
(g65
g51
NtRp1097
(dp1098
g54
(dp1099
sg63
g588
sg56
(lp1100
g49
(g70
g51
NtRp1101
(dp1102
g54
(dp1103
g74
g75
ssg63
g1097
sg56
(lp1104
S'request_method'
p1105
asbag49
(g70
g51
NtRp1106
(dp1107
g54
(dp1108
g81
g82
ssg63
g1097
sg56
(lp1109
S':'
asbag49
(g70
g51
NtRp1110
(dp1111
g54
(dp1112
sg63
g1097
sg56
(lp1113
g49
(g50
g51
NtRp1114
(dp1115
g54
(dp1116
g62
I4
ssg63
g1110
sg56
(lp1117
S'GET'
p1118
asbasbasbag49
(g65
g51
NtRp1119
(dp1120
g54
(dp1121
sg63
g588
sg56
(lp1122
g49
(g70
g51
NtRp1123
(dp1124
g54
(dp1125
g74
g75
ssg63
g1119
sg56
(lp1126
S'script_name'
p1127
asbag49
(g70
g51
NtRp1128
(dp1129
g54
(dp1130
g81
g82
ssg63
g1119
sg56
(lp1131
S':'
asbag49
(g70
g51
NtRp1132
(dp1133
g54
(dp1134
sg63
g1119
sg56
(lp1135
g49
(g50
g51
NtRp1136
(dp1137
g54
(dp1138
g62
I4
ssg63
g1132
sg56
(lp1139
S''
asbasbasbag49
(g65
g51
NtRp1140
(dp1141
g54
(dp1142
sg63
g588
sg56
(lp1143
g49
(g70
g51
NtRp1144
(dp1145
g54
(dp1146
g74
g75
ssg63
g1140
sg56
(lp1147
S'server_name'
p1148
asbag49
(g70
g51
NtRp1149
(dp1150
g54
(dp1151
g81
g82
ssg63
g1140
sg56
(lp1152
S':'
asbag49
(g70
g51
NtRp1153
(dp1154
g54
(dp1155
sg63
g1140
sg56
(lp1156
g49
(g50
g51
NtRp1157
(dp1158
g54
(dp1159
g62
I4
ssg63
g1153
sg56
(lp1160
S'Batou'
p1161
asbasbasbag49
(g65
g51
NtRp1162
(dp1163
g54
(dp1164
sg63
g588
sg56
(lp1165
g49
(g70
g51
NtRp1166
(dp1167
g54
(dp1168
g74
g75
ssg63
g1162
sg56
(lp1169
S'server_port'
p1170
asbag49
(g70
g51
NtRp1171
(dp1172
g54
(dp1173
g81
g82
ssg63
g1162
sg56
(lp1174
S':'
asbag49
(g70
g51
NtRp1175
(dp1176
g54
(dp1177
sg63
g1162
sg56
(lp1178
g49
(g50
g51
NtRp1179
(dp1180
g54
(dp1181
g62
I4
ssg63
g1175
sg56
(lp1182
S'8000'
p1183
asbasbasbag49
(g65
g51
NtRp1184
(dp1185
g54
(dp1186
sg63
g588
sg56
(lp1187
g49
(g70
g51
NtRp1188
(dp1189
g54
(dp1190
g74
g75
ssg63
g1184
sg56
(lp1191
S'server_protocol'
p1192
asbag49
(g70
g51
NtRp1193
(dp1194
g54
(dp1195
g81
g82
ssg63
g1184
sg56
(lp1196
S':'
asbag49
(g70
g51
NtRp1197
(dp1198
g54
(dp1199
sg63
g1184
sg56
(lp1200
g49
(g50
g51
NtRp1201
(dp1202
g54
(dp1203
g62
I4
ssg63
g1197
sg56
(lp1204
S'HTTP/1.1'
p1205
asbasbasbag49
(g65
g51
NtRp1206
(dp1207
g54
(dp1208
sg63
g588
sg56
(lp1209
g49
(g70
g51
NtRp1210
(dp1211
g54
(dp1212
g74
g75
ssg63
g1206
sg56
(lp1213
S'server_software'
p1214
asbag49
(g70
g51
NtRp1215
(dp1216
g54
(dp1217
g81
g82
ssg63
g1206
sg56
(lp1218
S':'
asbag49
(g70
g51
NtRp1219
(dp1220
g54
(dp1221
sg63
g1206
sg56
(lp1222
g49
(g50
g51
NtRp1223
(dp1224
g54
(dp1225
g62
I4
ssg63
g1219
sg56
(lp1226
S'Rocket 1.2.4'
p1227
asbasbasbag49
(g65
g51
NtRp1228
(dp1229
g54
(dp1230
sg63
g588
sg56
(lp1231
g49
(g70
g51
NtRp1232
(dp1233
g54
(dp1234
g74
g75
ssg63
g1228
sg56
(lp1235
S'web2py_crontype'
p1236
asbag49
(g70
g51
NtRp1237
(dp1238
g54
(dp1239
g81
g82
ssg63
g1228
sg56
(lp1240
S':'
asbag49
(g70
g51
NtRp1241
(dp1242
g54
(dp1243
sg63
g1228
sg56
(lp1244
g49
(g50
g51
NtRp1245
(dp1246
g54
(dp1247
g62
I4
ssg63
g1241
sg56
(lp1248
S'hard'
p1249
asbasbasbag49
(g65
g51
NtRp1250
(dp1251
g54
(dp1252
sg63
g588
sg56
(lp1253
g49
(g70
g51
NtRp1254
(dp1255
g54
(dp1256
g74
g75
ssg63
g1250
sg56
(lp1257
S'web2py_path'
p1258
asbag49
(g70
g51
NtRp1259
(dp1260
g54
(dp1261
g81
g82
ssg63
g1250
sg56
(lp1262
S':'
asbag49
(g70
g51
NtRp1263
(dp1264
g54
(dp1265
sg63
g1250
sg56
(lp1266
g49
(g50
g51
NtRp1267
(dp1268
g54
(dp1269
g62
I4
ssg63
g1263
sg56
(lp1270
g635
asbasbasbag49
(g65
g51
NtRp1271
(dp1272
g54
(dp1273
sg63
g588
sg56
(lp1274
g49
(g70
g51
NtRp1275
(dp1276
g54
(dp1277
g74
g75
ssg63
g1271
sg56
(lp1278
S'web2py_version'
p1279
asbag49
(g70
g51
NtRp1280
(dp1281
g54
(dp1282
g81
g82
ssg63
g1271
sg56
(lp1283
S':'
asbag49
(g70
g51
NtRp1284
(dp1285
g54
(dp1286
sg63
g1271
sg56
(lp1287
g49
(g50
g51
NtRp1288
(dp1289
g54
(dp1290
g62
I4
ssg63
g1284
sg56
(lp1291
g49
(g58
g51
NtRp1292
(dp1293
g54
(dp1294
g62
I3
ssg63
Nsg56
(lp1295
g49
(g65
g51
NtRp1296
(dp1297
g54
(dp1298
sg63
g1292
sg56
(lp1299
g49
(g70
g51
NtRp1300
(dp1301
g54
(dp1302
sg63
g1296
sg56
(lp1303
g49
(g50
g51
NtRp1304
(dp1305
g54
(dp1306
g62
I3
ssg63
g1300
sg56
(lp1307
S'1'
asbasbasbag49
(g65
g51
NtRp1308
(dp1309
g54
(dp1310
sg63
g1292
sg56
(lp1311
g49
(g70
g51
NtRp1312
(dp1313
g54
(dp1314
sg63
g1308
sg56
(lp1315
g49
(g50
g51
NtRp1316
(dp1317
g54
(dp1318
g62
I3
ssg63
g1312
sg56
(lp1319
S'99'
p1320
asbasbasbag49
(g65
g51
NtRp1321
(dp1322
g54
(dp1323
sg63
g1292
sg56
(lp1324
g49
(g70
g51
NtRp1325
(dp1326
g54
(dp1327
sg63
g1321
sg56
(lp1328
g49
(g50
g51
NtRp1329
(dp1330
g54
(dp1331
g62
I3
ssg63
g1325
sg56
(lp1332
S'7'
asbasbasbag49
(g65
g51
NtRp1333
(dp1334
g54
(dp1335
sg63
g1292
sg56
(lp1336
g49
(g70
g51
NtRp1337
(dp1338
g54
(dp1339
sg63
g1333
sg56
(lp1340
g49
(g50
g51
NtRp1341
(dp1342
g54
(dp1343
g62
I3
ssg63
g1337
sg56
(lp1344
S'datetime.datetime(2012, 3, 4, 22, 12, 8)'
p1345
asbasbasbag49
(g65
g51
NtRp1346
(dp1347
g54
(dp1348
sg63
g1292
sg56
(lp1349
g49
(g70
g51
NtRp1350
(dp1351
g54
(dp1352
sg63
g1346
sg56
(lp1353
g49
(g50
g51
NtRp1354
(dp1355
g54
(dp1356
g62
I3
ssg63
g1350
sg56
(lp1357
S'stable'
p1358
asbasbasbasbasbasbasbag49
(g65
g51
NtRp1359
(dp1360
g54
(dp1361
sg63
g588
sg56
(lp1362
g49
(g70
g51
NtRp1363
(dp1364
g54
(dp1365
g74
g75
ssg63
g1359
sg56
(lp1366
S'wsgi_errors'
p1367
asbag49
(g70
g51
NtRp1368
(dp1369
g54
(dp1370
g81
g82
ssg63
g1359
sg56
(lp1371
S':'
asbag49
(g70
g51
NtRp1372
(dp1373
g54
(dp1374
sg63
g1359
sg56
(lp1375
g49
(g50
g51
NtRp1376
(dp1377
g54
(dp1378
g62
I4
ssg63
g1372
sg56
(lp1379
S"<open file '<stderr>', mode 'w' at 0x008C00B0>"
p1380
asbasbasbag49
(g65
g51
NtRp1381
(dp1382
g54
(dp1383
sg63
g588
sg56
(lp1384
g49
(g70
g51
NtRp1385
(dp1386
g54
(dp1387
g74
g75
ssg63
g1381
sg56
(lp1388
S'wsgi_file_wrapper'
p1389
asbag49
(g70
g51
NtRp1390
(dp1391
g54
(dp1392
g81
g82
ssg63
g1381
sg56
(lp1393
S':'
asbag49
(g70
g51
NtRp1394
(dp1395
g54
(dp1396
sg63
g1381
sg56
(lp1397
g49
(g50
g51
NtRp1398
(dp1399
g54
(dp1400
g62
I4
ssg63
g1394
sg56
(lp1401
S'<class wsgiref.util.FileWrapper at 0x02BC6900>'
p1402
asbasbasbag49
(g65
g51
NtRp1403
(dp1404
g54
(dp1405
sg63
g588
sg56
(lp1406
g49
(g70
g51
NtRp1407
(dp1408
g54
(dp1409
g74
g75
ssg63
g1403
sg56
(lp1410
S'wsgi_input'
p1411
asbag49
(g70
g51
NtRp1412
(dp1413
g54
(dp1414
g81
g82
ssg63
g1403
sg56
(lp1415
S':'
asbag49
(g70
g51
NtRp1416
(dp1417
g54
(dp1418
sg63
g1403
sg56
(lp1419
g49
(g50
g51
NtRp1420
(dp1421
g54
(dp1422
g62
I4
ssg63
g1416
sg56
(lp1423
S'<socket._fileobject object at 0x04789670>'
p1424
asbasbasbag49
(g65
g51
NtRp1425
(dp1426
g54
(dp1427
sg63
g588
sg56
(lp1428
g49
(g70
g51
NtRp1429
(dp1430
g54
(dp1431
g74
g75
ssg63
g1425
sg56
(lp1432
S'wsgi_multiprocess'
p1433
asbag49
(g70
g51
NtRp1434
(dp1435
g54
(dp1436
g81
g82
ssg63
g1425
sg56
(lp1437
S':'
asbag49
(g70
g51
NtRp1438
(dp1439
g54
(dp1440
sg63
g1425
sg56
(lp1441
g49
(g50
g51
NtRp1442
(dp1443
g54
(dp1444
g62
I4
ssg63
g1438
sg56
(lp1445
g92
asbasbasbag49
(g65
g51
NtRp1446
(dp1447
g54
(dp1448
sg63
g588
sg56
(lp1449
g49
(g70
g51
NtRp1450
(dp1451
g54
(dp1452
g74
g75
ssg63
g1446
sg56
(lp1453
S'wsgi_multithread'
p1454
asbag49
(g70
g51
NtRp1455
(dp1456
g54
(dp1457
g81
g82
ssg63
g1446
sg56
(lp1458
S':'
asbag49
(g70
g51
NtRp1459
(dp1460
g54
(dp1461
sg63
g1446
sg56
(lp1462
g49
(g50
g51
NtRp1463
(dp1464
g54
(dp1465
g62
I4
ssg63
g1459
sg56
(lp1466
g726
asbasbasbag49
(g65
g51
NtRp1467
(dp1468
g54
(dp1469
sg63
g588
sg56
(lp1470
g49
(g70
g51
NtRp1471
(dp1472
g54
(dp1473
g74
g75
ssg63
g1467
sg56
(lp1474
S'wsgi_run_once'
p1475
asbag49
(g70
g51
NtRp1476
(dp1477
g54
(dp1478
g81
g82
ssg63
g1467
sg56
(lp1479
S':'
asbag49
(g70
g51
NtRp1480
(dp1481
g54
(dp1482
sg63
g1467
sg56
(lp1483
g49
(g50
g51
NtRp1484
(dp1485
g54
(dp1486
g62
I4
ssg63
g1480
sg56
(lp1487
g92
asbasbasbag49
(g65
g51
NtRp1488
(dp1489
g54
(dp1490
sg63
g588
sg56
(lp1491
g49
(g70
g51
NtRp1492
(dp1493
g54
(dp1494
g74
g75
ssg63
g1488
sg56
(lp1495
S'wsgi_url_scheme'
p1496
asbag49
(g70
g51
NtRp1497
(dp1498
g54
(dp1499
g81
g82
ssg63
g1488
sg56
(lp1500
S':'
asbag49
(g70
g51
NtRp1501
(dp1502
g54
(dp1503
sg63
g1488
sg56
(lp1504
g49
(g50
g51
NtRp1505
(dp1506
g54
(dp1507
g62
I4
ssg63
g1501
sg56
(lp1508
S'http'
p1509
asbasbasbag49
(g65
g51
NtRp1510
(dp1511
g54
(dp1512
sg63
g588
sg56
(lp1513
g49
(g70
g51
NtRp1514
(dp1515
g54
(dp1516
g74
g75
ssg63
g1510
sg56
(lp1517
S'wsgi_version'
p1518
asbag49
(g70
g51
NtRp1519
(dp1520
g54
(dp1521
g81
g82
ssg63
g1510
sg56
(lp1522
S':'
asbag49
(g70
g51
NtRp1523
(dp1524
g54
(dp1525
sg63
g1510
sg56
(lp1526
g49
(g50
g51
NtRp1527
(dp1528
g54
(dp1529
g62
I4
ssg63
g1523
sg56
(lp1530
g49
(g58
g51
NtRp1531
(dp1532
g54
(dp1533
g62
I3
ssg63
Nsg56
(lp1534
g49
(g65
g51
NtRp1535
(dp1536
g54
(dp1537
sg63
g1531
sg56
(lp1538
g49
(g70
g51
NtRp1539
(dp1540
g54
(dp1541
sg63
g1535
sg56
(lp1542
g49
(g50
g51
NtRp1543
(dp1544
g54
(dp1545
g62
I3
ssg63
g1539
sg56
(lp1546
S'1'
asbasbasbag49
(g65
g51
NtRp1547
(dp1548
g54
(dp1549
sg63
g1531
sg56
(lp1550
g49
(g70
g51
NtRp1551
(dp1552
g54
(dp1553
sg63
g1547
sg56
(lp1554
g49
(g50
g51
NtRp1555
(dp1556
g54
(dp1557
g62
I3
ssg63
g1551
sg56
(lp1558
S'0'
asbasbasbasbasbasbasbasbasbasbasbag49
(g65
g51
NtRp1559
(dp1560
g54
(dp1561
sg63
g59
sg56
(lp1562
g49
(g70
g51
NtRp1563
(dp1564
g54
(dp1565
g74
g75
ssg63
g1559
sg56
(lp1566
S'extension'
p1567
asbag49
(g70
g51
NtRp1568
(dp1569
g54
(dp1570
g81
g82
ssg63
g1559
sg56
(lp1571
S':'
asbag49
(g70
g51
NtRp1572
(dp1573
g54
(dp1574
sg63
g1559
sg56
(lp1575
g49
(g50
g51
NtRp1576
(dp1577
g54
(dp1578
g62
I5
ssg63
g1572
sg56
(lp1579
S'html'
p1580
asbasbasbag49
(g65
g51
NtRp1581
(dp1582
g54
(dp1583
sg63
g59
sg56
(lp1584
g49
(g70
g51
NtRp1585
(dp1586
g54
(dp1587
g74
g75
ssg63
g1581
sg56
(lp1588
S'folder'
p1589
asbag49
(g70
g51
NtRp1590
(dp1591
g54
(dp1592
g81
g82
ssg63
g1581
sg56
(lp1593
S':'
asbag49
(g70
g51
NtRp1594
(dp1595
g54
(dp1596
sg63
g1581
sg56
(lp1597
g49
(g50
g51
NtRp1598
(dp1599
g54
(dp1600
g62
I5
ssg63
g1594
sg56
(lp1601
S'C:\\Users\\Bussiere\\Dropbox\\Projets\\jackpoint\\web2py\\applications\\init\\'
p1602
asbasbasbag49
(g65
g51
NtRp1603
(dp1604
g54
(dp1605
sg63
g59
sg56
(lp1606
g49
(g70
g51
NtRp1607
(dp1608
g54
(dp1609
g74
g75
ssg63
g1603
sg56
(lp1610
S'function'
p1611
asbag49
(g70
g51
NtRp1612
(dp1613
g54
(dp1614
g81
g82
ssg63
g1603
sg56
(lp1615
S':'
asbag49
(g70
g51
NtRp1616
(dp1617
g54
(dp1618
sg63
g1603
sg56
(lp1619
g49
(g50
g51
NtRp1620
(dp1621
g54
(dp1622
g62
I5
ssg63
g1616
sg56
(lp1623
S'inscriptioninvit'
p1624
asbasbasbag49
(g65
g51
NtRp1625
(dp1626
g54
(dp1627
sg63
g59
sg56
(lp1628
g49
(g70
g51
NtRp1629
(dp1630
g54
(dp1631
g74
g75
ssg63
g1625
sg56
(lp1632
S'get_vars'
p1633
asbag49
(g70
g51
NtRp1634
(dp1635
g54
(dp1636
g81
g82
ssg63
g1625
sg56
(lp1637
S':'
asbag49
(g70
g51
NtRp1638
(dp1639
g54
(dp1640
sg63
g1625
sg56
(lp1641
g49
(g50
g51
NtRp1642
(dp1643
g54
(dp1644
g62
I5
ssg63
g1638
sg56
(lp1645
g49
(g58
g51
NtRp1646
(dp1647
g54
(dp1648
g62
I4
ssg63
Nsg56
(lp1649
sbasbasbasbag49
(g65
g51
NtRp1650
(dp1651
g54
(dp1652
sg63
g59
sg56
(lp1653
g49
(g70
g51
NtRp1654
(dp1655
g54
(dp1656
g74
g75
ssg63
g1650
sg56
(lp1657
S'global_settings'
p1658
asbag49
(g70
g51
NtRp1659
(dp1660
g54
(dp1661
g81
g82
ssg63
g1650
sg56
(lp1662
S':'
asbag49
(g70
g51
NtRp1663
(dp1664
g54
(dp1665
sg63
g1650
sg56
(lp1666
g49
(g50
g51
NtRp1667
(dp1668
g54
(dp1669
g62
I5
ssg63
g1663
sg56
(lp1670
g49
(g58
g51
NtRp1671
(dp1672
g54
(dp1673
g62
I4
ssg63
Nsg56
(lp1674
g49
(g65
g51
NtRp1675
(dp1676
g54
(dp1677
sg63
g1671
sg56
(lp1678
g49
(g70
g51
NtRp1679
(dp1680
g54
(dp1681
g74
g75
ssg63
g1675
sg56
(lp1682
g600
asbag49
(g70
g51
NtRp1683
(dp1684
g54
(dp1685
g81
g82
ssg63
g1675
sg56
(lp1686
S':'
asbag49
(g70
g51
NtRp1687
(dp1688
g54
(dp1689
sg63
g1675
sg56
(lp1690
g49
(g50
g51
NtRp1691
(dp1692
g54
(dp1693
g62
I4
ssg63
g1687
sg56
(lp1694
S"set(['C:\\\\Users\\\\Bussiere\\\\Dropbox\\\\Projets\\\\jackpoint\\\\web2py\\\\applications\\\\init\\\\', 'C:\\\\Users\\\\Bussiere\\\\Dropbox\\\\Projets\\\\jackpoint\\\\web2py\\\\applications\\\\admin\\\\'])"
p1695
asbasbasbag49
(g65
g51
NtRp1696
(dp1697
g54
(dp1698
sg63
g1671
sg56
(lp1699
g49
(g70
g51
NtRp1700
(dp1701
g54
(dp1702
g74
g75
ssg63
g1696
sg56
(lp1703
g622
asbag49
(g70
g51
NtRp1704
(dp1705
g54
(dp1706
g81
g82
ssg63
g1696
sg56
(lp1707
S':'
asbag49
(g70
g51
NtRp1708
(dp1709
g54
(dp1710
sg63
g1696
sg56
(lp1711
g49
(g50
g51
NtRp1712
(dp1713
g54
(dp1714
g62
I4
ssg63
g1708
sg56
(lp1715
g635
asbasbasbag49
(g65
g51
NtRp1716
(dp1717
g54
(dp1718
sg63
g1671
sg56
(lp1719
g49
(g70
g51
NtRp1720
(dp1721
g54
(dp1722
g74
g75
ssg63
g1716
sg56
(lp1723
g644
asbag49
(g70
g51
NtRp1724
(dp1725
g54
(dp1726
g81
g82
ssg63
g1716
sg56
(lp1727
S':'
asbag49
(g70
g51
NtRp1728
(dp1729
g54
(dp1730
sg63
g1716
sg56
(lp1731
g49
(g50
g51
NtRp1732
(dp1733
g54
(dp1734
g62
I4
ssg63
g1728
sg56
(lp1735
g49
(g58
g51
NtRp1736
(dp1737
g54
(dp1738
g62
I3
ssg63
Nsg56
(lp1739
sbasbasbasbag49
(g65
g51
NtRp1740
(dp1741
g54
(dp1742
sg63
g1671
sg56
(lp1743
g49
(g70
g51
NtRp1744
(dp1745
g54
(dp1746
g74
g75
ssg63
g1740
sg56
(lp1747
g669
asbag49
(g70
g51
NtRp1748
(dp1749
g54
(dp1750
g81
g82
ssg63
g1740
sg56
(lp1751
S':'
asbag49
(g70
g51
NtRp1752
(dp1753
g54
(dp1754
sg63
g1740
sg56
(lp1755
g49
(g50
g51
NtRp1756
(dp1757
g54
(dp1758
g62
I4
ssg63
g1752
sg56
(lp1759
S"<Values at 0x3c25fa8: {'verbose': False, 'ip': '127.0.0.1', 'shutdown_timeout': 5, 'taskbar': False, 'nocron': False, 'pid_filename': 'httpserver.pid', 'maxthreads': None, 'softcron': False, 'server_name': 'Batou', 'bpython': False, 'nogui': False, 'port': 8000, 'extcron': False, 'debuglevel': 30, 'test': None, 'folder': 'C:\\\\Users\\\\Bussiere\\\\Dropbox\\\\Projets\\\\jackpoint\\\\web2py', 'config': '', 'import_models': False, 'winservice': '', 'shell': None, 'run': '', 'log_filename': 'httpserver.log', 'args': [''], 'socket_timeout': 5, 'ssl_ca_certificate': None, 'scheduler': None, 'profiler_filename': None, 'ssl_private_key': '', 'password': '<ask>', 'request_queue_size': 5, 'ssl_certificate': '', 'cronjob': False, 'numthreads': None, 'quiet': False, 'interfaces': None, 'minthreads': None, 'timeout': 10, 'plain': False, 'nobanner': False}>"
p1760
asbasbasbag49
(g65
g51
NtRp1761
(dp1762
g54
(dp1763
sg63
g1671
sg56
(lp1764
g49
(g70
g51
NtRp1765
(dp1766
g54
(dp1767
g74
g75
ssg63
g1761
sg56
(lp1768
g691
asbag49
(g70
g51
NtRp1769
(dp1770
g54
(dp1771
g81
g82
ssg63
g1761
sg56
(lp1772
S':'
asbag49
(g70
g51
NtRp1773
(dp1774
g54
(dp1775
sg63
g1761
sg56
(lp1776
g49
(g50
g51
NtRp1777
(dp1778
g54
(dp1779
g62
I4
ssg63
g1773
sg56
(lp1780
S"set(['init'])"
p1781
asbasbasbag49
(g65
g51
NtRp1782
(dp1783
g54
(dp1784
sg63
g1671
sg56
(lp1785
g49
(g70
g51
NtRp1786
(dp1787
g54
(dp1788
g74
g75
ssg63
g1782
sg56
(lp1789
g713
asbag49
(g70
g51
NtRp1790
(dp1791
g54
(dp1792
g81
g82
ssg63
g1782
sg56
(lp1793
S':'
asbag49
(g70
g51
NtRp1794
(dp1795
g54
(dp1796
sg63
g1782
sg56
(lp1797
g49
(g50
g51
NtRp1798
(dp1799
g54
(dp1800
g62
I4
ssg63
g1794
sg56
(lp1801
g726
asbasbasbag49
(g65
g51
NtRp1802
(dp1803
g54
(dp1804
sg63
g1671
sg56
(lp1805
g49
(g70
g51
NtRp1806
(dp1807
g54
(dp1808
g74
g75
ssg63
g1802
sg56
(lp1809
g735
asbag49
(g70
g51
NtRp1810
(dp1811
g54
(dp1812
g81
g82
ssg63
g1802
sg56
(lp1813
S':'
asbag49
(g70
g51
NtRp1814
(dp1815
g54
(dp1816
sg63
g1802
sg56
(lp1817
g49
(g50
g51
NtRp1818
(dp1819
g54
(dp1820
g62
I4
ssg63
g1814
sg56
(lp1821
g748
asbasbasbag49
(g65
g51
NtRp1822
(dp1823
g54
(dp1824
sg63
g1671
sg56
(lp1825
g49
(g70
g51
NtRp1826
(dp1827
g54
(dp1828
g74
g75
ssg63
g1822
sg56
(lp1829
g977
asbag49
(g70
g51
NtRp1830
(dp1831
g54
(dp1832
g81
g82
ssg63
g1822
sg56
(lp1833
S':'
asbag49
(g70
g51
NtRp1834
(dp1835
g54
(dp1836
sg63
g1822
sg56
(lp1837
g49
(g50
g51
NtRp1838
(dp1839
g54
(dp1840
g62
I4
ssg63
g1834
sg56
(lp1841
g92
asbasbasbag49
(g65
g51
NtRp1842
(dp1843
g54
(dp1844
sg63
g1671
sg56
(lp1845
g49
(g70
g51
NtRp1846
(dp1847
g54
(dp1848
g74
g75
ssg63
g1842
sg56
(lp1849
g998
asbag49
(g70
g51
NtRp1850
(dp1851
g54
(dp1852
g81
g82
ssg63
g1842
sg56
(lp1853
S':'
asbag49
(g70
g51
NtRp1854
(dp1855
g54
(dp1856
sg63
g1842
sg56
(lp1857
g49
(g50
g51
NtRp1858
(dp1859
g54
(dp1860
g62
I4
ssg63
g1854
sg56
(lp1861
g92
asbasbasbag49
(g65
g51
NtRp1862
(dp1863
g54
(dp1864
sg63
g1671
sg56
(lp1865
g49
(g70
g51
NtRp1866
(dp1867
g54
(dp1868
g74
g75
ssg63
g1862
sg56
(lp1869
g1236
asbag49
(g70
g51
NtRp1870
(dp1871
g54
(dp1872
g81
g82
ssg63
g1862
sg56
(lp1873
S':'
asbag49
(g70
g51
NtRp1874
(dp1875
g54
(dp1876
sg63
g1862
sg56
(lp1877
g49
(g50
g51
NtRp1878
(dp1879
g54
(dp1880
g62
I4
ssg63
g1874
sg56
(lp1881
g1249
asbasbasbag49
(g65
g51
NtRp1882
(dp1883
g54
(dp1884
sg63
g1671
sg56
(lp1885
g49
(g70
g51
NtRp1886
(dp1887
g54
(dp1888
g74
g75
ssg63
g1882
sg56
(lp1889
g1279
asbag49
(g70
g51
NtRp1890
(dp1891
g54
(dp1892
g81
g82
ssg63
g1882
sg56
(lp1893
S':'
asbag49
(g70
g51
NtRp1894
(dp1895
g54
(dp1896
sg63
g1882
sg56
(lp1897
g49
(g50
g51
NtRp1898
(dp1899
g54
(dp1900
g62
I4
ssg63
g1894
sg56
(lp1901
g49
(g58
g51
NtRp1902
(dp1903
g54
(dp1904
g62
I3
ssg63
Nsg56
(lp1905
g49
(g65
g51
NtRp1906
(dp1907
g54
(dp1908
sg63
g1902
sg56
(lp1909
g49
(g70
g51
NtRp1910
(dp1911
g54
(dp1912
sg63
g1906
sg56
(lp1913
g49
(g50
g51
NtRp1914
(dp1915
g54
(dp1916
g62
I3
ssg63
g1910
sg56
(lp1917
S'1'
asbasbasbag49
(g65
g51
NtRp1918
(dp1919
g54
(dp1920
sg63
g1902
sg56
(lp1921
g49
(g70
g51
NtRp1922
(dp1923
g54
(dp1924
sg63
g1918
sg56
(lp1925
g49
(g50
g51
NtRp1926
(dp1927
g54
(dp1928
g62
I3
ssg63
g1922
sg56
(lp1929
S'99'
p1930
asbasbasbag49
(g65
g51
NtRp1931
(dp1932
g54
(dp1933
sg63
g1902
sg56
(lp1934
g49
(g70
g51
NtRp1935
(dp1936
g54
(dp1937
sg63
g1931
sg56
(lp1938
g49
(g50
g51
NtRp1939
(dp1940
g54
(dp1941
g62
I3
ssg63
g1935
sg56
(lp1942
S'7'
asbasbasbag49
(g65
g51
NtRp1943
(dp1944
g54
(dp1945
sg63
g1902
sg56
(lp1946
g49
(g70
g51
NtRp1947
(dp1948
g54
(dp1949
sg63
g1943
sg56
(lp1950
g49
(g50
g51
NtRp1951
(dp1952
g54
(dp1953
g62
I3
ssg63
g1947
sg56
(lp1954
S'datetime.datetime(2012, 3, 4, 22, 12, 8)'
p1955
asbasbasbag49
(g65
g51
NtRp1956
(dp1957
g54
(dp1958
sg63
g1902
sg56
(lp1959
g49
(g70
g51
NtRp1960
(dp1961
g54
(dp1962
sg63
g1956
sg56
(lp1963
g49
(g50
g51
NtRp1964
(dp1965
g54
(dp1966
g62
I3
ssg63
g1960
sg56
(lp1967
g1358
asbasbasbasbasbasbasbasbasbasbasbag49
(g65
g51
NtRp1968
(dp1969
g54
(dp1970
sg63
g59
sg56
(lp1971
g49
(g70
g51
NtRp1972
(dp1973
g54
(dp1974
g74
g75
ssg63
g1968
sg56
(lp1975
S'is_https'
p1976
asbag49
(g70
g51
NtRp1977
(dp1978
g54
(dp1979
g81
g82
ssg63
g1968
sg56
(lp1980
S':'
asbag49
(g70
g51
NtRp1981
(dp1982
g54
(dp1983
sg63
g1968
sg56
(lp1984
g49
(g50
g51
NtRp1985
(dp1986
g54
(dp1987
g62
I5
ssg63
g1981
sg56
(lp1988
g92
asbasbasbag49
(g65
g51
NtRp1989
(dp1990
g54
(dp1991
sg63
g59
sg56
(lp1992
g49
(g70
g51
NtRp1993
(dp1994
g54
(dp1995
g74
g75
ssg63
g1989
sg56
(lp1996
S'is_local'
p1997
asbag49
(g70
g51
NtRp1998
(dp1999
g54
(dp2000
g81
g82
ssg63
g1989
sg56
(lp2001
S':'
asbag49
(g70
g51
NtRp2002
(dp2003
g54
(dp2004
sg63
g1989
sg56
(lp2005
g49
(g50
g51
NtRp2006
(dp2007
g54
(dp2008
g62
I5
ssg63
g2002
sg56
(lp2009
g726
asbasbasbag49
(g65
g51
NtRp2010
(dp2011
g54
(dp2012
sg63
g59
sg56
(lp2013
g49
(g70
g51
NtRp2014
(dp2015
g54
(dp2016
g74
g75
ssg63
g2010
sg56
(lp2017
S'is_restful'
p2018
asbag49
(g70
g51
NtRp2019
(dp2020
g54
(dp2021
g81
g82
ssg63
g2010
sg56
(lp2022
S':'
asbag49
(g70
g51
NtRp2023
(dp2024
g54
(dp2025
sg63
g2010
sg56
(lp2026
g49
(g50
g51
NtRp2027
(dp2028
g54
(dp2029
g62
I5
ssg63
g2023
sg56
(lp2030
g92
asbasbasbag49
(g65
g51
NtRp2031
(dp2032
g54
(dp2033
sg63
g59
sg56
(lp2034
g49
(g70
g51
NtRp2035
(dp2036
g54
(dp2037
g74
g75
ssg63
g2031
sg56
(lp2038
S'now'
p2039
asbag49
(g70
g51
NtRp2040
(dp2041
g54
(dp2042
g81
g82
ssg63
g2031
sg56
(lp2043
S':'
asbag49
(g70
g51
NtRp2044
(dp2045
g54
(dp2046
sg63
g2031
sg56
(lp2047
g49
(g50
g51
NtRp2048
(dp2049
g54
(dp2050
g62
I5
ssg63
g2044
sg56
(lp2051
S'datetime.datetime(2012, 4, 2, 16, 52, 22, 428000)'
p2052
asbasbasbag49
(g65
g51
NtRp2053
(dp2054
g54
(dp2055
sg63
g59
sg56
(lp2056
g49
(g70
g51
NtRp2057
(dp2058
g54
(dp2059
g74
g75
ssg63
g2053
sg56
(lp2060
S'post_vars'
p2061
asbag49
(g70
g51
NtRp2062
(dp2063
g54
(dp2064
g81
g82
ssg63
g2053
sg56
(lp2065
S':'
asbag49
(g70
g51
NtRp2066
(dp2067
g54
(dp2068
sg63
g2053
sg56
(lp2069
g49
(g50
g51
NtRp2070
(dp2071
g54
(dp2072
g62
I5
ssg63
g2066
sg56
(lp2073
g49
(g58
g51
NtRp2074
(dp2075
g54
(dp2076
g62
I4
ssg63
Nsg56
(lp2077
sbasbasbasbag49
(g65
g51
NtRp2078
(dp2079
g54
(dp2080
sg63
g59
sg56
(lp2081
g49
(g70
g51
NtRp2082
(dp2083
g54
(dp2084
g74
g75
ssg63
g2078
sg56
(lp2085
S'url'
p2086
asbag49
(g70
g51
NtRp2087
(dp2088
g54
(dp2089
g81
g82
ssg63
g2078
sg56
(lp2090
S':'
asbag49
(g70
g51
NtRp2091
(dp2092
g54
(dp2093
sg63
g2078
sg56
(lp2094
g49
(g50
g51
NtRp2095
(dp2096
g54
(dp2097
g62
I5
ssg63
g2091
sg56
(lp2098
S'/init/default/inscriptioninvit'
p2099
asbasbasbag49
(g65
g51
NtRp2100
(dp2101
g54
(dp2102
sg63
g59
sg56
(lp2103
g49
(g70
g51
NtRp2104
(dp2105
g54
(dp2106
g74
g75
ssg63
g2100
sg56
(lp2107
S'utcnow'
p2108
asbag49
(g70
g51
NtRp2109
(dp2110
g54
(dp2111
g81
g82
ssg63
g2100
sg56
(lp2112
S':'
asbag49
(g70
g51
NtRp2113
(dp2114
g54
(dp2115
sg63
g2100
sg56
(lp2116
g49
(g50
g51
NtRp2117
(dp2118
g54
(dp2119
g62
I5
ssg63
g2113
sg56
(lp2120
S'datetime.datetime(2012, 4, 2, 14, 52, 22, 428000)'
p2121
asbasbasbag49
(g65
g51
NtRp2122
(dp2123
g54
(dp2124
sg63
g59
sg56
(lp2125
g49
(g70
g51
NtRp2126
(dp2127
g54
(dp2128
g74
g75
ssg63
g2122
sg56
(lp2129
S'uuid'
p2130
asbag49
(g70
g51
NtRp2131
(dp2132
g54
(dp2133
g81
g82
ssg63
g2122
sg56
(lp2134
S':'
asbag49
(g70
g51
NtRp2135
(dp2136
g54
(dp2137
sg63
g2122
sg56
(lp2138
g49
(g50
g51
NtRp2139
(dp2140
g54
(dp2141
g62
I5
ssg63
g2135
sg56
(lp2142
S'init/127.0.0.1.2012-04-02.16-52-22.f7990bf5-17f3-4e76-ab7c-d441c96bb624'
p2143
asbasbasbag49
(g65
g51
NtRp2144
(dp2145
g54
(dp2146
sg63
g59
sg56
(lp2147
g49
(g70
g51
NtRp2148
(dp2149
g54
(dp2150
g74
g75
ssg63
g2144
sg56
(lp2151
S'vars'
p2152
asbag49
(g70
g51
NtRp2153
(dp2154
g54
(dp2155
g81
g82
ssg63
g2144
sg56
(lp2156
S':'
asbag49
(g70
g51
NtRp2157
(dp2158
g54
(dp2159
sg63
g2144
sg56
(lp2160
g49
(g50
g51
NtRp2161
(dp2162
g54
(dp2163
g62
I5
ssg63
g2157
sg56
(lp2164
g49
(g58
g51
NtRp2165
(dp2166
g54
(dp2167
g62
I4
ssg63
Nsg56
(lp2168
sbasbasbasbag49
(g65
g51
NtRp2169
(dp2170
g54
(dp2171
sg63
g59
sg56
(lp2172
g49
(g70
g51
NtRp2173
(dp2174
g54
(dp2175
g74
g75
ssg63
g2169
sg56
(lp2176
S'wsgi'
p2177
asbag49
(g70
g51
NtRp2178
(dp2179
g54
(dp2180
g81
g82
ssg63
g2169
sg56
(lp2181
S':'
asbag49
(g70
g51
NtRp2182
(dp2183
g54
(dp2184
sg63
g2169
sg56
(lp2185
g49
(g50
g51
NtRp2186
(dp2187
g54
(dp2188
g62
I5
ssg63
g2182
sg56
(lp2189
g49
(g58
g51
NtRp2190
(dp2191
g54
(dp2192
g62
I4
ssg63
Nsg56
(lp2193
g49
(g65
g51
NtRp2194
(dp2195
g54
(dp2196
sg63
g2190
sg56
(lp2197
g49
(g70
g51
NtRp2198
(dp2199
g54
(dp2200
g74
g75
ssg63
g2194
sg56
(lp2201
S'environ'
p2202
asbag49
(g70
g51
NtRp2203
(dp2204
g54
(dp2205
g81
g82
ssg63
g2194
sg56
(lp2206
S':'
asbag49
(g70
g51
NtRp2207
(dp2208
g54
(dp2209
sg63
g2194
sg56
(lp2210
g49
(g50
g51
NtRp2211
(dp2212
g54
(dp2213
g62
I4
ssg63
g2207
sg56
(lp2214
g49
(g58
g51
NtRp2215
(dp2216
g54
(dp2217
g62
I3
ssg63
Nsg56
(lp2218
g49
(g65
g51
NtRp2219
(dp2220
g54
(dp2221
sg63
g2215
sg56
(lp2222
g49
(g70
g51
NtRp2223
(dp2224
g54
(dp2225
g74
g75
ssg63
g2219
sg56
(lp2226
S'HTTP_ACCEPT'
p2227
asbag49
(g70
g51
NtRp2228
(dp2229
g54
(dp2230
g81
g82
ssg63
g2219
sg56
(lp2231
S':'
asbag49
(g70
g51
NtRp2232
(dp2233
g54
(dp2234
sg63
g2219
sg56
(lp2235
g49
(g50
g51
NtRp2236
(dp2237
g54
(dp2238
g62
I3
ssg63
g2232
sg56
(lp2239
g770
asbasbasbag49
(g65
g51
NtRp2240
(dp2241
g54
(dp2242
sg63
g2215
sg56
(lp2243
g49
(g70
g51
NtRp2244
(dp2245
g54
(dp2246
g74
g75
ssg63
g2240
sg56
(lp2247
S'HTTP_ACCEPT_CHARSET'
p2248
asbag49
(g70
g51
NtRp2249
(dp2250
g54
(dp2251
g81
g82
ssg63
g2240
sg56
(lp2252
S':'
asbag49
(g70
g51
NtRp2253
(dp2254
g54
(dp2255
sg63
g2240
sg56
(lp2256
g49
(g50
g51
NtRp2257
(dp2258
g54
(dp2259
g62
I3
ssg63
g2253
sg56
(lp2260
g792
asbasbasbag49
(g65
g51
NtRp2261
(dp2262
g54
(dp2263
sg63
g2215
sg56
(lp2264
g49
(g70
g51
NtRp2265
(dp2266
g54
(dp2267
g74
g75
ssg63
g2261
sg56
(lp2268
S'HTTP_ACCEPT_ENCODING'
p2269
asbag49
(g70
g51
NtRp2270
(dp2271
g54
(dp2272
g81
g82
ssg63
g2261
sg56
(lp2273
S':'
asbag49
(g70
g51
NtRp2274
(dp2275
g54
(dp2276
sg63
g2261
sg56
(lp2277
g49
(g50
g51
NtRp2278
(dp2279
g54
(dp2280
g62
I3
ssg63
g2274
sg56
(lp2281
g814
asbasbasbag49
(g65
g51
NtRp2282
(dp2283
g54
(dp2284
sg63
g2215
sg56
(lp2285
g49
(g70
g51
NtRp2286
(dp2287
g54
(dp2288
g74
g75
ssg63
g2282
sg56
(lp2289
S'HTTP_ACCEPT_LANGUAGE'
p2290
asbag49
(g70
g51
NtRp2291
(dp2292
g54
(dp2293
g81
g82
ssg63
g2282
sg56
(lp2294
S':'
asbag49
(g70
g51
NtRp2295
(dp2296
g54
(dp2297
sg63
g2282
sg56
(lp2298
g49
(g50
g51
NtRp2299
(dp2300
g54
(dp2301
g62
I3
ssg63
g2295
sg56
(lp2302
g836
asbasbasbag49
(g65
g51
NtRp2303
(dp2304
g54
(dp2305
sg63
g2215
sg56
(lp2306
g49
(g70
g51
NtRp2307
(dp2308
g54
(dp2309
g74
g75
ssg63
g2303
sg56
(lp2310
S'HTTP_CACHE_CONTROL'
p2311
asbag49
(g70
g51
NtRp2312
(dp2313
g54
(dp2314
g81
g82
ssg63
g2303
sg56
(lp2315
S':'
asbag49
(g70
g51
NtRp2316
(dp2317
g54
(dp2318
sg63
g2303
sg56
(lp2319
g49
(g50
g51
NtRp2320
(dp2321
g54
(dp2322
g62
I3
ssg63
g2316
sg56
(lp2323
g858
asbasbasbag49
(g65
g51
NtRp2324
(dp2325
g54
(dp2326
sg63
g2215
sg56
(lp2327
g49
(g70
g51
NtRp2328
(dp2329
g54
(dp2330
g74
g75
ssg63
g2324
sg56
(lp2331
S'HTTP_CONNECTION'
p2332
asbag49
(g70
g51
NtRp2333
(dp2334
g54
(dp2335
g81
g82
ssg63
g2324
sg56
(lp2336
S':'
asbag49
(g70
g51
NtRp2337
(dp2338
g54
(dp2339
sg63
g2324
sg56
(lp2340
g49
(g50
g51
NtRp2341
(dp2342
g54
(dp2343
g62
I3
ssg63
g2337
sg56
(lp2344
g880
asbasbasbag49
(g65
g51
NtRp2345
(dp2346
g54
(dp2347
sg63
g2215
sg56
(lp2348
g49
(g70
g51
NtRp2349
(dp2350
g54
(dp2351
g74
g75
ssg63
g2345
sg56
(lp2352
S'HTTP_COOKIE'
p2353
asbag49
(g70
g51
NtRp2354
(dp2355
g54
(dp2356
g81
g82
ssg63
g2345
sg56
(lp2357
S':'
asbag49
(g70
g51
NtRp2358
(dp2359
g54
(dp2360
sg63
g2345
sg56
(lp2361
g49
(g50
g51
NtRp2362
(dp2363
g54
(dp2364
g62
I3
ssg63
g2358
sg56
(lp2365
g902
asbasbasbag49
(g65
g51
NtRp2366
(dp2367
g54
(dp2368
sg63
g2215
sg56
(lp2369
g49
(g70
g51
NtRp2370
(dp2371
g54
(dp2372
g74
g75
ssg63
g2366
sg56
(lp2373
S'HTTP_HOST'
p2374
asbag49
(g70
g51
NtRp2375
(dp2376
g54
(dp2377
g81
g82
ssg63
g2366
sg56
(lp2378
S':'
asbag49
(g70
g51
NtRp2379
(dp2380
g54
(dp2381
sg63
g2366
sg56
(lp2382
g49
(g50
g51
NtRp2383
(dp2384
g54
(dp2385
g62
I3
ssg63
g2379
sg56
(lp2386
g924
asbasbasbag49
(g65
g51
NtRp2387
(dp2388
g54
(dp2389
sg63
g2215
sg56
(lp2390
g49
(g70
g51
NtRp2391
(dp2392
g54
(dp2393
g74
g75
ssg63
g2387
sg56
(lp2394
S'HTTP_REFERER'
p2395
asbag49
(g70
g51
NtRp2396
(dp2397
g54
(dp2398
g81
g82
ssg63
g2387
sg56
(lp2399
S':'
asbag49
(g70
g51
NtRp2400
(dp2401
g54
(dp2402
sg63
g2387
sg56
(lp2403
g49
(g50
g51
NtRp2404
(dp2405
g54
(dp2406
g62
I3
ssg63
g2400
sg56
(lp2407
g946
asbasbasbag49
(g65
g51
NtRp2408
(dp2409
g54
(dp2410
sg63
g2215
sg56
(lp2411
g49
(g70
g51
NtRp2412
(dp2413
g54
(dp2414
g74
g75
ssg63
g2408
sg56
(lp2415
S'HTTP_USER_AGENT'
p2416
asbag49
(g70
g51
NtRp2417
(dp2418
g54
(dp2419
g81
g82
ssg63
g2408
sg56
(lp2420
S':'
asbag49
(g70
g51
NtRp2421
(dp2422
g54
(dp2423
sg63
g2408
sg56
(lp2424
g49
(g50
g51
NtRp2425
(dp2426
g54
(dp2427
g62
I3
ssg63
g2421
sg56
(lp2428
g968
asbasbasbag49
(g65
g51
NtRp2429
(dp2430
g54
(dp2431
sg63
g2215
sg56
(lp2432
g49
(g70
g51
NtRp2433
(dp2434
g54
(dp2435
g74
g75
ssg63
g2429
sg56
(lp2436
S'PATH_INFO'
p2437
asbag49
(g70
g51
NtRp2438
(dp2439
g54
(dp2440
g81
g82
ssg63
g2429
sg56
(lp2441
S':'
asbag49
(g70
g51
NtRp2442
(dp2443
g54
(dp2444
sg63
g2429
sg56
(lp2445
g49
(g50
g51
NtRp2446
(dp2447
g54
(dp2448
g62
I3
ssg63
g2442
sg56
(lp2449
g1032
asbasbasbag49
(g65
g51
NtRp2450
(dp2451
g54
(dp2452
sg63
g2215
sg56
(lp2453
g49
(g70
g51
NtRp2454
(dp2455
g54
(dp2456
g74
g75
ssg63
g2450
sg56
(lp2457
S'QUERY_STRING'
p2458
asbag49
(g70
g51
NtRp2459
(dp2460
g54
(dp2461
g81
g82
ssg63
g2450
sg56
(lp2462
S':'
asbag49
(g70
g51
NtRp2463
(dp2464
g54
(dp2465
sg63
g2450
sg56
(lp2466
g49
(g50
g51
NtRp2467
(dp2468
g54
(dp2469
g62
I3
ssg63
g2463
sg56
(lp2470
S''
asbasbasbag49
(g65
g51
NtRp2471
(dp2472
g54
(dp2473
sg63
g2215
sg56
(lp2474
g49
(g70
g51
NtRp2475
(dp2476
g54
(dp2477
g74
g75
ssg63
g2471
sg56
(lp2478
S'REMOTE_ADDR'
p2479
asbag49
(g70
g51
NtRp2480
(dp2481
g54
(dp2482
g81
g82
ssg63
g2471
sg56
(lp2483
S':'
asbag49
(g70
g51
NtRp2484
(dp2485
g54
(dp2486
sg63
g2471
sg56
(lp2487
g49
(g50
g51
NtRp2488
(dp2489
g54
(dp2490
g62
I3
ssg63
g2484
sg56
(lp2491
g182
asbasbasbag49
(g65
g51
NtRp2492
(dp2493
g54
(dp2494
sg63
g2215
sg56
(lp2495
g49
(g70
g51
NtRp2496
(dp2497
g54
(dp2498
g74
g75
ssg63
g2492
sg56
(lp2499
S'REMOTE_PORT'
p2500
asbag49
(g70
g51
NtRp2501
(dp2502
g54
(dp2503
g81
g82
ssg63
g2492
sg56
(lp2504
S':'
asbag49
(g70
g51
NtRp2505
(dp2506
g54
(dp2507
sg63
g2492
sg56
(lp2508
g49
(g50
g51
NtRp2509
(dp2510
g54
(dp2511
g62
I3
ssg63
g2505
sg56
(lp2512
g1096
asbasbasbag49
(g65
g51
NtRp2513
(dp2514
g54
(dp2515
sg63
g2215
sg56
(lp2516
g49
(g70
g51
NtRp2517
(dp2518
g54
(dp2519
g74
g75
ssg63
g2513
sg56
(lp2520
S'REQUEST_METHOD'
p2521
asbag49
(g70
g51
NtRp2522
(dp2523
g54
(dp2524
g81
g82
ssg63
g2513
sg56
(lp2525
S':'
asbag49
(g70
g51
NtRp2526
(dp2527
g54
(dp2528
sg63
g2513
sg56
(lp2529
g49
(g50
g51
NtRp2530
(dp2531
g54
(dp2532
g62
I3
ssg63
g2526
sg56
(lp2533
g1118
asbasbasbag49
(g65
g51
NtRp2534
(dp2535
g54
(dp2536
sg63
g2215
sg56
(lp2537
g49
(g70
g51
NtRp2538
(dp2539
g54
(dp2540
g74
g75
ssg63
g2534
sg56
(lp2541
S'SCRIPT_NAME'
p2542
asbag49
(g70
g51
NtRp2543
(dp2544
g54
(dp2545
g81
g82
ssg63
g2534
sg56
(lp2546
S':'
asbag49
(g70
g51
NtRp2547
(dp2548
g54
(dp2549
sg63
g2534
sg56
(lp2550
g49
(g50
g51
NtRp2551
(dp2552
g54
(dp2553
g62
I3
ssg63
g2547
sg56
(lp2554
S''
asbasbasbag49
(g65
g51
NtRp2555
(dp2556
g54
(dp2557
sg63
g2215
sg56
(lp2558
g49
(g70
g51
NtRp2559
(dp2560
g54
(dp2561
g74
g75
ssg63
g2555
sg56
(lp2562
S'SERVER_NAME'
p2563
asbag49
(g70
g51
NtRp2564
(dp2565
g54
(dp2566
g81
g82
ssg63
g2555
sg56
(lp2567
S':'
asbag49
(g70
g51
NtRp2568
(dp2569
g54
(dp2570
sg63
g2555
sg56
(lp2571
g49
(g50
g51
NtRp2572
(dp2573
g54
(dp2574
g62
I3
ssg63
g2568
sg56
(lp2575
g1161
asbasbasbag49
(g65
g51
NtRp2576
(dp2577
g54
(dp2578
sg63
g2215
sg56
(lp2579
g49
(g70
g51
NtRp2580
(dp2581
g54
(dp2582
g74
g75
ssg63
g2576
sg56
(lp2583
S'SERVER_PORT'
p2584
asbag49
(g70
g51
NtRp2585
(dp2586
g54
(dp2587
g81
g82
ssg63
g2576
sg56
(lp2588
S':'
asbag49
(g70
g51
NtRp2589
(dp2590
g54
(dp2591
sg63
g2576
sg56
(lp2592
g49
(g50
g51
NtRp2593
(dp2594
g54
(dp2595
g62
I3
ssg63
g2589
sg56
(lp2596
g1183
asbasbasbag49
(g65
g51
NtRp2597
(dp2598
g54
(dp2599
sg63
g2215
sg56
(lp2600
g49
(g70
g51
NtRp2601
(dp2602
g54
(dp2603
g74
g75
ssg63
g2597
sg56
(lp2604
S'SERVER_PROTOCOL'
p2605
asbag49
(g70
g51
NtRp2606
(dp2607
g54
(dp2608
g81
g82
ssg63
g2597
sg56
(lp2609
S':'
asbag49
(g70
g51
NtRp2610
(dp2611
g54
(dp2612
sg63
g2597
sg56
(lp2613
g49
(g50
g51
NtRp2614
(dp2615
g54
(dp2616
g62
I3
ssg63
g2610
sg56
(lp2617
g1205
asbasbasbag49
(g65
g51
NtRp2618
(dp2619
g54
(dp2620
sg63
g2215
sg56
(lp2621
g49
(g70
g51
NtRp2622
(dp2623
g54
(dp2624
g74
g75
ssg63
g2618
sg56
(lp2625
S'SERVER_SOFTWARE'
p2626
asbag49
(g70
g51
NtRp2627
(dp2628
g54
(dp2629
g81
g82
ssg63
g2618
sg56
(lp2630
S':'
asbag49
(g70
g51
NtRp2631
(dp2632
g54
(dp2633
sg63
g2618
sg56
(lp2634
g49
(g50
g51
NtRp2635
(dp2636
g54
(dp2637
g62
I3
ssg63
g2631
sg56
(lp2638
g1227
asbasbasbag49
(g65
g51
NtRp2639
(dp2640
g54
(dp2641
sg63
g2215
sg56
(lp2642
g49
(g70
g51
NtRp2643
(dp2644
g54
(dp2645
g74
g75
ssg63
g2639
sg56
(lp2646
S'wsgi.errors'
p2647
asbag49
(g70
g51
NtRp2648
(dp2649
g54
(dp2650
g81
g82
ssg63
g2639
sg56
(lp2651
S':'
asbag49
(g70
g51
NtRp2652
(dp2653
g54
(dp2654
sg63
g2639
sg56
(lp2655
g49
(g50
g51
NtRp2656
(dp2657
g54
(dp2658
g62
I3
ssg63
g2652
sg56
(lp2659
S"<open file '<stderr>', mode 'w' at 0x008C00B0>"
p2660
asbasbasbag49
(g65
g51
NtRp2661
(dp2662
g54
(dp2663
sg63
g2215
sg56
(lp2664
g49
(g70
g51
NtRp2665
(dp2666
g54
(dp2667
g74
g75
ssg63
g2661
sg56
(lp2668
S'wsgi.file_wrapper'
p2669
asbag49
(g70
g51
NtRp2670
(dp2671
g54
(dp2672
g81
g82
ssg63
g2661
sg56
(lp2673
S':'
asbag49
(g70
g51
NtRp2674
(dp2675
g54
(dp2676
sg63
g2661
sg56
(lp2677
g49
(g50
g51
NtRp2678
(dp2679
g54
(dp2680
g62
I3
ssg63
g2674
sg56
(lp2681
S'<class wsgiref.util.FileWrapper at 0x02BC6900>'
p2682
asbasbasbag49
(g65
g51
NtRp2683
(dp2684
g54
(dp2685
sg63
g2215
sg56
(lp2686
g49
(g70
g51
NtRp2687
(dp2688
g54
(dp2689
g74
g75
ssg63
g2683
sg56
(lp2690
S'wsgi.input'
p2691
asbag49
(g70
g51
NtRp2692
(dp2693
g54
(dp2694
g81
g82
ssg63
g2683
sg56
(lp2695
S':'
asbag49
(g70
g51
NtRp2696
(dp2697
g54
(dp2698
sg63
g2683
sg56
(lp2699
g49
(g50
g51
NtRp2700
(dp2701
g54
(dp2702
g62
I3
ssg63
g2696
sg56
(lp2703
S'<cStringIO.StringO object at 0x0765B220>'
p2704
asbasbasbag49
(g65
g51
NtRp2705
(dp2706
g54
(dp2707
sg63
g2215
sg56
(lp2708
g49
(g70
g51
NtRp2709
(dp2710
g54
(dp2711
g74
g75
ssg63
g2705
sg56
(lp2712
S'wsgi.multiprocess'
p2713
asbag49
(g70
g51
NtRp2714
(dp2715
g54
(dp2716
g81
g82
ssg63
g2705
sg56
(lp2717
S':'
asbag49
(g70
g51
NtRp2718
(dp2719
g54
(dp2720
sg63
g2705
sg56
(lp2721
g49
(g50
g51
NtRp2722
(dp2723
g54
(dp2724
g62
I3
ssg63
g2718
sg56
(lp2725
g92
asbasbasbag49
(g65
g51
NtRp2726
(dp2727
g54
(dp2728
sg63
g2215
sg56
(lp2729
g49
(g70
g51
NtRp2730
(dp2731
g54
(dp2732
g74
g75
ssg63
g2726
sg56
(lp2733
S'wsgi.multithread'
p2734
asbag49
(g70
g51
NtRp2735
(dp2736
g54
(dp2737
g81
g82
ssg63
g2726
sg56
(lp2738
S':'
asbag49
(g70
g51
NtRp2739
(dp2740
g54
(dp2741
sg63
g2726
sg56
(lp2742
g49
(g50
g51
NtRp2743
(dp2744
g54
(dp2745
g62
I3
ssg63
g2739
sg56
(lp2746
g726
asbasbasbag49
(g65
g51
NtRp2747
(dp2748
g54
(dp2749
sg63
g2215
sg56
(lp2750
g49
(g70
g51
NtRp2751
(dp2752
g54
(dp2753
g74
g75
ssg63
g2747
sg56
(lp2754
S'wsgi.run_once'
p2755
asbag49
(g70
g51
NtRp2756
(dp2757
g54
(dp2758
g81
g82
ssg63
g2747
sg56
(lp2759
S':'
asbag49
(g70
g51
NtRp2760
(dp2761
g54
(dp2762
sg63
g2747
sg56
(lp2763
g49
(g50
g51
NtRp2764
(dp2765
g54
(dp2766
g62
I3
ssg63
g2760
sg56
(lp2767
g92
asbasbasbag49
(g65
g51
NtRp2768
(dp2769
g54
(dp2770
sg63
g2215
sg56
(lp2771
g49
(g70
g51
NtRp2772
(dp2773
g54
(dp2774
g74
g75
ssg63
g2768
sg56
(lp2775
S'wsgi.url_scheme'
p2776
asbag49
(g70
g51
NtRp2777
(dp2778
g54
(dp2779
g81
g82
ssg63
g2768
sg56
(lp2780
S':'
asbag49
(g70
g51
NtRp2781
(dp2782
g54
(dp2783
sg63
g2768
sg56
(lp2784
g49
(g50
g51
NtRp2785
(dp2786
g54
(dp2787
g62
I3
ssg63
g2781
sg56
(lp2788
g1509
asbasbasbag49
(g65
g51
NtRp2789
(dp2790
g54
(dp2791
sg63
g2215
sg56
(lp2792
g49
(g70
g51
NtRp2793
(dp2794
g54
(dp2795
g74
g75
ssg63
g2789
sg56
(lp2796
S'wsgi.version'
p2797
asbag49
(g70
g51
NtRp2798
(dp2799
g54
(dp2800
g81
g82
ssg63
g2789
sg56
(lp2801
S':'
asbag49
(g70
g51
NtRp2802
(dp2803
g54
(dp2804
sg63
g2789
sg56
(lp2805
g49
(g50
g51
NtRp2806
(dp2807
g54
(dp2808
g62
I3
ssg63
g2802
sg56
(lp2809
S'1'
asbasbasbasbasbasbasbasbasbasbasbasbasbsS'frames'
p2810
(lp2811
(dp2812
S'file'
p2813
S'C:\\Users\\Bussiere\\Dropbox\\Projets\\jackpoint\\web2py\\gluon\\restricted.py'
p2814
sS'dump'
p2815
(dp2816
sS'lnum'
p2817
I205
sS'lines'
p2818
(dp2819
I200
S'    try:'
p2820
sI201
S'        if type(code) == types.CodeType:'
p2821
sI202
S'            ccode = code'
p2822
sI203
S'        else:'
p2823
sI204
S'            ccode = compile2(code,layer)'
p2824
sI205
S'        exec ccode in environment'
p2825
sI206
S'    except HTTP:'
p2826
sI207
S'        raise'
p2827
sI208
S'    except RestrictedError:'
p2828
sI209
S'        # do not encapsulate (obfuscate) the original RestrictedError'
p2829
ssS'call'
p2830
S"(code='\\xef\\xbb\\xbf# -*- coding: utf-8 -*-\\n# this file is releas...esponse._vars=response._caller(inscriptioninvit)\\n', environment={'A': <class 'gluon.html.A'>, 'Auth': <class 'gluon.tools.Auth'>, 'AutocompleteWidget': <class 'gluon.sqlhtml.AutocompleteWidget'>, 'B': <class 'gluon.html.B'>, 'BEAUTIFY': <class 'gluon.html.BEAUTIFY'>, 'BODY': <class 'gluon.html.BODY'>, 'BR': <class 'gluon.html.BR'>, 'BUTTON': <class 'gluon.html.BUTTON'>, 'BooleanWidget': <class 'gluon.sqlhtml.BooleanWidget'>, 'CALLABLETYPES': (<type 'function'>, <type 'function'>, <type 'builtin_function_or_method'>, <type 'instancemethod'>, <type 'builtin_function_or_method'>), ...}, layer=r'C:\\Users\\Bussiere\\Dropbox\\Projets\\jackpoint\\web2py\\applications\\init\\controllers/default.py')"
p2831
sS'func'
p2832
S'restricted'
p2833
sa(dp2834
g2813
S'C:\\Users\\Bussiere\\Dropbox\\Projets\\jackpoint\\web2py\\applications\\init\\controllers\\default.py'
p2835
sg2815
(dp2836
sg2817
I681
sg2818
(dp2837
I672
S'    http://..../[app]/default/data/select/[table]'
p2838
sI673
S'    http://..../[app]/default/data/search/[table]'
p2839
sI674
S'    but URLs must be signed, i.e. linked with'
p2840
sI675
S"      A('table',_href=URL('data/tables',user_signature=True))"
p2841
sI676
S'    or with the signed load operator'
p2842
sI677
S"      LOAD('default','data.load',args='tables',ajax=True,user_signature=True)"
p2843
sI678
S'    """'
p2844
sI679
S'    return dict(form=crud())'
p2845
sI670
S'    http://..../[app]/default/data/update/[table]/[id]'
p2846
sI671
S'    http://..../[app]/default/data/delete/[table]/[id]'
p2847
ssg2830
S'()'
p2848
sg2832
S'<module>'
p2849
sa(dp2850
g2813
S'C:\\Users\\Bussiere\\Dropbox\\Projets\\jackpoint\\web2py\\gluon\\globals.py'
p2851
sg2815
(dp2852
sg2817
I173
sg2818
(dp2853
I168
S'        self.menu = []             # used by the default view layout'
p2854
sI169
S'        self.files = []            # used by web2py_ajax.html'
p2855
sI170
S'        self.generic_patterns = [] # patterns to allow generic views'
p2856
sI171
S"        self.delimiters = ('{{','}}')"
p2857
sI172
S'        self._vars = None'
p2858
sI173
S'        self._caller = lambda f: f()'
p2859
sI174
S'        self._view_environment = None'
p2860
sI175
S'        self._custom_commit = None'
p2861
sI176
S'        self._custom_rollback = None'
p2862
sI177
S''
ssg2830
S'(f=<function inscriptioninvit at 0x079F02B0>)'
p2863
sg2832
S'<lambda>'
p2864
sa(dp2865
g2813
S'C:\\Users\\Bussiere\\Dropbox\\Projets\\jackpoint\\web2py\\gluon\\tools.py'
p2866
sg2815
(dp2867
sg2817
I2575
sg2818
(dp2868
I2570
S'                    flag = condition'
p2869
sI2571
S'                if not flag:'
p2870
sI2572
S'                    current.session.flash = self.messages.access_denied'
p2871
sI2573
S'                    return call_or_redirect('
p2872
sI2574
S'                        self.settings.on_failed_authorization)'
p2873
sI2575
S'                return action(*a, **b)'
p2874
sI2576
S'            f.__doc__ = action.__doc__'
p2875
sI2577
S'            f.__name__ = action.__name__'
p2876
sI2578
S'            f.__dict__.update(action.__dict__)'
p2877
sI2579
S'            return f'
p2878
ssg2830
S'(*a=(), **b={})'
p2879
sg2832
S'f'
sa(dp2880
g2813
S'C:\\Users\\Bussiere\\Dropbox\\Projets\\jackpoint\\web2py\\applications\\init\\controllers\\default.py'
p2881
sg2815
(dp2882
sg2817
I395
sg2818
(dp2883
I390
S'        TD("Suggestion (Rajout,skills,caracs,items):"),'
p2884
sI391
S''
sI392
S'            ),'
p2885
sI393
S'    TR('
p2886
sI394
S'        TD('
p2887
sI395
S'            TEXTAREA(_name=\'suggestion\', _rows="4", _cols="140")'
p2888
sI396
S'            )'
p2889
sI397
S'        )'
p2890
sI398
S'    )'
p2891
sI399
S'    )'
p2892
ssg2830
S'()'
p2893
sg2832
S'inscriptioninvit'
p2894
sa(dp2895
g2813
S'C:\\Users\\Bussiere\\Dropbox\\Projets\\jackpoint\\web2py\\gluon\\dal.py'
p2896
sg2815
(dp2897
sg2817
I6548
sg2818
(dp2898
I6543
S'        :raises SyntaxError: when a supplied field is of incorrect type.'
p2899
sI6544
S'        """'
p2900
sI6545
S'        self._actual = False # set to True by define_table()'
p2901
sI6546
S'        self._tablename = tablename'
p2902
sI6547
S"        self._sequence_name = args.get('sequence_name',None) or \\"
p2903
sI6548
S'            db and db._adapter.sequence_name(tablename)'
p2904
sI6549
S"        self._trigger_name = args.get('trigger_name',None) or \\"
p2905
sI6550
S'            db and db._adapter.trigger_name(tablename)'
p2906
sI6551
S"        self._common_filter = args.get('common_filter', None)"
p2907
sI6552
S"        primarykey = args.get('primarykey', None)"
p2908
ssg2830
S"(self=<Table {'_actual': False, '_tablename': <gluon.html.TR object at 0x077D7A50>}>, db=<gluon.html.TR object at 0x077D7E30>, tablename=<gluon.html.TR object at 0x077D7A50>, *fields=(), **args={})"
p2909
sg2832
g42
sasS'pyver'
p2910
S'Python 2.5.4: C:\\Users\\Bussiere\\Dropbox\\Projets\\jackpoint\\web2py\\web2py.exe'
p2911
sS'session'
p2912
g49
(g50
g51
NtRp2913
(dp2914
g54
(dp2915
sg56
(lp2916
g49
(g58
g51
NtRp2917
(dp2918
g54
(dp2919
g62
I5
ssg63
Nsg56
(lp2920
g49
(g65
g51
NtRp2921
(dp2922
g54
(dp2923
sg63
g2917
sg56
(lp2924
g49
(g70
g51
NtRp2925
(dp2926
g54
(dp2927
g74
g75
ssg63
g2921
sg56
(lp2928
S'auth'
p2929
asbag49
(g70
g51
NtRp2930
(dp2931
g54
(dp2932
g81
g82
ssg63
g2921
sg56
(lp2933
S':'
asbag49
(g70
g51
NtRp2934
(dp2935
g54
(dp2936
sg63
g2921
sg56
(lp2937
g49
(g50
g51
NtRp2938
(dp2939
g54
(dp2940
g62
I5
ssg63
g2934
sg56
(lp2941
g49
(g58
g51
NtRp2942
(dp2943
g54
(dp2944
g62
I4
ssg63
Nsg56
(lp2945
g49
(g65
g51
NtRp2946
(dp2947
g54
(dp2948
sg63
g2942
sg56
(lp2949
g49
(g70
g51
NtRp2950
(dp2951
g54
(dp2952
g74
g75
ssg63
g2946
sg56
(lp2953
S'expiration'
p2954
asbag49
(g70
g51
NtRp2955
(dp2956
g54
(dp2957
g81
g82
ssg63
g2946
sg56
(lp2958
S':'
asbag49
(g70
g51
NtRp2959
(dp2960
g54
(dp2961
sg63
g2946
sg56
(lp2962
g49
(g50
g51
NtRp2963
(dp2964
g54
(dp2965
g62
I4
ssg63
g2959
sg56
(lp2966
S'3600'
p2967
asbasbasbag49
(g65
g51
NtRp2968
(dp2969
g54
(dp2970
sg63
g2942
sg56
(lp2971
g49
(g70
g51
NtRp2972
(dp2973
g54
(dp2974
g74
g75
ssg63
g2968
sg56
(lp2975
S'last_visit'
p2976
asbag49
(g70
g51
NtRp2977
(dp2978
g54
(dp2979
g81
g82
ssg63
g2968
sg56
(lp2980
S':'
asbag49
(g70
g51
NtRp2981
(dp2982
g54
(dp2983
sg63
g2968
sg56
(lp2984
g49
(g50
g51
NtRp2985
(dp2986
g54
(dp2987
g62
I4
ssg63
g2981
sg56
(lp2988
S'datetime.datetime(2012, 4, 2, 16, 52, 22, 428000)'
p2989
asbasbasbag49
(g65
g51
NtRp2990
(dp2991
g54
(dp2992
sg63
g2942
sg56
(lp2993
g49
(g70
g51
NtRp2994
(dp2995
g54
(dp2996
g74
g75
ssg63
g2990
sg56
(lp2997
S'user'
p2998
asbag49
(g70
g51
NtRp2999
(dp3000
g54
(dp3001
g81
g82
ssg63
g2990
sg56
(lp3002
S':'
asbag49
(g70
g51
NtRp3003
(dp3004
g54
(dp3005
sg63
g2990
sg56
(lp3006
g49
(g50
g51
NtRp3007
(dp3008
g54
(dp3009
g62
I4
ssg63
g3003
sg56
(lp3010
g49
(g58
g51
NtRp3011
(dp3012
g54
(dp3013
g62
I3
ssg63
Nsg56
(lp3014
g49
(g65
g51
NtRp3015
(dp3016
g54
(dp3017
sg63
g3011
sg56
(lp3018
g49
(g70
g51
NtRp3019
(dp3020
g54
(dp3021
g74
g75
ssg63
g3015
sg56
(lp3022
S'Items'
p3023
asbag49
(g70
g51
NtRp3024
(dp3025
g54
(dp3026
g81
g82
ssg63
g3015
sg56
(lp3027
S':'
asbag49
(g70
g51
NtRp3028
(dp3029
g54
(dp3030
sg63
g3015
sg56
(lp3031
g49
(g50
g51
NtRp3032
(dp3033
g54
(dp3034
g62
I3
ssg63
g3028
sg56
(lp3035
S'None'
p3036
asbasbasbag49
(g65
g51
NtRp3037
(dp3038
g54
(dp3039
sg63
g3011
sg56
(lp3040
g49
(g70
g51
NtRp3041
(dp3042
g54
(dp3043
g74
g75
ssg63
g3037
sg56
(lp3044
S'Skills'
p3045
asbag49
(g70
g51
NtRp3046
(dp3047
g54
(dp3048
g81
g82
ssg63
g3037
sg56
(lp3049
S':'
asbag49
(g70
g51
NtRp3050
(dp3051
g54
(dp3052
sg63
g3037
sg56
(lp3053
g49
(g50
g51
NtRp3054
(dp3055
g54
(dp3056
g62
I3
ssg63
g3050
sg56
(lp3057
S'None'
p3058
asbasbasbag49
(g65
g51
NtRp3059
(dp3060
g54
(dp3061
sg63
g3011
sg56
(lp3062
g49
(g70
g51
NtRp3063
(dp3064
g54
(dp3065
g74
g75
ssg63
g3059
sg56
(lp3066
S'email'
p3067
asbag49
(g70
g51
NtRp3068
(dp3069
g54
(dp3070
g81
g82
ssg63
g3059
sg56
(lp3071
S':'
asbag49
(g70
g51
NtRp3072
(dp3073
g54
(dp3074
sg63
g3059
sg56
(lp3075
g49
(g50
g51
NtRp3076
(dp3077
g54
(dp3078
g62
I3
ssg63
g3072
sg56
(lp3079
S'ttb@gmail.com'
p3080
asbasbasbag49
(g65
g51
NtRp3081
(dp3082
g54
(dp3083
sg63
g3011
sg56
(lp3084
g49
(g70
g51
NtRp3085
(dp3086
g54
(dp3087
g74
g75
ssg63
g3081
sg56
(lp3088
S'id'
p3089
asbag49
(g70
g51
NtRp3090
(dp3091
g54
(dp3092
g81
g82
ssg63
g3081
sg56
(lp3093
S':'
asbag49
(g70
g51
NtRp3094
(dp3095
g54
(dp3096
sg63
g3081
sg56
(lp3097
g49
(g50
g51
NtRp3098
(dp3099
g54
(dp3100
g62
I3
ssg63
g3094
sg56
(lp3101
S'19'
p3102
asbasbasbag49
(g65
g51
NtRp3103
(dp3104
g54
(dp3105
sg63
g3011
sg56
(lp3106
g49
(g70
g51
NtRp3107
(dp3108
g54
(dp3109
g74
g75
ssg63
g3103
sg56
(lp3110
S'password'
p3111
asbag49
(g70
g51
NtRp3112
(dp3113
g54
(dp3114
g81
g82
ssg63
g3103
sg56
(lp3115
S':'
asbag49
(g70
g51
NtRp3116
(dp3117
g54
(dp3118
sg63
g3103
sg56
(lp3119
g49
(g50
g51
NtRp3120
(dp3121
g54
(dp3122
g62
I3
ssg63
g3116
sg56
(lp3123
S'2ee032ef01e682517e5c64427c6c1d23'
p3124
asbasbasbag49
(g65
g51
NtRp3125
(dp3126
g54
(dp3127
sg63
g3011
sg56
(lp3128
g49
(g70
g51
NtRp3129
(dp3130
g54
(dp3131
g74
g75
ssg63
g3125
sg56
(lp3132
S'registration_id'
p3133
asbag49
(g70
g51
NtRp3134
(dp3135
g54
(dp3136
g81
g82
ssg63
g3125
sg56
(lp3137
S':'
asbag49
(g70
g51
NtRp3138
(dp3139
g54
(dp3140
sg63
g3125
sg56
(lp3141
g49
(g50
g51
NtRp3142
(dp3143
g54
(dp3144
g62
I3
ssg63
g3138
sg56
(lp3145
S''
asbasbasbag49
(g65
g51
NtRp3146
(dp3147
g54
(dp3148
sg63
g3011
sg56
(lp3149
g49
(g70
g51
NtRp3150
(dp3151
g54
(dp3152
g74
g75
ssg63
g3146
sg56
(lp3153
S'registration_key'
p3154
asbag49
(g70
g51
NtRp3155
(dp3156
g54
(dp3157
g81
g82
ssg63
g3146
sg56
(lp3158
S':'
asbag49
(g70
g51
NtRp3159
(dp3160
g54
(dp3161
sg63
g3146
sg56
(lp3162
g49
(g50
g51
NtRp3163
(dp3164
g54
(dp3165
g62
I3
ssg63
g3159
sg56
(lp3166
S''
asbasbasbag49
(g65
g51
NtRp3167
(dp3168
g54
(dp3169
sg63
g3011
sg56
(lp3170
g49
(g70
g51
NtRp3171
(dp3172
g54
(dp3173
g74
g75
ssg63
g3167
sg56
(lp3174
S'reset_password_key'
p3175
asbag49
(g70
g51
NtRp3176
(dp3177
g54
(dp3178
g81
g82
ssg63
g3167
sg56
(lp3179
S':'
asbag49
(g70
g51
NtRp3180
(dp3181
g54
(dp3182
sg63
g3167
sg56
(lp3183
g49
(g50
g51
NtRp3184
(dp3185
g54
(dp3186
g62
I3
ssg63
g3180
sg56
(lp3187
S''
asbasbasbag49
(g65
g51
NtRp3188
(dp3189
g54
(dp3190
sg63
g3011
sg56
(lp3191
g49
(g70
g51
NtRp3192
(dp3193
g54
(dp3194
g74
g75
ssg63
g3188
sg56
(lp3195
S'username'
p3196
asbag49
(g70
g51
NtRp3197
(dp3198
g54
(dp3199
g81
g82
ssg63
g3188
sg56
(lp3200
S':'
asbag49
(g70
g51
NtRp3201
(dp3202
g54
(dp3203
sg63
g3188
sg56
(lp3204
g49
(g50
g51
NtRp3205
(dp3206
g54
(dp3207
g62
I3
ssg63
g3201
sg56
(lp3208
S'John_Doe'
p3209
asbasbasbag49
(g65
g51
NtRp3210
(dp3211
g54
(dp3212
sg63
g3011
sg56
(lp3213
g49
(g70
g51
NtRp3214
(dp3215
g54
(dp3216
g74
g75
ssg63
g3210
sg56
(lp3217
S'validated'
p3218
asbag49
(g70
g51
NtRp3219
(dp3220
g54
(dp3221
g81
g82
ssg63
g3210
sg56
(lp3222
S':'
asbag49
(g70
g51
NtRp3223
(dp3224
g54
(dp3225
sg63
g3210
sg56
(lp3226
g49
(g50
g51
NtRp3227
(dp3228
g54
(dp3229
g62
I3
ssg63
g3223
sg56
(lp3230
g92
asbasbasbasbasbasbasbasbasbasbasbasbasbsS'etype'
p3231
S"<type 'exceptions.AttributeError'>"
p3232
sS'date'
p3233
S'Mon Apr 02 16:52:23 2012'
p3234
sS'response'
p3235
g49
(g50
g51
NtRp3236
(dp3237
g54
(dp3238
sg56
(lp3239
g49
(g58
g51
NtRp3240
(dp3241
g54
(dp3242
g62
I5
ssg63
Nsg56
(lp3243
g49
(g65
g51
NtRp3244
(dp3245
g54
(dp3246
sg63
g3240
sg56
(lp3247
g49
(g70
g51
NtRp3248
(dp3249
g54
(dp3250
g74
g75
ssg63
g3244
sg56
(lp3251
g147
asbag49
(g70
g51
NtRp3252
(dp3253
g54
(dp3254
g81
g82
ssg63
g3244
sg56
(lp3255
S':'
asbag49
(g70
g51
NtRp3256
(dp3257
g54
(dp3258
sg63
g3244
sg56
(lp3259
g49
(g50
g51
NtRp3260
(dp3261
g54
(dp3262
g62
I5
ssg63
g3256
sg56
(lp3263
S'<cStringIO.StringO object at 0x0765BC80>'
p3264
asbasbasbag49
(g65
g51
NtRp3265
(dp3266
g54
(dp3267
sg63
g3240
sg56
(lp3268
g49
(g70
g51
NtRp3269
(dp3270
g54
(dp3271
g74
g75
ssg63
g3265
sg56
(lp3272
g213
asbag49
(g70
g51
NtRp3273
(dp3274
g54
(dp3275
g81
g82
ssg63
g3265
sg56
(lp3276
S':'
asbag49
(g70
g51
NtRp3277
(dp3278
g54
(dp3279
sg63
g3265
sg56
(lp3280
g49
(g50
g51
NtRp3281
(dp3282
g54
(dp3283
g62
I5
ssg63
g3277
sg56
(lp3284
g49
(g58
g51
NtRp3285
(dp3286
g54
(dp3287
g62
I4
ssg63
Nsg56
(lp3288
g49
(g65
g51
NtRp3289
(dp3290
g54
(dp3291
sg63
g3285
sg56
(lp3292
g49
(g70
g51
NtRp3293
(dp3294
g54
(dp3295
g74
g75
ssg63
g3289
sg56
(lp3296
S'session_id_init'
p3297
asbag49
(g70
g51
NtRp3298
(dp3299
g54
(dp3300
g81
g82
ssg63
g3289
sg56
(lp3301
S':'
asbag49
(g70
g51
NtRp3302
(dp3303
g54
(dp3304
sg63
g3289
sg56
(lp3305
g49
(g50
g51
NtRp3306
(dp3307
g54
(dp3308
g62
I4
ssg63
g3302
sg56
(lp3309
g49
(g58
g51
NtRp3310
(dp3311
g54
(dp3312
g62
I3
ssg63
Nsg56
(lp3313
g49
(g65
g51
NtRp3314
(dp3315
g54
(dp3316
sg63
g3310
sg56
(lp3317
g49
(g70
g51
NtRp3318
(dp3319
g54
(dp3320
g74
g75
ssg63
g3314
sg56
(lp3321
g263
asbag49
(g70
g51
NtRp3322
(dp3323
g54
(dp3324
g81
g82
ssg63
g3314
sg56
(lp3325
S':'
asbag49
(g70
g51
NtRp3326
(dp3327
g54
(dp3328
sg63
g3314
sg56
(lp3329
g49
(g50
g51
NtRp3330
(dp3331
g54
(dp3332
g62
I3
ssg63
g3326
sg56
(lp3333
S''
asbasbasbag49
(g65
g51
NtRp3334
(dp3335
g54
(dp3336
sg63
g3310
sg56
(lp3337
g49
(g70
g51
NtRp3338
(dp3339
g54
(dp3340
g74
g75
ssg63
g3334
sg56
(lp3341
g284
asbag49
(g70
g51
NtRp3342
(dp3343
g54
(dp3344
g81
g82
ssg63
g3334
sg56
(lp3345
S':'
asbag49
(g70
g51
NtRp3346
(dp3347
g54
(dp3348
sg63
g3334
sg56
(lp3349
g49
(g50
g51
NtRp3350
(dp3351
g54
(dp3352
g62
I3
ssg63
g3346
sg56
(lp3353
S''
asbasbasbag49
(g65
g51
NtRp3354
(dp3355
g54
(dp3356
sg63
g3310
sg56
(lp3357
g49
(g70
g51
NtRp3358
(dp3359
g54
(dp3360
g74
g75
ssg63
g3354
sg56
(lp3361
g305
asbag49
(g70
g51
NtRp3362
(dp3363
g54
(dp3364
g81
g82
ssg63
g3354
sg56
(lp3365
S':'
asbag49
(g70
g51
NtRp3366
(dp3367
g54
(dp3368
sg63
g3354
sg56
(lp3369
g49
(g50
g51
NtRp3370
(dp3371
g54
(dp3372
g62
I3
ssg63
g3366
sg56
(lp3373
S''
asbasbasbag49
(g65
g51
NtRp3374
(dp3375
g54
(dp3376
sg63
g3310
sg56
(lp3377
g49
(g70
g51
NtRp3378
(dp3379
g54
(dp3380
g74
g75
ssg63
g3374
sg56
(lp3381
g326
asbag49
(g70
g51
NtRp3382
(dp3383
g54
(dp3384
g81
g82
ssg63
g3374
sg56
(lp3385
S':'
asbag49
(g70
g51
NtRp3386
(dp3387
g54
(dp3388
sg63
g3374
sg56
(lp3389
g49
(g50
g51
NtRp3390
(dp3391
g54
(dp3392
g62
I3
ssg63
g3386
sg56
(lp3393
S''
asbasbasbag49
(g65
g51
NtRp3394
(dp3395
g54
(dp3396
sg63
g3310
sg56
(lp3397
g49
(g70
g51
NtRp3398
(dp3399
g54
(dp3400
g74
g75
ssg63
g3394
sg56
(lp3401
g347
asbag49
(g70
g51
NtRp3402
(dp3403
g54
(dp3404
g81
g82
ssg63
g3394
sg56
(lp3405
S':'
asbag49
(g70
g51
NtRp3406
(dp3407
g54
(dp3408
sg63
g3394
sg56
(lp3409
g49
(g50
g51
NtRp3410
(dp3411
g54
(dp3412
g62
I3
ssg63
g3406
sg56
(lp3413
S'/'
asbasbasbag49
(g65
g51
NtRp3414
(dp3415
g54
(dp3416
sg63
g3310
sg56
(lp3417
g49
(g70
g51
NtRp3418
(dp3419
g54
(dp3420
g74
g75
ssg63
g3414
sg56
(lp3421
g368
asbag49
(g70
g51
NtRp3422
(dp3423
g54
(dp3424
g81
g82
ssg63
g3414
sg56
(lp3425
S':'
asbag49
(g70
g51
NtRp3426
(dp3427
g54
(dp3428
sg63
g3414
sg56
(lp3429
g49
(g50
g51
NtRp3430
(dp3431
g54
(dp3432
g62
I3
ssg63
g3426
sg56
(lp3433
S''
asbasbasbag49
(g65
g51
NtRp3434
(dp3435
g54
(dp3436
sg63
g3310
sg56
(lp3437
g49
(g70
g51
NtRp3438
(dp3439
g54
(dp3440
g74
g75
ssg63
g3434
sg56
(lp3441
g389
asbag49
(g70
g51
NtRp3442
(dp3443
g54
(dp3444
g81
g82
ssg63
g3434
sg56
(lp3445
S':'
asbag49
(g70
g51
NtRp3446
(dp3447
g54
(dp3448
sg63
g3434
sg56
(lp3449
g49
(g50
g51
NtRp3450
(dp3451
g54
(dp3452
g62
I3
ssg63
g3446
sg56
(lp3453
S''
asbasbasbasbasbasbasbasbasbasbasbag49
(g65
g51
NtRp3454
(dp3455
g54
(dp3456
sg63
g3240
sg56
(lp3457
g49
(g70
g51
NtRp3458
(dp3459
g54
(dp3460
g74
g75
ssg63
g3454
sg56
(lp3461
S'delimiters'
p3462
asbag49
(g70
g51
NtRp3463
(dp3464
g54
(dp3465
g81
g82
ssg63
g3454
sg56
(lp3466
S':'
asbag49
(g70
g51
NtRp3467
(dp3468
g54
(dp3469
sg63
g3454
sg56
(lp3470
g49
(g50
g51
NtRp3471
(dp3472
g54
(dp3473
g62
I5
ssg63
g3467
sg56
(lp3474
g49
(g58
g51
NtRp3475
(dp3476
g54
(dp3477
g62
I4
ssg63
Nsg56
(lp3478
g49
(g65
g51
NtRp3479
(dp3480
g54
(dp3481
sg63
g3475
sg56
(lp3482
g49
(g70
g51
NtRp3483
(dp3484
g54
(dp3485
sg63
g3479
sg56
(lp3486
g49
(g50
g51
NtRp3487
(dp3488
g54
(dp3489
g62
I4
ssg63
g3483
sg56
(lp3490
S'{{'
p3491
asbasbasbag49
(g65
g51
NtRp3492
(dp3493
g54
(dp3494
sg63
g3475
sg56
(lp3495
g49
(g70
g51
NtRp3496
(dp3497
g54
(dp3498
sg63
g3492
sg56
(lp3499
g49
(g50
g51
NtRp3500
(dp3501
g54
(dp3502
g62
I4
ssg63
g3496
sg56
(lp3503
S'}}'
p3504
asbasbasbasbasbasbasbag49
(g65
g51
NtRp3505
(dp3506
g54
(dp3507
sg63
g3240
sg56
(lp3508
g49
(g70
g51
NtRp3509
(dp3510
g54
(dp3511
g74
g75
ssg63
g3505
sg56
(lp3512
S'files'
p3513
asbag49
(g70
g51
NtRp3514
(dp3515
g54
(dp3516
g81
g82
ssg63
g3505
sg56
(lp3517
S':'
asbag49
(g70
g51
NtRp3518
(dp3519
g54
(dp3520
sg63
g3505
sg56
(lp3521
g49
(g50
g51
NtRp3522
(dp3523
g54
(dp3524
g62
I5
ssg63
g3518
sg56
(lp3525
g49
(g58
g51
NtRp3526
(dp3527
g54
(dp3528
g62
I4
ssg63
Nsg56
(lp3529
sbasbasbasbag49
(g65
g51
NtRp3530
(dp3531
g54
(dp3532
sg63
g3240
sg56
(lp3533
g49
(g70
g51
NtRp3534
(dp3535
g54
(dp3536
g74
g75
ssg63
g3530
sg56
(lp3537
S'flash'
p3538
asbag49
(g70
g51
NtRp3539
(dp3540
g54
(dp3541
g81
g82
ssg63
g3530
sg56
(lp3542
S':'
asbag49
(g70
g51
NtRp3543
(dp3544
g54
(dp3545
sg63
g3530
sg56
(lp3546
g49
(g50
g51
NtRp3547
(dp3548
g54
(dp3549
g62
I5
ssg63
g3543
sg56
(lp3550
S''
asbasbasbag49
(g65
g51
NtRp3551
(dp3552
g54
(dp3553
sg63
g3240
sg56
(lp3554
g49
(g70
g51
NtRp3555
(dp3556
g54
(dp3557
g74
g75
ssg63
g3551
sg56
(lp3558
S'generic_patterns'
p3559
asbag49
(g70
g51
NtRp3560
(dp3561
g54
(dp3562
g81
g82
ssg63
g3551
sg56
(lp3563
S':'
asbag49
(g70
g51
NtRp3564
(dp3565
g54
(dp3566
sg63
g3551
sg56
(lp3567
g49
(g50
g51
NtRp3568
(dp3569
g54
(dp3570
g62
I5
ssg63
g3564
sg56
(lp3571
g49
(g58
g51
NtRp3572
(dp3573
g54
(dp3574
g62
I4
ssg63
Nsg56
(lp3575
g49
(g65
g51
NtRp3576
(dp3577
g54
(dp3578
sg63
g3572
sg56
(lp3579
g49
(g70
g51
NtRp3580
(dp3581
g54
(dp3582
sg63
g3576
sg56
(lp3583
g49
(g50
g51
NtRp3584
(dp3585
g54
(dp3586
g62
I4
ssg63
g3580
sg56
(lp3587
S'*'
asbasbasbasbasbasbasbag49
(g65
g51
NtRp3588
(dp3589
g54
(dp3590
sg63
g3240
sg56
(lp3591
g49
(g70
g51
NtRp3592
(dp3593
g54
(dp3594
g74
g75
ssg63
g3588
sg56
(lp3595
S'headers'
p3596
asbag49
(g70
g51
NtRp3597
(dp3598
g54
(dp3599
g81
g82
ssg63
g3588
sg56
(lp3600
S':'
asbag49
(g70
g51
NtRp3601
(dp3602
g54
(dp3603
sg63
g3588
sg56
(lp3604
g49
(g50
g51
NtRp3605
(dp3606
g54
(dp3607
g62
I5
ssg63
g3601
sg56
(lp3608
g49
(g58
g51
NtRp3609
(dp3610
g54
(dp3611
g62
I4
ssg63
Nsg56
(lp3612
g49
(g65
g51
NtRp3613
(dp3614
g54
(dp3615
sg63
g3609
sg56
(lp3616
g49
(g70
g51
NtRp3617
(dp3618
g54
(dp3619
g74
g75
ssg63
g3613
sg56
(lp3620
S'Cache-Control'
p3621
asbag49
(g70
g51
NtRp3622
(dp3623
g54
(dp3624
g81
g82
ssg63
g3613
sg56
(lp3625
S':'
asbag49
(g70
g51
NtRp3626
(dp3627
g54
(dp3628
sg63
g3613
sg56
(lp3629
g49
(g50
g51
NtRp3630
(dp3631
g54
(dp3632
g62
I4
ssg63
g3626
sg56
(lp3633
S'no-store, no-cache, must-revalidate, post-check=0, pre-check=0'
p3634
asbasbasbag49
(g65
g51
NtRp3635
(dp3636
g54
(dp3637
sg63
g3609
sg56
(lp3638
g49
(g70
g51
NtRp3639
(dp3640
g54
(dp3641
g74
g75
ssg63
g3635
sg56
(lp3642
S'Content-Type'
p3643
asbag49
(g70
g51
NtRp3644
(dp3645
g54
(dp3646
g81
g82
ssg63
g3635
sg56
(lp3647
S':'
asbag49
(g70
g51
NtRp3648
(dp3649
g54
(dp3650
sg63
g3635
sg56
(lp3651
g49
(g50
g51
NtRp3652
(dp3653
g54
(dp3654
g62
I4
ssg63
g3648
sg56
(lp3655
S'text/html; charset=utf-8'
p3656
asbasbasbag49
(g65
g51
NtRp3657
(dp3658
g54
(dp3659
sg63
g3609
sg56
(lp3660
g49
(g70
g51
NtRp3661
(dp3662
g54
(dp3663
g74
g75
ssg63
g3657
sg56
(lp3664
S'Expires'
p3665
asbag49
(g70
g51
NtRp3666
(dp3667
g54
(dp3668
g81
g82
ssg63
g3657
sg56
(lp3669
S':'
asbag49
(g70
g51
NtRp3670
(dp3671
g54
(dp3672
sg63
g3657
sg56
(lp3673
g49
(g50
g51
NtRp3674
(dp3675
g54
(dp3676
g62
I4
ssg63
g3670
sg56
(lp3677
S'Mon, 02 Apr 2012 14:52:22 GMT'
p3678
asbasbasbag49
(g65
g51
NtRp3679
(dp3680
g54
(dp3681
sg63
g3609
sg56
(lp3682
g49
(g70
g51
NtRp3683
(dp3684
g54
(dp3685
g74
g75
ssg63
g3679
sg56
(lp3686
S'Pragma'
p3687
asbag49
(g70
g51
NtRp3688
(dp3689
g54
(dp3690
g81
g82
ssg63
g3679
sg56
(lp3691
S':'
asbag49
(g70
g51
NtRp3692
(dp3693
g54
(dp3694
sg63
g3679
sg56
(lp3695
g49
(g50
g51
NtRp3696
(dp3697
g54
(dp3698
g62
I4
ssg63
g3692
sg56
(lp3699
S'no-cache'
p3700
asbasbasbag49
(g65
g51
NtRp3701
(dp3702
g54
(dp3703
sg63
g3609
sg56
(lp3704
g49
(g70
g51
NtRp3705
(dp3706
g54
(dp3707
g74
g75
ssg63
g3701
sg56
(lp3708
S'X-Powered-By'
p3709
asbag49
(g70
g51
NtRp3710
(dp3711
g54
(dp3712
g81
g82
ssg63
g3701
sg56
(lp3713
S':'
asbag49
(g70
g51
NtRp3714
(dp3715
g54
(dp3716
sg63
g3701
sg56
(lp3717
g49
(g50
g51
NtRp3718
(dp3719
g54
(dp3720
g62
I4
ssg63
g3714
sg56
(lp3721
S'web2py'
p3722
asbasbasbasbasbasbasbag49
(g65
g51
NtRp3723
(dp3724
g54
(dp3725
sg63
g3240
sg56
(lp3726
g49
(g70
g51
NtRp3727
(dp3728
g54
(dp3729
g74
g75
ssg63
g3723
sg56
(lp3730
S'menu'
p3731
asbag49
(g70
g51
NtRp3732
(dp3733
g54
(dp3734
g81
g82
ssg63
g3723
sg56
(lp3735
S':'
asbag49
(g70
g51
NtRp3736
(dp3737
g54
(dp3738
sg63
g3723
sg56
(lp3739
g49
(g50
g51
NtRp3740
(dp3741
g54
(dp3742
g62
I5
ssg63
g3736
sg56
(lp3743
g49
(g58
g51
NtRp3744
(dp3745
g54
(dp3746
g62
I4
ssg63
Nsg56
(lp3747
g49
(g65
g51
NtRp3748
(dp3749
g54
(dp3750
sg63
g3744
sg56
(lp3751
g49
(g70
g51
NtRp3752
(dp3753
g54
(dp3754
sg63
g3748
sg56
(lp3755
g49
(g50
g51
NtRp3756
(dp3757
g54
(dp3758
g62
I4
ssg63
g3752
sg56
(lp3759
g49
(g58
g51
NtRp3760
(dp3761
g54
(dp3762
g62
I3
ssg63
Nsg56
(lp3763
g49
(g65
g51
NtRp3764
(dp3765
g54
(dp3766
sg63
g3760
sg56
(lp3767
g49
(g70
g51
NtRp3768
(dp3769
g54
(dp3770
sg63
g3764
sg56
(lp3771
g49
(g50
g51
NtRp3772
(dp3773
g54
(dp3774
g62
I3
ssg63
g3768
sg56
(lp3775
cgluon.languages
lazyT_unpickle
p3776
(S's\x04\x00\x00\x00Home'
tRp3777
asbasbasbag49
(g65
g51
NtRp3778
(dp3779
g54
(dp3780
sg63
g3760
sg56
(lp3781
g49
(g70
g51
NtRp3782
(dp3783
g54
(dp3784
sg63
g3778
sg56
(lp3785
g49
(g50
g51
NtRp3786
(dp3787
g54
(dp3788
g62
I3
ssg63
g3782
sg56
(lp3789
g92
asbasbasbag49
(g65
g51
NtRp3790
(dp3791
g54
(dp3792
sg63
g3760
sg56
(lp3793
g49
(g70
g51
NtRp3794
(dp3795
g54
(dp3796
sg63
g3790
sg56
(lp3797
g49
(g50
g51
NtRp3798
(dp3799
g54
(dp3800
g62
I3
ssg63
g3794
sg56
(lp3801
S'/init/default/index'
p3802
asbasbasbag49
(g65
g51
NtRp3803
(dp3804
g54
(dp3805
sg63
g3760
sg56
(lp3806
g49
(g70
g51
NtRp3807
(dp3808
g54
(dp3809
sg63
g3803
sg56
(lp3810
g49
(g50
g51
NtRp3811
(dp3812
g54
(dp3813
g62
I3
ssg63
g3807
sg56
(lp3814
g49
(g58
g51
NtRp3815
(dp3816
g54
(dp3817
g62
I2
ssg63
Nsg56
(lp3818
sbasbasbasbasbasbasbasbag49
(g65
g51
NtRp3819
(dp3820
g54
(dp3821
sg63
g3744
sg56
(lp3822
g49
(g70
g51
NtRp3823
(dp3824
g54
(dp3825
sg63
g3819
sg56
(lp3826
g49
(g50
g51
NtRp3827
(dp3828
g54
(dp3829
g62
I4
ssg63
g3823
sg56
(lp3830
g49
(g58
g51
NtRp3831
(dp3832
g54
(dp3833
g62
I3
ssg63
Nsg56
(lp3834
g49
(g65
g51
NtRp3835
(dp3836
g54
(dp3837
sg63
g3831
sg56
(lp3838
g49
(g70
g51
NtRp3839
(dp3840
g54
(dp3841
sg63
g3835
sg56
(lp3842
g49
(g50
g51
NtRp3843
(dp3844
g54
(dp3845
g62
I3
ssg63
g3839
sg56
(lp3846
g49
(cgluon.html
SPAN
p3847
g51
NtRp3848
(dp3849
g54
(dp3850
g74
S'color:yellow'
p3851
ssg63
Nsg56
(lp3852
g3722
asbasbasbasbag49
(g65
g51
NtRp3853
(dp3854
g54
(dp3855
sg63
g3831
sg56
(lp3856
g49
(g70
g51
NtRp3857
(dp3858
g54
(dp3859
sg63
g3853
sg56
(lp3860
g49
(g50
g51
NtRp3861
(dp3862
g54
(dp3863
g62
I3
ssg63
g3857
sg56
(lp3864
g92
asbasbasbag49
(g65
g51
NtRp3865
(dp3866
g54
(dp3867
sg63
g3831
sg56
(lp3868
g49
(g70
g51
NtRp3869
(dp3870
g54
(dp3871
sg63
g3865
sg56
(lp3872
g49
(g50
g51
NtRp3873
(dp3874
g54
(dp3875
g62
I3
ssg63
g3869
sg56
(lp3876
S'None'
p3877
asbasbasbag49
(g65
g51
NtRp3878
(dp3879
g54
(dp3880
sg63
g3831
sg56
(lp3881
g49
(g70
g51
NtRp3882
(dp3883
g54
(dp3884
sg63
g3878
sg56
(lp3885
g49
(g50
g51
NtRp3886
(dp3887
g54
(dp3888
g62
I3
ssg63
g3882
sg56
(lp3889
g49
(g58
g51
NtRp3890
(dp3891
g54
(dp3892
g62
I2
ssg63
Nsg56
(lp3893
g49
(g65
g51
NtRp3894
(dp3895
g54
(dp3896
sg63
g3890
sg56
(lp3897
g49
(g70
g51
NtRp3898
(dp3899
g54
(dp3900
sg63
g3894
sg56
(lp3901
g49
(g50
g51
NtRp3902
(dp3903
g54
(dp3904
g62
I2
ssg63
g3898
sg56
(lp3905
g49
(g58
g51
NtRp3906
(dp3907
g54
(dp3908
g62
I1
ssg63
Nsg56
(lp3909
g49
(g65
g51
NtRp3910
(dp3911
g54
(dp3912
sg63
g3906
sg56
(lp3913
g49
(g70
g51
NtRp3914
(dp3915
g54
(dp3916
sg63
g3910
sg56
(lp3917
g49
(g50
g51
NtRp3918
(dp3919
g54
(dp3920
g62
I1
ssg63
g3914
sg56
(lp3921
g3776
(S's\x08\x00\x00\x00My Sites'
tRp3922
asbasbasbag49
(g65
g51
NtRp3923
(dp3924
g54
(dp3925
sg63
g3906
sg56
(lp3926
g49
(g70
g51
NtRp3927
(dp3928
g54
(dp3929
sg63
g3923
sg56
(lp3930
g49
(g50
g51
NtRp3931
(dp3932
g54
(dp3933
g62
I1
ssg63
g3927
sg56
(lp3934
I00
asbasbasbag49
(g65
g51
NtRp3935
(dp3936
g54
(dp3937
sg63
g3906
sg56
(lp3938
g49
(g70
g51
NtRp3939
(dp3940
g54
(dp3941
sg63
g3935
sg56
(lp3942
g49
(g50
g51
NtRp3943
(dp3944
g54
(dp3945
g62
I1
ssg63
g3939
sg56
(lp3946
S'/admin/default/site'
p3947
asbasbasbasbasbasbasbag49
(g65
g51
NtRp3948
(dp3949
g54
(dp3950
sg63
g3890
sg56
(lp3951
g49
(g70
g51
NtRp3952
(dp3953
g54
(dp3954
sg63
g3948
sg56
(lp3955
g49
(g50
g51
NtRp3956
(dp3957
g54
(dp3958
g62
I2
ssg63
g3952
sg56
(lp3959
g49
(g58
g51
NtRp3960
(dp3961
g54
(dp3962
g62
I1
ssg63
Nsg56
(lp3963
g49
(g65
g51
NtRp3964
(dp3965
g54
(dp3966
sg63
g3960
sg56
(lp3967
g49
(g70
g51
NtRp3968
(dp3969
g54
(dp3970
sg63
g3964
sg56
(lp3971
g49
(g50
g51
NtRp3972
(dp3973
g54
(dp3974
g62
I1
ssg63
g3968
sg56
(lp3975
g3776
(S's\x08\x00\x00\x00This App'
tRp3976
asbasbasbag49
(g65
g51
NtRp3977
(dp3978
g54
(dp3979
sg63
g3960
sg56
(lp3980
g49
(g70
g51
NtRp3981
(dp3982
g54
(dp3983
sg63
g3977
sg56
(lp3984
g49
(g50
g51
NtRp3985
(dp3986
g54
(dp3987
g62
I1
ssg63
g3981
sg56
(lp3988
I00
asbasbasbag49
(g65
g51
NtRp3989
(dp3990
g54
(dp3991
sg63
g3960
sg56
(lp3992
g49
(g70
g51
NtRp3993
(dp3994
g54
(dp3995
sg63
g3989
sg56
(lp3996
g49
(g50
g51
NtRp3997
(dp3998
g54
(dp3999
g62
I1
ssg63
g3993
sg56
(lp4000
S'/admin/default/design/init'
p4001
asbasbasbag49
(g65
g51
NtRp4002
(dp4003
g54
(dp4004
sg63
g3960
sg56
(lp4005
g49
(g70
g51
NtRp4006
(dp4007
g54
(dp4008
sg63
g4002
sg56
(lp4009
g49
(g50
g51
NtRp4010
(dp4011
g54
(dp4012
g62
I1
ssg63
g4006
sg56
(lp4013
(lp4014
(g3776
(S's\n\x00\x00\x00Controller'
tRp4015
I00
S'/admin/default/edit/init/controllers/default.py'
tp4016
a(g3776
(S's\x04\x00\x00\x00View'
tRp4017
I00
S'/admin/default/edit/init/views/default/inscriptioninvit.html'
tp4018
a(g3776
(S's\x06\x00\x00\x00Layout'
tRp4019
I00
S'/admin/default/edit/init/views/layout.html'
tp4020
a(g3776
(S's\n\x00\x00\x00Stylesheet'
tRp4021
I00
S'/admin/default/edit/init/static/css/web2py.css'
tp4022
a(g3776
(S's\x08\x00\x00\x00DB Model'
tRp4023
I00
S'/admin/default/edit/init/models/db.py'
tp4024
a(g3776
(S's\n\x00\x00\x00Menu Model'
tRp4025
I00
S'/admin/default/edit/init/models/menu.py'
tp4026
a(g3776
(S's\x08\x00\x00\x00Database'
tRp4027
I00
S'/init/appadmin/index'
tp4028
a(g3776
(S's\x06\x00\x00\x00Errors'
tRp4029
I00
S'/admin/default/errors/init'
tp4030
a(g3776
(S's\x05\x00\x00\x00About'
tRp4031
I00
S'/admin/default/about/init'
tp4032
aasbasbasbasbasbasbasbag49
(g65
g51
NtRp4033
(dp4034
g54
(dp4035
sg63
g3890
sg56
(lp4036
g49
(g70
g51
NtRp4037
(dp4038
g54
(dp4039
sg63
g4033
sg56
(lp4040
g49
(g50
g51
NtRp4041
(dp4042
g54
(dp4043
g62
I2
ssg63
g4037
sg56
(lp4044
g49
(g58
g51
NtRp4045
(dp4046
g54
(dp4047
g62
I1
ssg63
Nsg56
(lp4048
g49
(g65
g51
NtRp4049
(dp4050
g54
(dp4051
sg63
g4045
sg56
(lp4052
g49
(g70
g51
NtRp4053
(dp4054
g54
(dp4055
sg63
g4049
sg56
(lp4056
g49
(g50
g51
NtRp4057
(dp4058
g54
(dp4059
g62
I1
ssg63
g4053
sg56
(lp4060
S'web2py.com'
p4061
asbasbasbag49
(g65
g51
NtRp4062
(dp4063
g54
(dp4064
sg63
g4045
sg56
(lp4065
g49
(g70
g51
NtRp4066
(dp4067
g54
(dp4068
sg63
g4062
sg56
(lp4069
g49
(g50
g51
NtRp4070
(dp4071
g54
(dp4072
g62
I1
ssg63
g4066
sg56
(lp4073
I00
asbasbasbag49
(g65
g51
NtRp4074
(dp4075
g54
(dp4076
sg63
g4045
sg56
(lp4077
g49
(g70
g51
NtRp4078
(dp4079
g54
(dp4080
sg63
g4074
sg56
(lp4081
g49
(g50
g51
NtRp4082
(dp4083
g54
(dp4084
g62
I1
ssg63
g4078
sg56
(lp4085
S'http://www.web2py.com'
p4086
asbasbasbag49
(g65
g51
NtRp4087
(dp4088
g54
(dp4089
sg63
g4045
sg56
(lp4090
g49
(g70
g51
NtRp4091
(dp4092
g54
(dp4093
sg63
g4087
sg56
(lp4094
g49
(g50
g51
NtRp4095
(dp4096
g54
(dp4097
g62
I1
ssg63
g4091
sg56
(lp4098
(lp4099
(g3776
(S's\x08\x00\x00\x00Download'
tRp4100
I00
S'http://www.web2py.com/examples/default/download'
p4101
tp4102
a(g3776
(S's\x07\x00\x00\x00Support'
tRp4103
I00
S'http://www.web2py.com/examples/default/support'
p4104
tp4105
a(g3776
(S's\x04\x00\x00\x00Demo'
tRp4106
I00
S'http://web2py.com/demo_admin'
p4107
tp4108
a(g3776
(S's\x0e\x00\x00\x00Quick Examples'
tRp4109
I00
S'http://web2py.com/examples/default/examples'
p4110
tp4111
a(g3776
(S's\x03\x00\x00\x00FAQ'
tRp4112
I00
S'http://web2py.com/AlterEgo'
p4113
tp4114
a(g3776
(S's\x06\x00\x00\x00Videos'
tRp4115
I00
S'http://www.web2py.com/examples/default/videos/'
p4116
tp4117
a(g3776
(S's\x11\x00\x00\x00Free Applications'
tRp4118
I00
S'http://web2py.com/appliances'
p4119
tp4120
a(g3776
(S's\x07\x00\x00\x00Plugins'
tRp4121
I00
S'http://web2py.com/plugins'
p4122
tp4123
a(g3776
(S's\x07\x00\x00\x00Layouts'
tRp4124
I00
S'http://web2py.com/layouts'
p4125
tp4126
a(g3776
(S's\x07\x00\x00\x00Recipes'
tRp4127
I00
S'http://web2pyslices.com/'
p4128
tp4129
a(g3776
(S's\x08\x00\x00\x00Semantic'
tRp4130
I00
S'http://web2py.com/semantic'
p4131
tp4132
aasbasbasbasbasbasbasbag49
(g65
g51
NtRp4133
(dp4134
g54
(dp4135
sg63
g3890
sg56
(lp4136
g49
(g70
g51
NtRp4137
(dp4138
g54
(dp4139
sg63
g4133
sg56
(lp4140
g49
(g50
g51
NtRp4141
(dp4142
g54
(dp4143
g62
I2
ssg63
g4137
sg56
(lp4144
g49
(g58
g51
NtRp4145
(dp4146
g54
(dp4147
g62
I1
ssg63
Nsg56
(lp4148
g49
(g65
g51
NtRp4149
(dp4150
g54
(dp4151
sg63
g4145
sg56
(lp4152
g49
(g70
g51
NtRp4153
(dp4154
g54
(dp4155
sg63
g4149
sg56
(lp4156
g49
(g50
g51
NtRp4157
(dp4158
g54
(dp4159
g62
I1
ssg63
g4153
sg56
(lp4160
g3776
(S's\r\x00\x00\x00Documentation'
tRp4161
asbasbasbag49
(g65
g51
NtRp4162
(dp4163
g54
(dp4164
sg63
g4145
sg56
(lp4165
g49
(g70
g51
NtRp4166
(dp4167
g54
(dp4168
sg63
g4162
sg56
(lp4169
g49
(g50
g51
NtRp4170
(dp4171
g54
(dp4172
g62
I1
ssg63
g4166
sg56
(lp4173
I00
asbasbasbag49
(g65
g51
NtRp4174
(dp4175
g54
(dp4176
sg63
g4145
sg56
(lp4177
g49
(g70
g51
NtRp4178
(dp4179
g54
(dp4180
sg63
g4174
sg56
(lp4181
g49
(g50
g51
NtRp4182
(dp4183
g54
(dp4184
g62
I1
ssg63
g4178
sg56
(lp4185
S'http://www.web2py.com/book'
p4186
asbasbasbag49
(g65
g51
NtRp4187
(dp4188
g54
(dp4189
sg63
g4145
sg56
(lp4190
g49
(g70
g51
NtRp4191
(dp4192
g54
(dp4193
sg63
g4187
sg56
(lp4194
g49
(g50
g51
NtRp4195
(dp4196
g54
(dp4197
g62
I1
ssg63
g4191
sg56
(lp4198
(lp4199
(g3776
(S's\x07\x00\x00\x00Preface'
tRp4200
I00
S'http://www.web2py.com/book/default/chapter/00'
p4201
tp4202
a(g3776
(S's\x0c\x00\x00\x00Introduction'
tRp4203
I00
S'http://www.web2py.com/book/default/chapter/01'
p4204
tp4205
a(g3776
(S's\x06\x00\x00\x00Python'
tRp4206
I00
S'http://www.web2py.com/book/default/chapter/02'
p4207
tp4208
a(g3776
(S's\x08\x00\x00\x00Overview'
tRp4209
I00
S'http://www.web2py.com/book/default/chapter/03'
p4210
tp4211
a(g3776
(S's\x08\x00\x00\x00The Core'
tRp4212
I00
S'http://www.web2py.com/book/default/chapter/04'
p4213
tp4214
a(g3776
(S's\t\x00\x00\x00The Views'
tRp4215
I00
S'http://www.web2py.com/book/default/chapter/05'
p4216
tp4217
a(g3776
(S's\x08\x00\x00\x00Database'
tRp4218
I00
S'http://www.web2py.com/book/default/chapter/06'
p4219
tp4220
a(g3776
(S's\x14\x00\x00\x00Forms and Validators'
tRp4221
I00
S'http://www.web2py.com/book/default/chapter/07'
p4222
tp4223
a(g3776
(S's\r\x00\x00\x00Email and SMS'
tRp4224
I00
S'http://www.web2py.com/book/default/chapter/08'
p4225
tp4226
a(g3776
(S's\x0e\x00\x00\x00Access Control'
tRp4227
I00
S'http://www.web2py.com/book/default/chapter/09'
p4228
tp4229
a(g3776
(S's\x08\x00\x00\x00Services'
tRp4230
I00
S'http://www.web2py.com/book/default/chapter/10'
p4231
tp4232
a(g3776
(S's\x0c\x00\x00\x00Ajax Recipes'
tRp4233
I00
S'http://www.web2py.com/book/default/chapter/11'
p4234
tp4235
a(g3776
(S's\x16\x00\x00\x00Components and Plugins'
tRp4236
I00
S'http://www.web2py.com/book/default/chapter/12'
p4237
tp4238
a(g3776
(S's\x12\x00\x00\x00Deployment Recipes'
tRp4239
I00
S'http://www.web2py.com/book/default/chapter/13'
p4240
tp4241
a(g3776
(S's\r\x00\x00\x00Other Recipes'
tRp4242
I00
S'http://www.web2py.com/book/default/chapter/14'
p4243
tp4244
a(g3776
(S's\r\x00\x00\x00Buy this book'
tRp4245
I00
S'http://stores.lulu.com/web2py'
p4246
tp4247
aasbasbasbasbasbasbasbag49
(g65
g51
NtRp4248
(dp4249
g54
(dp4250
sg63
g3890
sg56
(lp4251
g49
(g70
g51
NtRp4252
(dp4253
g54
(dp4254
sg63
g4248
sg56
(lp4255
g49
(g50
g51
NtRp4256
(dp4257
g54
(dp4258
g62
I2
ssg63
g4252
sg56
(lp4259
g49
(g58
g51
NtRp4260
(dp4261
g54
(dp4262
g62
I1
ssg63
Nsg56
(lp4263
g49
(g65
g51
NtRp4264
(dp4265
g54
(dp4266
sg63
g4260
sg56
(lp4267
g49
(g70
g51
NtRp4268
(dp4269
g54
(dp4270
sg63
g4264
sg56
(lp4271
g49
(g50
g51
NtRp4272
(dp4273
g54
(dp4274
g62
I1
ssg63
g4268
sg56
(lp4275
g3776
(S's\t\x00\x00\x00Community'
tRp4276
asbasbasbag49
(g65
g51
NtRp4277
(dp4278
g54
(dp4279
sg63
g4260
sg56
(lp4280
g49
(g70
g51
NtRp4281
(dp4282
g54
(dp4283
sg63
g4277
sg56
(lp4284
g49
(g50
g51
NtRp4285
(dp4286
g54
(dp4287
g62
I1
ssg63
g4281
sg56
(lp4288
I00
asbasbasbag49
(g65
g51
NtRp4289
(dp4290
g54
(dp4291
sg63
g4260
sg56
(lp4292
g49
(g70
g51
NtRp4293
(dp4294
g54
(dp4295
sg63
g4289
sg56
(lp4296
g49
(g50
g51
NtRp4297
(dp4298
g54
(dp4299
g62
I1
ssg63
g4293
sg56
(lp4300
Nasbasbasbag49
(g65
g51
NtRp4301
(dp4302
g54
(dp4303
sg63
g4260
sg56
(lp4304
g49
(g70
g51
NtRp4305
(dp4306
g54
(dp4307
sg63
g4301
sg56
(lp4308
g49
(g50
g51
NtRp4309
(dp4310
g54
(dp4311
g62
I1
ssg63
g4305
sg56
(lp4312
(lp4313
(g3776
(S's\x06\x00\x00\x00Groups'
tRp4314
I00
S'http://www.web2py.com/examples/default/usergroups'
p4315
tp4316
a(g3776
(S's\x07\x00\x00\x00Twitter'
tRp4317
I00
S'http://twitter.com/web2py'
p4318
tp4319
a(g3776
(S's\t\x00\x00\x00Live Chat'
tRp4320
I00
S'http://webchat.freenode.net/?channels=web2py'
p4321
tp4322
aasbasbasbasbasbasbasbag49
(g65
g51
NtRp4323
(dp4324
g54
(dp4325
sg63
g3890
sg56
(lp4326
g49
(g70
g51
NtRp4327
(dp4328
g54
(dp4329
sg63
g4323
sg56
(lp4330
g49
(g50
g51
NtRp4331
(dp4332
g54
(dp4333
g62
I2
ssg63
g4327
sg56
(lp4334
g49
(g58
g51
NtRp4335
(dp4336
g54
(dp4337
g62
I1
ssg63
Nsg56
(lp4338
g49
(g65
g51
NtRp4339
(dp4340
g54
(dp4341
sg63
g4335
sg56
(lp4342
g49
(g70
g51
NtRp4343
(dp4344
g54
(dp4345
sg63
g4339
sg56
(lp4346
g49
(g50
g51
NtRp4347
(dp4348
g54
(dp4349
g62
I1
ssg63
g4343
sg56
(lp4350
g3776
(S's\x07\x00\x00\x00Plugins'
tRp4351
asbasbasbag49
(g65
g51
NtRp4352
(dp4353
g54
(dp4354
sg63
g4335
sg56
(lp4355
g49
(g70
g51
NtRp4356
(dp4357
g54
(dp4358
sg63
g4352
sg56
(lp4359
g49
(g50
g51
NtRp4360
(dp4361
g54
(dp4362
g62
I1
ssg63
g4356
sg56
(lp4363
I00
asbasbasbag49
(g65
g51
NtRp4364
(dp4365
g54
(dp4366
sg63
g4335
sg56
(lp4367
g49
(g70
g51
NtRp4368
(dp4369
g54
(dp4370
sg63
g4364
sg56
(lp4371
g49
(g50
g51
NtRp4372
(dp4373
g54
(dp4374
g62
I1
ssg63
g4368
sg56
(lp4375
Nasbasbasbag49
(g65
g51
NtRp4376
(dp4377
g54
(dp4378
sg63
g4335
sg56
(lp4379
g49
(g70
g51
NtRp4380
(dp4381
g54
(dp4382
sg63
g4376
sg56
(lp4383
g49
(g50
g51
NtRp4384
(dp4385
g54
(dp4386
g62
I1
ssg63
g4380
sg56
(lp4387
(lp4388
(S'plugin_wiki'
p4389
I00
S'http://web2py.com/examples/default/download'
p4390
tp4391
a(g3776
(S's\r\x00\x00\x00Other Plugins'
tRp4392
I00
g4122
tp4393
a(g3776
(S's\x0e\x00\x00\x00Layout Plugins'
tRp4394
I00
g4125
tp4395
aasbasbasbasbasbasbasbasbasbasbasbasbasbasbasbasbasbasbasbag49
(g65
g51
NtRp4396
(dp4397
g54
(dp4398
sg63
g3240
sg56
(lp4399
g49
(g70
g51
NtRp4400
(dp4401
g54
(dp4402
g74
g75
ssg63
g4396
sg56
(lp4403
S'meta'
p4404
asbag49
(g70
g51
NtRp4405
(dp4406
g54
(dp4407
g81
g82
ssg63
g4396
sg56
(lp4408
S':'
asbag49
(g70
g51
NtRp4409
(dp4410
g54
(dp4411
sg63
g4396
sg56
(lp4412
g49
(g50
g51
NtRp4413
(dp4414
g54
(dp4415
g62
I5
ssg63
g4409
sg56
(lp4416
g49
(g58
g51
NtRp4417
(dp4418
g54
(dp4419
g62
I4
ssg63
Nsg56
(lp4420
g49
(g65
g51
NtRp4421
(dp4422
g54
(dp4423
sg63
g4417
sg56
(lp4424
g49
(g70
g51
NtRp4425
(dp4426
g54
(dp4427
g74
g75
ssg63
g4421
sg56
(lp4428
S'author'
p4429
asbag49
(g70
g51
NtRp4430
(dp4431
g54
(dp4432
g81
g82
ssg63
g4421
sg56
(lp4433
S':'
asbag49
(g70
g51
NtRp4434
(dp4435
g54
(dp4436
sg63
g4421
sg56
(lp4437
g49
(g50
g51
NtRp4438
(dp4439
g54
(dp4440
g62
I4
ssg63
g4434
sg56
(lp4441
S'Your Name <you@example.com>'
p4442
asbasbasbag49
(g65
g51
NtRp4443
(dp4444
g54
(dp4445
sg63
g4417
sg56
(lp4446
g49
(g70
g51
NtRp4447
(dp4448
g54
(dp4449
g74
g75
ssg63
g4443
sg56
(lp4450
S'copyright'
p4451
asbag49
(g70
g51
NtRp4452
(dp4453
g54
(dp4454
g81
g82
ssg63
g4443
sg56
(lp4455
S':'
asbag49
(g70
g51
NtRp4456
(dp4457
g54
(dp4458
sg63
g4443
sg56
(lp4459
g49
(g50
g51
NtRp4460
(dp4461
g54
(dp4462
g62
I4
ssg63
g4456
sg56
(lp4463
S'Copyright 2011'
p4464
asbasbasbag49
(g65
g51
NtRp4465
(dp4466
g54
(dp4467
sg63
g4417
sg56
(lp4468
g49
(g70
g51
NtRp4469
(dp4470
g54
(dp4471
g74
g75
ssg63
g4465
sg56
(lp4472
S'description'
p4473
asbag49
(g70
g51
NtRp4474
(dp4475
g54
(dp4476
g81
g82
ssg63
g4465
sg56
(lp4477
S':'
asbag49
(g70
g51
NtRp4478
(dp4479
g54
(dp4480
sg63
g4465
sg56
(lp4481
g49
(g50
g51
NtRp4482
(dp4483
g54
(dp4484
g62
I4
ssg63
g4478
sg56
(lp4485
S'a cool new app'
p4486
asbasbasbag49
(g65
g51
NtRp4487
(dp4488
g54
(dp4489
sg63
g4417
sg56
(lp4490
g49
(g70
g51
NtRp4491
(dp4492
g54
(dp4493
g74
g75
ssg63
g4487
sg56
(lp4494
S'generator'
p4495
asbag49
(g70
g51
NtRp4496
(dp4497
g54
(dp4498
g81
g82
ssg63
g4487
sg56
(lp4499
S':'
asbag49
(g70
g51
NtRp4500
(dp4501
g54
(dp4502
sg63
g4487
sg56
(lp4503
g49
(g50
g51
NtRp4504
(dp4505
g54
(dp4506
g62
I4
ssg63
g4500
sg56
(lp4507
S'Web2py Web Framework'
p4508
asbasbasbag49
(g65
g51
NtRp4509
(dp4510
g54
(dp4511
sg63
g4417
sg56
(lp4512
g49
(g70
g51
NtRp4513
(dp4514
g54
(dp4515
g74
g75
ssg63
g4509
sg56
(lp4516
S'keywords'
p4517
asbag49
(g70
g51
NtRp4518
(dp4519
g54
(dp4520
g81
g82
ssg63
g4509
sg56
(lp4521
S':'
asbag49
(g70
g51
NtRp4522
(dp4523
g54
(dp4524
sg63
g4509
sg56
(lp4525
g49
(g50
g51
NtRp4526
(dp4527
g54
(dp4528
g62
I4
ssg63
g4522
sg56
(lp4529
S'web2py, python, framework'
p4530
asbasbasbasbasbasbasbag49
(g65
g51
NtRp4531
(dp4532
g54
(dp4533
sg63
g3240
sg56
(lp4534
g49
(g70
g51
NtRp4535
(dp4536
g54
(dp4537
g74
g75
ssg63
g4531
sg56
(lp4538
S'postprocessing'
p4539
asbag49
(g70
g51
NtRp4540
(dp4541
g54
(dp4542
g81
g82
ssg63
g4531
sg56
(lp4543
S':'
asbag49
(g70
g51
NtRp4544
(dp4545
g54
(dp4546
sg63
g4531
sg56
(lp4547
g49
(g50
g51
NtRp4548
(dp4549
g54
(dp4550
g62
I5
ssg63
g4544
sg56
(lp4551
g49
(g58
g51
NtRp4552
(dp4553
g54
(dp4554
g62
I4
ssg63
Nsg56
(lp4555
sbasbasbasbag49
(g65
g51
NtRp4556
(dp4557
g54
(dp4558
sg63
g3240
sg56
(lp4559
g49
(g70
g51
NtRp4560
(dp4561
g54
(dp4562
g74
g75
ssg63
g4556
sg56
(lp4563
S'session_db'
p4564
asbag49
(g70
g51
NtRp4565
(dp4566
g54
(dp4567
g81
g82
ssg63
g4556
sg56
(lp4568
S':'
asbag49
(g70
g51
NtRp4569
(dp4570
g54
(dp4571
sg63
g4556
sg56
(lp4572
g49
(g50
g51
NtRp4573
(dp4574
g54
(dp4575
g62
I5
ssg63
g4569
sg56
(lp4576
g726
asbasbasbag49
(g65
g51
NtRp4577
(dp4578
g54
(dp4579
sg63
g3240
sg56
(lp4580
g49
(g70
g51
NtRp4581
(dp4582
g54
(dp4583
g74
g75
ssg63
g4577
sg56
(lp4584
S'session_id'
p4585
asbag49
(g70
g51
NtRp4586
(dp4587
g54
(dp4588
g81
g82
ssg63
g4577
sg56
(lp4589
S':'
asbag49
(g70
g51
NtRp4590
(dp4591
g54
(dp4592
sg63
g4577
sg56
(lp4593
g49
(g50
g51
NtRp4594
(dp4595
g54
(dp4596
g62
I5
ssg63
g4590
sg56
(lp4597
S'24:fc940c53-63d4-4b03-b7eb-6ddd9cd731aa'
p4598
asbasbasbag49
(g65
g51
NtRp4599
(dp4600
g54
(dp4601
sg63
g3240
sg56
(lp4602
g49
(g70
g51
NtRp4603
(dp4604
g54
(dp4605
g74
g75
ssg63
g4599
sg56
(lp4606
S'session_id_name'
p4607
asbag49
(g70
g51
NtRp4608
(dp4609
g54
(dp4610
g81
g82
ssg63
g4599
sg56
(lp4611
S':'
asbag49
(g70
g51
NtRp4612
(dp4613
g54
(dp4614
sg63
g4599
sg56
(lp4615
g49
(g50
g51
NtRp4616
(dp4617
g54
(dp4618
g62
I5
ssg63
g4612
sg56
(lp4619
S'session_id_init'
p4620
asbasbasbag49
(g65
g51
NtRp4621
(dp4622
g54
(dp4623
sg63
g3240
sg56
(lp4624
g49
(g70
g51
NtRp4625
(dp4626
g54
(dp4627
g74
g75
ssg63
g4621
sg56
(lp4628
S'status'
p4629
asbag49
(g70
g51
NtRp4630
(dp4631
g54
(dp4632
g81
g82
ssg63
g4621
sg56
(lp4633
S':'
asbag49
(g70
g51
NtRp4634
(dp4635
g54
(dp4636
sg63
g4621
sg56
(lp4637
g49
(g50
g51
NtRp4638
(dp4639
g54
(dp4640
g62
I5
ssg63
g4634
sg56
(lp4641
S'200'
p4642
asbasbasbag49
(g65
g51
NtRp4643
(dp4644
g54
(dp4645
sg63
g3240
sg56
(lp4646
g49
(g70
g51
NtRp4647
(dp4648
g54
(dp4649
g74
g75
ssg63
g4643
sg56
(lp4650
S'subtitle'
p4651
asbag49
(g70
g51
NtRp4652
(dp4653
g54
(dp4654
g81
g82
ssg63
g4643
sg56
(lp4655
S':'
asbag49
(g70
g51
NtRp4656
(dp4657
g54
(dp4658
sg63
g4643
sg56
(lp4659
g49
(g50
g51
NtRp4660
(dp4661
g54
(dp4662
g62
I5
ssg63
g4656
sg56
(lp4663
g3776
(S's\r\x00\x00\x00customize me!'
tRp4664
asbasbasbag49
(g65
g51
NtRp4665
(dp4666
g54
(dp4667
sg63
g3240
sg56
(lp4668
g49
(g70
g51
NtRp4669
(dp4670
g54
(dp4671
g74
g75
ssg63
g4665
sg56
(lp4672
S'title'
p4673
asbag49
(g70
g51
NtRp4674
(dp4675
g54
(dp4676
g81
g82
ssg63
g4665
sg56
(lp4677
S':'
asbag49
(g70
g51
NtRp4678
(dp4679
g54
(dp4680
sg63
g4665
sg56
(lp4681
g49
(g50
g51
NtRp4682
(dp4683
g54
(dp4684
g62
I5
ssg63
g4678
sg56
(lp4685
S'Init'
p4686
asbasbasbag49
(g65
g51
NtRp4687
(dp4688
g54
(dp4689
sg63
g3240
sg56
(lp4690
g49
(g70
g51
NtRp4691
(dp4692
g54
(dp4693
g74
g75
ssg63
g4687
sg56
(lp4694
g2130
asbag49
(g70
g51
NtRp4695
(dp4696
g54
(dp4697
g81
g82
ssg63
g4687
sg56
(lp4698
S':'
asbag49
(g70
g51
NtRp4699
(dp4700
g54
(dp4701
sg63
g4687
sg56
(lp4702
g49
(g50
g51
NtRp4703
(dp4704
g54
(dp4705
g62
I5
ssg63
g4699
sg56
(lp4706
g2143
asbasbasbag49
(g65
g51
NtRp4707
(dp4708
g54
(dp4709
sg63
g3240
sg56
(lp4710
g49
(g70
g51
NtRp4711
(dp4712
g54
(dp4713
g74
g75
ssg63
g4707
sg56
(lp4714
S'view'
p4715
asbag49
(g70
g51
NtRp4716
(dp4717
g54
(dp4718
g81
g82
ssg63
g4707
sg56
(lp4719
S':'
asbag49
(g70
g51
NtRp4720
(dp4721
g54
(dp4722
sg63
g4707
sg56
(lp4723
g49
(g50
g51
NtRp4724
(dp4725
g54
(dp4726
g62
I5
ssg63
g4720
sg56
(lp4727
S'default/inscriptioninvit.html'
p4728
asbasbasbasbasbsS'locals'
p4729
(dp4730
S'fields'
p4731
S'()'
p4732
sS'self'
p4733
S"<Table {'_actual': False, '_tablename': <gluon.html.TR object at 0x077D7A50>}>"
p4734
sg28
g39
sS'db'
p4735
S'<gluon.html.TR object at 0x077D7E30>'
p4736
sS'tablename'
p4737
S'<gluon.html.TR object at 0x077D7A50>'
p4738
sssS'traceback'
p4739
S'Traceback (most recent call last):\n  File "gluon/restricted.py", line 205, in restricted\n  File "C:\\Users\\Bussiere\\Dropbox\\Projets\\jackpoint\\web2py\\applications\\init\\controllers/default.py", line 681, in <module>\n  File "gluon/globals.py", line 173, in <lambda>\n  File "gluon/tools.py", line 2575, in f\n  File "C:\\Users\\Bussiere\\Dropbox\\Projets\\jackpoint\\web2py\\applications\\init\\controllers/default.py", line 395, in inscriptioninvit\n  File "gluon/dal.py", line 6548, in __init__\nAttributeError: \'TR\' object has no attribute \'_adapter\'\n'
p4740
s.