(dp1
S'output'
p2
S"<class 'sqlite3.IntegrityError'> column email is not unique"
p3
sS'layer'
p4
S'C:\\Users\\Bussiere\\Dropbox\\Projets\\jackpoint\\web2py\\applications\\init\\controllers/default.py'
p5
sS'code'
p6
S'\xef\xbb\xbf# -*- coding: utf-8 -*-\n# this file is released under public domain and you can use without limitations\n\n#########################################################################\n## This is a samples controller\n## - index is the default action of any application\n## - user is required for authentication and authorization\n## - download is for downloading files uploaded in the db (does streaming)\n## - call exposes all registered services (none by default)\n#########################################################################\n# Static analyzer import helpers: (STATIC_IMPORT_MARK)\nif 0: \n    import gluon\n    global cache; cache = gluon.cache.Cache()\n    global LOAD; LOAD  = gluon.compileapp.LoadFactory()\n    import gluon.compileapp.local_import_aux as local_import #@UnusedImport\n    from gluon.contrib.gql import GQLDB #@UnusedImport\n    from gluon.dal import Field #@UnusedImport\n    global request; request = gluon.globals.Request()\n    global response; response = gluon.globals.Response()\n    global session; session = gluon.globals.Session()\n    from gluon.html import A #@UnusedImport\n    from gluon.html import B #@UnusedImport\n    from gluon.html import BEAUTIFY #@UnusedImport\n    from gluon.html import BODY #@UnusedImport\n    from gluon.html import BR #@UnusedImport\n    from gluon.html import CENTER #@UnusedImport\n    from gluon.html import CODE #@UnusedImport\n    from gluon.html import DIV #@UnusedImport\n    from gluon.html import EM #@UnusedImport\n    from gluon.html import EMBED #@UnusedImport\n    from gluon.html import embed64 #@UnusedImport\n    from gluon.html import FIELDSET #@UnusedImport\n    from gluon.html import FORM #@UnusedImport\n    from gluon.html import H1 #@UnusedImport\n    from gluon.html import H2 #@UnusedImport\n    from gluon.html import H3 #@UnusedImport\n    from gluon.html import H4 #@UnusedImport\n    from gluon.html import H5 #@UnusedImport\n    from gluon.html import H6 #@UnusedImport\n    from gluon.html import HEAD #@UnusedImport\n    from gluon.html import HR #@UnusedImport\n    from gluon.html import HTML #@UnusedImport\n    from gluon.html import I #@UnusedImport\n    from gluon.html import IFRAME #@UnusedImport\n    from gluon.html import IMG #@UnusedImport\n    from gluon.html import INPUT #@UnusedImport\n    from gluon.html import LABEL #@UnusedImport\n    from gluon.html import LEGEND #@UnusedImport\n    from gluon.html import LI #@UnusedImport\n    from gluon.html import LINK #@UnusedImport\n    from gluon.html import MARKMIN #@UnusedImport\n    from gluon.html import MENU #@UnusedImport\n    from gluon.html import META #@UnusedImport\n    from gluon.html import OBJECT #@UnusedImport\n    from gluon.html import OL #@UnusedImport\n    from gluon.html import ON #@UnusedImport\n    from gluon.html import OPTGROUP #@UnusedImport\n    from gluon.html import OPTION #@UnusedImport\n    from gluon.html import P #@UnusedImport\n    from gluon.html import PRE #@UnusedImport\n    from gluon.html import STYLE #@UnusedImport\n    from gluon.html import SCRIPT #@UnusedImport\n    from gluon.html import SELECT #@UnusedImport\n    from gluon.html import SPAN #@UnusedImport\n    from gluon.html import TABLE #@UnusedImport\n    from gluon.html import TAG #@UnusedImport\n    from gluon.html import TBODY #@UnusedImport\n    from gluon.html import TD #@UnusedImport\n    from gluon.html import TEXTAREA #@UnusedImport\n    from gluon.html import TFOOT #@UnusedImport\n    from gluon.html import TH  #@UnusedImport\n    from gluon.html import THEAD #@UnusedImport\n    from gluon.html import TITLE #@UnusedImport\n    from gluon.html import TR #@UnusedImport\n    from gluon.html import TT #@UnusedImport\n    from gluon.html import UL #@UnusedImport\n    from gluon.html import URL #@UnusedImport\n    from gluon.html import XHTML #@UnusedImport\n    from gluon.html import XML #@UnusedImport\n    from gluon.html import xmlescape #@UnusedImport\n    from gluon.http import HTTP #@UnusedImport\n    from gluon.http import redirect #@UnusedImport\n    import gluon.languages.translator as T #@UnusedImport\n    from gluon.sql import DAL\n    global db; db = DAL()\n    from gluon.sql import SQLDB #@UnusedImport\n    from gluon.sql import SQLField #@UnusedImport\n    from gluon.sqlhtml import SQLFORM #@UnusedImport\n    from gluon.sqlhtml import SQLTABLE #@UnusedImport\n    from gluon.tools import  Auth\n    global auth; auth = Auth()\n    from gluon.tools import Crud\n    global crud; crud = Crud()\n    from gluon.tools import fetch #@UnusedImport\n    from gluon.tools import geocode #@UnusedImport\n    from gluon.tools import Mail\n    global mail; mail = Mail()\n    from gluon.tools import PluginManager\n    global plugins; plugins = PluginManager()\n    from gluon.tools import prettydate #@UnusedImport\n    from gluon.tools import Recaptcha #@UnusedImport\n    from gluon.tools import Service\n    global service; service = Service()\n    from gluon.validators import CLEANUP  #@UnusedImport\n    from gluon.validators import CRYPT #@UnusedImport\n    from gluon.validators import IS_ALPHANUMERIC #@UnusedImport\n    from gluon.validators import IS_DATE #@UnusedImport\n    from gluon.validators import IS_DATE_IN_RANGE #@UnusedImport\n    from gluon.validators import IS_DATETIME #@UnusedImport\n    from gluon.validators import IS_DATETIME_IN_RANGE #@UnusedImport\n    from gluon.validators import IS_DECIMAL_IN_RANGE #@UnusedImport\n    from gluon.validators import IS_EMAIL #@UnusedImport\n    from gluon.validators import IS_EMPTY_OR #@UnusedImport\n    from gluon.validators import IS_EQUAL_TO #@UnusedImport\n    from gluon.validators import IS_EXPR #@UnusedImport\n    from gluon.validators import IS_FLOAT_IN_RANGE #@UnusedImport\n    from gluon.validators import IS_IMAGE #@UnusedImport\n    from gluon.validators import IS_IN_DB #@UnusedImport\n    from gluon.validators import IS_IN_SET #@UnusedImport\n    from gluon.validators import IS_INT_IN_RANGE #@UnusedImport\n    from gluon.validators import IS_IPV4 #@UnusedImport\n    from gluon.validators import IS_LENGTH #@UnusedImport\n    from gluon.validators import IS_LIST_OF #@UnusedImport\n    from gluon.validators import IS_LOWER #@UnusedImport\n    from gluon.validators import IS_MATCH #@UnusedImport\n    from gluon.validators import IS_NOT_EMPTY #@UnusedImport\n    from gluon.validators import IS_NOT_IN_DB #@UnusedImport\n    from gluon.validators import IS_NULL_OR #@UnusedImport\n    from gluon.validators import IS_SLUG #@UnusedImport\n    from gluon.validators import IS_STRONG  #@UnusedImport\n    from gluon.validators import IS_TIME #@UnusedImport\n    from gluon.validators import IS_UPLOAD_FILENAME #@UnusedImport\n    from gluon.validators import IS_UPPER #@UnusedImpor\n\n\nimport random\nfrom uuid import uuid4\nfrom gluon.storage import Storage\nsettings = Storage()\n\n\ndef logout():\n    auth.logout()\n\n\ndef index():\n    if auth.is_logged_in() :\n        return "You get the blue pills"\n    else :\n        return dict(form=auth.login(),faq=URL(\'faq\'))\n\n\n\ndef ensurefirstuser(Surnom, email, password):\n  users = db(db.auth_user.email == email).select()\n  if users:\n    user_id = users[0].id\n    created = False\n    print (\'found user_id so created equals %s\') % created\n    if settings.debug_ensure_first_user == True:\n      print (\'found user_id so created equals %s\') % created\n    return (user_id, created)\n\n  else:\n    my_crypt = CRYPT(key=auth.settings.hmac_key)\n    crypt_pass = my_crypt(password)[0]    \n    id_user = db.auth_user.insert(\n                   Surnom=Surnom,\n                   email=email,\n                   username=email,\n                   Items = None,\n                   Skills = None,\n                   password=crypt_pass,\n                                   )\n    db.commit()\n    created = True\n    print (\'creating user_id\')\n    if settings.debug_ensure_first_user == True:\n      print (\'creating user_id\')\n    return (id_user, created)\n\n    \n\n\ndef ensure_users():\n  user_id, created = _ensure_user(\'first\', \'last\', \'email@address.com\', \'UserPassword12345\')\n  if settings.debug_ensure_users == True:\n    print (\'user id %i\') % user_id\n    print (\'created %s\') % created\n\ndef ensure_group_role(role, description):\n  if not auth.id_group(role=role):  \n    auth.add_group(role=role, description=description)  \n    if settings.debug_ensure_group_role == True:\n      print (\'created role %s\') % (role)\n\ndef ensure_membership(group_id, user_id):\n  return_group_id = auth.add_membership(role=role, user_id=user_id)\n  if settings.debug_ensure_membership == True:\n    print (\'made user_id member of %s\') % (role)\n  return return_group_id\n \ndef ensure_permissions(role, description, user_id):\n  ensure_group_role(role, description)\n  return_group_id = ensure_membership(group_id, user_id)\n  if settings.debug_ensure_permissions == True:\n    print return_group_id\n\ndef generate_invitation(number,word=4,num=1,numdigit=5):\n    code = [\n[\'BELCHER\', \'FIX\', \'EEL\', \'PANZERBOY\', \'DESK_JOCKEY\', \'CHILLED\', \'ENFORCER\', \'CHERRY_PICKING\', \'COUNTRY_CLUB\', \'BOMBSHELL\', \'PLUGGED_IN\', \'FINI\', \'LEGIT\', \'JAM\', \'BONED_OUT\', \'BLADE\', \'ROUST\', \'SAMURAI\', \'DISK\', \'INPUT\', \'POST_TIME\', \'SOUNDS\', \'SKIP\', \'FLATBACKER\', \'WILSON\', \'SHOEMAKER\', \'DELTA_SIERRA\', \'HEART\', \'CROAK\', \'HEAD_HUNTER\', \'HOSHO_KAISHA\', "DELTA\'D", "\'FACE_(also,_FACE,_EYE-FACE,_I-FACE)", \'WEEFLE\', \'DIRTGIRL\', \'KEYBOARD\', \'BRAIN_BUCKET\', \'DRYING_OUT\', \'OVERCOOK\', \'PIG\', \'COLD_TEA\', \'RECONFIG\', \'PAD\', \'LIT_UP\', \'WRAITH\', \'HANDLE\', \'L.P.\', \'PINCH\', \'TAKE_A_CAB\', \'SPILL\', \'ACE_KOOL\', \'DO\', \'BIZ\', \'BROWNIE\', \'CANDLE_AND_BLOOD\', \'BLUEBOY\', \'UP_ON_IT\', \'BURN\', \'USER_INTERFACE\', \'HOB\', \'GYRO\', \'STUFFIT\', \'THATCH\', \'ICEBREAKER\', \'ZIP_GUN\', \'PETERMAN\', \'PLAY_DOUGH\', \'TREY-EIGHT\', \'SETTLE\', "CHIPPIN\'_IN", \'MEATBALL\', \'RAFFLES\', \'YUBITSUME\', \'CROAKER\', \'SUCKER_POCKETS\', \'L.A.M.A.\', \'GEEK\', \'BUTTONHEAD\'],\n[\'TAKE\', \'TEKIYA\', \'KURUMAKU\', \'BLOC\', \'GAT\', \'JOHATSU\', \'CRYSTAL\', \'A.I.\', \'ZEROED\', \'OVER_THE_SHOULDER\', \'GRAB_GEE\', \'PANZER\', \'GO_LEO\', \'WASHED\', \'I.C.E.\', \'COPSHOP\', \'COLLATERAL_DAMAGE\', \'BIG_DARK\', \'DOUBLE-DEUCE\', \'ZONEDANCE\', \'MARK\', \'COBBERS\', \'CHIMPIRA\', \'TRIADS\', \'SHANK\', \'FRAG\', \'BREATH_VAC\', "CHARLIE\'S_ANGEL", \'MULE\', \'BURNER\', "PACKIN\'", \'HOTDOGGER\', \'BOSOZOKU\', \'RIPPERDOC\', \'THIRDMAN\', \'MAXIMUM,_MAX\', \'CHOOH2_("CHOO")\', \'CRYO_MAX\', \'HEATER\', \'SHARK\', \'JOYGIRL\', \'GURENTAI\', \'BANDIT\', \'VENICE\', \'MIZU_SHOBAI\', \'PASTA_BOYS\', \'SQUID\', \'CYBERED_UP\', \'DEAD_RECKONING\', \'POPSICLE\', \'FAUST\', \'COLLARBOY\', \'SHOES\', \'TORCH\', \'DELTAJOCK\', \'BUTTERFLY_MAN\', \'WISE_GUYS\', \'BOOST\', \'CAIN\', \'FOUR-FIVE\', \'BREAK-DOWN\', \'POLYMER_ONE-SHOT\', \'FLAG\', \'CALL_GIRL\', \'IN_THE_HUNT\', \'HYDRO\', \'DOCK\', \'FENCE\', \'SHAIKUJIN\', \'GOMI\', \'FILTER\', \'SAINT_NICK\', \'LINEFOOT\', \'CAVALRY\', \'PUKE\', \'CONVERSION\', \'FINGER\', \'CONTRACT\'],\n[\'PLASTIC\', \'CRYSTALJOCKEY,_CRYSTALJOCK\', \'SCREW\', \'TOYSTORE\', \'DREAM_TIME\', \'EXOTIC\', \'WALKABOUT\', \'DIAMOND_SEASON\', \'SARAKIN\', \'CHRISTMAS_BUNDLES\', \'SHADES\', \'BUTTON_MAN\', \'FOXTROT_UNIFORM\', \'KAI\', \'UNDER_THE_PAINT\', \'MINIMUM\', \'TRIPLE_A\', \'PIG_ON_A_WHEEL\', \'BAG_MAN\', \'DIP\', \'PIGEONS\', \'MAN\', \'ADAM_HENRY\', \'HIGH\', \'HEAT\', \'NINJO\', \'KNIFE_FIGHT\', \'MOUTHPIECE\', \'AGRIPLEX\', \'DATA_TERM\', \'LIZ\', \'CHROMER\', \'OUTPUT\', \'N.O.E.\', \'CLOSE_A_CONTRACT\', \'LASSIE\', \'FLATLINE\', \'CHIV\', \'SING\', \'AMMO\', \'RAT\', \'MATCHBOX\', \'PULL_AN_ASH\', \'BORYOKUDAN\', \'SQUEEZE\', \'RONIN\', \'HIT\', \'RAGS\', \'TAKE_OUT\', \'BEAT_THE_RAP\', \'GIRI\', \'RUNNING_THE_LINE\', \'HARNESS\', \'GRAVEROBBER\', \'DROP_A_DIME\', \'BADGE_ON_A_BEAVER\', \'FLETCHER\', \'AMPED-OUT\', \'NEUTRALIZE\', \'PETER\', \'CONFIG\', \'HARDFIRE\', \'B.A.M.A.\', \'CHROMATIC_ROCK\', \'MOLDED\', \'RAD\', \'CREASED\', \'CHATTER_BOX\', \'HAND_CANNON\', \'NIPPERS\', \'SIERRA_HOTEL\', \'HOOK_UP\', \'-JOCKEY,_-JOCK\', \'BUG\', \'BATMAN_AND_ROBIN\', \'BLACK_OPERATIONS\', "D.C.\'S", \'SO_KA\'],\n[\'_A.A.A.\', \'HOME_PLATE\', \'LITEJACK\', \'PINEAPPLE\', \'MAKE\', \'THE_STREET\', \'SITREP\', \'HANGING_PAPER\', \'PAINT_BOYS\', \'WETWORK\', \'NINER\', \'BOOKIE\', \'WHIPLASH\', \'TORPEDO\', \'HEATWAVE\', \'SOLAR_WIND\', \'QUIFF\', \'BIKE\', \'TRAFFIC\', \'WIRE_ROOM\', \'OYABUN\', \'COWBOY\', \'KOBUN\', \'MUDBOY\', \'COP_OUT\', \'SOKAIYA\', "\'DORPH", \'JOYBOY\', \'DIRTY\', \'BOAT\', \'DROP\', \'GRAV_or_GEE\', \'APOGEE\', \'BOOSTER\', \'BOOK\', \'FRY\', \'PULLING_TEETH\', \'ONE_LARGE\', \'COMBAT_DRUGS\', \'THRASH\', \'DO_A_GHOST\', \'DELTA\', \'RIN_TIN_TIN\', \'DROP_OUT\', \'GUMI\', \'ROCKERBOY/GIRL\', \'BULLET\', \'DEB\', \'THREADING_THE_NEEDLE\', \'MOTOR\', \'BLEEDER\', \'ARC\', \'BOPPER\', \'WASTE\', \'_DEMUKAI\', \'BREAK\', \'HOLDING_DOWN\', \'FEDS\', \'GAP\', \'RABBI\', \'BAKUTO\', \'CHOMBATTA_(CHOOMBA)\', \'BIG_HATS\', \'MR._JOHNSON\', \'EXEC\', \'BULL\', \'BULLSEYE\', \'POSERGANG\', \'CHAOL\', \'GEISHA\', \'SLAMMIT_ON\', \'POP_CAPS\', \'HARD_TIME\', \'BENJI\', \'MAKING_BANK\', \'PAPERHANGER\', \'NETRUN\', \'BOGEY\'],\n]     \n    i = 0\n    invits = []\n    print number\n    while (i < number):\n        invit = ""\n        j = 0\n        while (j < word):\n            debut = random.randint(0,len(code)-1)\n            codepick = code[debut][random.randint(0,len(code[debut])-1)]\n            j += 1\n            invit += codepick+"-"\n        j = 0\n        while (j < num):\n            invit += randomdig(numdigit)+"-"\n            j += 1\n        i+= 1\n        invit = invit[:-1]\n        if invit not in invits :\n            invits.append(invit[:-1])\n            print invit\n    return invits\n        \ndef randomdig(number):\n    max = "9"*number\n    max = int(max)\n    rand =  random.randint(0,max)\n    rand = str(rand)\n    rand = "0"*(number-len(rand))+rand\n    return rand\n\n@auth.requires_login()\ndef inscriptioninvit():\n    form = SQLFORM(db[auth.settings.table_user_name])\n    return dict(form=form)\n\ndef liste_invitations():\n    return dict(rows = db().select(db.Invitation.ALL))\n\n#@auth.requires_membership(\'manager\')\ndef generate_invitationpage():\n   form=FORM("Nombre d\'invit a generer:", INPUT(_name=\'nmbreinvit\'), INPUT(_type=\'submit\'))\n   if form.process().accepted and form.vars.nmbreinvit != None :\n       i = form.vars.nmbreinvit\n       invitsgenere = generate_invitation(int(i))\n       for invit in invitsgenere :\n           db.Invitation.insert(Code=invit)\n           db.commit()\n       session.flash = \'invitation inserted\'\n       form=FORM("Nombre d\'invit a generer:", INPUT(_name=\'nmbreinvit\'), INPUT(_type=\'submit\'))\n       #db.Invitation.insert(Code="Toto-5542")\n       db.commit()\n   return dict(form=form)\n\ndef verif_invitation(form):\n    print form.vars.invitation\n    if db.Invitation(db.Invitation.Code==form.vars.invitation) == None :\n        form.errors.invitation = \'code invitation incorrect\'\n        print "mauvais"\n    else :\n        print "bon"\n\n\ndef invitation():\n    form=FORM("Code Invitation :", INPUT(_name=\'invitation\'),"<Email :",INPUT(_name=\'email\'),  INPUT(_type=\'submit\'))\n    if form.process(onvalidation=verif_invitation).accepted and  form.vars.invitation != None  :\n        print "toto"\n        password="toto"\n        my_crypt = CRYPT(key=auth.settings.hmac_key)\n        crypt_pass = my_crypt(password)[0]    \n        user = db.auth_user.insert(\n           Surnom="Surnom",\n           email="email",\n           password=crypt_pass,\n                           )\n        db.commit()\n        session.auth = Storage(user=user,expiration=auth.settings.expiration,hmac_key=str(uuid4()))\n        auth.login_bare("email",password)\n        redirect(URL(\'inscriptioninvit\'))\n    return dict(form=form)\n\ndef faq():\n\n    return dict()\ndef user():\n    """\n    exposes:\n    http://..../[app]/default/user/login\n    http://..../[app]/default/user/logout\n    http://..../[app]/default/user/register\n    http://..../[app]/default/user/profile\n    http://..../[app]/default/user/retrieve_password\n    http://..../[app]/default/user/change_password\n    use @auth.requires_login()\n        @auth.requires_membership(\'group name\')\n        @auth.requires_permission(\'read\',\'table name\',record_id)\n    to decorate functions that need access control\n    """\n    return dict(form=auth())\n\n\ndef download():\n    """\n    allows downloading of uploaded files\n    http://..../[app]/default/download/[filename]\n    """\n    return response.download(request,db)\n\n\ndef call():\n    """\n    exposes services. for example:\n    http://..../[app]/default/call/jsonrpc\n    decorate with @services.jsonrpc the functions to expose\n    supports xml, json, xmlrpc, jsonrpc, amfrpc, rss, csv\n    """\n    return service()\n\n\n@auth.requires_signature()\ndef data():\n    """\n    http://..../[app]/default/data/tables\n    http://..../[app]/default/data/create/[table]\n    http://..../[app]/default/data/read/[table]/[id]\n    http://..../[app]/default/data/update/[table]/[id]\n    http://..../[app]/default/data/delete/[table]/[id]\n    http://..../[app]/default/data/select/[table]\n    http://..../[app]/default/data/search/[table]\n    but URLs must be signed, i.e. linked with\n      A(\'table\',_href=URL(\'data/tables\',user_signature=True))\n    or with the signed load operator\n      LOAD(\'default\',\'data.load\',args=\'tables\',ajax=True,user_signature=True)\n    """\n    return dict(form=crud())\n\nresponse._vars=response._caller(invitation)\n'
p7
sS'snapshot'
p8
(dp9
S'exception'
p10
(dp11
S'__hash__'
p12
S"<method-wrapper '__hash__' of IntegrityError object at 0x03D1DD00>"
p13
sS'__module__'
p14
S"'sqlite3'"
p15
sS'__reduce_ex__'
p16
S'<built-in method __reduce_ex__ of IntegrityError object at 0x03D1DD00>'
p17
sS'__getslice__'
p18
S"<method-wrapper '__getslice__' of IntegrityError object at 0x03D1DD00>"
p19
sS'__getitem__'
p20
S"<method-wrapper '__getitem__' of IntegrityError object at 0x03D1DD00>"
p21
sS'__setstate__'
p22
S'<built-in method __setstate__ of IntegrityError object at 0x03D1DD00>'
p23
sS'__reduce__'
p24
S'<built-in method __reduce__ of IntegrityError object at 0x03D1DD00>'
p25
sS'__str__'
p26
S"<method-wrapper '__str__' of IntegrityError object at 0x03D1DD00>"
p27
sS'args'
p28
S"('column email is not unique',)"
p29
sS'__getattribute__'
p30
S"<method-wrapper '__getattribute__' of IntegrityError object at 0x03D1DD00>"
p31
sS'__class__'
p32
S"<class 'sqlite3.IntegrityError'>"
p33
sS'__delattr__'
p34
S"<method-wrapper '__delattr__' of IntegrityError object at 0x03D1DD00>"
p35
sS'__repr__'
p36
S"<method-wrapper '__repr__' of IntegrityError object at 0x03D1DD00>"
p37
sS'__setattr__'
p38
S"<method-wrapper '__setattr__' of IntegrityError object at 0x03D1DD00>"
p39
sS'__dict__'
p40
S'{}'
p41
sS'__weakref__'
p42
S'None'
p43
sS'__doc__'
p44
S'None'
p45
sS'__init__'
p46
S"<method-wrapper '__init__' of IntegrityError object at 0x03D1DD00>"
p47
sS'__new__'
p48
S'<built-in method __new__ of type object at 0x1E1CCCB0>'
p49
ssS'evalue'
p50
S'column email is not unique'
p51
sS'request'
p52
ccopy_reg
_reconstructor
p53
(cgluon.html
BEAUTIFY
p54
c__builtin__
object
p55
NtRp56
(dp57
S'attributes'
p58
(dp59
sS'components'
p60
(lp61
g53
(cgluon.html
TABLE
p62
g55
NtRp63
(dp64
g58
(dp65
S'level'
p66
I5
ssS'parent'
p67
Nsg60
(lp68
g53
(cgluon.html
TR
p69
g55
NtRp70
(dp71
g58
(dp72
sg67
g63
sg60
(lp73
g53
(cgluon.html
TD
p74
g55
NtRp75
(dp76
g58
(dp77
S'_style'
p78
S'font-weight:bold;vertical-align:top'
p79
ssg67
g70
sg60
(lp80
S'ajax'
p81
asbag53
(g74
g55
NtRp82
(dp83
g58
(dp84
S'_valign'
p85
S'top'
p86
ssg67
g70
sg60
(lp87
S':'
asbag53
(g74
g55
NtRp88
(dp89
g58
(dp90
sg67
g70
sg60
(lp91
g53
(g54
g55
NtRp92
(dp93
g58
(dp94
g66
I5
ssg67
g88
sg60
(lp95
S'False'
p96
asbasbasbag53
(g69
g55
NtRp97
(dp98
g58
(dp99
sg67
g63
sg60
(lp100
g53
(g74
g55
NtRp101
(dp102
g58
(dp103
g78
g79
ssg67
g97
sg60
(lp104
S'application'
p105
asbag53
(g74
g55
NtRp106
(dp107
g58
(dp108
g85
g86
ssg67
g97
sg60
(lp109
S':'
asbag53
(g74
g55
NtRp110
(dp111
g58
(dp112
sg67
g97
sg60
(lp113
g53
(g54
g55
NtRp114
(dp115
g58
(dp116
g66
I5
ssg67
g110
sg60
(lp117
S'init'
p118
asbasbasbag53
(g69
g55
NtRp119
(dp120
g58
(dp121
sg67
g63
sg60
(lp122
g53
(g74
g55
NtRp123
(dp124
g58
(dp125
g78
g79
ssg67
g119
sg60
(lp126
g28
asbag53
(g74
g55
NtRp127
(dp128
g58
(dp129
g85
g86
ssg67
g119
sg60
(lp130
S':'
asbag53
(g74
g55
NtRp131
(dp132
g58
(dp133
sg67
g119
sg60
(lp134
g53
(g54
g55
NtRp135
(dp136
g58
(dp137
g66
I5
ssg67
g131
sg60
(lp138
g53
(g62
g55
NtRp139
(dp140
g58
(dp141
g66
I4
ssg67
Nsg60
(lp142
sbasbasbasbag53
(g69
g55
NtRp143
(dp144
g58
(dp145
sg67
g63
sg60
(lp146
g53
(g74
g55
NtRp147
(dp148
g58
(dp149
g78
g79
ssg67
g143
sg60
(lp150
S'body'
p151
asbag53
(g74
g55
NtRp152
(dp153
g58
(dp154
g85
g86
ssg67
g143
sg60
(lp155
S':'
asbag53
(g74
g55
NtRp156
(dp157
g58
(dp158
sg67
g143
sg60
(lp159
g53
(g54
g55
NtRp160
(dp161
g58
(dp162
g66
I5
ssg67
g156
sg60
(lp163
S"<open file '<fdopen>', mode 'w+b' at 0x03FE1DA0>"
p164
asbasbasbag53
(g69
g55
NtRp165
(dp166
g58
(dp167
sg67
g63
sg60
(lp168
g53
(g74
g55
NtRp169
(dp170
g58
(dp171
g78
g79
ssg67
g165
sg60
(lp172
S'client'
p173
asbag53
(g74
g55
NtRp174
(dp175
g58
(dp176
g85
g86
ssg67
g165
sg60
(lp177
S':'
asbag53
(g74
g55
NtRp178
(dp179
g58
(dp180
sg67
g165
sg60
(lp181
g53
(g54
g55
NtRp182
(dp183
g58
(dp184
g66
I5
ssg67
g178
sg60
(lp185
S'127.0.0.1'
p186
asbasbasbag53
(g69
g55
NtRp187
(dp188
g58
(dp189
sg67
g63
sg60
(lp190
g53
(g74
g55
NtRp191
(dp192
g58
(dp193
g78
g79
ssg67
g187
sg60
(lp194
S'controller'
p195
asbag53
(g74
g55
NtRp196
(dp197
g58
(dp198
g85
g86
ssg67
g187
sg60
(lp199
S':'
asbag53
(g74
g55
NtRp200
(dp201
g58
(dp202
sg67
g187
sg60
(lp203
g53
(g54
g55
NtRp204
(dp205
g58
(dp206
g66
I5
ssg67
g200
sg60
(lp207
S'default'
p208
asbasbasbag53
(g69
g55
NtRp209
(dp210
g58
(dp211
sg67
g63
sg60
(lp212
g53
(g74
g55
NtRp213
(dp214
g58
(dp215
g78
g79
ssg67
g209
sg60
(lp216
S'cookies'
p217
asbag53
(g74
g55
NtRp218
(dp219
g58
(dp220
g85
g86
ssg67
g209
sg60
(lp221
S':'
asbag53
(g74
g55
NtRp222
(dp223
g58
(dp224
sg67
g209
sg60
(lp225
g53
(g54
g55
NtRp226
(dp227
g58
(dp228
g66
I5
ssg67
g222
sg60
(lp229
g53
(g62
g55
NtRp230
(dp231
g58
(dp232
g66
I4
ssg67
Nsg60
(lp233
g53
(g69
g55
NtRp234
(dp235
g58
(dp236
sg67
g230
sg60
(lp237
g53
(g74
g55
NtRp238
(dp239
g58
(dp240
g78
g79
ssg67
g234
sg60
(lp241
S'session_id_init'
p242
asbag53
(g74
g55
NtRp243
(dp244
g58
(dp245
g85
g86
ssg67
g234
sg60
(lp246
S':'
asbag53
(g74
g55
NtRp247
(dp248
g58
(dp249
sg67
g234
sg60
(lp250
g53
(g54
g55
NtRp251
(dp252
g58
(dp253
g66
I4
ssg67
g247
sg60
(lp254
g53
(g62
g55
NtRp255
(dp256
g58
(dp257
g66
I3
ssg67
Nsg60
(lp258
g53
(g69
g55
NtRp259
(dp260
g58
(dp261
sg67
g255
sg60
(lp262
g53
(g74
g55
NtRp263
(dp264
g58
(dp265
g78
g79
ssg67
g259
sg60
(lp266
S'comment'
p267
asbag53
(g74
g55
NtRp268
(dp269
g58
(dp270
g85
g86
ssg67
g259
sg60
(lp271
S':'
asbag53
(g74
g55
NtRp272
(dp273
g58
(dp274
sg67
g259
sg60
(lp275
g53
(g54
g55
NtRp276
(dp277
g58
(dp278
g66
I3
ssg67
g272
sg60
(lp279
S''
asbasbasbag53
(g69
g55
NtRp280
(dp281
g58
(dp282
sg67
g255
sg60
(lp283
g53
(g74
g55
NtRp284
(dp285
g58
(dp286
g78
g79
ssg67
g280
sg60
(lp287
S'domain'
p288
asbag53
(g74
g55
NtRp289
(dp290
g58
(dp291
g85
g86
ssg67
g280
sg60
(lp292
S':'
asbag53
(g74
g55
NtRp293
(dp294
g58
(dp295
sg67
g280
sg60
(lp296
g53
(g54
g55
NtRp297
(dp298
g58
(dp299
g66
I3
ssg67
g293
sg60
(lp300
S''
asbasbasbag53
(g69
g55
NtRp301
(dp302
g58
(dp303
sg67
g255
sg60
(lp304
g53
(g74
g55
NtRp305
(dp306
g58
(dp307
g78
g79
ssg67
g301
sg60
(lp308
S'expires'
p309
asbag53
(g74
g55
NtRp310
(dp311
g58
(dp312
g85
g86
ssg67
g301
sg60
(lp313
S':'
asbag53
(g74
g55
NtRp314
(dp315
g58
(dp316
sg67
g301
sg60
(lp317
g53
(g54
g55
NtRp318
(dp319
g58
(dp320
g66
I3
ssg67
g314
sg60
(lp321
S''
asbasbasbag53
(g69
g55
NtRp322
(dp323
g58
(dp324
sg67
g255
sg60
(lp325
g53
(g74
g55
NtRp326
(dp327
g58
(dp328
g78
g79
ssg67
g322
sg60
(lp329
S'max-age'
p330
asbag53
(g74
g55
NtRp331
(dp332
g58
(dp333
g85
g86
ssg67
g322
sg60
(lp334
S':'
asbag53
(g74
g55
NtRp335
(dp336
g58
(dp337
sg67
g322
sg60
(lp338
g53
(g54
g55
NtRp339
(dp340
g58
(dp341
g66
I3
ssg67
g335
sg60
(lp342
S''
asbasbasbag53
(g69
g55
NtRp343
(dp344
g58
(dp345
sg67
g255
sg60
(lp346
g53
(g74
g55
NtRp347
(dp348
g58
(dp349
g78
g79
ssg67
g343
sg60
(lp350
S'path'
p351
asbag53
(g74
g55
NtRp352
(dp353
g58
(dp354
g85
g86
ssg67
g343
sg60
(lp355
S':'
asbag53
(g74
g55
NtRp356
(dp357
g58
(dp358
sg67
g343
sg60
(lp359
g53
(g54
g55
NtRp360
(dp361
g58
(dp362
g66
I3
ssg67
g356
sg60
(lp363
S''
asbasbasbag53
(g69
g55
NtRp364
(dp365
g58
(dp366
sg67
g255
sg60
(lp367
g53
(g74
g55
NtRp368
(dp369
g58
(dp370
g78
g79
ssg67
g364
sg60
(lp371
S'secure'
p372
asbag53
(g74
g55
NtRp373
(dp374
g58
(dp375
g85
g86
ssg67
g364
sg60
(lp376
S':'
asbag53
(g74
g55
NtRp377
(dp378
g58
(dp379
sg67
g364
sg60
(lp380
g53
(g54
g55
NtRp381
(dp382
g58
(dp383
g66
I3
ssg67
g377
sg60
(lp384
S''
asbasbasbag53
(g69
g55
NtRp385
(dp386
g58
(dp387
sg67
g255
sg60
(lp388
g53
(g74
g55
NtRp389
(dp390
g58
(dp391
g78
g79
ssg67
g385
sg60
(lp392
S'version'
p393
asbag53
(g74
g55
NtRp394
(dp395
g58
(dp396
g85
g86
ssg67
g385
sg60
(lp397
S':'
asbag53
(g74
g55
NtRp398
(dp399
g58
(dp400
sg67
g385
sg60
(lp401
g53
(g54
g55
NtRp402
(dp403
g58
(dp404
g66
I3
ssg67
g398
sg60
(lp405
S''
asbasbasbasbasbasbasbasbasbasbasbag53
(g69
g55
NtRp406
(dp407
g58
(dp408
sg67
g63
sg60
(lp409
g53
(g74
g55
NtRp410
(dp411
g58
(dp412
g78
g79
ssg67
g406
sg60
(lp413
S'env'
p414
asbag53
(g74
g55
NtRp415
(dp416
g58
(dp417
g85
g86
ssg67
g406
sg60
(lp418
S':'
asbag53
(g74
g55
NtRp419
(dp420
g58
(dp421
sg67
g406
sg60
(lp422
g53
(g54
g55
NtRp423
(dp424
g58
(dp425
g66
I5
ssg67
g419
sg60
(lp426
g53
(g62
g55
NtRp427
(dp428
g58
(dp429
g66
I4
ssg67
Nsg60
(lp430
g53
(g69
g55
NtRp431
(dp432
g58
(dp433
sg67
g427
sg60
(lp434
g53
(g74
g55
NtRp435
(dp436
g58
(dp437
g78
g79
ssg67
g431
sg60
(lp438
S'app_folders'
p439
asbag53
(g74
g55
NtRp440
(dp441
g58
(dp442
g85
g86
ssg67
g431
sg60
(lp443
S':'
asbag53
(g74
g55
NtRp444
(dp445
g58
(dp446
sg67
g431
sg60
(lp447
g53
(g54
g55
NtRp448
(dp449
g58
(dp450
g66
I4
ssg67
g444
sg60
(lp451
S"set(['C:\\\\Users\\\\Bussiere\\\\Dropbox\\\\Projets\\\\jackpoint\\\\web2py\\\\applications\\\\init\\\\'])"
p452
asbasbasbag53
(g69
g55
NtRp453
(dp454
g58
(dp455
sg67
g427
sg60
(lp456
g53
(g74
g55
NtRp457
(dp458
g58
(dp459
g78
g79
ssg67
g453
sg60
(lp460
S'applications_parent'
p461
asbag53
(g74
g55
NtRp462
(dp463
g58
(dp464
g85
g86
ssg67
g453
sg60
(lp465
S':'
asbag53
(g74
g55
NtRp466
(dp467
g58
(dp468
sg67
g453
sg60
(lp469
g53
(g54
g55
NtRp470
(dp471
g58
(dp472
g66
I4
ssg67
g466
sg60
(lp473
S'C:\\Users\\Bussiere\\Dropbox\\Projets\\jackpoint\\web2py'
p474
asbasbasbag53
(g69
g55
NtRp475
(dp476
g58
(dp477
sg67
g427
sg60
(lp478
g53
(g74
g55
NtRp479
(dp480
g58
(dp481
g78
g79
ssg67
g475
sg60
(lp482
S'cmd_args'
p483
asbag53
(g74
g55
NtRp484
(dp485
g58
(dp486
g85
g86
ssg67
g475
sg60
(lp487
S':'
asbag53
(g74
g55
NtRp488
(dp489
g58
(dp490
sg67
g475
sg60
(lp491
g53
(g54
g55
NtRp492
(dp493
g58
(dp494
g66
I4
ssg67
g488
sg60
(lp495
g53
(g62
g55
NtRp496
(dp497
g58
(dp498
g66
I3
ssg67
Nsg60
(lp499
sbasbasbasbag53
(g69
g55
NtRp500
(dp501
g58
(dp502
sg67
g427
sg60
(lp503
g53
(g74
g55
NtRp504
(dp505
g58
(dp506
g78
g79
ssg67
g500
sg60
(lp507
S'cmd_options'
p508
asbag53
(g74
g55
NtRp509
(dp510
g58
(dp511
g85
g86
ssg67
g500
sg60
(lp512
S':'
asbag53
(g74
g55
NtRp513
(dp514
g58
(dp515
sg67
g500
sg60
(lp516
g53
(g54
g55
NtRp517
(dp518
g58
(dp519
g66
I4
ssg67
g513
sg60
(lp520
S"<Values at 0x3b25fa8: {'verbose': False, 'ip': '127.0.0.1', 'shutdown_timeout': 5, 'taskbar': False, 'nocron': False, 'pid_filename': 'httpserver.pid', 'maxthreads': None, 'softcron': False, 'server_name': 'Batou', 'bpython': False, 'nogui': False, 'port': 8000, 'extcron': False, 'debuglevel': 30, 'test': None, 'folder': 'C:\\\\Users\\\\Bussiere\\\\Dropbox\\\\Projets\\\\jackpoint\\\\web2py', 'config': '', 'import_models': False, 'winservice': '', 'shell': None, 'run': '', 'log_filename': 'httpserver.log', 'args': [''], 'socket_timeout': 5, 'ssl_ca_certificate': None, 'scheduler': None, 'profiler_filename': None, 'ssl_private_key': '', 'password': '<ask>', 'request_queue_size': 5, 'ssl_certificate': '', 'cronjob': False, 'numthreads': None, 'quiet': False, 'interfaces': None, 'minthreads': None, 'timeout': 10, 'plain': False, 'nobanner': False}>"
p521
asbasbasbag53
(g69
g55
NtRp522
(dp523
g58
(dp524
sg67
g427
sg60
(lp525
g53
(g74
g55
NtRp526
(dp527
g58
(dp528
g78
g79
ssg67
g522
sg60
(lp529
S'content_length'
p530
asbag53
(g74
g55
NtRp531
(dp532
g58
(dp533
g85
g86
ssg67
g522
sg60
(lp534
S':'
asbag53
(g74
g55
NtRp535
(dp536
g58
(dp537
sg67
g522
sg60
(lp538
g53
(g54
g55
NtRp539
(dp540
g58
(dp541
g66
I4
ssg67
g535
sg60
(lp542
S'477'
p543
asbasbasbag53
(g69
g55
NtRp544
(dp545
g58
(dp546
sg67
g427
sg60
(lp547
g53
(g74
g55
NtRp548
(dp549
g58
(dp550
g78
g79
ssg67
g544
sg60
(lp551
S'content_type'
p552
asbag53
(g74
g55
NtRp553
(dp554
g58
(dp555
g85
g86
ssg67
g544
sg60
(lp556
S':'
asbag53
(g74
g55
NtRp557
(dp558
g58
(dp559
sg67
g544
sg60
(lp560
g53
(g54
g55
NtRp561
(dp562
g58
(dp563
g66
I4
ssg67
g557
sg60
(lp564
S'multipart/form-data; boundary=----WebKitFormBoundaryEpKRGoyO90B2ByWx'
p565
asbasbasbag53
(g69
g55
NtRp566
(dp567
g58
(dp568
sg67
g427
sg60
(lp569
g53
(g74
g55
NtRp570
(dp571
g58
(dp572
g78
g79
ssg67
g566
sg60
(lp573
S'db_sessions'
p574
asbag53
(g74
g55
NtRp575
(dp576
g58
(dp577
g85
g86
ssg67
g566
sg60
(lp578
S':'
asbag53
(g74
g55
NtRp579
(dp580
g58
(dp581
sg67
g566
sg60
(lp582
g53
(g54
g55
NtRp583
(dp584
g58
(dp585
g66
I4
ssg67
g579
sg60
(lp586
S"set(['init'])"
p587
asbasbasbag53
(g69
g55
NtRp588
(dp589
g58
(dp590
sg67
g427
sg60
(lp591
g53
(g74
g55
NtRp592
(dp593
g58
(dp594
g78
g79
ssg67
g588
sg60
(lp595
S'debugging'
p596
asbag53
(g74
g55
NtRp597
(dp598
g58
(dp599
g85
g86
ssg67
g588
sg60
(lp600
S':'
asbag53
(g74
g55
NtRp601
(dp602
g58
(dp603
sg67
g588
sg60
(lp604
g53
(g54
g55
NtRp605
(dp606
g58
(dp607
g66
I4
ssg67
g601
sg60
(lp608
S'True'
p609
asbasbasbag53
(g69
g55
NtRp610
(dp611
g58
(dp612
sg67
g427
sg60
(lp613
g53
(g74
g55
NtRp614
(dp615
g58
(dp616
g78
g79
ssg67
g610
sg60
(lp617
S'gluon_parent'
p618
asbag53
(g74
g55
NtRp619
(dp620
g58
(dp621
g85
g86
ssg67
g610
sg60
(lp622
S':'
asbag53
(g74
g55
NtRp623
(dp624
g58
(dp625
sg67
g610
sg60
(lp626
g53
(g54
g55
NtRp627
(dp628
g58
(dp629
g66
I4
ssg67
g623
sg60
(lp630
S'C:\\Users\\Bussiere\\Dropbox\\Projets\\jackpoint\\web2py'
p631
asbasbasbag53
(g69
g55
NtRp632
(dp633
g58
(dp634
sg67
g427
sg60
(lp635
g53
(g74
g55
NtRp636
(dp637
g58
(dp638
g78
g79
ssg67
g632
sg60
(lp639
S'http_accept'
p640
asbag53
(g74
g55
NtRp641
(dp642
g58
(dp643
g85
g86
ssg67
g632
sg60
(lp644
S':'
asbag53
(g74
g55
NtRp645
(dp646
g58
(dp647
sg67
g632
sg60
(lp648
g53
(g54
g55
NtRp649
(dp650
g58
(dp651
g66
I4
ssg67
g645
sg60
(lp652
S'text/html,application/xhtml+xml,application/xml;q=0.9,*/*;q=0.8'
p653
asbasbasbag53
(g69
g55
NtRp654
(dp655
g58
(dp656
sg67
g427
sg60
(lp657
g53
(g74
g55
NtRp658
(dp659
g58
(dp660
g78
g79
ssg67
g654
sg60
(lp661
S'http_accept_charset'
p662
asbag53
(g74
g55
NtRp663
(dp664
g58
(dp665
g85
g86
ssg67
g654
sg60
(lp666
S':'
asbag53
(g74
g55
NtRp667
(dp668
g58
(dp669
sg67
g654
sg60
(lp670
g53
(g54
g55
NtRp671
(dp672
g58
(dp673
g66
I4
ssg67
g667
sg60
(lp674
S'ISO-8859-1,utf-8;q=0.7,*;q=0.3'
p675
asbasbasbag53
(g69
g55
NtRp676
(dp677
g58
(dp678
sg67
g427
sg60
(lp679
g53
(g74
g55
NtRp680
(dp681
g58
(dp682
g78
g79
ssg67
g676
sg60
(lp683
S'http_accept_encoding'
p684
asbag53
(g74
g55
NtRp685
(dp686
g58
(dp687
g85
g86
ssg67
g676
sg60
(lp688
S':'
asbag53
(g74
g55
NtRp689
(dp690
g58
(dp691
sg67
g676
sg60
(lp692
g53
(g54
g55
NtRp693
(dp694
g58
(dp695
g66
I4
ssg67
g689
sg60
(lp696
S'gzip,deflate,sdch'
p697
asbasbasbag53
(g69
g55
NtRp698
(dp699
g58
(dp700
sg67
g427
sg60
(lp701
g53
(g74
g55
NtRp702
(dp703
g58
(dp704
g78
g79
ssg67
g698
sg60
(lp705
S'http_accept_language'
p706
asbag53
(g74
g55
NtRp707
(dp708
g58
(dp709
g85
g86
ssg67
g698
sg60
(lp710
S':'
asbag53
(g74
g55
NtRp711
(dp712
g58
(dp713
sg67
g698
sg60
(lp714
g53
(g54
g55
NtRp715
(dp716
g58
(dp717
g66
I4
ssg67
g711
sg60
(lp718
S'en-US,en;q=0.8'
p719
asbasbasbag53
(g69
g55
NtRp720
(dp721
g58
(dp722
sg67
g427
sg60
(lp723
g53
(g74
g55
NtRp724
(dp725
g58
(dp726
g78
g79
ssg67
g720
sg60
(lp727
S'http_cache_control'
p728
asbag53
(g74
g55
NtRp729
(dp730
g58
(dp731
g85
g86
ssg67
g720
sg60
(lp732
S':'
asbag53
(g74
g55
NtRp733
(dp734
g58
(dp735
sg67
g720
sg60
(lp736
g53
(g54
g55
NtRp737
(dp738
g58
(dp739
g66
I4
ssg67
g733
sg60
(lp740
S'max-age=0'
p741
asbasbasbag53
(g69
g55
NtRp742
(dp743
g58
(dp744
sg67
g427
sg60
(lp745
g53
(g74
g55
NtRp746
(dp747
g58
(dp748
g78
g79
ssg67
g742
sg60
(lp749
S'http_connection'
p750
asbag53
(g74
g55
NtRp751
(dp752
g58
(dp753
g85
g86
ssg67
g742
sg60
(lp754
S':'
asbag53
(g74
g55
NtRp755
(dp756
g58
(dp757
sg67
g742
sg60
(lp758
g53
(g54
g55
NtRp759
(dp760
g58
(dp761
g66
I4
ssg67
g755
sg60
(lp762
S'keep-alive'
p763
asbasbasbag53
(g69
g55
NtRp764
(dp765
g58
(dp766
sg67
g427
sg60
(lp767
g53
(g74
g55
NtRp768
(dp769
g58
(dp770
g78
g79
ssg67
g764
sg60
(lp771
S'http_content_length'
p772
asbag53
(g74
g55
NtRp773
(dp774
g58
(dp775
g85
g86
ssg67
g764
sg60
(lp776
S':'
asbag53
(g74
g55
NtRp777
(dp778
g58
(dp779
sg67
g764
sg60
(lp780
g53
(g54
g55
NtRp781
(dp782
g58
(dp783
g66
I4
ssg67
g777
sg60
(lp784
g543
asbasbasbag53
(g69
g55
NtRp785
(dp786
g58
(dp787
sg67
g427
sg60
(lp788
g53
(g74
g55
NtRp789
(dp790
g58
(dp791
g78
g79
ssg67
g785
sg60
(lp792
S'http_content_type'
p793
asbag53
(g74
g55
NtRp794
(dp795
g58
(dp796
g85
g86
ssg67
g785
sg60
(lp797
S':'
asbag53
(g74
g55
NtRp798
(dp799
g58
(dp800
sg67
g785
sg60
(lp801
g53
(g54
g55
NtRp802
(dp803
g58
(dp804
g66
I4
ssg67
g798
sg60
(lp805
g565
asbasbasbag53
(g69
g55
NtRp806
(dp807
g58
(dp808
sg67
g427
sg60
(lp809
g53
(g74
g55
NtRp810
(dp811
g58
(dp812
g78
g79
ssg67
g806
sg60
(lp813
S'http_cookie'
p814
asbag53
(g74
g55
NtRp815
(dp816
g58
(dp817
g85
g86
ssg67
g806
sg60
(lp818
S':'
asbag53
(g74
g55
NtRp819
(dp820
g58
(dp821
sg67
g806
sg60
(lp822
g53
(g54
g55
NtRp823
(dp824
g58
(dp825
g66
I4
ssg67
g819
sg60
(lp826
S'session_id_init="14:bdd5d05c-e8ef-489f-a255-42dd2bbe47a5"'
p827
asbasbasbag53
(g69
g55
NtRp828
(dp829
g58
(dp830
sg67
g427
sg60
(lp831
g53
(g74
g55
NtRp832
(dp833
g58
(dp834
g78
g79
ssg67
g828
sg60
(lp835
S'http_host'
p836
asbag53
(g74
g55
NtRp837
(dp838
g58
(dp839
g85
g86
ssg67
g828
sg60
(lp840
S':'
asbag53
(g74
g55
NtRp841
(dp842
g58
(dp843
sg67
g828
sg60
(lp844
g53
(g54
g55
NtRp845
(dp846
g58
(dp847
g66
I4
ssg67
g841
sg60
(lp848
S'127.0.0.1:8000'
p849
asbasbasbag53
(g69
g55
NtRp850
(dp851
g58
(dp852
sg67
g427
sg60
(lp853
g53
(g74
g55
NtRp854
(dp855
g58
(dp856
g78
g79
ssg67
g850
sg60
(lp857
S'http_origin'
p858
asbag53
(g74
g55
NtRp859
(dp860
g58
(dp861
g85
g86
ssg67
g850
sg60
(lp862
S':'
asbag53
(g74
g55
NtRp863
(dp864
g58
(dp865
sg67
g850
sg60
(lp866
g53
(g54
g55
NtRp867
(dp868
g58
(dp869
g66
I4
ssg67
g863
sg60
(lp870
S'http://127.0.0.1:8000'
p871
asbasbasbag53
(g69
g55
NtRp872
(dp873
g58
(dp874
sg67
g427
sg60
(lp875
g53
(g74
g55
NtRp876
(dp877
g58
(dp878
g78
g79
ssg67
g872
sg60
(lp879
S'http_referer'
p880
asbag53
(g74
g55
NtRp881
(dp882
g58
(dp883
g85
g86
ssg67
g872
sg60
(lp884
S':'
asbag53
(g74
g55
NtRp885
(dp886
g58
(dp887
sg67
g872
sg60
(lp888
g53
(g54
g55
NtRp889
(dp890
g58
(dp891
g66
I4
ssg67
g885
sg60
(lp892
S'http://127.0.0.1:8000/init/default/invitation'
p893
asbasbasbag53
(g69
g55
NtRp894
(dp895
g58
(dp896
sg67
g427
sg60
(lp897
g53
(g74
g55
NtRp898
(dp899
g58
(dp900
g78
g79
ssg67
g894
sg60
(lp901
S'http_user_agent'
p902
asbag53
(g74
g55
NtRp903
(dp904
g58
(dp905
g85
g86
ssg67
g894
sg60
(lp906
S':'
asbag53
(g74
g55
NtRp907
(dp908
g58
(dp909
sg67
g894
sg60
(lp910
g53
(g54
g55
NtRp911
(dp912
g58
(dp913
g66
I4
ssg67
g907
sg60
(lp914
S'Mozilla/5.0 (Windows NT 6.1; WOW64) AppleWebKit/535.18 (KHTML, like Gecko) Chrome/18.0.1011.0 Safari/535.18'
p915
asbasbasbag53
(g69
g55
NtRp916
(dp917
g58
(dp918
sg67
g427
sg60
(lp919
g53
(g74
g55
NtRp920
(dp921
g58
(dp922
g78
g79
ssg67
g916
sg60
(lp923
S'is_jython'
p924
asbag53
(g74
g55
NtRp925
(dp926
g58
(dp927
g85
g86
ssg67
g916
sg60
(lp928
S':'
asbag53
(g74
g55
NtRp929
(dp930
g58
(dp931
sg67
g916
sg60
(lp932
g53
(g54
g55
NtRp933
(dp934
g58
(dp935
g66
I4
ssg67
g929
sg60
(lp936
g96
asbasbasbag53
(g69
g55
NtRp937
(dp938
g58
(dp939
sg67
g427
sg60
(lp940
g53
(g74
g55
NtRp941
(dp942
g58
(dp943
g78
g79
ssg67
g937
sg60
(lp944
S'is_pypy'
p945
asbag53
(g74
g55
NtRp946
(dp947
g58
(dp948
g85
g86
ssg67
g937
sg60
(lp949
S':'
asbag53
(g74
g55
NtRp950
(dp951
g58
(dp952
sg67
g937
sg60
(lp953
g53
(g54
g55
NtRp954
(dp955
g58
(dp956
g66
I4
ssg67
g950
sg60
(lp957
g96
asbasbasbag53
(g69
g55
NtRp958
(dp959
g58
(dp960
sg67
g427
sg60
(lp961
g53
(g74
g55
NtRp962
(dp963
g58
(dp964
g78
g79
ssg67
g958
sg60
(lp965
S'path_info'
p966
asbag53
(g74
g55
NtRp967
(dp968
g58
(dp969
g85
g86
ssg67
g958
sg60
(lp970
S':'
asbag53
(g74
g55
NtRp971
(dp972
g58
(dp973
sg67
g958
sg60
(lp974
g53
(g54
g55
NtRp975
(dp976
g58
(dp977
g66
I4
ssg67
g971
sg60
(lp978
S'/init/default/invitation'
p979
asbasbasbag53
(g69
g55
NtRp980
(dp981
g58
(dp982
sg67
g427
sg60
(lp983
g53
(g74
g55
NtRp984
(dp985
g58
(dp986
g78
g79
ssg67
g980
sg60
(lp987
S'query_string'
p988
asbag53
(g74
g55
NtRp989
(dp990
g58
(dp991
g85
g86
ssg67
g980
sg60
(lp992
S':'
asbag53
(g74
g55
NtRp993
(dp994
g58
(dp995
sg67
g980
sg60
(lp996
g53
(g54
g55
NtRp997
(dp998
g58
(dp999
g66
I4
ssg67
g993
sg60
(lp1000
S''
asbasbasbag53
(g69
g55
NtRp1001
(dp1002
g58
(dp1003
sg67
g427
sg60
(lp1004
g53
(g74
g55
NtRp1005
(dp1006
g58
(dp1007
g78
g79
ssg67
g1001
sg60
(lp1008
S'remote_addr'
p1009
asbag53
(g74
g55
NtRp1010
(dp1011
g58
(dp1012
g85
g86
ssg67
g1001
sg60
(lp1013
S':'
asbag53
(g74
g55
NtRp1014
(dp1015
g58
(dp1016
sg67
g1001
sg60
(lp1017
g53
(g54
g55
NtRp1018
(dp1019
g58
(dp1020
g66
I4
ssg67
g1014
sg60
(lp1021
g186
asbasbasbag53
(g69
g55
NtRp1022
(dp1023
g58
(dp1024
sg67
g427
sg60
(lp1025
g53
(g74
g55
NtRp1026
(dp1027
g58
(dp1028
g78
g79
ssg67
g1022
sg60
(lp1029
S'remote_port'
p1030
asbag53
(g74
g55
NtRp1031
(dp1032
g58
(dp1033
g85
g86
ssg67
g1022
sg60
(lp1034
S':'
asbag53
(g74
g55
NtRp1035
(dp1036
g58
(dp1037
sg67
g1022
sg60
(lp1038
g53
(g54
g55
NtRp1039
(dp1040
g58
(dp1041
g66
I4
ssg67
g1035
sg60
(lp1042
S'54028'
p1043
asbasbasbag53
(g69
g55
NtRp1044
(dp1045
g58
(dp1046
sg67
g427
sg60
(lp1047
g53
(g74
g55
NtRp1048
(dp1049
g58
(dp1050
g78
g79
ssg67
g1044
sg60
(lp1051
S'request_method'
p1052
asbag53
(g74
g55
NtRp1053
(dp1054
g58
(dp1055
g85
g86
ssg67
g1044
sg60
(lp1056
S':'
asbag53
(g74
g55
NtRp1057
(dp1058
g58
(dp1059
sg67
g1044
sg60
(lp1060
g53
(g54
g55
NtRp1061
(dp1062
g58
(dp1063
g66
I4
ssg67
g1057
sg60
(lp1064
S'POST'
p1065
asbasbasbag53
(g69
g55
NtRp1066
(dp1067
g58
(dp1068
sg67
g427
sg60
(lp1069
g53
(g74
g55
NtRp1070
(dp1071
g58
(dp1072
g78
g79
ssg67
g1066
sg60
(lp1073
S'script_name'
p1074
asbag53
(g74
g55
NtRp1075
(dp1076
g58
(dp1077
g85
g86
ssg67
g1066
sg60
(lp1078
S':'
asbag53
(g74
g55
NtRp1079
(dp1080
g58
(dp1081
sg67
g1066
sg60
(lp1082
g53
(g54
g55
NtRp1083
(dp1084
g58
(dp1085
g66
I4
ssg67
g1079
sg60
(lp1086
S''
asbasbasbag53
(g69
g55
NtRp1087
(dp1088
g58
(dp1089
sg67
g427
sg60
(lp1090
g53
(g74
g55
NtRp1091
(dp1092
g58
(dp1093
g78
g79
ssg67
g1087
sg60
(lp1094
S'server_name'
p1095
asbag53
(g74
g55
NtRp1096
(dp1097
g58
(dp1098
g85
g86
ssg67
g1087
sg60
(lp1099
S':'
asbag53
(g74
g55
NtRp1100
(dp1101
g58
(dp1102
sg67
g1087
sg60
(lp1103
g53
(g54
g55
NtRp1104
(dp1105
g58
(dp1106
g66
I4
ssg67
g1100
sg60
(lp1107
S'Batou'
p1108
asbasbasbag53
(g69
g55
NtRp1109
(dp1110
g58
(dp1111
sg67
g427
sg60
(lp1112
g53
(g74
g55
NtRp1113
(dp1114
g58
(dp1115
g78
g79
ssg67
g1109
sg60
(lp1116
S'server_port'
p1117
asbag53
(g74
g55
NtRp1118
(dp1119
g58
(dp1120
g85
g86
ssg67
g1109
sg60
(lp1121
S':'
asbag53
(g74
g55
NtRp1122
(dp1123
g58
(dp1124
sg67
g1109
sg60
(lp1125
g53
(g54
g55
NtRp1126
(dp1127
g58
(dp1128
g66
I4
ssg67
g1122
sg60
(lp1129
S'8000'
p1130
asbasbasbag53
(g69
g55
NtRp1131
(dp1132
g58
(dp1133
sg67
g427
sg60
(lp1134
g53
(g74
g55
NtRp1135
(dp1136
g58
(dp1137
g78
g79
ssg67
g1131
sg60
(lp1138
S'server_protocol'
p1139
asbag53
(g74
g55
NtRp1140
(dp1141
g58
(dp1142
g85
g86
ssg67
g1131
sg60
(lp1143
S':'
asbag53
(g74
g55
NtRp1144
(dp1145
g58
(dp1146
sg67
g1131
sg60
(lp1147
g53
(g54
g55
NtRp1148
(dp1149
g58
(dp1150
g66
I4
ssg67
g1144
sg60
(lp1151
S'HTTP/1.1'
p1152
asbasbasbag53
(g69
g55
NtRp1153
(dp1154
g58
(dp1155
sg67
g427
sg60
(lp1156
g53
(g74
g55
NtRp1157
(dp1158
g58
(dp1159
g78
g79
ssg67
g1153
sg60
(lp1160
S'server_software'
p1161
asbag53
(g74
g55
NtRp1162
(dp1163
g58
(dp1164
g85
g86
ssg67
g1153
sg60
(lp1165
S':'
asbag53
(g74
g55
NtRp1166
(dp1167
g58
(dp1168
sg67
g1153
sg60
(lp1169
g53
(g54
g55
NtRp1170
(dp1171
g58
(dp1172
g66
I4
ssg67
g1166
sg60
(lp1173
S'Rocket 1.2.4'
p1174
asbasbasbag53
(g69
g55
NtRp1175
(dp1176
g58
(dp1177
sg67
g427
sg60
(lp1178
g53
(g74
g55
NtRp1179
(dp1180
g58
(dp1181
g78
g79
ssg67
g1175
sg60
(lp1182
S'web2py_crontype'
p1183
asbag53
(g74
g55
NtRp1184
(dp1185
g58
(dp1186
g85
g86
ssg67
g1175
sg60
(lp1187
S':'
asbag53
(g74
g55
NtRp1188
(dp1189
g58
(dp1190
sg67
g1175
sg60
(lp1191
g53
(g54
g55
NtRp1192
(dp1193
g58
(dp1194
g66
I4
ssg67
g1188
sg60
(lp1195
S'hard'
p1196
asbasbasbag53
(g69
g55
NtRp1197
(dp1198
g58
(dp1199
sg67
g427
sg60
(lp1200
g53
(g74
g55
NtRp1201
(dp1202
g58
(dp1203
g78
g79
ssg67
g1197
sg60
(lp1204
S'web2py_path'
p1205
asbag53
(g74
g55
NtRp1206
(dp1207
g58
(dp1208
g85
g86
ssg67
g1197
sg60
(lp1209
S':'
asbag53
(g74
g55
NtRp1210
(dp1211
g58
(dp1212
sg67
g1197
sg60
(lp1213
g53
(g54
g55
NtRp1214
(dp1215
g58
(dp1216
g66
I4
ssg67
g1210
sg60
(lp1217
g474
asbasbasbag53
(g69
g55
NtRp1218
(dp1219
g58
(dp1220
sg67
g427
sg60
(lp1221
g53
(g74
g55
NtRp1222
(dp1223
g58
(dp1224
g78
g79
ssg67
g1218
sg60
(lp1225
S'web2py_version'
p1226
asbag53
(g74
g55
NtRp1227
(dp1228
g58
(dp1229
g85
g86
ssg67
g1218
sg60
(lp1230
S':'
asbag53
(g74
g55
NtRp1231
(dp1232
g58
(dp1233
sg67
g1218
sg60
(lp1234
g53
(g54
g55
NtRp1235
(dp1236
g58
(dp1237
g66
I4
ssg67
g1231
sg60
(lp1238
g53
(g62
g55
NtRp1239
(dp1240
g58
(dp1241
g66
I3
ssg67
Nsg60
(lp1242
g53
(g69
g55
NtRp1243
(dp1244
g58
(dp1245
sg67
g1239
sg60
(lp1246
g53
(g74
g55
NtRp1247
(dp1248
g58
(dp1249
sg67
g1243
sg60
(lp1250
g53
(g54
g55
NtRp1251
(dp1252
g58
(dp1253
g66
I3
ssg67
g1247
sg60
(lp1254
S'1'
asbasbasbag53
(g69
g55
NtRp1255
(dp1256
g58
(dp1257
sg67
g1239
sg60
(lp1258
g53
(g74
g55
NtRp1259
(dp1260
g58
(dp1261
sg67
g1255
sg60
(lp1262
g53
(g54
g55
NtRp1263
(dp1264
g58
(dp1265
g66
I3
ssg67
g1259
sg60
(lp1266
S'99'
p1267
asbasbasbag53
(g69
g55
NtRp1268
(dp1269
g58
(dp1270
sg67
g1239
sg60
(lp1271
g53
(g74
g55
NtRp1272
(dp1273
g58
(dp1274
sg67
g1268
sg60
(lp1275
g53
(g54
g55
NtRp1276
(dp1277
g58
(dp1278
g66
I3
ssg67
g1272
sg60
(lp1279
S'7'
asbasbasbag53
(g69
g55
NtRp1280
(dp1281
g58
(dp1282
sg67
g1239
sg60
(lp1283
g53
(g74
g55
NtRp1284
(dp1285
g58
(dp1286
sg67
g1280
sg60
(lp1287
g53
(g54
g55
NtRp1288
(dp1289
g58
(dp1290
g66
I3
ssg67
g1284
sg60
(lp1291
S'datetime.datetime(2012, 3, 4, 22, 12, 8)'
p1292
asbasbasbag53
(g69
g55
NtRp1293
(dp1294
g58
(dp1295
sg67
g1239
sg60
(lp1296
g53
(g74
g55
NtRp1297
(dp1298
g58
(dp1299
sg67
g1293
sg60
(lp1300
g53
(g54
g55
NtRp1301
(dp1302
g58
(dp1303
g66
I3
ssg67
g1297
sg60
(lp1304
S'stable'
p1305
asbasbasbasbasbasbasbag53
(g69
g55
NtRp1306
(dp1307
g58
(dp1308
sg67
g427
sg60
(lp1309
g53
(g74
g55
NtRp1310
(dp1311
g58
(dp1312
g78
g79
ssg67
g1306
sg60
(lp1313
S'wsgi_errors'
p1314
asbag53
(g74
g55
NtRp1315
(dp1316
g58
(dp1317
g85
g86
ssg67
g1306
sg60
(lp1318
S':'
asbag53
(g74
g55
NtRp1319
(dp1320
g58
(dp1321
sg67
g1306
sg60
(lp1322
g53
(g54
g55
NtRp1323
(dp1324
g58
(dp1325
g66
I4
ssg67
g1319
sg60
(lp1326
S"<open file '<stderr>', mode 'w' at 0x020200B0>"
p1327
asbasbasbag53
(g69
g55
NtRp1328
(dp1329
g58
(dp1330
sg67
g427
sg60
(lp1331
g53
(g74
g55
NtRp1332
(dp1333
g58
(dp1334
g78
g79
ssg67
g1328
sg60
(lp1335
S'wsgi_file_wrapper'
p1336
asbag53
(g74
g55
NtRp1337
(dp1338
g58
(dp1339
g85
g86
ssg67
g1328
sg60
(lp1340
S':'
asbag53
(g74
g55
NtRp1341
(dp1342
g58
(dp1343
sg67
g1328
sg60
(lp1344
g53
(g54
g55
NtRp1345
(dp1346
g58
(dp1347
g66
I4
ssg67
g1341
sg60
(lp1348
S'<class wsgiref.util.FileWrapper at 0x02C84900>'
p1349
asbasbasbag53
(g69
g55
NtRp1350
(dp1351
g58
(dp1352
sg67
g427
sg60
(lp1353
g53
(g74
g55
NtRp1354
(dp1355
g58
(dp1356
g78
g79
ssg67
g1350
sg60
(lp1357
S'wsgi_input'
p1358
asbag53
(g74
g55
NtRp1359
(dp1360
g58
(dp1361
g85
g86
ssg67
g1350
sg60
(lp1362
S':'
asbag53
(g74
g55
NtRp1363
(dp1364
g58
(dp1365
sg67
g1350
sg60
(lp1366
g53
(g54
g55
NtRp1367
(dp1368
g58
(dp1369
g66
I4
ssg67
g1363
sg60
(lp1370
S'<socket._fileobject object at 0x03FFB9B0>'
p1371
asbasbasbag53
(g69
g55
NtRp1372
(dp1373
g58
(dp1374
sg67
g427
sg60
(lp1375
g53
(g74
g55
NtRp1376
(dp1377
g58
(dp1378
g78
g79
ssg67
g1372
sg60
(lp1379
S'wsgi_multiprocess'
p1380
asbag53
(g74
g55
NtRp1381
(dp1382
g58
(dp1383
g85
g86
ssg67
g1372
sg60
(lp1384
S':'
asbag53
(g74
g55
NtRp1385
(dp1386
g58
(dp1387
sg67
g1372
sg60
(lp1388
g53
(g54
g55
NtRp1389
(dp1390
g58
(dp1391
g66
I4
ssg67
g1385
sg60
(lp1392
g96
asbasbasbag53
(g69
g55
NtRp1393
(dp1394
g58
(dp1395
sg67
g427
sg60
(lp1396
g53
(g74
g55
NtRp1397
(dp1398
g58
(dp1399
g78
g79
ssg67
g1393
sg60
(lp1400
S'wsgi_multithread'
p1401
asbag53
(g74
g55
NtRp1402
(dp1403
g58
(dp1404
g85
g86
ssg67
g1393
sg60
(lp1405
S':'
asbag53
(g74
g55
NtRp1406
(dp1407
g58
(dp1408
sg67
g1393
sg60
(lp1409
g53
(g54
g55
NtRp1410
(dp1411
g58
(dp1412
g66
I4
ssg67
g1406
sg60
(lp1413
g609
asbasbasbag53
(g69
g55
NtRp1414
(dp1415
g58
(dp1416
sg67
g427
sg60
(lp1417
g53
(g74
g55
NtRp1418
(dp1419
g58
(dp1420
g78
g79
ssg67
g1414
sg60
(lp1421
S'wsgi_run_once'
p1422
asbag53
(g74
g55
NtRp1423
(dp1424
g58
(dp1425
g85
g86
ssg67
g1414
sg60
(lp1426
S':'
asbag53
(g74
g55
NtRp1427
(dp1428
g58
(dp1429
sg67
g1414
sg60
(lp1430
g53
(g54
g55
NtRp1431
(dp1432
g58
(dp1433
g66
I4
ssg67
g1427
sg60
(lp1434
g96
asbasbasbag53
(g69
g55
NtRp1435
(dp1436
g58
(dp1437
sg67
g427
sg60
(lp1438
g53
(g74
g55
NtRp1439
(dp1440
g58
(dp1441
g78
g79
ssg67
g1435
sg60
(lp1442
S'wsgi_url_scheme'
p1443
asbag53
(g74
g55
NtRp1444
(dp1445
g58
(dp1446
g85
g86
ssg67
g1435
sg60
(lp1447
S':'
asbag53
(g74
g55
NtRp1448
(dp1449
g58
(dp1450
sg67
g1435
sg60
(lp1451
g53
(g54
g55
NtRp1452
(dp1453
g58
(dp1454
g66
I4
ssg67
g1448
sg60
(lp1455
S'http'
p1456
asbasbasbag53
(g69
g55
NtRp1457
(dp1458
g58
(dp1459
sg67
g427
sg60
(lp1460
g53
(g74
g55
NtRp1461
(dp1462
g58
(dp1463
g78
g79
ssg67
g1457
sg60
(lp1464
S'wsgi_version'
p1465
asbag53
(g74
g55
NtRp1466
(dp1467
g58
(dp1468
g85
g86
ssg67
g1457
sg60
(lp1469
S':'
asbag53
(g74
g55
NtRp1470
(dp1471
g58
(dp1472
sg67
g1457
sg60
(lp1473
g53
(g54
g55
NtRp1474
(dp1475
g58
(dp1476
g66
I4
ssg67
g1470
sg60
(lp1477
g53
(g62
g55
NtRp1478
(dp1479
g58
(dp1480
g66
I3
ssg67
Nsg60
(lp1481
g53
(g69
g55
NtRp1482
(dp1483
g58
(dp1484
sg67
g1478
sg60
(lp1485
g53
(g74
g55
NtRp1486
(dp1487
g58
(dp1488
sg67
g1482
sg60
(lp1489
g53
(g54
g55
NtRp1490
(dp1491
g58
(dp1492
g66
I3
ssg67
g1486
sg60
(lp1493
S'1'
asbasbasbag53
(g69
g55
NtRp1494
(dp1495
g58
(dp1496
sg67
g1478
sg60
(lp1497
g53
(g74
g55
NtRp1498
(dp1499
g58
(dp1500
sg67
g1494
sg60
(lp1501
g53
(g54
g55
NtRp1502
(dp1503
g58
(dp1504
g66
I3
ssg67
g1498
sg60
(lp1505
S'0'
asbasbasbasbasbasbasbasbasbasbasbag53
(g69
g55
NtRp1506
(dp1507
g58
(dp1508
sg67
g63
sg60
(lp1509
g53
(g74
g55
NtRp1510
(dp1511
g58
(dp1512
g78
g79
ssg67
g1506
sg60
(lp1513
S'extension'
p1514
asbag53
(g74
g55
NtRp1515
(dp1516
g58
(dp1517
g85
g86
ssg67
g1506
sg60
(lp1518
S':'
asbag53
(g74
g55
NtRp1519
(dp1520
g58
(dp1521
sg67
g1506
sg60
(lp1522
g53
(g54
g55
NtRp1523
(dp1524
g58
(dp1525
g66
I5
ssg67
g1519
sg60
(lp1526
S'html'
p1527
asbasbasbag53
(g69
g55
NtRp1528
(dp1529
g58
(dp1530
sg67
g63
sg60
(lp1531
g53
(g74
g55
NtRp1532
(dp1533
g58
(dp1534
g78
g79
ssg67
g1528
sg60
(lp1535
S'folder'
p1536
asbag53
(g74
g55
NtRp1537
(dp1538
g58
(dp1539
g85
g86
ssg67
g1528
sg60
(lp1540
S':'
asbag53
(g74
g55
NtRp1541
(dp1542
g58
(dp1543
sg67
g1528
sg60
(lp1544
g53
(g54
g55
NtRp1545
(dp1546
g58
(dp1547
g66
I5
ssg67
g1541
sg60
(lp1548
S'C:\\Users\\Bussiere\\Dropbox\\Projets\\jackpoint\\web2py\\applications\\init\\'
p1549
asbasbasbag53
(g69
g55
NtRp1550
(dp1551
g58
(dp1552
sg67
g63
sg60
(lp1553
g53
(g74
g55
NtRp1554
(dp1555
g58
(dp1556
g78
g79
ssg67
g1550
sg60
(lp1557
S'function'
p1558
asbag53
(g74
g55
NtRp1559
(dp1560
g58
(dp1561
g85
g86
ssg67
g1550
sg60
(lp1562
S':'
asbag53
(g74
g55
NtRp1563
(dp1564
g58
(dp1565
sg67
g1550
sg60
(lp1566
g53
(g54
g55
NtRp1567
(dp1568
g58
(dp1569
g66
I5
ssg67
g1563
sg60
(lp1570
S'invitation'
p1571
asbasbasbag53
(g69
g55
NtRp1572
(dp1573
g58
(dp1574
sg67
g63
sg60
(lp1575
g53
(g74
g55
NtRp1576
(dp1577
g58
(dp1578
g78
g79
ssg67
g1572
sg60
(lp1579
S'get_vars'
p1580
asbag53
(g74
g55
NtRp1581
(dp1582
g58
(dp1583
g85
g86
ssg67
g1572
sg60
(lp1584
S':'
asbag53
(g74
g55
NtRp1585
(dp1586
g58
(dp1587
sg67
g1572
sg60
(lp1588
g53
(g54
g55
NtRp1589
(dp1590
g58
(dp1591
g66
I5
ssg67
g1585
sg60
(lp1592
g53
(g62
g55
NtRp1593
(dp1594
g58
(dp1595
g66
I4
ssg67
Nsg60
(lp1596
sbasbasbasbag53
(g69
g55
NtRp1597
(dp1598
g58
(dp1599
sg67
g63
sg60
(lp1600
g53
(g74
g55
NtRp1601
(dp1602
g58
(dp1603
g78
g79
ssg67
g1597
sg60
(lp1604
S'global_settings'
p1605
asbag53
(g74
g55
NtRp1606
(dp1607
g58
(dp1608
g85
g86
ssg67
g1597
sg60
(lp1609
S':'
asbag53
(g74
g55
NtRp1610
(dp1611
g58
(dp1612
sg67
g1597
sg60
(lp1613
g53
(g54
g55
NtRp1614
(dp1615
g58
(dp1616
g66
I5
ssg67
g1610
sg60
(lp1617
g53
(g62
g55
NtRp1618
(dp1619
g58
(dp1620
g66
I4
ssg67
Nsg60
(lp1621
g53
(g69
g55
NtRp1622
(dp1623
g58
(dp1624
sg67
g1618
sg60
(lp1625
g53
(g74
g55
NtRp1626
(dp1627
g58
(dp1628
g78
g79
ssg67
g1622
sg60
(lp1629
g439
asbag53
(g74
g55
NtRp1630
(dp1631
g58
(dp1632
g85
g86
ssg67
g1622
sg60
(lp1633
S':'
asbag53
(g74
g55
NtRp1634
(dp1635
g58
(dp1636
sg67
g1622
sg60
(lp1637
g53
(g54
g55
NtRp1638
(dp1639
g58
(dp1640
g66
I4
ssg67
g1634
sg60
(lp1641
S"set(['C:\\\\Users\\\\Bussiere\\\\Dropbox\\\\Projets\\\\jackpoint\\\\web2py\\\\applications\\\\init\\\\'])"
p1642
asbasbasbag53
(g69
g55
NtRp1643
(dp1644
g58
(dp1645
sg67
g1618
sg60
(lp1646
g53
(g74
g55
NtRp1647
(dp1648
g58
(dp1649
g78
g79
ssg67
g1643
sg60
(lp1650
g461
asbag53
(g74
g55
NtRp1651
(dp1652
g58
(dp1653
g85
g86
ssg67
g1643
sg60
(lp1654
S':'
asbag53
(g74
g55
NtRp1655
(dp1656
g58
(dp1657
sg67
g1643
sg60
(lp1658
g53
(g54
g55
NtRp1659
(dp1660
g58
(dp1661
g66
I4
ssg67
g1655
sg60
(lp1662
g474
asbasbasbag53
(g69
g55
NtRp1663
(dp1664
g58
(dp1665
sg67
g1618
sg60
(lp1666
g53
(g74
g55
NtRp1667
(dp1668
g58
(dp1669
g78
g79
ssg67
g1663
sg60
(lp1670
g483
asbag53
(g74
g55
NtRp1671
(dp1672
g58
(dp1673
g85
g86
ssg67
g1663
sg60
(lp1674
S':'
asbag53
(g74
g55
NtRp1675
(dp1676
g58
(dp1677
sg67
g1663
sg60
(lp1678
g53
(g54
g55
NtRp1679
(dp1680
g58
(dp1681
g66
I4
ssg67
g1675
sg60
(lp1682
g53
(g62
g55
NtRp1683
(dp1684
g58
(dp1685
g66
I3
ssg67
Nsg60
(lp1686
sbasbasbasbag53
(g69
g55
NtRp1687
(dp1688
g58
(dp1689
sg67
g1618
sg60
(lp1690
g53
(g74
g55
NtRp1691
(dp1692
g58
(dp1693
g78
g79
ssg67
g1687
sg60
(lp1694
g508
asbag53
(g74
g55
NtRp1695
(dp1696
g58
(dp1697
g85
g86
ssg67
g1687
sg60
(lp1698
S':'
asbag53
(g74
g55
NtRp1699
(dp1700
g58
(dp1701
sg67
g1687
sg60
(lp1702
g53
(g54
g55
NtRp1703
(dp1704
g58
(dp1705
g66
I4
ssg67
g1699
sg60
(lp1706
S"<Values at 0x3b25fa8: {'verbose': False, 'ip': '127.0.0.1', 'shutdown_timeout': 5, 'taskbar': False, 'nocron': False, 'pid_filename': 'httpserver.pid', 'maxthreads': None, 'softcron': False, 'server_name': 'Batou', 'bpython': False, 'nogui': False, 'port': 8000, 'extcron': False, 'debuglevel': 30, 'test': None, 'folder': 'C:\\\\Users\\\\Bussiere\\\\Dropbox\\\\Projets\\\\jackpoint\\\\web2py', 'config': '', 'import_models': False, 'winservice': '', 'shell': None, 'run': '', 'log_filename': 'httpserver.log', 'args': [''], 'socket_timeout': 5, 'ssl_ca_certificate': None, 'scheduler': None, 'profiler_filename': None, 'ssl_private_key': '', 'password': '<ask>', 'request_queue_size': 5, 'ssl_certificate': '', 'cronjob': False, 'numthreads': None, 'quiet': False, 'interfaces': None, 'minthreads': None, 'timeout': 10, 'plain': False, 'nobanner': False}>"
p1707
asbasbasbag53
(g69
g55
NtRp1708
(dp1709
g58
(dp1710
sg67
g1618
sg60
(lp1711
g53
(g74
g55
NtRp1712
(dp1713
g58
(dp1714
g78
g79
ssg67
g1708
sg60
(lp1715
g574
asbag53
(g74
g55
NtRp1716
(dp1717
g58
(dp1718
g85
g86
ssg67
g1708
sg60
(lp1719
S':'
asbag53
(g74
g55
NtRp1720
(dp1721
g58
(dp1722
sg67
g1708
sg60
(lp1723
g53
(g54
g55
NtRp1724
(dp1725
g58
(dp1726
g66
I4
ssg67
g1720
sg60
(lp1727
S"set(['init'])"
p1728
asbasbasbag53
(g69
g55
NtRp1729
(dp1730
g58
(dp1731
sg67
g1618
sg60
(lp1732
g53
(g74
g55
NtRp1733
(dp1734
g58
(dp1735
g78
g79
ssg67
g1729
sg60
(lp1736
g596
asbag53
(g74
g55
NtRp1737
(dp1738
g58
(dp1739
g85
g86
ssg67
g1729
sg60
(lp1740
S':'
asbag53
(g74
g55
NtRp1741
(dp1742
g58
(dp1743
sg67
g1729
sg60
(lp1744
g53
(g54
g55
NtRp1745
(dp1746
g58
(dp1747
g66
I4
ssg67
g1741
sg60
(lp1748
g609
asbasbasbag53
(g69
g55
NtRp1749
(dp1750
g58
(dp1751
sg67
g1618
sg60
(lp1752
g53
(g74
g55
NtRp1753
(dp1754
g58
(dp1755
g78
g79
ssg67
g1749
sg60
(lp1756
g618
asbag53
(g74
g55
NtRp1757
(dp1758
g58
(dp1759
g85
g86
ssg67
g1749
sg60
(lp1760
S':'
asbag53
(g74
g55
NtRp1761
(dp1762
g58
(dp1763
sg67
g1749
sg60
(lp1764
g53
(g54
g55
NtRp1765
(dp1766
g58
(dp1767
g66
I4
ssg67
g1761
sg60
(lp1768
g631
asbasbasbag53
(g69
g55
NtRp1769
(dp1770
g58
(dp1771
sg67
g1618
sg60
(lp1772
g53
(g74
g55
NtRp1773
(dp1774
g58
(dp1775
g78
g79
ssg67
g1769
sg60
(lp1776
g924
asbag53
(g74
g55
NtRp1777
(dp1778
g58
(dp1779
g85
g86
ssg67
g1769
sg60
(lp1780
S':'
asbag53
(g74
g55
NtRp1781
(dp1782
g58
(dp1783
sg67
g1769
sg60
(lp1784
g53
(g54
g55
NtRp1785
(dp1786
g58
(dp1787
g66
I4
ssg67
g1781
sg60
(lp1788
g96
asbasbasbag53
(g69
g55
NtRp1789
(dp1790
g58
(dp1791
sg67
g1618
sg60
(lp1792
g53
(g74
g55
NtRp1793
(dp1794
g58
(dp1795
g78
g79
ssg67
g1789
sg60
(lp1796
g945
asbag53
(g74
g55
NtRp1797
(dp1798
g58
(dp1799
g85
g86
ssg67
g1789
sg60
(lp1800
S':'
asbag53
(g74
g55
NtRp1801
(dp1802
g58
(dp1803
sg67
g1789
sg60
(lp1804
g53
(g54
g55
NtRp1805
(dp1806
g58
(dp1807
g66
I4
ssg67
g1801
sg60
(lp1808
g96
asbasbasbag53
(g69
g55
NtRp1809
(dp1810
g58
(dp1811
sg67
g1618
sg60
(lp1812
g53
(g74
g55
NtRp1813
(dp1814
g58
(dp1815
g78
g79
ssg67
g1809
sg60
(lp1816
g1183
asbag53
(g74
g55
NtRp1817
(dp1818
g58
(dp1819
g85
g86
ssg67
g1809
sg60
(lp1820
S':'
asbag53
(g74
g55
NtRp1821
(dp1822
g58
(dp1823
sg67
g1809
sg60
(lp1824
g53
(g54
g55
NtRp1825
(dp1826
g58
(dp1827
g66
I4
ssg67
g1821
sg60
(lp1828
g1196
asbasbasbag53
(g69
g55
NtRp1829
(dp1830
g58
(dp1831
sg67
g1618
sg60
(lp1832
g53
(g74
g55
NtRp1833
(dp1834
g58
(dp1835
g78
g79
ssg67
g1829
sg60
(lp1836
g1226
asbag53
(g74
g55
NtRp1837
(dp1838
g58
(dp1839
g85
g86
ssg67
g1829
sg60
(lp1840
S':'
asbag53
(g74
g55
NtRp1841
(dp1842
g58
(dp1843
sg67
g1829
sg60
(lp1844
g53
(g54
g55
NtRp1845
(dp1846
g58
(dp1847
g66
I4
ssg67
g1841
sg60
(lp1848
g53
(g62
g55
NtRp1849
(dp1850
g58
(dp1851
g66
I3
ssg67
Nsg60
(lp1852
g53
(g69
g55
NtRp1853
(dp1854
g58
(dp1855
sg67
g1849
sg60
(lp1856
g53
(g74
g55
NtRp1857
(dp1858
g58
(dp1859
sg67
g1853
sg60
(lp1860
g53
(g54
g55
NtRp1861
(dp1862
g58
(dp1863
g66
I3
ssg67
g1857
sg60
(lp1864
S'1'
asbasbasbag53
(g69
g55
NtRp1865
(dp1866
g58
(dp1867
sg67
g1849
sg60
(lp1868
g53
(g74
g55
NtRp1869
(dp1870
g58
(dp1871
sg67
g1865
sg60
(lp1872
g53
(g54
g55
NtRp1873
(dp1874
g58
(dp1875
g66
I3
ssg67
g1869
sg60
(lp1876
S'99'
p1877
asbasbasbag53
(g69
g55
NtRp1878
(dp1879
g58
(dp1880
sg67
g1849
sg60
(lp1881
g53
(g74
g55
NtRp1882
(dp1883
g58
(dp1884
sg67
g1878
sg60
(lp1885
g53
(g54
g55
NtRp1886
(dp1887
g58
(dp1888
g66
I3
ssg67
g1882
sg60
(lp1889
S'7'
asbasbasbag53
(g69
g55
NtRp1890
(dp1891
g58
(dp1892
sg67
g1849
sg60
(lp1893
g53
(g74
g55
NtRp1894
(dp1895
g58
(dp1896
sg67
g1890
sg60
(lp1897
g53
(g54
g55
NtRp1898
(dp1899
g58
(dp1900
g66
I3
ssg67
g1894
sg60
(lp1901
S'datetime.datetime(2012, 3, 4, 22, 12, 8)'
p1902
asbasbasbag53
(g69
g55
NtRp1903
(dp1904
g58
(dp1905
sg67
g1849
sg60
(lp1906
g53
(g74
g55
NtRp1907
(dp1908
g58
(dp1909
sg67
g1903
sg60
(lp1910
g53
(g54
g55
NtRp1911
(dp1912
g58
(dp1913
g66
I3
ssg67
g1907
sg60
(lp1914
g1305
asbasbasbasbasbasbasbasbasbasbasbag53
(g69
g55
NtRp1915
(dp1916
g58
(dp1917
sg67
g63
sg60
(lp1918
g53
(g74
g55
NtRp1919
(dp1920
g58
(dp1921
g78
g79
ssg67
g1915
sg60
(lp1922
S'is_https'
p1923
asbag53
(g74
g55
NtRp1924
(dp1925
g58
(dp1926
g85
g86
ssg67
g1915
sg60
(lp1927
S':'
asbag53
(g74
g55
NtRp1928
(dp1929
g58
(dp1930
sg67
g1915
sg60
(lp1931
g53
(g54
g55
NtRp1932
(dp1933
g58
(dp1934
g66
I5
ssg67
g1928
sg60
(lp1935
g96
asbasbasbag53
(g69
g55
NtRp1936
(dp1937
g58
(dp1938
sg67
g63
sg60
(lp1939
g53
(g74
g55
NtRp1940
(dp1941
g58
(dp1942
g78
g79
ssg67
g1936
sg60
(lp1943
S'is_local'
p1944
asbag53
(g74
g55
NtRp1945
(dp1946
g58
(dp1947
g85
g86
ssg67
g1936
sg60
(lp1948
S':'
asbag53
(g74
g55
NtRp1949
(dp1950
g58
(dp1951
sg67
g1936
sg60
(lp1952
g53
(g54
g55
NtRp1953
(dp1954
g58
(dp1955
g66
I5
ssg67
g1949
sg60
(lp1956
g609
asbasbasbag53
(g69
g55
NtRp1957
(dp1958
g58
(dp1959
sg67
g63
sg60
(lp1960
g53
(g74
g55
NtRp1961
(dp1962
g58
(dp1963
g78
g79
ssg67
g1957
sg60
(lp1964
S'is_restful'
p1965
asbag53
(g74
g55
NtRp1966
(dp1967
g58
(dp1968
g85
g86
ssg67
g1957
sg60
(lp1969
S':'
asbag53
(g74
g55
NtRp1970
(dp1971
g58
(dp1972
sg67
g1957
sg60
(lp1973
g53
(g54
g55
NtRp1974
(dp1975
g58
(dp1976
g66
I5
ssg67
g1970
sg60
(lp1977
g96
asbasbasbag53
(g69
g55
NtRp1978
(dp1979
g58
(dp1980
sg67
g63
sg60
(lp1981
g53
(g74
g55
NtRp1982
(dp1983
g58
(dp1984
g78
g79
ssg67
g1978
sg60
(lp1985
S'now'
p1986
asbag53
(g74
g55
NtRp1987
(dp1988
g58
(dp1989
g85
g86
ssg67
g1978
sg60
(lp1990
S':'
asbag53
(g74
g55
NtRp1991
(dp1992
g58
(dp1993
sg67
g1978
sg60
(lp1994
g53
(g54
g55
NtRp1995
(dp1996
g58
(dp1997
g66
I5
ssg67
g1991
sg60
(lp1998
S'datetime.datetime(2012, 3, 25, 13, 2, 38, 721000)'
p1999
asbasbasbag53
(g69
g55
NtRp2000
(dp2001
g58
(dp2002
sg67
g63
sg60
(lp2003
g53
(g74
g55
NtRp2004
(dp2005
g58
(dp2006
g78
g79
ssg67
g2000
sg60
(lp2007
S'post_vars'
p2008
asbag53
(g74
g55
NtRp2009
(dp2010
g58
(dp2011
g85
g86
ssg67
g2000
sg60
(lp2012
S':'
asbag53
(g74
g55
NtRp2013
(dp2014
g58
(dp2015
sg67
g2000
sg60
(lp2016
g53
(g54
g55
NtRp2017
(dp2018
g58
(dp2019
g66
I5
ssg67
g2013
sg60
(lp2020
g53
(g62
g55
NtRp2021
(dp2022
g58
(dp2023
g66
I4
ssg67
Nsg60
(lp2024
g53
(g69
g55
NtRp2025
(dp2026
g58
(dp2027
sg67
g2021
sg60
(lp2028
g53
(g74
g55
NtRp2029
(dp2030
g58
(dp2031
g78
g79
ssg67
g2025
sg60
(lp2032
S'email'
p2033
asbag53
(g74
g55
NtRp2034
(dp2035
g58
(dp2036
g85
g86
ssg67
g2025
sg60
(lp2037
S':'
asbag53
(g74
g55
NtRp2038
(dp2039
g58
(dp2040
sg67
g2025
sg60
(lp2041
g53
(g54
g55
NtRp2042
(dp2043
g58
(dp2044
g66
I4
ssg67
g2038
sg60
(lp2045
S't'
asbasbasbag53
(g69
g55
NtRp2046
(dp2047
g58
(dp2048
sg67
g2021
sg60
(lp2049
g53
(g74
g55
NtRp2050
(dp2051
g58
(dp2052
g78
g79
ssg67
g2046
sg60
(lp2053
S'invitation'
p2054
asbag53
(g74
g55
NtRp2055
(dp2056
g58
(dp2057
g85
g86
ssg67
g2046
sg60
(lp2058
S':'
asbag53
(g74
g55
NtRp2059
(dp2060
g58
(dp2061
sg67
g2046
sg60
(lp2062
g53
(g54
g55
NtRp2063
(dp2064
g58
(dp2065
g66
I4
ssg67
g2059
sg60
(lp2066
S'Toto-5542'
p2067
asbasbasbasbasbasbasbag53
(g69
g55
NtRp2068
(dp2069
g58
(dp2070
sg67
g63
sg60
(lp2071
g53
(g74
g55
NtRp2072
(dp2073
g58
(dp2074
g78
g79
ssg67
g2068
sg60
(lp2075
S'url'
p2076
asbag53
(g74
g55
NtRp2077
(dp2078
g58
(dp2079
g85
g86
ssg67
g2068
sg60
(lp2080
S':'
asbag53
(g74
g55
NtRp2081
(dp2082
g58
(dp2083
sg67
g2068
sg60
(lp2084
g53
(g54
g55
NtRp2085
(dp2086
g58
(dp2087
g66
I5
ssg67
g2081
sg60
(lp2088
S'/init/default/invitation'
p2089
asbasbasbag53
(g69
g55
NtRp2090
(dp2091
g58
(dp2092
sg67
g63
sg60
(lp2093
g53
(g74
g55
NtRp2094
(dp2095
g58
(dp2096
g78
g79
ssg67
g2090
sg60
(lp2097
S'utcnow'
p2098
asbag53
(g74
g55
NtRp2099
(dp2100
g58
(dp2101
g85
g86
ssg67
g2090
sg60
(lp2102
S':'
asbag53
(g74
g55
NtRp2103
(dp2104
g58
(dp2105
sg67
g2090
sg60
(lp2106
g53
(g54
g55
NtRp2107
(dp2108
g58
(dp2109
g66
I5
ssg67
g2103
sg60
(lp2110
S'datetime.datetime(2012, 3, 25, 11, 2, 38, 721000)'
p2111
asbasbasbag53
(g69
g55
NtRp2112
(dp2113
g58
(dp2114
sg67
g63
sg60
(lp2115
g53
(g74
g55
NtRp2116
(dp2117
g58
(dp2118
g78
g79
ssg67
g2112
sg60
(lp2119
S'uuid'
p2120
asbag53
(g74
g55
NtRp2121
(dp2122
g58
(dp2123
g85
g86
ssg67
g2112
sg60
(lp2124
S':'
asbag53
(g74
g55
NtRp2125
(dp2126
g58
(dp2127
sg67
g2112
sg60
(lp2128
g53
(g54
g55
NtRp2129
(dp2130
g58
(dp2131
g66
I5
ssg67
g2125
sg60
(lp2132
S'init/127.0.0.1.2012-03-25.13-02-38.02e7058f-42d8-4e61-89a9-9c56682ce92f'
p2133
asbasbasbag53
(g69
g55
NtRp2134
(dp2135
g58
(dp2136
sg67
g63
sg60
(lp2137
g53
(g74
g55
NtRp2138
(dp2139
g58
(dp2140
g78
g79
ssg67
g2134
sg60
(lp2141
S'vars'
p2142
asbag53
(g74
g55
NtRp2143
(dp2144
g58
(dp2145
g85
g86
ssg67
g2134
sg60
(lp2146
S':'
asbag53
(g74
g55
NtRp2147
(dp2148
g58
(dp2149
sg67
g2134
sg60
(lp2150
g53
(g54
g55
NtRp2151
(dp2152
g58
(dp2153
g66
I5
ssg67
g2147
sg60
(lp2154
g53
(g62
g55
NtRp2155
(dp2156
g58
(dp2157
g66
I4
ssg67
Nsg60
(lp2158
g53
(g69
g55
NtRp2159
(dp2160
g58
(dp2161
sg67
g2155
sg60
(lp2162
g53
(g74
g55
NtRp2163
(dp2164
g58
(dp2165
g78
g79
ssg67
g2159
sg60
(lp2166
g2033
asbag53
(g74
g55
NtRp2167
(dp2168
g58
(dp2169
g85
g86
ssg67
g2159
sg60
(lp2170
S':'
asbag53
(g74
g55
NtRp2171
(dp2172
g58
(dp2173
sg67
g2159
sg60
(lp2174
g53
(g54
g55
NtRp2175
(dp2176
g58
(dp2177
g66
I4
ssg67
g2171
sg60
(lp2178
S't'
asbasbasbag53
(g69
g55
NtRp2179
(dp2180
g58
(dp2181
sg67
g2155
sg60
(lp2182
g53
(g74
g55
NtRp2183
(dp2184
g58
(dp2185
g78
g79
ssg67
g2179
sg60
(lp2186
g2054
asbag53
(g74
g55
NtRp2187
(dp2188
g58
(dp2189
g85
g86
ssg67
g2179
sg60
(lp2190
S':'
asbag53
(g74
g55
NtRp2191
(dp2192
g58
(dp2193
sg67
g2179
sg60
(lp2194
g53
(g54
g55
NtRp2195
(dp2196
g58
(dp2197
g66
I4
ssg67
g2191
sg60
(lp2198
g2067
asbasbasbasbasbasbasbag53
(g69
g55
NtRp2199
(dp2200
g58
(dp2201
sg67
g63
sg60
(lp2202
g53
(g74
g55
NtRp2203
(dp2204
g58
(dp2205
g78
g79
ssg67
g2199
sg60
(lp2206
S'wsgi'
p2207
asbag53
(g74
g55
NtRp2208
(dp2209
g58
(dp2210
g85
g86
ssg67
g2199
sg60
(lp2211
S':'
asbag53
(g74
g55
NtRp2212
(dp2213
g58
(dp2214
sg67
g2199
sg60
(lp2215
g53
(g54
g55
NtRp2216
(dp2217
g58
(dp2218
g66
I5
ssg67
g2212
sg60
(lp2219
g53
(g62
g55
NtRp2220
(dp2221
g58
(dp2222
g66
I4
ssg67
Nsg60
(lp2223
g53
(g69
g55
NtRp2224
(dp2225
g58
(dp2226
sg67
g2220
sg60
(lp2227
g53
(g74
g55
NtRp2228
(dp2229
g58
(dp2230
g78
g79
ssg67
g2224
sg60
(lp2231
S'environ'
p2232
asbag53
(g74
g55
NtRp2233
(dp2234
g58
(dp2235
g85
g86
ssg67
g2224
sg60
(lp2236
S':'
asbag53
(g74
g55
NtRp2237
(dp2238
g58
(dp2239
sg67
g2224
sg60
(lp2240
g53
(g54
g55
NtRp2241
(dp2242
g58
(dp2243
g66
I4
ssg67
g2237
sg60
(lp2244
g53
(g62
g55
NtRp2245
(dp2246
g58
(dp2247
g66
I3
ssg67
Nsg60
(lp2248
g53
(g69
g55
NtRp2249
(dp2250
g58
(dp2251
sg67
g2245
sg60
(lp2252
g53
(g74
g55
NtRp2253
(dp2254
g58
(dp2255
g78
g79
ssg67
g2249
sg60
(lp2256
S'CONTENT_LENGTH'
p2257
asbag53
(g74
g55
NtRp2258
(dp2259
g58
(dp2260
g85
g86
ssg67
g2249
sg60
(lp2261
S':'
asbag53
(g74
g55
NtRp2262
(dp2263
g58
(dp2264
sg67
g2249
sg60
(lp2265
g53
(g54
g55
NtRp2266
(dp2267
g58
(dp2268
g66
I3
ssg67
g2262
sg60
(lp2269
g543
asbasbasbag53
(g69
g55
NtRp2270
(dp2271
g58
(dp2272
sg67
g2245
sg60
(lp2273
g53
(g74
g55
NtRp2274
(dp2275
g58
(dp2276
g78
g79
ssg67
g2270
sg60
(lp2277
S'CONTENT_TYPE'
p2278
asbag53
(g74
g55
NtRp2279
(dp2280
g58
(dp2281
g85
g86
ssg67
g2270
sg60
(lp2282
S':'
asbag53
(g74
g55
NtRp2283
(dp2284
g58
(dp2285
sg67
g2270
sg60
(lp2286
g53
(g54
g55
NtRp2287
(dp2288
g58
(dp2289
g66
I3
ssg67
g2283
sg60
(lp2290
g565
asbasbasbag53
(g69
g55
NtRp2291
(dp2292
g58
(dp2293
sg67
g2245
sg60
(lp2294
g53
(g74
g55
NtRp2295
(dp2296
g58
(dp2297
g78
g79
ssg67
g2291
sg60
(lp2298
S'HTTP_ACCEPT'
p2299
asbag53
(g74
g55
NtRp2300
(dp2301
g58
(dp2302
g85
g86
ssg67
g2291
sg60
(lp2303
S':'
asbag53
(g74
g55
NtRp2304
(dp2305
g58
(dp2306
sg67
g2291
sg60
(lp2307
g53
(g54
g55
NtRp2308
(dp2309
g58
(dp2310
g66
I3
ssg67
g2304
sg60
(lp2311
g653
asbasbasbag53
(g69
g55
NtRp2312
(dp2313
g58
(dp2314
sg67
g2245
sg60
(lp2315
g53
(g74
g55
NtRp2316
(dp2317
g58
(dp2318
g78
g79
ssg67
g2312
sg60
(lp2319
S'HTTP_ACCEPT_CHARSET'
p2320
asbag53
(g74
g55
NtRp2321
(dp2322
g58
(dp2323
g85
g86
ssg67
g2312
sg60
(lp2324
S':'
asbag53
(g74
g55
NtRp2325
(dp2326
g58
(dp2327
sg67
g2312
sg60
(lp2328
g53
(g54
g55
NtRp2329
(dp2330
g58
(dp2331
g66
I3
ssg67
g2325
sg60
(lp2332
g675
asbasbasbag53
(g69
g55
NtRp2333
(dp2334
g58
(dp2335
sg67
g2245
sg60
(lp2336
g53
(g74
g55
NtRp2337
(dp2338
g58
(dp2339
g78
g79
ssg67
g2333
sg60
(lp2340
S'HTTP_ACCEPT_ENCODING'
p2341
asbag53
(g74
g55
NtRp2342
(dp2343
g58
(dp2344
g85
g86
ssg67
g2333
sg60
(lp2345
S':'
asbag53
(g74
g55
NtRp2346
(dp2347
g58
(dp2348
sg67
g2333
sg60
(lp2349
g53
(g54
g55
NtRp2350
(dp2351
g58
(dp2352
g66
I3
ssg67
g2346
sg60
(lp2353
g697
asbasbasbag53
(g69
g55
NtRp2354
(dp2355
g58
(dp2356
sg67
g2245
sg60
(lp2357
g53
(g74
g55
NtRp2358
(dp2359
g58
(dp2360
g78
g79
ssg67
g2354
sg60
(lp2361
S'HTTP_ACCEPT_LANGUAGE'
p2362
asbag53
(g74
g55
NtRp2363
(dp2364
g58
(dp2365
g85
g86
ssg67
g2354
sg60
(lp2366
S':'
asbag53
(g74
g55
NtRp2367
(dp2368
g58
(dp2369
sg67
g2354
sg60
(lp2370
g53
(g54
g55
NtRp2371
(dp2372
g58
(dp2373
g66
I3
ssg67
g2367
sg60
(lp2374
g719
asbasbasbag53
(g69
g55
NtRp2375
(dp2376
g58
(dp2377
sg67
g2245
sg60
(lp2378
g53
(g74
g55
NtRp2379
(dp2380
g58
(dp2381
g78
g79
ssg67
g2375
sg60
(lp2382
S'HTTP_CACHE_CONTROL'
p2383
asbag53
(g74
g55
NtRp2384
(dp2385
g58
(dp2386
g85
g86
ssg67
g2375
sg60
(lp2387
S':'
asbag53
(g74
g55
NtRp2388
(dp2389
g58
(dp2390
sg67
g2375
sg60
(lp2391
g53
(g54
g55
NtRp2392
(dp2393
g58
(dp2394
g66
I3
ssg67
g2388
sg60
(lp2395
g741
asbasbasbag53
(g69
g55
NtRp2396
(dp2397
g58
(dp2398
sg67
g2245
sg60
(lp2399
g53
(g74
g55
NtRp2400
(dp2401
g58
(dp2402
g78
g79
ssg67
g2396
sg60
(lp2403
S'HTTP_CONNECTION'
p2404
asbag53
(g74
g55
NtRp2405
(dp2406
g58
(dp2407
g85
g86
ssg67
g2396
sg60
(lp2408
S':'
asbag53
(g74
g55
NtRp2409
(dp2410
g58
(dp2411
sg67
g2396
sg60
(lp2412
g53
(g54
g55
NtRp2413
(dp2414
g58
(dp2415
g66
I3
ssg67
g2409
sg60
(lp2416
g763
asbasbasbag53
(g69
g55
NtRp2417
(dp2418
g58
(dp2419
sg67
g2245
sg60
(lp2420
g53
(g74
g55
NtRp2421
(dp2422
g58
(dp2423
g78
g79
ssg67
g2417
sg60
(lp2424
S'HTTP_CONTENT_LENGTH'
p2425
asbag53
(g74
g55
NtRp2426
(dp2427
g58
(dp2428
g85
g86
ssg67
g2417
sg60
(lp2429
S':'
asbag53
(g74
g55
NtRp2430
(dp2431
g58
(dp2432
sg67
g2417
sg60
(lp2433
g53
(g54
g55
NtRp2434
(dp2435
g58
(dp2436
g66
I3
ssg67
g2430
sg60
(lp2437
g543
asbasbasbag53
(g69
g55
NtRp2438
(dp2439
g58
(dp2440
sg67
g2245
sg60
(lp2441
g53
(g74
g55
NtRp2442
(dp2443
g58
(dp2444
g78
g79
ssg67
g2438
sg60
(lp2445
S'HTTP_CONTENT_TYPE'
p2446
asbag53
(g74
g55
NtRp2447
(dp2448
g58
(dp2449
g85
g86
ssg67
g2438
sg60
(lp2450
S':'
asbag53
(g74
g55
NtRp2451
(dp2452
g58
(dp2453
sg67
g2438
sg60
(lp2454
g53
(g54
g55
NtRp2455
(dp2456
g58
(dp2457
g66
I3
ssg67
g2451
sg60
(lp2458
g565
asbasbasbag53
(g69
g55
NtRp2459
(dp2460
g58
(dp2461
sg67
g2245
sg60
(lp2462
g53
(g74
g55
NtRp2463
(dp2464
g58
(dp2465
g78
g79
ssg67
g2459
sg60
(lp2466
S'HTTP_COOKIE'
p2467
asbag53
(g74
g55
NtRp2468
(dp2469
g58
(dp2470
g85
g86
ssg67
g2459
sg60
(lp2471
S':'
asbag53
(g74
g55
NtRp2472
(dp2473
g58
(dp2474
sg67
g2459
sg60
(lp2475
g53
(g54
g55
NtRp2476
(dp2477
g58
(dp2478
g66
I3
ssg67
g2472
sg60
(lp2479
g827
asbasbasbag53
(g69
g55
NtRp2480
(dp2481
g58
(dp2482
sg67
g2245
sg60
(lp2483
g53
(g74
g55
NtRp2484
(dp2485
g58
(dp2486
g78
g79
ssg67
g2480
sg60
(lp2487
S'HTTP_HOST'
p2488
asbag53
(g74
g55
NtRp2489
(dp2490
g58
(dp2491
g85
g86
ssg67
g2480
sg60
(lp2492
S':'
asbag53
(g74
g55
NtRp2493
(dp2494
g58
(dp2495
sg67
g2480
sg60
(lp2496
g53
(g54
g55
NtRp2497
(dp2498
g58
(dp2499
g66
I3
ssg67
g2493
sg60
(lp2500
g849
asbasbasbag53
(g69
g55
NtRp2501
(dp2502
g58
(dp2503
sg67
g2245
sg60
(lp2504
g53
(g74
g55
NtRp2505
(dp2506
g58
(dp2507
g78
g79
ssg67
g2501
sg60
(lp2508
S'HTTP_ORIGIN'
p2509
asbag53
(g74
g55
NtRp2510
(dp2511
g58
(dp2512
g85
g86
ssg67
g2501
sg60
(lp2513
S':'
asbag53
(g74
g55
NtRp2514
(dp2515
g58
(dp2516
sg67
g2501
sg60
(lp2517
g53
(g54
g55
NtRp2518
(dp2519
g58
(dp2520
g66
I3
ssg67
g2514
sg60
(lp2521
g871
asbasbasbag53
(g69
g55
NtRp2522
(dp2523
g58
(dp2524
sg67
g2245
sg60
(lp2525
g53
(g74
g55
NtRp2526
(dp2527
g58
(dp2528
g78
g79
ssg67
g2522
sg60
(lp2529
S'HTTP_REFERER'
p2530
asbag53
(g74
g55
NtRp2531
(dp2532
g58
(dp2533
g85
g86
ssg67
g2522
sg60
(lp2534
S':'
asbag53
(g74
g55
NtRp2535
(dp2536
g58
(dp2537
sg67
g2522
sg60
(lp2538
g53
(g54
g55
NtRp2539
(dp2540
g58
(dp2541
g66
I3
ssg67
g2535
sg60
(lp2542
g893
asbasbasbag53
(g69
g55
NtRp2543
(dp2544
g58
(dp2545
sg67
g2245
sg60
(lp2546
g53
(g74
g55
NtRp2547
(dp2548
g58
(dp2549
g78
g79
ssg67
g2543
sg60
(lp2550
S'HTTP_USER_AGENT'
p2551
asbag53
(g74
g55
NtRp2552
(dp2553
g58
(dp2554
g85
g86
ssg67
g2543
sg60
(lp2555
S':'
asbag53
(g74
g55
NtRp2556
(dp2557
g58
(dp2558
sg67
g2543
sg60
(lp2559
g53
(g54
g55
NtRp2560
(dp2561
g58
(dp2562
g66
I3
ssg67
g2556
sg60
(lp2563
g915
asbasbasbag53
(g69
g55
NtRp2564
(dp2565
g58
(dp2566
sg67
g2245
sg60
(lp2567
g53
(g74
g55
NtRp2568
(dp2569
g58
(dp2570
g78
g79
ssg67
g2564
sg60
(lp2571
S'PATH_INFO'
p2572
asbag53
(g74
g55
NtRp2573
(dp2574
g58
(dp2575
g85
g86
ssg67
g2564
sg60
(lp2576
S':'
asbag53
(g74
g55
NtRp2577
(dp2578
g58
(dp2579
sg67
g2564
sg60
(lp2580
g53
(g54
g55
NtRp2581
(dp2582
g58
(dp2583
g66
I3
ssg67
g2577
sg60
(lp2584
g979
asbasbasbag53
(g69
g55
NtRp2585
(dp2586
g58
(dp2587
sg67
g2245
sg60
(lp2588
g53
(g74
g55
NtRp2589
(dp2590
g58
(dp2591
g78
g79
ssg67
g2585
sg60
(lp2592
S'QUERY_STRING'
p2593
asbag53
(g74
g55
NtRp2594
(dp2595
g58
(dp2596
g85
g86
ssg67
g2585
sg60
(lp2597
S':'
asbag53
(g74
g55
NtRp2598
(dp2599
g58
(dp2600
sg67
g2585
sg60
(lp2601
g53
(g54
g55
NtRp2602
(dp2603
g58
(dp2604
g66
I3
ssg67
g2598
sg60
(lp2605
S''
asbasbasbag53
(g69
g55
NtRp2606
(dp2607
g58
(dp2608
sg67
g2245
sg60
(lp2609
g53
(g74
g55
NtRp2610
(dp2611
g58
(dp2612
g78
g79
ssg67
g2606
sg60
(lp2613
S'REMOTE_ADDR'
p2614
asbag53
(g74
g55
NtRp2615
(dp2616
g58
(dp2617
g85
g86
ssg67
g2606
sg60
(lp2618
S':'
asbag53
(g74
g55
NtRp2619
(dp2620
g58
(dp2621
sg67
g2606
sg60
(lp2622
g53
(g54
g55
NtRp2623
(dp2624
g58
(dp2625
g66
I3
ssg67
g2619
sg60
(lp2626
g186
asbasbasbag53
(g69
g55
NtRp2627
(dp2628
g58
(dp2629
sg67
g2245
sg60
(lp2630
g53
(g74
g55
NtRp2631
(dp2632
g58
(dp2633
g78
g79
ssg67
g2627
sg60
(lp2634
S'REMOTE_PORT'
p2635
asbag53
(g74
g55
NtRp2636
(dp2637
g58
(dp2638
g85
g86
ssg67
g2627
sg60
(lp2639
S':'
asbag53
(g74
g55
NtRp2640
(dp2641
g58
(dp2642
sg67
g2627
sg60
(lp2643
g53
(g54
g55
NtRp2644
(dp2645
g58
(dp2646
g66
I3
ssg67
g2640
sg60
(lp2647
g1043
asbasbasbag53
(g69
g55
NtRp2648
(dp2649
g58
(dp2650
sg67
g2245
sg60
(lp2651
g53
(g74
g55
NtRp2652
(dp2653
g58
(dp2654
g78
g79
ssg67
g2648
sg60
(lp2655
S'REQUEST_METHOD'
p2656
asbag53
(g74
g55
NtRp2657
(dp2658
g58
(dp2659
g85
g86
ssg67
g2648
sg60
(lp2660
S':'
asbag53
(g74
g55
NtRp2661
(dp2662
g58
(dp2663
sg67
g2648
sg60
(lp2664
g53
(g54
g55
NtRp2665
(dp2666
g58
(dp2667
g66
I3
ssg67
g2661
sg60
(lp2668
g1065
asbasbasbag53
(g69
g55
NtRp2669
(dp2670
g58
(dp2671
sg67
g2245
sg60
(lp2672
g53
(g74
g55
NtRp2673
(dp2674
g58
(dp2675
g78
g79
ssg67
g2669
sg60
(lp2676
S'SCRIPT_NAME'
p2677
asbag53
(g74
g55
NtRp2678
(dp2679
g58
(dp2680
g85
g86
ssg67
g2669
sg60
(lp2681
S':'
asbag53
(g74
g55
NtRp2682
(dp2683
g58
(dp2684
sg67
g2669
sg60
(lp2685
g53
(g54
g55
NtRp2686
(dp2687
g58
(dp2688
g66
I3
ssg67
g2682
sg60
(lp2689
S''
asbasbasbag53
(g69
g55
NtRp2690
(dp2691
g58
(dp2692
sg67
g2245
sg60
(lp2693
g53
(g74
g55
NtRp2694
(dp2695
g58
(dp2696
g78
g79
ssg67
g2690
sg60
(lp2697
S'SERVER_NAME'
p2698
asbag53
(g74
g55
NtRp2699
(dp2700
g58
(dp2701
g85
g86
ssg67
g2690
sg60
(lp2702
S':'
asbag53
(g74
g55
NtRp2703
(dp2704
g58
(dp2705
sg67
g2690
sg60
(lp2706
g53
(g54
g55
NtRp2707
(dp2708
g58
(dp2709
g66
I3
ssg67
g2703
sg60
(lp2710
g1108
asbasbasbag53
(g69
g55
NtRp2711
(dp2712
g58
(dp2713
sg67
g2245
sg60
(lp2714
g53
(g74
g55
NtRp2715
(dp2716
g58
(dp2717
g78
g79
ssg67
g2711
sg60
(lp2718
S'SERVER_PORT'
p2719
asbag53
(g74
g55
NtRp2720
(dp2721
g58
(dp2722
g85
g86
ssg67
g2711
sg60
(lp2723
S':'
asbag53
(g74
g55
NtRp2724
(dp2725
g58
(dp2726
sg67
g2711
sg60
(lp2727
g53
(g54
g55
NtRp2728
(dp2729
g58
(dp2730
g66
I3
ssg67
g2724
sg60
(lp2731
g1130
asbasbasbag53
(g69
g55
NtRp2732
(dp2733
g58
(dp2734
sg67
g2245
sg60
(lp2735
g53
(g74
g55
NtRp2736
(dp2737
g58
(dp2738
g78
g79
ssg67
g2732
sg60
(lp2739
S'SERVER_PROTOCOL'
p2740
asbag53
(g74
g55
NtRp2741
(dp2742
g58
(dp2743
g85
g86
ssg67
g2732
sg60
(lp2744
S':'
asbag53
(g74
g55
NtRp2745
(dp2746
g58
(dp2747
sg67
g2732
sg60
(lp2748
g53
(g54
g55
NtRp2749
(dp2750
g58
(dp2751
g66
I3
ssg67
g2745
sg60
(lp2752
g1152
asbasbasbag53
(g69
g55
NtRp2753
(dp2754
g58
(dp2755
sg67
g2245
sg60
(lp2756
g53
(g74
g55
NtRp2757
(dp2758
g58
(dp2759
g78
g79
ssg67
g2753
sg60
(lp2760
S'SERVER_SOFTWARE'
p2761
asbag53
(g74
g55
NtRp2762
(dp2763
g58
(dp2764
g85
g86
ssg67
g2753
sg60
(lp2765
S':'
asbag53
(g74
g55
NtRp2766
(dp2767
g58
(dp2768
sg67
g2753
sg60
(lp2769
g53
(g54
g55
NtRp2770
(dp2771
g58
(dp2772
g66
I3
ssg67
g2766
sg60
(lp2773
g1174
asbasbasbag53
(g69
g55
NtRp2774
(dp2775
g58
(dp2776
sg67
g2245
sg60
(lp2777
g53
(g74
g55
NtRp2778
(dp2779
g58
(dp2780
g78
g79
ssg67
g2774
sg60
(lp2781
S'wsgi.errors'
p2782
asbag53
(g74
g55
NtRp2783
(dp2784
g58
(dp2785
g85
g86
ssg67
g2774
sg60
(lp2786
S':'
asbag53
(g74
g55
NtRp2787
(dp2788
g58
(dp2789
sg67
g2774
sg60
(lp2790
g53
(g54
g55
NtRp2791
(dp2792
g58
(dp2793
g66
I3
ssg67
g2787
sg60
(lp2794
S"<open file '<stderr>', mode 'w' at 0x020200B0>"
p2795
asbasbasbag53
(g69
g55
NtRp2796
(dp2797
g58
(dp2798
sg67
g2245
sg60
(lp2799
g53
(g74
g55
NtRp2800
(dp2801
g58
(dp2802
g78
g79
ssg67
g2796
sg60
(lp2803
S'wsgi.file_wrapper'
p2804
asbag53
(g74
g55
NtRp2805
(dp2806
g58
(dp2807
g85
g86
ssg67
g2796
sg60
(lp2808
S':'
asbag53
(g74
g55
NtRp2809
(dp2810
g58
(dp2811
sg67
g2796
sg60
(lp2812
g53
(g54
g55
NtRp2813
(dp2814
g58
(dp2815
g66
I3
ssg67
g2809
sg60
(lp2816
S'<class wsgiref.util.FileWrapper at 0x02C84900>'
p2817
asbasbasbag53
(g69
g55
NtRp2818
(dp2819
g58
(dp2820
sg67
g2245
sg60
(lp2821
g53
(g74
g55
NtRp2822
(dp2823
g58
(dp2824
g78
g79
ssg67
g2818
sg60
(lp2825
S'wsgi.input'
p2826
asbag53
(g74
g55
NtRp2827
(dp2828
g58
(dp2829
g85
g86
ssg67
g2818
sg60
(lp2830
S':'
asbag53
(g74
g55
NtRp2831
(dp2832
g58
(dp2833
sg67
g2818
sg60
(lp2834
g53
(g54
g55
NtRp2835
(dp2836
g58
(dp2837
g66
I3
ssg67
g2831
sg60
(lp2838
S"<open file '<fdopen>', mode 'w+b' at 0x03FE1DA0>"
p2839
asbasbasbag53
(g69
g55
NtRp2840
(dp2841
g58
(dp2842
sg67
g2245
sg60
(lp2843
g53
(g74
g55
NtRp2844
(dp2845
g58
(dp2846
g78
g79
ssg67
g2840
sg60
(lp2847
S'wsgi.multiprocess'
p2848
asbag53
(g74
g55
NtRp2849
(dp2850
g58
(dp2851
g85
g86
ssg67
g2840
sg60
(lp2852
S':'
asbag53
(g74
g55
NtRp2853
(dp2854
g58
(dp2855
sg67
g2840
sg60
(lp2856
g53
(g54
g55
NtRp2857
(dp2858
g58
(dp2859
g66
I3
ssg67
g2853
sg60
(lp2860
g96
asbasbasbag53
(g69
g55
NtRp2861
(dp2862
g58
(dp2863
sg67
g2245
sg60
(lp2864
g53
(g74
g55
NtRp2865
(dp2866
g58
(dp2867
g78
g79
ssg67
g2861
sg60
(lp2868
S'wsgi.multithread'
p2869
asbag53
(g74
g55
NtRp2870
(dp2871
g58
(dp2872
g85
g86
ssg67
g2861
sg60
(lp2873
S':'
asbag53
(g74
g55
NtRp2874
(dp2875
g58
(dp2876
sg67
g2861
sg60
(lp2877
g53
(g54
g55
NtRp2878
(dp2879
g58
(dp2880
g66
I3
ssg67
g2874
sg60
(lp2881
g609
asbasbasbag53
(g69
g55
NtRp2882
(dp2883
g58
(dp2884
sg67
g2245
sg60
(lp2885
g53
(g74
g55
NtRp2886
(dp2887
g58
(dp2888
g78
g79
ssg67
g2882
sg60
(lp2889
S'wsgi.run_once'
p2890
asbag53
(g74
g55
NtRp2891
(dp2892
g58
(dp2893
g85
g86
ssg67
g2882
sg60
(lp2894
S':'
asbag53
(g74
g55
NtRp2895
(dp2896
g58
(dp2897
sg67
g2882
sg60
(lp2898
g53
(g54
g55
NtRp2899
(dp2900
g58
(dp2901
g66
I3
ssg67
g2895
sg60
(lp2902
g96
asbasbasbag53
(g69
g55
NtRp2903
(dp2904
g58
(dp2905
sg67
g2245
sg60
(lp2906
g53
(g74
g55
NtRp2907
(dp2908
g58
(dp2909
g78
g79
ssg67
g2903
sg60
(lp2910
S'wsgi.url_scheme'
p2911
asbag53
(g74
g55
NtRp2912
(dp2913
g58
(dp2914
g85
g86
ssg67
g2903
sg60
(lp2915
S':'
asbag53
(g74
g55
NtRp2916
(dp2917
g58
(dp2918
sg67
g2903
sg60
(lp2919
g53
(g54
g55
NtRp2920
(dp2921
g58
(dp2922
g66
I3
ssg67
g2916
sg60
(lp2923
g1456
asbasbasbag53
(g69
g55
NtRp2924
(dp2925
g58
(dp2926
sg67
g2245
sg60
(lp2927
g53
(g74
g55
NtRp2928
(dp2929
g58
(dp2930
g78
g79
ssg67
g2924
sg60
(lp2931
S'wsgi.version'
p2932
asbag53
(g74
g55
NtRp2933
(dp2934
g58
(dp2935
g85
g86
ssg67
g2924
sg60
(lp2936
S':'
asbag53
(g74
g55
NtRp2937
(dp2938
g58
(dp2939
sg67
g2924
sg60
(lp2940
g53
(g54
g55
NtRp2941
(dp2942
g58
(dp2943
g66
I3
ssg67
g2937
sg60
(lp2944
S'1'
asbasbasbasbasbasbasbasbasbasbasbasbasbsS'frames'
p2945
(lp2946
(dp2947
S'file'
p2948
S'C:\\Users\\Bussiere\\Dropbox\\Projets\\jackpoint\\web2py\\gluon\\restricted.py'
p2949
sS'dump'
p2950
(dp2951
sS'lnum'
p2952
I205
sS'lines'
p2953
(dp2954
I200
S'    try:'
p2955
sI201
S'        if type(code) == types.CodeType:'
p2956
sI202
S'            ccode = code'
p2957
sI203
S'        else:'
p2958
sI204
S'            ccode = compile2(code,layer)'
p2959
sI205
S'        exec ccode in environment'
p2960
sI206
S'    except HTTP:'
p2961
sI207
S'        raise'
p2962
sI208
S'    except RestrictedError:'
p2963
sI209
S'        # do not encapsulate (obfuscate) the original RestrictedError'
p2964
ssS'call'
p2965
S"(code='\\xef\\xbb\\xbf# -*- coding: utf-8 -*-\\n# this file is releas...())\\n\\nresponse._vars=response._caller(invitation)\\n', environment={'A': <class 'gluon.html.A'>, 'Auth': <class 'gluon.tools.Auth'>, 'AutocompleteWidget': <class 'gluon.sqlhtml.AutocompleteWidget'>, 'B': <class 'gluon.html.B'>, 'BEAUTIFY': <class 'gluon.html.BEAUTIFY'>, 'BODY': <class 'gluon.html.BODY'>, 'BR': <class 'gluon.html.BR'>, 'BUTTON': <class 'gluon.html.BUTTON'>, 'BooleanWidget': <class 'gluon.sqlhtml.BooleanWidget'>, 'CALLABLETYPES': (<type 'function'>, <type 'function'>, <type 'builtin_function_or_method'>, <type 'instancemethod'>, <type 'builtin_function_or_method'>), ...}, layer=r'C:\\Users\\Bussiere\\Dropbox\\Projets\\jackpoint\\web2py\\applications\\init\\controllers/default.py')"
p2966
sS'func'
p2967
S'restricted'
p2968
sa(dp2969
g2948
S'C:\\Users\\Bussiere\\Dropbox\\Projets\\jackpoint\\web2py\\applications\\init\\controllers\\default.py'
p2970
sg2950
(dp2971
sg2952
I352
sg2953
(dp2972
I341
S'    http://..../[app]/default/data/update/[table]/[id]'
p2973
sI342
S'    http://..../[app]/default/data/delete/[table]/[id]'
p2974
sI343
S'    http://..../[app]/default/data/select/[table]'
p2975
sI344
S'    http://..../[app]/default/data/search/[table]'
p2976
sI345
S'    but URLs must be signed, i.e. linked with'
p2977
sI346
S"      A('table',_href=URL('data/tables',user_signature=True))"
p2978
sI347
S'    or with the signed load operator'
p2979
sI348
S"      LOAD('default','data.load',args='tables',ajax=True,user_signature=True)"
p2980
sI349
S'    """'
p2981
sI350
S'    return dict(form=crud())'
p2982
ssg2965
S'()'
p2983
sg2967
S'<module>'
p2984
sa(dp2985
g2948
S'C:\\Users\\Bussiere\\Dropbox\\Projets\\jackpoint\\web2py\\gluon\\globals.py'
p2986
sg2950
(dp2987
sg2952
I173
sg2953
(dp2988
I168
S'        self.menu = []             # used by the default view layout'
p2989
sI169
S'        self.files = []            # used by web2py_ajax.html'
p2990
sI170
S'        self.generic_patterns = [] # patterns to allow generic views'
p2991
sI171
S"        self.delimiters = ('{{','}}')"
p2992
sI172
S'        self._vars = None'
p2993
sI173
S'        self._caller = lambda f: f()'
p2994
sI174
S'        self._view_environment = None'
p2995
sI175
S'        self._custom_commit = None'
p2996
sI176
S'        self._custom_rollback = None'
p2997
sI177
S''
ssg2965
S'(f=<function invitation at 0x03DCF530>)'
p2998
sg2967
S'<lambda>'
p2999
sa(dp3000
g2948
S'C:\\Users\\Bussiere\\Dropbox\\Projets\\jackpoint\\web2py\\applications\\init\\controllers\\default.py'
p3001
sg2950
(dp3002
sg2952
I289
sg2953
(dp3003
I288
S'           email="email",'
p3004
sI289
S'           password=crypt_pass,'
p3005
sI290
S'                           )'
p3006
sI291
S'        db.commit()'
p3007
sI292
S'        session.auth = Storage(user=user,expiration=auth.settings.expiration,hmac_key=str(uuid4()))'
p3008
sI293
S'        auth.login_bare("email",password)'
p3009
sI284
S'        my_crypt = CRYPT(key=auth.settings.hmac_key)'
p3010
sI285
S'        crypt_pass = my_crypt(password)[0]'
p3011
sI286
S'        user = db.auth_user.insert('
p3012
sI287
S'           Surnom="Surnom",'
p3013
ssg2965
S'()'
p3014
sg2967
S'invitation'
p3015
sa(dp3016
g2948
S'C:\\Users\\Bussiere\\Dropbox\\Projets\\jackpoint\\web2py\\gluon\\dal.py'
p3017
sg2950
(dp3018
sg2952
I6829
sg2953
(dp3019
I6824
S''
sI6825
S'    def _insert(self, **fields):'
p3020
sI6826
S'        return self._db._adapter._insert(self,self._listify(fields))'
p3021
sI6827
S''
sI6828
S'    def insert(self, **fields):'
p3022
sI6829
S'        return self._db._adapter.insert(self,self._listify(fields))'
p3023
sI6830
S''
sI6831
S'    def validate_and_insert(self,**fields):'
p3024
sI6832
S'        response = Row()'
p3025
sI6833
S'        response.errors = Row()'
p3026
ssg2965
S"(self=<Table {'_db': <DAL {'auth_event': <Table {'orig...on_key': <gluon.dal.Field object at 0x03DC5CF0>}>, **fields={'Surnom': 'Surnom', 'email': 'email', 'password': '7f689223289a799b54dd575b9d8802b6'})"
p3027
sg2967
S'insert'
p3028
sa(dp3029
g2948
S'C:\\Users\\Bussiere\\Dropbox\\Projets\\jackpoint\\web2py\\gluon\\dal.py'
p3030
sg2950
(dp3031
sg2952
I928
sg2953
(dp3032
I928
S'            raise e'
p3033
sI929
S"        if hasattr(table,'_primarykey'):"
p3034
sI930
S'            return dict([(k[0].name, k[1]) for k in fields \\'
p3035
sI931
S'                             if k[0].name in table._primarykey])'
p3036
sI932
S'        id = self.lastrowid(table)'
p3037
sI923
S'        try:'
p3038
sI924
S'            self.execute(query)'
p3039
sI925
S'        except Exception, e:'
p3040
sI926
S'            if isinstance(e,self.integrity_error_class()):'
p3041
sI927
S'                return None'
p3042
ssg2965
S"(self=<gluon.dal.SQLiteAdapter object at 0x03FDB8B0>, table=<Table {'_db': <DAL {'auth_event': <Table {'orig...on_key': <gluon.dal.Field object at 0x03DC5CF0>}>, fields=[(<gluon.dal.Field object at 0x03DC5950>, 'Surnom'), (<gluon.dal.Field object at 0x03DC5D10>, '7f689223289a799b54dd575b9d8802b6'), (<gluon.dal.Field object at 0x03DC5AD0>, 'email'), (<gluon.dal.Field object at 0x03DC59D0>, ''), (<gluon.dal.Field object at 0x03DC5CF0>, ''), (<gluon.dal.Field object at 0x03DC5BD0>, ''), (<gluon.dal.Field object at 0x03DC5A10>, '')])"
p3043
sg2967
g3028
sasS'pyver'
p3044
S'Python 2.5.4: C:\\Users\\Bussiere\\Dropbox\\Projets\\jackpoint\\web2py\\web2py.exe'
p3045
sS'session'
p3046
g53
(g54
g55
NtRp3047
(dp3048
g58
(dp3049
sg60
(lp3050
g53
(g62
g55
NtRp3051
(dp3052
g58
(dp3053
g66
I5
ssg67
Nsg60
(lp3054
g53
(g69
g55
NtRp3055
(dp3056
g58
(dp3057
sg67
g3051
sg60
(lp3058
g53
(g74
g55
NtRp3059
(dp3060
g58
(dp3061
g78
g79
ssg67
g3055
sg60
(lp3062
S'flash'
p3063
asbag53
(g74
g55
NtRp3064
(dp3065
g58
(dp3066
g85
g86
ssg67
g3055
sg60
(lp3067
S':'
asbag53
(g74
g55
NtRp3068
(dp3069
g58
(dp3070
sg67
g3055
sg60
(lp3071
g53
(g54
g55
NtRp3072
(dp3073
g58
(dp3074
g66
I5
ssg67
g3068
sg60
(lp3075
S''
asbasbasbasbasbsS'etype'
p3076
S"<class 'sqlite3.IntegrityError'>"
p3077
sS'date'
p3078
S'Sun Mar 25 13:02:39 2012'
p3079
sS'response'
p3080
g53
(g54
g55
NtRp3081
(dp3082
g58
(dp3083
sg60
(lp3084
g53
(g62
g55
NtRp3085
(dp3086
g58
(dp3087
g66
I5
ssg67
Nsg60
(lp3088
g53
(g69
g55
NtRp3089
(dp3090
g58
(dp3091
sg67
g3085
sg60
(lp3092
g53
(g74
g55
NtRp3093
(dp3094
g58
(dp3095
g78
g79
ssg67
g3089
sg60
(lp3096
g151
asbag53
(g74
g55
NtRp3097
(dp3098
g58
(dp3099
g85
g86
ssg67
g3089
sg60
(lp3100
S':'
asbag53
(g74
g55
NtRp3101
(dp3102
g58
(dp3103
sg67
g3089
sg60
(lp3104
g53
(g54
g55
NtRp3105
(dp3106
g58
(dp3107
g66
I5
ssg67
g3101
sg60
(lp3108
S'<cStringIO.StringO object at 0x03F4E6E0>'
p3109
asbasbasbag53
(g69
g55
NtRp3110
(dp3111
g58
(dp3112
sg67
g3085
sg60
(lp3113
g53
(g74
g55
NtRp3114
(dp3115
g58
(dp3116
g78
g79
ssg67
g3110
sg60
(lp3117
g217
asbag53
(g74
g55
NtRp3118
(dp3119
g58
(dp3120
g85
g86
ssg67
g3110
sg60
(lp3121
S':'
asbag53
(g74
g55
NtRp3122
(dp3123
g58
(dp3124
sg67
g3110
sg60
(lp3125
g53
(g54
g55
NtRp3126
(dp3127
g58
(dp3128
g66
I5
ssg67
g3122
sg60
(lp3129
g53
(g62
g55
NtRp3130
(dp3131
g58
(dp3132
g66
I4
ssg67
Nsg60
(lp3133
g53
(g69
g55
NtRp3134
(dp3135
g58
(dp3136
sg67
g3130
sg60
(lp3137
g53
(g74
g55
NtRp3138
(dp3139
g58
(dp3140
g78
g79
ssg67
g3134
sg60
(lp3141
S'session_id_init'
p3142
asbag53
(g74
g55
NtRp3143
(dp3144
g58
(dp3145
g85
g86
ssg67
g3134
sg60
(lp3146
S':'
asbag53
(g74
g55
NtRp3147
(dp3148
g58
(dp3149
sg67
g3134
sg60
(lp3150
g53
(g54
g55
NtRp3151
(dp3152
g58
(dp3153
g66
I4
ssg67
g3147
sg60
(lp3154
g53
(g62
g55
NtRp3155
(dp3156
g58
(dp3157
g66
I3
ssg67
Nsg60
(lp3158
g53
(g69
g55
NtRp3159
(dp3160
g58
(dp3161
sg67
g3155
sg60
(lp3162
g53
(g74
g55
NtRp3163
(dp3164
g58
(dp3165
g78
g79
ssg67
g3159
sg60
(lp3166
g267
asbag53
(g74
g55
NtRp3167
(dp3168
g58
(dp3169
g85
g86
ssg67
g3159
sg60
(lp3170
S':'
asbag53
(g74
g55
NtRp3171
(dp3172
g58
(dp3173
sg67
g3159
sg60
(lp3174
g53
(g54
g55
NtRp3175
(dp3176
g58
(dp3177
g66
I3
ssg67
g3171
sg60
(lp3178
S''
asbasbasbag53
(g69
g55
NtRp3179
(dp3180
g58
(dp3181
sg67
g3155
sg60
(lp3182
g53
(g74
g55
NtRp3183
(dp3184
g58
(dp3185
g78
g79
ssg67
g3179
sg60
(lp3186
g288
asbag53
(g74
g55
NtRp3187
(dp3188
g58
(dp3189
g85
g86
ssg67
g3179
sg60
(lp3190
S':'
asbag53
(g74
g55
NtRp3191
(dp3192
g58
(dp3193
sg67
g3179
sg60
(lp3194
g53
(g54
g55
NtRp3195
(dp3196
g58
(dp3197
g66
I3
ssg67
g3191
sg60
(lp3198
S''
asbasbasbag53
(g69
g55
NtRp3199
(dp3200
g58
(dp3201
sg67
g3155
sg60
(lp3202
g53
(g74
g55
NtRp3203
(dp3204
g58
(dp3205
g78
g79
ssg67
g3199
sg60
(lp3206
g309
asbag53
(g74
g55
NtRp3207
(dp3208
g58
(dp3209
g85
g86
ssg67
g3199
sg60
(lp3210
S':'
asbag53
(g74
g55
NtRp3211
(dp3212
g58
(dp3213
sg67
g3199
sg60
(lp3214
g53
(g54
g55
NtRp3215
(dp3216
g58
(dp3217
g66
I3
ssg67
g3211
sg60
(lp3218
S''
asbasbasbag53
(g69
g55
NtRp3219
(dp3220
g58
(dp3221
sg67
g3155
sg60
(lp3222
g53
(g74
g55
NtRp3223
(dp3224
g58
(dp3225
g78
g79
ssg67
g3219
sg60
(lp3226
g330
asbag53
(g74
g55
NtRp3227
(dp3228
g58
(dp3229
g85
g86
ssg67
g3219
sg60
(lp3230
S':'
asbag53
(g74
g55
NtRp3231
(dp3232
g58
(dp3233
sg67
g3219
sg60
(lp3234
g53
(g54
g55
NtRp3235
(dp3236
g58
(dp3237
g66
I3
ssg67
g3231
sg60
(lp3238
S''
asbasbasbag53
(g69
g55
NtRp3239
(dp3240
g58
(dp3241
sg67
g3155
sg60
(lp3242
g53
(g74
g55
NtRp3243
(dp3244
g58
(dp3245
g78
g79
ssg67
g3239
sg60
(lp3246
g351
asbag53
(g74
g55
NtRp3247
(dp3248
g58
(dp3249
g85
g86
ssg67
g3239
sg60
(lp3250
S':'
asbag53
(g74
g55
NtRp3251
(dp3252
g58
(dp3253
sg67
g3239
sg60
(lp3254
g53
(g54
g55
NtRp3255
(dp3256
g58
(dp3257
g66
I3
ssg67
g3251
sg60
(lp3258
S'/'
asbasbasbag53
(g69
g55
NtRp3259
(dp3260
g58
(dp3261
sg67
g3155
sg60
(lp3262
g53
(g74
g55
NtRp3263
(dp3264
g58
(dp3265
g78
g79
ssg67
g3259
sg60
(lp3266
g372
asbag53
(g74
g55
NtRp3267
(dp3268
g58
(dp3269
g85
g86
ssg67
g3259
sg60
(lp3270
S':'
asbag53
(g74
g55
NtRp3271
(dp3272
g58
(dp3273
sg67
g3259
sg60
(lp3274
g53
(g54
g55
NtRp3275
(dp3276
g58
(dp3277
g66
I3
ssg67
g3271
sg60
(lp3278
S''
asbasbasbag53
(g69
g55
NtRp3279
(dp3280
g58
(dp3281
sg67
g3155
sg60
(lp3282
g53
(g74
g55
NtRp3283
(dp3284
g58
(dp3285
g78
g79
ssg67
g3279
sg60
(lp3286
g393
asbag53
(g74
g55
NtRp3287
(dp3288
g58
(dp3289
g85
g86
ssg67
g3279
sg60
(lp3290
S':'
asbag53
(g74
g55
NtRp3291
(dp3292
g58
(dp3293
sg67
g3279
sg60
(lp3294
g53
(g54
g55
NtRp3295
(dp3296
g58
(dp3297
g66
I3
ssg67
g3291
sg60
(lp3298
S''
asbasbasbasbasbasbasbasbasbasbasbag53
(g69
g55
NtRp3299
(dp3300
g58
(dp3301
sg67
g3085
sg60
(lp3302
g53
(g74
g55
NtRp3303
(dp3304
g58
(dp3305
g78
g79
ssg67
g3299
sg60
(lp3306
S'delimiters'
p3307
asbag53
(g74
g55
NtRp3308
(dp3309
g58
(dp3310
g85
g86
ssg67
g3299
sg60
(lp3311
S':'
asbag53
(g74
g55
NtRp3312
(dp3313
g58
(dp3314
sg67
g3299
sg60
(lp3315
g53
(g54
g55
NtRp3316
(dp3317
g58
(dp3318
g66
I5
ssg67
g3312
sg60
(lp3319
g53
(g62
g55
NtRp3320
(dp3321
g58
(dp3322
g66
I4
ssg67
Nsg60
(lp3323
g53
(g69
g55
NtRp3324
(dp3325
g58
(dp3326
sg67
g3320
sg60
(lp3327
g53
(g74
g55
NtRp3328
(dp3329
g58
(dp3330
sg67
g3324
sg60
(lp3331
g53
(g54
g55
NtRp3332
(dp3333
g58
(dp3334
g66
I4
ssg67
g3328
sg60
(lp3335
S'{{'
p3336
asbasbasbag53
(g69
g55
NtRp3337
(dp3338
g58
(dp3339
sg67
g3320
sg60
(lp3340
g53
(g74
g55
NtRp3341
(dp3342
g58
(dp3343
sg67
g3337
sg60
(lp3344
g53
(g54
g55
NtRp3345
(dp3346
g58
(dp3347
g66
I4
ssg67
g3341
sg60
(lp3348
S'}}'
p3349
asbasbasbasbasbasbasbag53
(g69
g55
NtRp3350
(dp3351
g58
(dp3352
sg67
g3085
sg60
(lp3353
g53
(g74
g55
NtRp3354
(dp3355
g58
(dp3356
g78
g79
ssg67
g3350
sg60
(lp3357
S'files'
p3358
asbag53
(g74
g55
NtRp3359
(dp3360
g58
(dp3361
g85
g86
ssg67
g3350
sg60
(lp3362
S':'
asbag53
(g74
g55
NtRp3363
(dp3364
g58
(dp3365
sg67
g3350
sg60
(lp3366
g53
(g54
g55
NtRp3367
(dp3368
g58
(dp3369
g66
I5
ssg67
g3363
sg60
(lp3370
g53
(g62
g55
NtRp3371
(dp3372
g58
(dp3373
g66
I4
ssg67
Nsg60
(lp3374
sbasbasbasbag53
(g69
g55
NtRp3375
(dp3376
g58
(dp3377
sg67
g3085
sg60
(lp3378
g53
(g74
g55
NtRp3379
(dp3380
g58
(dp3381
g78
g79
ssg67
g3375
sg60
(lp3382
S'flash'
p3383
asbag53
(g74
g55
NtRp3384
(dp3385
g58
(dp3386
g85
g86
ssg67
g3375
sg60
(lp3387
S':'
asbag53
(g74
g55
NtRp3388
(dp3389
g58
(dp3390
sg67
g3375
sg60
(lp3391
g53
(g54
g55
NtRp3392
(dp3393
g58
(dp3394
g66
I5
ssg67
g3388
sg60
(lp3395
cgluon.languages
lazyT_unpickle
p3396
(S's\x08\x00\x00\x00Success!'
tRp3397
asbasbasbag53
(g69
g55
NtRp3398
(dp3399
g58
(dp3400
sg67
g3085
sg60
(lp3401
g53
(g74
g55
NtRp3402
(dp3403
g58
(dp3404
g78
g79
ssg67
g3398
sg60
(lp3405
S'generic_patterns'
p3406
asbag53
(g74
g55
NtRp3407
(dp3408
g58
(dp3409
g85
g86
ssg67
g3398
sg60
(lp3410
S':'
asbag53
(g74
g55
NtRp3411
(dp3412
g58
(dp3413
sg67
g3398
sg60
(lp3414
g53
(g54
g55
NtRp3415
(dp3416
g58
(dp3417
g66
I5
ssg67
g3411
sg60
(lp3418
g53
(g62
g55
NtRp3419
(dp3420
g58
(dp3421
g66
I4
ssg67
Nsg60
(lp3422
g53
(g69
g55
NtRp3423
(dp3424
g58
(dp3425
sg67
g3419
sg60
(lp3426
g53
(g74
g55
NtRp3427
(dp3428
g58
(dp3429
sg67
g3423
sg60
(lp3430
g53
(g54
g55
NtRp3431
(dp3432
g58
(dp3433
g66
I4
ssg67
g3427
sg60
(lp3434
S'*'
asbasbasbasbasbasbasbag53
(g69
g55
NtRp3435
(dp3436
g58
(dp3437
sg67
g3085
sg60
(lp3438
g53
(g74
g55
NtRp3439
(dp3440
g58
(dp3441
g78
g79
ssg67
g3435
sg60
(lp3442
S'headers'
p3443
asbag53
(g74
g55
NtRp3444
(dp3445
g58
(dp3446
g85
g86
ssg67
g3435
sg60
(lp3447
S':'
asbag53
(g74
g55
NtRp3448
(dp3449
g58
(dp3450
sg67
g3435
sg60
(lp3451
g53
(g54
g55
NtRp3452
(dp3453
g58
(dp3454
g66
I5
ssg67
g3448
sg60
(lp3455
g53
(g62
g55
NtRp3456
(dp3457
g58
(dp3458
g66
I4
ssg67
Nsg60
(lp3459
g53
(g69
g55
NtRp3460
(dp3461
g58
(dp3462
sg67
g3456
sg60
(lp3463
g53
(g74
g55
NtRp3464
(dp3465
g58
(dp3466
g78
g79
ssg67
g3460
sg60
(lp3467
S'Cache-Control'
p3468
asbag53
(g74
g55
NtRp3469
(dp3470
g58
(dp3471
g85
g86
ssg67
g3460
sg60
(lp3472
S':'
asbag53
(g74
g55
NtRp3473
(dp3474
g58
(dp3475
sg67
g3460
sg60
(lp3476
g53
(g54
g55
NtRp3477
(dp3478
g58
(dp3479
g66
I4
ssg67
g3473
sg60
(lp3480
S'no-store, no-cache, must-revalidate, post-check=0, pre-check=0'
p3481
asbasbasbag53
(g69
g55
NtRp3482
(dp3483
g58
(dp3484
sg67
g3456
sg60
(lp3485
g53
(g74
g55
NtRp3486
(dp3487
g58
(dp3488
g78
g79
ssg67
g3482
sg60
(lp3489
S'Content-Type'
p3490
asbag53
(g74
g55
NtRp3491
(dp3492
g58
(dp3493
g85
g86
ssg67
g3482
sg60
(lp3494
S':'
asbag53
(g74
g55
NtRp3495
(dp3496
g58
(dp3497
sg67
g3482
sg60
(lp3498
g53
(g54
g55
NtRp3499
(dp3500
g58
(dp3501
g66
I4
ssg67
g3495
sg60
(lp3502
S'text/html; charset=utf-8'
p3503
asbasbasbag53
(g69
g55
NtRp3504
(dp3505
g58
(dp3506
sg67
g3456
sg60
(lp3507
g53
(g74
g55
NtRp3508
(dp3509
g58
(dp3510
g78
g79
ssg67
g3504
sg60
(lp3511
S'Expires'
p3512
asbag53
(g74
g55
NtRp3513
(dp3514
g58
(dp3515
g85
g86
ssg67
g3504
sg60
(lp3516
S':'
asbag53
(g74
g55
NtRp3517
(dp3518
g58
(dp3519
sg67
g3504
sg60
(lp3520
g53
(g54
g55
NtRp3521
(dp3522
g58
(dp3523
g66
I4
ssg67
g3517
sg60
(lp3524
S'Sun, 25 Mar 2012 11:02:38 GMT'
p3525
asbasbasbag53
(g69
g55
NtRp3526
(dp3527
g58
(dp3528
sg67
g3456
sg60
(lp3529
g53
(g74
g55
NtRp3530
(dp3531
g58
(dp3532
g78
g79
ssg67
g3526
sg60
(lp3533
S'Pragma'
p3534
asbag53
(g74
g55
NtRp3535
(dp3536
g58
(dp3537
g85
g86
ssg67
g3526
sg60
(lp3538
S':'
asbag53
(g74
g55
NtRp3539
(dp3540
g58
(dp3541
sg67
g3526
sg60
(lp3542
g53
(g54
g55
NtRp3543
(dp3544
g58
(dp3545
g66
I4
ssg67
g3539
sg60
(lp3546
S'no-cache'
p3547
asbasbasbag53
(g69
g55
NtRp3548
(dp3549
g58
(dp3550
sg67
g3456
sg60
(lp3551
g53
(g74
g55
NtRp3552
(dp3553
g58
(dp3554
g78
g79
ssg67
g3548
sg60
(lp3555
S'X-Powered-By'
p3556
asbag53
(g74
g55
NtRp3557
(dp3558
g58
(dp3559
g85
g86
ssg67
g3548
sg60
(lp3560
S':'
asbag53
(g74
g55
NtRp3561
(dp3562
g58
(dp3563
sg67
g3548
sg60
(lp3564
g53
(g54
g55
NtRp3565
(dp3566
g58
(dp3567
g66
I4
ssg67
g3561
sg60
(lp3568
S'web2py'
p3569
asbasbasbasbasbasbasbag53
(g69
g55
NtRp3570
(dp3571
g58
(dp3572
sg67
g3085
sg60
(lp3573
g53
(g74
g55
NtRp3574
(dp3575
g58
(dp3576
g78
g79
ssg67
g3570
sg60
(lp3577
S'menu'
p3578
asbag53
(g74
g55
NtRp3579
(dp3580
g58
(dp3581
g85
g86
ssg67
g3570
sg60
(lp3582
S':'
asbag53
(g74
g55
NtRp3583
(dp3584
g58
(dp3585
sg67
g3570
sg60
(lp3586
g53
(g54
g55
NtRp3587
(dp3588
g58
(dp3589
g66
I5
ssg67
g3583
sg60
(lp3590
g53
(g62
g55
NtRp3591
(dp3592
g58
(dp3593
g66
I4
ssg67
Nsg60
(lp3594
g53
(g69
g55
NtRp3595
(dp3596
g58
(dp3597
sg67
g3591
sg60
(lp3598
g53
(g74
g55
NtRp3599
(dp3600
g58
(dp3601
sg67
g3595
sg60
(lp3602
g53
(g54
g55
NtRp3603
(dp3604
g58
(dp3605
g66
I4
ssg67
g3599
sg60
(lp3606
g53
(g62
g55
NtRp3607
(dp3608
g58
(dp3609
g66
I3
ssg67
Nsg60
(lp3610
g53
(g69
g55
NtRp3611
(dp3612
g58
(dp3613
sg67
g3607
sg60
(lp3614
g53
(g74
g55
NtRp3615
(dp3616
g58
(dp3617
sg67
g3611
sg60
(lp3618
g53
(g54
g55
NtRp3619
(dp3620
g58
(dp3621
g66
I3
ssg67
g3615
sg60
(lp3622
g3396
(S's\x04\x00\x00\x00Home'
tRp3623
asbasbasbag53
(g69
g55
NtRp3624
(dp3625
g58
(dp3626
sg67
g3607
sg60
(lp3627
g53
(g74
g55
NtRp3628
(dp3629
g58
(dp3630
sg67
g3624
sg60
(lp3631
g53
(g54
g55
NtRp3632
(dp3633
g58
(dp3634
g66
I3
ssg67
g3628
sg60
(lp3635
g96
asbasbasbag53
(g69
g55
NtRp3636
(dp3637
g58
(dp3638
sg67
g3607
sg60
(lp3639
g53
(g74
g55
NtRp3640
(dp3641
g58
(dp3642
sg67
g3636
sg60
(lp3643
g53
(g54
g55
NtRp3644
(dp3645
g58
(dp3646
g66
I3
ssg67
g3640
sg60
(lp3647
S'/init/default/index'
p3648
asbasbasbag53
(g69
g55
NtRp3649
(dp3650
g58
(dp3651
sg67
g3607
sg60
(lp3652
g53
(g74
g55
NtRp3653
(dp3654
g58
(dp3655
sg67
g3649
sg60
(lp3656
g53
(g54
g55
NtRp3657
(dp3658
g58
(dp3659
g66
I3
ssg67
g3653
sg60
(lp3660
g53
(g62
g55
NtRp3661
(dp3662
g58
(dp3663
g66
I2
ssg67
Nsg60
(lp3664
sbasbasbasbasbasbasbasbag53
(g69
g55
NtRp3665
(dp3666
g58
(dp3667
sg67
g3591
sg60
(lp3668
g53
(g74
g55
NtRp3669
(dp3670
g58
(dp3671
sg67
g3665
sg60
(lp3672
g53
(g54
g55
NtRp3673
(dp3674
g58
(dp3675
g66
I4
ssg67
g3669
sg60
(lp3676
g53
(g62
g55
NtRp3677
(dp3678
g58
(dp3679
g66
I3
ssg67
Nsg60
(lp3680
g53
(g69
g55
NtRp3681
(dp3682
g58
(dp3683
sg67
g3677
sg60
(lp3684
g53
(g74
g55
NtRp3685
(dp3686
g58
(dp3687
sg67
g3681
sg60
(lp3688
g53
(g54
g55
NtRp3689
(dp3690
g58
(dp3691
g66
I3
ssg67
g3685
sg60
(lp3692
g53
(cgluon.html
SPAN
p3693
g55
NtRp3694
(dp3695
g58
(dp3696
g78
S'color:yellow'
p3697
ssg67
Nsg60
(lp3698
g3569
asbasbasbasbag53
(g69
g55
NtRp3699
(dp3700
g58
(dp3701
sg67
g3677
sg60
(lp3702
g53
(g74
g55
NtRp3703
(dp3704
g58
(dp3705
sg67
g3699
sg60
(lp3706
g53
(g54
g55
NtRp3707
(dp3708
g58
(dp3709
g66
I3
ssg67
g3703
sg60
(lp3710
g96
asbasbasbag53
(g69
g55
NtRp3711
(dp3712
g58
(dp3713
sg67
g3677
sg60
(lp3714
g53
(g74
g55
NtRp3715
(dp3716
g58
(dp3717
sg67
g3711
sg60
(lp3718
g53
(g54
g55
NtRp3719
(dp3720
g58
(dp3721
g66
I3
ssg67
g3715
sg60
(lp3722
S'None'
p3723
asbasbasbag53
(g69
g55
NtRp3724
(dp3725
g58
(dp3726
sg67
g3677
sg60
(lp3727
g53
(g74
g55
NtRp3728
(dp3729
g58
(dp3730
sg67
g3724
sg60
(lp3731
g53
(g54
g55
NtRp3732
(dp3733
g58
(dp3734
g66
I3
ssg67
g3728
sg60
(lp3735
g53
(g62
g55
NtRp3736
(dp3737
g58
(dp3738
g66
I2
ssg67
Nsg60
(lp3739
g53
(g69
g55
NtRp3740
(dp3741
g58
(dp3742
sg67
g3736
sg60
(lp3743
g53
(g74
g55
NtRp3744
(dp3745
g58
(dp3746
sg67
g3740
sg60
(lp3747
g53
(g54
g55
NtRp3748
(dp3749
g58
(dp3750
g66
I2
ssg67
g3744
sg60
(lp3751
g53
(g62
g55
NtRp3752
(dp3753
g58
(dp3754
g66
I1
ssg67
Nsg60
(lp3755
g53
(g69
g55
NtRp3756
(dp3757
g58
(dp3758
sg67
g3752
sg60
(lp3759
g53
(g74
g55
NtRp3760
(dp3761
g58
(dp3762
sg67
g3756
sg60
(lp3763
g53
(g54
g55
NtRp3764
(dp3765
g58
(dp3766
g66
I1
ssg67
g3760
sg60
(lp3767
g3396
(S's\x08\x00\x00\x00My Sites'
tRp3768
asbasbasbag53
(g69
g55
NtRp3769
(dp3770
g58
(dp3771
sg67
g3752
sg60
(lp3772
g53
(g74
g55
NtRp3773
(dp3774
g58
(dp3775
sg67
g3769
sg60
(lp3776
g53
(g54
g55
NtRp3777
(dp3778
g58
(dp3779
g66
I1
ssg67
g3773
sg60
(lp3780
I00
asbasbasbag53
(g69
g55
NtRp3781
(dp3782
g58
(dp3783
sg67
g3752
sg60
(lp3784
g53
(g74
g55
NtRp3785
(dp3786
g58
(dp3787
sg67
g3781
sg60
(lp3788
g53
(g54
g55
NtRp3789
(dp3790
g58
(dp3791
g66
I1
ssg67
g3785
sg60
(lp3792
S'/admin/default/site'
p3793
asbasbasbasbasbasbasbag53
(g69
g55
NtRp3794
(dp3795
g58
(dp3796
sg67
g3736
sg60
(lp3797
g53
(g74
g55
NtRp3798
(dp3799
g58
(dp3800
sg67
g3794
sg60
(lp3801
g53
(g54
g55
NtRp3802
(dp3803
g58
(dp3804
g66
I2
ssg67
g3798
sg60
(lp3805
g53
(g62
g55
NtRp3806
(dp3807
g58
(dp3808
g66
I1
ssg67
Nsg60
(lp3809
g53
(g69
g55
NtRp3810
(dp3811
g58
(dp3812
sg67
g3806
sg60
(lp3813
g53
(g74
g55
NtRp3814
(dp3815
g58
(dp3816
sg67
g3810
sg60
(lp3817
g53
(g54
g55
NtRp3818
(dp3819
g58
(dp3820
g66
I1
ssg67
g3814
sg60
(lp3821
g3396
(S's\x08\x00\x00\x00This App'
tRp3822
asbasbasbag53
(g69
g55
NtRp3823
(dp3824
g58
(dp3825
sg67
g3806
sg60
(lp3826
g53
(g74
g55
NtRp3827
(dp3828
g58
(dp3829
sg67
g3823
sg60
(lp3830
g53
(g54
g55
NtRp3831
(dp3832
g58
(dp3833
g66
I1
ssg67
g3827
sg60
(lp3834
I00
asbasbasbag53
(g69
g55
NtRp3835
(dp3836
g58
(dp3837
sg67
g3806
sg60
(lp3838
g53
(g74
g55
NtRp3839
(dp3840
g58
(dp3841
sg67
g3835
sg60
(lp3842
g53
(g54
g55
NtRp3843
(dp3844
g58
(dp3845
g66
I1
ssg67
g3839
sg60
(lp3846
S'/admin/default/design/init'
p3847
asbasbasbag53
(g69
g55
NtRp3848
(dp3849
g58
(dp3850
sg67
g3806
sg60
(lp3851
g53
(g74
g55
NtRp3852
(dp3853
g58
(dp3854
sg67
g3848
sg60
(lp3855
g53
(g54
g55
NtRp3856
(dp3857
g58
(dp3858
g66
I1
ssg67
g3852
sg60
(lp3859
(lp3860
(g3396
(S's\n\x00\x00\x00Controller'
tRp3861
I00
S'/admin/default/edit/init/controllers/default.py'
tp3862
a(g3396
(S's\x04\x00\x00\x00View'
tRp3863
I00
S'/admin/default/edit/init/views/default/invitation.html'
tp3864
a(g3396
(S's\x06\x00\x00\x00Layout'
tRp3865
I00
S'/admin/default/edit/init/views/layout.html'
tp3866
a(g3396
(S's\n\x00\x00\x00Stylesheet'
tRp3867
I00
S'/admin/default/edit/init/static/css/web2py.css'
tp3868
a(g3396
(S's\x08\x00\x00\x00DB Model'
tRp3869
I00
S'/admin/default/edit/init/models/db.py'
tp3870
a(g3396
(S's\n\x00\x00\x00Menu Model'
tRp3871
I00
S'/admin/default/edit/init/models/menu.py'
tp3872
a(g3396
(S's\x08\x00\x00\x00Database'
tRp3873
I00
S'/init/appadmin/index'
tp3874
a(g3396
(S's\x06\x00\x00\x00Errors'
tRp3875
I00
S'/admin/default/errors/init'
tp3876
a(g3396
(S's\x05\x00\x00\x00About'
tRp3877
I00
S'/admin/default/about/init'
tp3878
aasbasbasbasbasbasbasbag53
(g69
g55
NtRp3879
(dp3880
g58
(dp3881
sg67
g3736
sg60
(lp3882
g53
(g74
g55
NtRp3883
(dp3884
g58
(dp3885
sg67
g3879
sg60
(lp3886
g53
(g54
g55
NtRp3887
(dp3888
g58
(dp3889
g66
I2
ssg67
g3883
sg60
(lp3890
g53
(g62
g55
NtRp3891
(dp3892
g58
(dp3893
g66
I1
ssg67
Nsg60
(lp3894
g53
(g69
g55
NtRp3895
(dp3896
g58
(dp3897
sg67
g3891
sg60
(lp3898
g53
(g74
g55
NtRp3899
(dp3900
g58
(dp3901
sg67
g3895
sg60
(lp3902
g53
(g54
g55
NtRp3903
(dp3904
g58
(dp3905
g66
I1
ssg67
g3899
sg60
(lp3906
S'web2py.com'
p3907
asbasbasbag53
(g69
g55
NtRp3908
(dp3909
g58
(dp3910
sg67
g3891
sg60
(lp3911
g53
(g74
g55
NtRp3912
(dp3913
g58
(dp3914
sg67
g3908
sg60
(lp3915
g53
(g54
g55
NtRp3916
(dp3917
g58
(dp3918
g66
I1
ssg67
g3912
sg60
(lp3919
I00
asbasbasbag53
(g69
g55
NtRp3920
(dp3921
g58
(dp3922
sg67
g3891
sg60
(lp3923
g53
(g74
g55
NtRp3924
(dp3925
g58
(dp3926
sg67
g3920
sg60
(lp3927
g53
(g54
g55
NtRp3928
(dp3929
g58
(dp3930
g66
I1
ssg67
g3924
sg60
(lp3931
S'http://www.web2py.com'
p3932
asbasbasbag53
(g69
g55
NtRp3933
(dp3934
g58
(dp3935
sg67
g3891
sg60
(lp3936
g53
(g74
g55
NtRp3937
(dp3938
g58
(dp3939
sg67
g3933
sg60
(lp3940
g53
(g54
g55
NtRp3941
(dp3942
g58
(dp3943
g66
I1
ssg67
g3937
sg60
(lp3944
(lp3945
(g3396
(S's\x08\x00\x00\x00Download'
tRp3946
I00
S'http://www.web2py.com/examples/default/download'
p3947
tp3948
a(g3396
(S's\x07\x00\x00\x00Support'
tRp3949
I00
S'http://www.web2py.com/examples/default/support'
p3950
tp3951
a(g3396
(S's\x04\x00\x00\x00Demo'
tRp3952
I00
S'http://web2py.com/demo_admin'
p3953
tp3954
a(g3396
(S's\x0e\x00\x00\x00Quick Examples'
tRp3955
I00
S'http://web2py.com/examples/default/examples'
p3956
tp3957
a(g3396
(S's\x03\x00\x00\x00FAQ'
tRp3958
I00
S'http://web2py.com/AlterEgo'
p3959
tp3960
a(g3396
(S's\x06\x00\x00\x00Videos'
tRp3961
I00
S'http://www.web2py.com/examples/default/videos/'
p3962
tp3963
a(g3396
(S's\x11\x00\x00\x00Free Applications'
tRp3964
I00
S'http://web2py.com/appliances'
p3965
tp3966
a(g3396
(S's\x07\x00\x00\x00Plugins'
tRp3967
I00
S'http://web2py.com/plugins'
p3968
tp3969
a(g3396
(S's\x07\x00\x00\x00Layouts'
tRp3970
I00
S'http://web2py.com/layouts'
p3971
tp3972
a(g3396
(S's\x07\x00\x00\x00Recipes'
tRp3973
I00
S'http://web2pyslices.com/'
p3974
tp3975
a(g3396
(S's\x08\x00\x00\x00Semantic'
tRp3976
I00
S'http://web2py.com/semantic'
p3977
tp3978
aasbasbasbasbasbasbasbag53
(g69
g55
NtRp3979
(dp3980
g58
(dp3981
sg67
g3736
sg60
(lp3982
g53
(g74
g55
NtRp3983
(dp3984
g58
(dp3985
sg67
g3979
sg60
(lp3986
g53
(g54
g55
NtRp3987
(dp3988
g58
(dp3989
g66
I2
ssg67
g3983
sg60
(lp3990
g53
(g62
g55
NtRp3991
(dp3992
g58
(dp3993
g66
I1
ssg67
Nsg60
(lp3994
g53
(g69
g55
NtRp3995
(dp3996
g58
(dp3997
sg67
g3991
sg60
(lp3998
g53
(g74
g55
NtRp3999
(dp4000
g58
(dp4001
sg67
g3995
sg60
(lp4002
g53
(g54
g55
NtRp4003
(dp4004
g58
(dp4005
g66
I1
ssg67
g3999
sg60
(lp4006
g3396
(S's\r\x00\x00\x00Documentation'
tRp4007
asbasbasbag53
(g69
g55
NtRp4008
(dp4009
g58
(dp4010
sg67
g3991
sg60
(lp4011
g53
(g74
g55
NtRp4012
(dp4013
g58
(dp4014
sg67
g4008
sg60
(lp4015
g53
(g54
g55
NtRp4016
(dp4017
g58
(dp4018
g66
I1
ssg67
g4012
sg60
(lp4019
I00
asbasbasbag53
(g69
g55
NtRp4020
(dp4021
g58
(dp4022
sg67
g3991
sg60
(lp4023
g53
(g74
g55
NtRp4024
(dp4025
g58
(dp4026
sg67
g4020
sg60
(lp4027
g53
(g54
g55
NtRp4028
(dp4029
g58
(dp4030
g66
I1
ssg67
g4024
sg60
(lp4031
S'http://www.web2py.com/book'
p4032
asbasbasbag53
(g69
g55
NtRp4033
(dp4034
g58
(dp4035
sg67
g3991
sg60
(lp4036
g53
(g74
g55
NtRp4037
(dp4038
g58
(dp4039
sg67
g4033
sg60
(lp4040
g53
(g54
g55
NtRp4041
(dp4042
g58
(dp4043
g66
I1
ssg67
g4037
sg60
(lp4044
(lp4045
(g3396
(S's\x07\x00\x00\x00Preface'
tRp4046
I00
S'http://www.web2py.com/book/default/chapter/00'
p4047
tp4048
a(g3396
(S's\x0c\x00\x00\x00Introduction'
tRp4049
I00
S'http://www.web2py.com/book/default/chapter/01'
p4050
tp4051
a(g3396
(S's\x06\x00\x00\x00Python'
tRp4052
I00
S'http://www.web2py.com/book/default/chapter/02'
p4053
tp4054
a(g3396
(S's\x08\x00\x00\x00Overview'
tRp4055
I00
S'http://www.web2py.com/book/default/chapter/03'
p4056
tp4057
a(g3396
(S's\x08\x00\x00\x00The Core'
tRp4058
I00
S'http://www.web2py.com/book/default/chapter/04'
p4059
tp4060
a(g3396
(S's\t\x00\x00\x00The Views'
tRp4061
I00
S'http://www.web2py.com/book/default/chapter/05'
p4062
tp4063
a(g3396
(S's\x08\x00\x00\x00Database'
tRp4064
I00
S'http://www.web2py.com/book/default/chapter/06'
p4065
tp4066
a(g3396
(S's\x14\x00\x00\x00Forms and Validators'
tRp4067
I00
S'http://www.web2py.com/book/default/chapter/07'
p4068
tp4069
a(g3396
(S's\r\x00\x00\x00Email and SMS'
tRp4070
I00
S'http://www.web2py.com/book/default/chapter/08'
p4071
tp4072
a(g3396
(S's\x0e\x00\x00\x00Access Control'
tRp4073
I00
S'http://www.web2py.com/book/default/chapter/09'
p4074
tp4075
a(g3396
(S's\x08\x00\x00\x00Services'
tRp4076
I00
S'http://www.web2py.com/book/default/chapter/10'
p4077
tp4078
a(g3396
(S's\x0c\x00\x00\x00Ajax Recipes'
tRp4079
I00
S'http://www.web2py.com/book/default/chapter/11'
p4080
tp4081
a(g3396
(S's\x16\x00\x00\x00Components and Plugins'
tRp4082
I00
S'http://www.web2py.com/book/default/chapter/12'
p4083
tp4084
a(g3396
(S's\x12\x00\x00\x00Deployment Recipes'
tRp4085
I00
S'http://www.web2py.com/book/default/chapter/13'
p4086
tp4087
a(g3396
(S's\r\x00\x00\x00Other Recipes'
tRp4088
I00
S'http://www.web2py.com/book/default/chapter/14'
p4089
tp4090
a(g3396
(S's\r\x00\x00\x00Buy this book'
tRp4091
I00
S'http://stores.lulu.com/web2py'
p4092
tp4093
aasbasbasbasbasbasbasbag53
(g69
g55
NtRp4094
(dp4095
g58
(dp4096
sg67
g3736
sg60
(lp4097
g53
(g74
g55
NtRp4098
(dp4099
g58
(dp4100
sg67
g4094
sg60
(lp4101
g53
(g54
g55
NtRp4102
(dp4103
g58
(dp4104
g66
I2
ssg67
g4098
sg60
(lp4105
g53
(g62
g55
NtRp4106
(dp4107
g58
(dp4108
g66
I1
ssg67
Nsg60
(lp4109
g53
(g69
g55
NtRp4110
(dp4111
g58
(dp4112
sg67
g4106
sg60
(lp4113
g53
(g74
g55
NtRp4114
(dp4115
g58
(dp4116
sg67
g4110
sg60
(lp4117
g53
(g54
g55
NtRp4118
(dp4119
g58
(dp4120
g66
I1
ssg67
g4114
sg60
(lp4121
g3396
(S's\t\x00\x00\x00Community'
tRp4122
asbasbasbag53
(g69
g55
NtRp4123
(dp4124
g58
(dp4125
sg67
g4106
sg60
(lp4126
g53
(g74
g55
NtRp4127
(dp4128
g58
(dp4129
sg67
g4123
sg60
(lp4130
g53
(g54
g55
NtRp4131
(dp4132
g58
(dp4133
g66
I1
ssg67
g4127
sg60
(lp4134
I00
asbasbasbag53
(g69
g55
NtRp4135
(dp4136
g58
(dp4137
sg67
g4106
sg60
(lp4138
g53
(g74
g55
NtRp4139
(dp4140
g58
(dp4141
sg67
g4135
sg60
(lp4142
g53
(g54
g55
NtRp4143
(dp4144
g58
(dp4145
g66
I1
ssg67
g4139
sg60
(lp4146
Nasbasbasbag53
(g69
g55
NtRp4147
(dp4148
g58
(dp4149
sg67
g4106
sg60
(lp4150
g53
(g74
g55
NtRp4151
(dp4152
g58
(dp4153
sg67
g4147
sg60
(lp4154
g53
(g54
g55
NtRp4155
(dp4156
g58
(dp4157
g66
I1
ssg67
g4151
sg60
(lp4158
(lp4159
(g3396
(S's\x06\x00\x00\x00Groups'
tRp4160
I00
S'http://www.web2py.com/examples/default/usergroups'
p4161
tp4162
a(g3396
(S's\x07\x00\x00\x00Twitter'
tRp4163
I00
S'http://twitter.com/web2py'
p4164
tp4165
a(g3396
(S's\t\x00\x00\x00Live Chat'
tRp4166
I00
S'http://webchat.freenode.net/?channels=web2py'
p4167
tp4168
aasbasbasbasbasbasbasbag53
(g69
g55
NtRp4169
(dp4170
g58
(dp4171
sg67
g3736
sg60
(lp4172
g53
(g74
g55
NtRp4173
(dp4174
g58
(dp4175
sg67
g4169
sg60
(lp4176
g53
(g54
g55
NtRp4177
(dp4178
g58
(dp4179
g66
I2
ssg67
g4173
sg60
(lp4180
g53
(g62
g55
NtRp4181
(dp4182
g58
(dp4183
g66
I1
ssg67
Nsg60
(lp4184
g53
(g69
g55
NtRp4185
(dp4186
g58
(dp4187
sg67
g4181
sg60
(lp4188
g53
(g74
g55
NtRp4189
(dp4190
g58
(dp4191
sg67
g4185
sg60
(lp4192
g53
(g54
g55
NtRp4193
(dp4194
g58
(dp4195
g66
I1
ssg67
g4189
sg60
(lp4196
g3396
(S's\x07\x00\x00\x00Plugins'
tRp4197
asbasbasbag53
(g69
g55
NtRp4198
(dp4199
g58
(dp4200
sg67
g4181
sg60
(lp4201
g53
(g74
g55
NtRp4202
(dp4203
g58
(dp4204
sg67
g4198
sg60
(lp4205
g53
(g54
g55
NtRp4206
(dp4207
g58
(dp4208
g66
I1
ssg67
g4202
sg60
(lp4209
I00
asbasbasbag53
(g69
g55
NtRp4210
(dp4211
g58
(dp4212
sg67
g4181
sg60
(lp4213
g53
(g74
g55
NtRp4214
(dp4215
g58
(dp4216
sg67
g4210
sg60
(lp4217
g53
(g54
g55
NtRp4218
(dp4219
g58
(dp4220
g66
I1
ssg67
g4214
sg60
(lp4221
Nasbasbasbag53
(g69
g55
NtRp4222
(dp4223
g58
(dp4224
sg67
g4181
sg60
(lp4225
g53
(g74
g55
NtRp4226
(dp4227
g58
(dp4228
sg67
g4222
sg60
(lp4229
g53
(g54
g55
NtRp4230
(dp4231
g58
(dp4232
g66
I1
ssg67
g4226
sg60
(lp4233
(lp4234
(S'plugin_wiki'
p4235
I00
S'http://web2py.com/examples/default/download'
p4236
tp4237
a(g3396
(S's\r\x00\x00\x00Other Plugins'
tRp4238
I00
g3968
tp4239
a(g3396
(S's\x0e\x00\x00\x00Layout Plugins'
tRp4240
I00
g3971
tp4241
aasbasbasbasbasbasbasbasbasbasbasbasbasbasbasbasbasbasbasbag53
(g69
g55
NtRp4242
(dp4243
g58
(dp4244
sg67
g3085
sg60
(lp4245
g53
(g74
g55
NtRp4246
(dp4247
g58
(dp4248
g78
g79
ssg67
g4242
sg60
(lp4249
S'meta'
p4250
asbag53
(g74
g55
NtRp4251
(dp4252
g58
(dp4253
g85
g86
ssg67
g4242
sg60
(lp4254
S':'
asbag53
(g74
g55
NtRp4255
(dp4256
g58
(dp4257
sg67
g4242
sg60
(lp4258
g53
(g54
g55
NtRp4259
(dp4260
g58
(dp4261
g66
I5
ssg67
g4255
sg60
(lp4262
g53
(g62
g55
NtRp4263
(dp4264
g58
(dp4265
g66
I4
ssg67
Nsg60
(lp4266
g53
(g69
g55
NtRp4267
(dp4268
g58
(dp4269
sg67
g4263
sg60
(lp4270
g53
(g74
g55
NtRp4271
(dp4272
g58
(dp4273
g78
g79
ssg67
g4267
sg60
(lp4274
S'author'
p4275
asbag53
(g74
g55
NtRp4276
(dp4277
g58
(dp4278
g85
g86
ssg67
g4267
sg60
(lp4279
S':'
asbag53
(g74
g55
NtRp4280
(dp4281
g58
(dp4282
sg67
g4267
sg60
(lp4283
g53
(g54
g55
NtRp4284
(dp4285
g58
(dp4286
g66
I4
ssg67
g4280
sg60
(lp4287
S'Your Name <you@example.com>'
p4288
asbasbasbag53
(g69
g55
NtRp4289
(dp4290
g58
(dp4291
sg67
g4263
sg60
(lp4292
g53
(g74
g55
NtRp4293
(dp4294
g58
(dp4295
g78
g79
ssg67
g4289
sg60
(lp4296
S'copyright'
p4297
asbag53
(g74
g55
NtRp4298
(dp4299
g58
(dp4300
g85
g86
ssg67
g4289
sg60
(lp4301
S':'
asbag53
(g74
g55
NtRp4302
(dp4303
g58
(dp4304
sg67
g4289
sg60
(lp4305
g53
(g54
g55
NtRp4306
(dp4307
g58
(dp4308
g66
I4
ssg67
g4302
sg60
(lp4309
S'Copyright 2011'
p4310
asbasbasbag53
(g69
g55
NtRp4311
(dp4312
g58
(dp4313
sg67
g4263
sg60
(lp4314
g53
(g74
g55
NtRp4315
(dp4316
g58
(dp4317
g78
g79
ssg67
g4311
sg60
(lp4318
S'description'
p4319
asbag53
(g74
g55
NtRp4320
(dp4321
g58
(dp4322
g85
g86
ssg67
g4311
sg60
(lp4323
S':'
asbag53
(g74
g55
NtRp4324
(dp4325
g58
(dp4326
sg67
g4311
sg60
(lp4327
g53
(g54
g55
NtRp4328
(dp4329
g58
(dp4330
g66
I4
ssg67
g4324
sg60
(lp4331
S'a cool new app'
p4332
asbasbasbag53
(g69
g55
NtRp4333
(dp4334
g58
(dp4335
sg67
g4263
sg60
(lp4336
g53
(g74
g55
NtRp4337
(dp4338
g58
(dp4339
g78
g79
ssg67
g4333
sg60
(lp4340
S'generator'
p4341
asbag53
(g74
g55
NtRp4342
(dp4343
g58
(dp4344
g85
g86
ssg67
g4333
sg60
(lp4345
S':'
asbag53
(g74
g55
NtRp4346
(dp4347
g58
(dp4348
sg67
g4333
sg60
(lp4349
g53
(g54
g55
NtRp4350
(dp4351
g58
(dp4352
g66
I4
ssg67
g4346
sg60
(lp4353
S'Web2py Web Framework'
p4354
asbasbasbag53
(g69
g55
NtRp4355
(dp4356
g58
(dp4357
sg67
g4263
sg60
(lp4358
g53
(g74
g55
NtRp4359
(dp4360
g58
(dp4361
g78
g79
ssg67
g4355
sg60
(lp4362
S'keywords'
p4363
asbag53
(g74
g55
NtRp4364
(dp4365
g58
(dp4366
g85
g86
ssg67
g4355
sg60
(lp4367
S':'
asbag53
(g74
g55
NtRp4368
(dp4369
g58
(dp4370
sg67
g4355
sg60
(lp4371
g53
(g54
g55
NtRp4372
(dp4373
g58
(dp4374
g66
I4
ssg67
g4368
sg60
(lp4375
S'web2py, python, framework'
p4376
asbasbasbasbasbasbasbag53
(g69
g55
NtRp4377
(dp4378
g58
(dp4379
sg67
g3085
sg60
(lp4380
g53
(g74
g55
NtRp4381
(dp4382
g58
(dp4383
g78
g79
ssg67
g4377
sg60
(lp4384
S'postprocessing'
p4385
asbag53
(g74
g55
NtRp4386
(dp4387
g58
(dp4388
g85
g86
ssg67
g4377
sg60
(lp4389
S':'
asbag53
(g74
g55
NtRp4390
(dp4391
g58
(dp4392
sg67
g4377
sg60
(lp4393
g53
(g54
g55
NtRp4394
(dp4395
g58
(dp4396
g66
I5
ssg67
g4390
sg60
(lp4397
g53
(g62
g55
NtRp4398
(dp4399
g58
(dp4400
g66
I4
ssg67
Nsg60
(lp4401
sbasbasbasbag53
(g69
g55
NtRp4402
(dp4403
g58
(dp4404
sg67
g3085
sg60
(lp4405
g53
(g74
g55
NtRp4406
(dp4407
g58
(dp4408
g78
g79
ssg67
g4402
sg60
(lp4409
S'session_db'
p4410
asbag53
(g74
g55
NtRp4411
(dp4412
g58
(dp4413
g85
g86
ssg67
g4402
sg60
(lp4414
S':'
asbag53
(g74
g55
NtRp4415
(dp4416
g58
(dp4417
sg67
g4402
sg60
(lp4418
g53
(g54
g55
NtRp4419
(dp4420
g58
(dp4421
g66
I5
ssg67
g4415
sg60
(lp4422
g609
asbasbasbag53
(g69
g55
NtRp4423
(dp4424
g58
(dp4425
sg67
g3085
sg60
(lp4426
g53
(g74
g55
NtRp4427
(dp4428
g58
(dp4429
g78
g79
ssg67
g4423
sg60
(lp4430
S'session_id'
p4431
asbag53
(g74
g55
NtRp4432
(dp4433
g58
(dp4434
g85
g86
ssg67
g4423
sg60
(lp4435
S':'
asbag53
(g74
g55
NtRp4436
(dp4437
g58
(dp4438
sg67
g4423
sg60
(lp4439
g53
(g54
g55
NtRp4440
(dp4441
g58
(dp4442
g66
I5
ssg67
g4436
sg60
(lp4443
S'14:bdd5d05c-e8ef-489f-a255-42dd2bbe47a5'
p4444
asbasbasbag53
(g69
g55
NtRp4445
(dp4446
g58
(dp4447
sg67
g3085
sg60
(lp4448
g53
(g74
g55
NtRp4449
(dp4450
g58
(dp4451
g78
g79
ssg67
g4445
sg60
(lp4452
S'session_id_name'
p4453
asbag53
(g74
g55
NtRp4454
(dp4455
g58
(dp4456
g85
g86
ssg67
g4445
sg60
(lp4457
S':'
asbag53
(g74
g55
NtRp4458
(dp4459
g58
(dp4460
sg67
g4445
sg60
(lp4461
g53
(g54
g55
NtRp4462
(dp4463
g58
(dp4464
g66
I5
ssg67
g4458
sg60
(lp4465
S'session_id_init'
p4466
asbasbasbag53
(g69
g55
NtRp4467
(dp4468
g58
(dp4469
sg67
g3085
sg60
(lp4470
g53
(g74
g55
NtRp4471
(dp4472
g58
(dp4473
g78
g79
ssg67
g4467
sg60
(lp4474
S'status'
p4475
asbag53
(g74
g55
NtRp4476
(dp4477
g58
(dp4478
g85
g86
ssg67
g4467
sg60
(lp4479
S':'
asbag53
(g74
g55
NtRp4480
(dp4481
g58
(dp4482
sg67
g4467
sg60
(lp4483
g53
(g54
g55
NtRp4484
(dp4485
g58
(dp4486
g66
I5
ssg67
g4480
sg60
(lp4487
S'200'
p4488
asbasbasbag53
(g69
g55
NtRp4489
(dp4490
g58
(dp4491
sg67
g3085
sg60
(lp4492
g53
(g74
g55
NtRp4493
(dp4494
g58
(dp4495
g78
g79
ssg67
g4489
sg60
(lp4496
S'subtitle'
p4497
asbag53
(g74
g55
NtRp4498
(dp4499
g58
(dp4500
g85
g86
ssg67
g4489
sg60
(lp4501
S':'
asbag53
(g74
g55
NtRp4502
(dp4503
g58
(dp4504
sg67
g4489
sg60
(lp4505
g53
(g54
g55
NtRp4506
(dp4507
g58
(dp4508
g66
I5
ssg67
g4502
sg60
(lp4509
g3396
(S's\r\x00\x00\x00customize me!'
tRp4510
asbasbasbag53
(g69
g55
NtRp4511
(dp4512
g58
(dp4513
sg67
g3085
sg60
(lp4514
g53
(g74
g55
NtRp4515
(dp4516
g58
(dp4517
g78
g79
ssg67
g4511
sg60
(lp4518
S'title'
p4519
asbag53
(g74
g55
NtRp4520
(dp4521
g58
(dp4522
g85
g86
ssg67
g4511
sg60
(lp4523
S':'
asbag53
(g74
g55
NtRp4524
(dp4525
g58
(dp4526
sg67
g4511
sg60
(lp4527
g53
(g54
g55
NtRp4528
(dp4529
g58
(dp4530
g66
I5
ssg67
g4524
sg60
(lp4531
S'Init'
p4532
asbasbasbag53
(g69
g55
NtRp4533
(dp4534
g58
(dp4535
sg67
g3085
sg60
(lp4536
g53
(g74
g55
NtRp4537
(dp4538
g58
(dp4539
g78
g79
ssg67
g4533
sg60
(lp4540
g2120
asbag53
(g74
g55
NtRp4541
(dp4542
g58
(dp4543
g85
g86
ssg67
g4533
sg60
(lp4544
S':'
asbag53
(g74
g55
NtRp4545
(dp4546
g58
(dp4547
sg67
g4533
sg60
(lp4548
g53
(g54
g55
NtRp4549
(dp4550
g58
(dp4551
g66
I5
ssg67
g4545
sg60
(lp4552
g2133
asbasbasbag53
(g69
g55
NtRp4553
(dp4554
g58
(dp4555
sg67
g3085
sg60
(lp4556
g53
(g74
g55
NtRp4557
(dp4558
g58
(dp4559
g78
g79
ssg67
g4553
sg60
(lp4560
S'view'
p4561
asbag53
(g74
g55
NtRp4562
(dp4563
g58
(dp4564
g85
g86
ssg67
g4553
sg60
(lp4565
S':'
asbag53
(g74
g55
NtRp4566
(dp4567
g58
(dp4568
sg67
g4553
sg60
(lp4569
g53
(g54
g55
NtRp4570
(dp4571
g58
(dp4572
g66
I5
ssg67
g4566
sg60
(lp4573
S'default/invitation.html'
p4574
asbasbasbasbasbsS'locals'
p4575
(dp4576
S'fields'
p4577
S"[(<gluon.dal.Field object at 0x03DC5950>, 'Surnom'), (<gluon.dal.Field object at 0x03DC5D10>, '7f689223289a799b54dd575b9d8802b6'), (<gluon.dal.Field object at 0x03DC5AD0>, 'email'), (<gluon.dal.Field object at 0x03DC59D0>, ''), (<gluon.dal.Field object at 0x03DC5CF0>, ''), (<gluon.dal.Field object at 0x03DC5BD0>, ''), (<gluon.dal.Field object at 0x03DC5A10>, '')]"
p4578
sS'self'
p4579
S'<gluon.dal.SQLiteAdapter object at 0x03FDB8B0>'
p4580
sS'e'
S"IntegrityError('column email is not unique',)"
p4581
sS'table'
p4582
S"<Table {'_db': <DAL {'auth_event': <Table {'orig...on_key': <gluon.dal.Field object at 0x03DC5CF0>}>"
p4583
sS'query'
p4584
S'"INSERT INTO auth_user(Surnom,password,email,user...23289a799b54dd575b9d8802b6\',\'email\',\'\',\'\',\'\',\'\');"'
p4585
sssS'traceback'
p4586
S'Traceback (most recent call last):\n  File "gluon/restricted.py", line 205, in restricted\n  File "C:\\Users\\Bussiere\\Dropbox\\Projets\\jackpoint\\web2py\\applications\\init\\controllers/default.py", line 352, in <module>\n  File "gluon/globals.py", line 173, in <lambda>\n  File "C:\\Users\\Bussiere\\Dropbox\\Projets\\jackpoint\\web2py\\applications\\init\\controllers/default.py", line 289, in invitation\n  File "gluon/dal.py", line 6829, in insert\n  File "gluon/dal.py", line 928, in insert\nIntegrityError: column email is not unique\n'
p4587
s.