(dp1
S'output'
p2
S"<type 'exceptions.AttributeError'> 'Set' object has no attribute 'id'"
p3
sS'layer'
p4
S'C:\\Users\\Bussiere\\Dropbox\\Projets\\jackpoint\\web2py\\applications\\init\\controllers/default.py'
p5
sS'code'
p6
S'\xef\xbb\xbf# -*- coding: utf-8 -*-\n# this file is released under public domain and you can use without limitations\n\n#########################################################################\n## This is a samples controller\n## - index is the default action of any application\n## - user is required for authentication and authorization\n## - download is for downloading files uploaded in the db (does streaming)\n## - call exposes all registered services (none by default)\n#########################################################################\n# Static analyzer import helpers: (STATIC_IMPORT_MARK)\nif 0: \n    import gluon\n    global cache; cache = gluon.cache.Cache()\n    global LOAD; LOAD  = gluon.compileapp.LoadFactory()\n    import gluon.compileapp.local_import_aux as local_import #@UnusedImport\n    from gluon.contrib.gql import GQLDB #@UnusedImport\n    from gluon.dal import Field #@UnusedImport\n    global request; request = gluon.globals.Request()\n    global response; response = gluon.globals.Response()\n    global session; session = gluon.globals.Session()\n    from gluon.html import A #@UnusedImport\n    from gluon.html import B #@UnusedImport\n    from gluon.html import BEAUTIFY #@UnusedImport\n    from gluon.html import BODY #@UnusedImport\n    from gluon.html import BR #@UnusedImport\n    from gluon.html import CENTER #@UnusedImport\n    from gluon.html import CODE #@UnusedImport\n    from gluon.html import DIV #@UnusedImport\n    from gluon.html import EM #@UnusedImport\n    from gluon.html import EMBED #@UnusedImport\n    from gluon.html import embed64 #@UnusedImport\n    from gluon.html import FIELDSET #@UnusedImport\n    from gluon.html import FORM #@UnusedImport\n    from gluon.html import H1 #@UnusedImport\n    from gluon.html import H2 #@UnusedImport\n    from gluon.html import H3 #@UnusedImport\n    from gluon.html import H4 #@UnusedImport\n    from gluon.html import H5 #@UnusedImport\n    from gluon.html import H6 #@UnusedImport\n    from gluon.html import HEAD #@UnusedImport\n    from gluon.html import HR #@UnusedImport\n    from gluon.html import HTML #@UnusedImport\n    from gluon.html import I #@UnusedImport\n    from gluon.html import IFRAME #@UnusedImport\n    from gluon.html import IMG #@UnusedImport\n    from gluon.html import INPUT #@UnusedImport\n    from gluon.html import LABEL #@UnusedImport\n    from gluon.html import LEGEND #@UnusedImport\n    from gluon.html import LI #@UnusedImport\n    from gluon.html import LINK #@UnusedImport\n    from gluon.html import MARKMIN #@UnusedImport\n    from gluon.html import MENU #@UnusedImport\n    from gluon.html import META #@UnusedImport\n    from gluon.html import OBJECT #@UnusedImport\n    from gluon.html import OL #@UnusedImport\n    from gluon.html import ON #@UnusedImport\n    from gluon.html import OPTGROUP #@UnusedImport\n    from gluon.html import OPTION #@UnusedImport\n    from gluon.html import P #@UnusedImport\n    from gluon.html import PRE #@UnusedImport\n    from gluon.html import STYLE #@UnusedImport\n    from gluon.html import SCRIPT #@UnusedImport\n    from gluon.html import SELECT #@UnusedImport\n    from gluon.html import SPAN #@UnusedImport\n    from gluon.html import TABLE #@UnusedImport\n    from gluon.html import TAG #@UnusedImport\n    from gluon.html import TBODY #@UnusedImport\n    from gluon.html import TD #@UnusedImport\n    from gluon.html import TEXTAREA #@UnusedImport\n    from gluon.html import TFOOT #@UnusedImport\n    from gluon.html import TH  #@UnusedImport\n    from gluon.html import THEAD #@UnusedImport\n    from gluon.html import TITLE #@UnusedImport\n    from gluon.html import TR #@UnusedImport\n    from gluon.html import TT #@UnusedImport\n    from gluon.html import UL #@UnusedImport\n    from gluon.html import URL #@UnusedImport\n    from gluon.html import XHTML #@UnusedImport\n    from gluon.html import XML #@UnusedImport\n    from gluon.html import xmlescape #@UnusedImport\n    from gluon.http import HTTP #@UnusedImport\n    from gluon.http import redirect #@UnusedImport\n    import gluon.languages.translator as T #@UnusedImport\n    from gluon.sql import DAL\n    global db; db = DAL()\n    from gluon.sql import SQLDB #@UnusedImport\n    from gluon.sql import SQLField #@UnusedImport\n    from gluon.sqlhtml import SQLFORM #@UnusedImport\n    from gluon.sqlhtml import SQLTABLE #@UnusedImport\n    from gluon.tools import  Auth\n    global auth; auth = Auth()\n    from gluon.tools import Crud\n    global crud; crud = Crud()\n    from gluon.tools import fetch #@UnusedImport\n    from gluon.tools import geocode #@UnusedImport\n    from gluon.tools import Mail\n    global mail; mail = Mail()\n    from gluon.tools import PluginManager\n    global plugins; plugins = PluginManager()\n    from gluon.tools import prettydate #@UnusedImport\n    from gluon.tools import Recaptcha #@UnusedImport\n    from gluon.tools import Service\n    global service; service = Service()\n    from gluon.validators import CLEANUP  #@UnusedImport\n    from gluon.validators import CRYPT #@UnusedImport\n    from gluon.validators import IS_ALPHANUMERIC #@UnusedImport\n    from gluon.validators import IS_DATE #@UnusedImport\n    from gluon.validators import IS_DATE_IN_RANGE #@UnusedImport\n    from gluon.validators import IS_DATETIME #@UnusedImport\n    from gluon.validators import IS_DATETIME_IN_RANGE #@UnusedImport\n    from gluon.validators import IS_DECIMAL_IN_RANGE #@UnusedImport\n    from gluon.validators import IS_EMAIL #@UnusedImport\n    from gluon.validators import IS_EMPTY_OR #@UnusedImport\n    from gluon.validators import IS_EQUAL_TO #@UnusedImport\n    from gluon.validators import IS_EXPR #@UnusedImport\n    from gluon.validators import IS_FLOAT_IN_RANGE #@UnusedImport\n    from gluon.validators import IS_IMAGE #@UnusedImport\n    from gluon.validators import IS_IN_DB #@UnusedImport\n    from gluon.validators import IS_IN_SET #@UnusedImport\n    from gluon.validators import IS_INT_IN_RANGE #@UnusedImport\n    from gluon.validators import IS_IPV4 #@UnusedImport\n    from gluon.validators import IS_LENGTH #@UnusedImport\n    from gluon.validators import IS_LIST_OF #@UnusedImport\n    from gluon.validators import IS_LOWER #@UnusedImport\n    from gluon.validators import IS_MATCH #@UnusedImport\n    from gluon.validators import IS_NOT_EMPTY #@UnusedImport\n    from gluon.validators import IS_NOT_IN_DB #@UnusedImport\n    from gluon.validators import IS_NULL_OR #@UnusedImport\n    from gluon.validators import IS_SLUG #@UnusedImport\n    from gluon.validators import IS_STRONG  #@UnusedImport\n    from gluon.validators import IS_TIME #@UnusedImport\n    from gluon.validators import IS_UPLOAD_FILENAME #@UnusedImport\n    from gluon.validators import IS_UPPER #@UnusedImpor\n\n\nimport random\nfrom uuid import uuid4\nfrom gluon.storage import Storage\nsettings = Storage()\n\n\ndef logout():\n    return auth.logout()\n\n\ndef index():\n    if auth.is_logged_in() :\n        return "You get the blue pills"\n    else :\n        return dict(form=auth.login(),faq=URL(\'faq\'))\n\n\n\ndef ensurefirstuser(Surnom, email, password):\n  users = db(db.auth_user.email == email).select()\n  if users:\n    user_id = users[0].id\n    created = False\n    print (\'found user_id so created equals %s\') % created\n    if settings.debug_ensure_first_user == True:\n      print (\'found user_id so created equals %s\') % created\n    return (user_id, created)\n\n  else:\n    my_crypt = CRYPT(key=auth.settings.hmac_key)\n    crypt_pass = my_crypt(password)[0]    \n    id_user = db.auth_user.insert(\n                   Surnom=Surnom,\n                   email=email,\n                   username=email,\n                   Items = None,\n                   Skills = None,\n                   password=crypt_pass,\n                                   )\n    db.commit()\n    created = True\n    print (\'creating user_id\')\n    if settings.debug_ensure_first_user == True:\n      print (\'creating user_id\')\n    return (id_user, created)\n\n    \n\n\ndef ensure_users():\n  user_id, created = _ensure_user(\'first\', \'last\', \'email@address.com\', \'UserPassword12345\')\n  if settings.debug_ensure_users == True:\n    print (\'user id %i\') % user_id\n    print (\'created %s\') % created\n\ndef ensure_group_role(role, description):\n  if not auth.id_group(role=role):  \n    auth.add_group(role=role, description=description)  \n    if settings.debug_ensure_group_role == True:\n      print (\'created role %s\') % (role)\n\ndef ensure_membership(group_id, user_id):\n  return_group_id = auth.add_membership(role=role, user_id=user_id)\n  if settings.debug_ensure_membership == True:\n    print (\'made user_id member of %s\') % (role)\n  return return_group_id\n \ndef ensure_permissions(role, description, user_id):\n  ensure_group_role(role, description)\n  return_group_id = ensure_membership(group_id, user_id)\n  if settings.debug_ensure_permissions == True:\n    print return_group_id\n\ndef generate_invitation(number,word=4,num=1,numdigit=5):\n    code = [\n[\'BELCHER\', \'FIX\', \'EEL\', \'PANZERBOY\', \'DESK_JOCKEY\', \'CHILLED\', \'ENFORCER\', \'CHERRY_PICKING\', \'COUNTRY_CLUB\', \'BOMBSHELL\', \'PLUGGED_IN\', \'FINI\', \'LEGIT\', \'JAM\', \'BONED_OUT\', \'BLADE\', \'ROUST\', \'SAMURAI\', \'DISK\', \'INPUT\', \'POST_TIME\', \'SOUNDS\', \'SKIP\', \'FLATBACKER\', \'WILSON\', \'SHOEMAKER\', \'DELTA_SIERRA\', \'HEART\', \'CROAK\', \'HEAD_HUNTER\', \'HOSHO_KAISHA\', "DELTA\'D", "\'FACE_(also,_FACE,_EYE-FACE,_I-FACE)", \'WEEFLE\', \'DIRTGIRL\', \'KEYBOARD\', \'BRAIN_BUCKET\', \'DRYING_OUT\', \'OVERCOOK\', \'PIG\', \'COLD_TEA\', \'RECONFIG\', \'PAD\', \'LIT_UP\', \'WRAITH\', \'HANDLE\', \'L.P.\', \'PINCH\', \'TAKE_A_CAB\', \'SPILL\', \'ACE_KOOL\', \'DO\', \'BIZ\', \'BROWNIE\', \'CANDLE_AND_BLOOD\', \'BLUEBOY\', \'UP_ON_IT\', \'BURN\', \'USER_INTERFACE\', \'HOB\', \'GYRO\', \'STUFFIT\', \'THATCH\', \'ICEBREAKER\', \'ZIP_GUN\', \'PETERMAN\', \'PLAY_DOUGH\', \'TREY-EIGHT\', \'SETTLE\', "CHIPPIN\'_IN", \'MEATBALL\', \'RAFFLES\', \'YUBITSUME\', \'CROAKER\', \'SUCKER_POCKETS\', \'L.A.M.A.\', \'GEEK\', \'BUTTONHEAD\'],\n[\'TAKE\', \'TEKIYA\', \'KURUMAKU\', \'BLOC\', \'GAT\', \'JOHATSU\', \'CRYSTAL\', \'A.I.\', \'ZEROED\', \'OVER_THE_SHOULDER\', \'GRAB_GEE\', \'PANZER\', \'GO_LEO\', \'WASHED\', \'I.C.E.\', \'COPSHOP\', \'COLLATERAL_DAMAGE\', \'BIG_DARK\', \'DOUBLE-DEUCE\', \'ZONEDANCE\', \'MARK\', \'COBBERS\', \'CHIMPIRA\', \'TRIADS\', \'SHANK\', \'FRAG\', \'BREATH_VAC\', "CHARLIE\'S_ANGEL", \'MULE\', \'BURNER\', "PACKIN\'", \'HOTDOGGER\', \'BOSOZOKU\', \'RIPPERDOC\', \'THIRDMAN\', \'MAXIMUM,_MAX\', \'CHOOH2_("CHOO")\', \'CRYO_MAX\', \'HEATER\', \'SHARK\', \'JOYGIRL\', \'GURENTAI\', \'BANDIT\', \'VENICE\', \'MIZU_SHOBAI\', \'PASTA_BOYS\', \'SQUID\', \'CYBERED_UP\', \'DEAD_RECKONING\', \'POPSICLE\', \'FAUST\', \'COLLARBOY\', \'SHOES\', \'TORCH\', \'DELTAJOCK\', \'BUTTERFLY_MAN\', \'WISE_GUYS\', \'BOOST\', \'CAIN\', \'FOUR-FIVE\', \'BREAK-DOWN\', \'POLYMER_ONE-SHOT\', \'FLAG\', \'CALL_GIRL\', \'IN_THE_HUNT\', \'HYDRO\', \'DOCK\', \'FENCE\', \'SHAIKUJIN\', \'GOMI\', \'FILTER\', \'SAINT_NICK\', \'LINEFOOT\', \'CAVALRY\', \'PUKE\', \'CONVERSION\', \'FINGER\', \'CONTRACT\'],\n[\'PLASTIC\', \'CRYSTALJOCKEY,_CRYSTALJOCK\', \'SCREW\', \'TOYSTORE\', \'DREAM_TIME\', \'EXOTIC\', \'WALKABOUT\', \'DIAMOND_SEASON\', \'SARAKIN\', \'CHRISTMAS_BUNDLES\', \'SHADES\', \'BUTTON_MAN\', \'FOXTROT_UNIFORM\', \'KAI\', \'UNDER_THE_PAINT\', \'MINIMUM\', \'TRIPLE_A\', \'PIG_ON_A_WHEEL\', \'BAG_MAN\', \'DIP\', \'PIGEONS\', \'MAN\', \'ADAM_HENRY\', \'HIGH\', \'HEAT\', \'NINJO\', \'KNIFE_FIGHT\', \'MOUTHPIECE\', \'AGRIPLEX\', \'DATA_TERM\', \'LIZ\', \'CHROMER\', \'OUTPUT\', \'N.O.E.\', \'CLOSE_A_CONTRACT\', \'LASSIE\', \'FLATLINE\', \'CHIV\', \'SING\', \'AMMO\', \'RAT\', \'MATCHBOX\', \'PULL_AN_ASH\', \'BORYOKUDAN\', \'SQUEEZE\', \'RONIN\', \'HIT\', \'RAGS\', \'TAKE_OUT\', \'BEAT_THE_RAP\', \'GIRI\', \'RUNNING_THE_LINE\', \'HARNESS\', \'GRAVEROBBER\', \'DROP_A_DIME\', \'BADGE_ON_A_BEAVER\', \'FLETCHER\', \'AMPED-OUT\', \'NEUTRALIZE\', \'PETER\', \'CONFIG\', \'HARDFIRE\', \'B.A.M.A.\', \'CHROMATIC_ROCK\', \'MOLDED\', \'RAD\', \'CREASED\', \'CHATTER_BOX\', \'HAND_CANNON\', \'NIPPERS\', \'SIERRA_HOTEL\', \'HOOK_UP\', \'-JOCKEY,_-JOCK\', \'BUG\', \'BATMAN_AND_ROBIN\', \'BLACK_OPERATIONS\', "D.C.\'S", \'SO_KA\'],\n[\'_A.A.A.\', \'HOME_PLATE\', \'LITEJACK\', \'PINEAPPLE\', \'MAKE\', \'THE_STREET\', \'SITREP\', \'HANGING_PAPER\', \'PAINT_BOYS\', \'WETWORK\', \'NINER\', \'BOOKIE\', \'WHIPLASH\', \'TORPEDO\', \'HEATWAVE\', \'SOLAR_WIND\', \'QUIFF\', \'BIKE\', \'TRAFFIC\', \'WIRE_ROOM\', \'OYABUN\', \'COWBOY\', \'KOBUN\', \'MUDBOY\', \'COP_OUT\', \'SOKAIYA\', "\'DORPH", \'JOYBOY\', \'DIRTY\', \'BOAT\', \'DROP\', \'GRAV_or_GEE\', \'APOGEE\', \'BOOSTER\', \'BOOK\', \'FRY\', \'PULLING_TEETH\', \'ONE_LARGE\', \'COMBAT_DRUGS\', \'THRASH\', \'DO_A_GHOST\', \'DELTA\', \'RIN_TIN_TIN\', \'DROP_OUT\', \'GUMI\', \'ROCKERBOY/GIRL\', \'BULLET\', \'DEB\', \'THREADING_THE_NEEDLE\', \'MOTOR\', \'BLEEDER\', \'ARC\', \'BOPPER\', \'WASTE\', \'_DEMUKAI\', \'BREAK\', \'HOLDING_DOWN\', \'FEDS\', \'GAP\', \'RABBI\', \'BAKUTO\', \'CHOMBATTA_(CHOOMBA)\', \'BIG_HATS\', \'MR._JOHNSON\', \'EXEC\', \'BULL\', \'BULLSEYE\', \'POSERGANG\', \'CHAOL\', \'GEISHA\', \'SLAMMIT_ON\', \'POP_CAPS\', \'HARD_TIME\', \'BENJI\', \'MAKING_BANK\', \'PAPERHANGER\', \'NETRUN\', \'BOGEY\'],\n]     \n    i = 0\n    invits = []\n    print number\n    while (i < number):\n        invit = ""\n        j = 0\n        while (j < word):\n            debut = random.randint(0,len(code)-1)\n            codepick = code[debut][random.randint(0,len(code[debut])-1)]\n            j += 1\n            invit += codepick+"-"\n        j = 0\n        while (j < num):\n            invit += randomdig(numdigit)+"-"\n            j += 1\n        i+= 1\n        invit = invit[:-1]\n        if invit not in invits :\n            invits.append(invit[:-1])\n            print invit\n    return invits\n        \ndef randomdig(number):\n    max = "9"*number\n    max = int(max)\n    rand =  random.randint(0,max)\n    rand = str(rand)\n    rand = "0"*(number-len(rand))+rand\n    return rand\n\n@auth.requires_login()\ndef inscriptioninvit():\n    user = auth.environment.session.auth.user\n    caracs = db().select(db.Carac.ALL)\n    form=TABLE(\n        TR(\n            TD(\n                TABLE(\n        TR(\n\n                TD(\n                    LABEL(\'Username : \')\n                    ),\n                TD( \n                    INPUT(_name=\'Username\')\n                    )\n            ),\n    TR(\n        TD(\n            LABEL(\'Email: \')\n            ), \n        TD(\n            INPUT(_name=\'email\',_value=user.email)\n            )\n        ),\n             \n    TR(\n        TD(\n            LABEL(\'Password : \')\n            ), \n        TD(\n            INPUT(_name=\'password1\',_type=\'password\')\n            )\n        ),\n\n     TR(\n        TD(\n            LABEL(\'Password verification : \')\n            ), \n        TD(\n            INPUT(_name=\'password2\',_type=\'password\')\n            )\n        ),\n    \n    \n    )\n                )\n            )\n        )\n            \n\n\n    \n    form.append(TR(LABEL(\'1 = mauvais, 2 = bof, 3 = Moyen,4 = Bon , 5 = Tres Bon\')))\n    for carac in caracs :\n        form.append(\n            TR(\n\n                TD(LABEL(\'%s : \'%carac.Nom)),\n                TD(INPUT(_type=\'radio\',_name=\'%s\'%carac.Nom,_value=\'1\',value=\'1\'),"1 "),\n                TD(INPUT(_type=\'radio\',_name=\'%s\'%carac.Nom,_value=\'2\'),"2 "),\n                TD(INPUT(_type=\'radio\',_name=\'%s\'%carac.Nom,_value=\'3\'),"3 "),\n                TD(INPUT(_type=\'radio\',_name=\'%s\'%carac.Nom,_value=\'4\'),"4 "),\n                TD(INPUT(_type=\'radio\',_name=\'%s\'%carac.Nom,_value=\'5\'),"5        "),\n\n                TD(LABEL(\'Private: \')),\n                TD(INPUT(_type=\'radio\',_name=\'%s_private\'%carac.Nom,_value=\'1\'),"oui "),\n                TD(INPUT(_type=\'radio\',_name=\'%s_private\'%carac.Nom,_value=\'0\',value=\'0\'),"non ")\n                )\n        )\n \n    # form.insert(-1, TR(LABEL(\'titi : \'),INPUT(_name=\'titi\',_value=\'titi\'))\n    # form.insert(-1, TR(LABEL(\'toto : \'),INPUT(_name=\'toto\',_value=\'toto\'))\n\n    form.append(TR(LABEL(\'0 = Inconnu, 1 = mauvais, 2 = bof, 3 = Moyen,4 = Bon , 5 = Moyen\')))\n    \n    #TODO a revoir algo crade :\n    skills1 = db(db.SkillLevel.Level==0).select()\n    skills2 = db(db.SkillLevel.Level==1).select()\n    skills3 = db(db.SkillLevel.Level==2).select()\n    skills4 = db(db.SkillLevel.Level==3).select()\n    skills5 = db(db.SkillLevel.Level==4).select()\n    Listeskill = UL()\n    for skill1 in skills1 :\n        Nom1 = db.Skill(skill1.Skill.id).Nom\n        retour1 = skillstab(Nom1)\n        for skill2 in skills2 :\n            if (skill2.Parent.id == skill1.Skill.id) :\n                Nom2 = db.Skill(skill2.Skill.id).Nom\n                retour2 = skillstab(Nom2)\n                for skill3 in skills3 :\n                    if (skill3.Parent.id == skill2.Skill.id) :\n                        Nom3 = db.Skill(skill3.Skill.id).Nom\n                        retour3 = skillstab(Nom3)\n                        for skill4 in skills4 :\n                            if (skill4.Parent.id == skill3.Skill.id) :\n                                Nom4 = db.Skill(skill4.Skill.id).Nom\n                                retour4 = skillstab(Nom4)\n                                for skill5 in skills5 :\n                                    if (skill5.Parent.id == skill4.Skill.id) :\n                                        Nom5 = db.Skill(skill5.Skill.id).Nom\n                                        retour5 = skillstab(Nom5)\n                                        retour4.append(UL(retour5))\n                                retour3.append(UL(retour4))\n                        retour2.append(UL(retour3))\n                retour1.append(UL(retour2))\n        Listeskill.append(retour1)\n       \n\n\n\n    form.append(TR(Listeskill))\n    form.append(TR(INPUT(_type=\'submit\')))\n    form = FORM(TABLE(form)) \n    return dict(form=form)\n\n\ndef skillstab(Nom) :\n    tab =  LI( Nom," : ",TABLE(\n                    TR(\n                TD(INPUT(_type=\'radio\',_name=\'%s\'%Nom,_value=\'0\',value=\'0\'),"0 "),\n                TD(INPUT(_type=\'radio\',_name=\'%s\'%Nom,_value=\'1\'),"1 "),\n                TD(INPUT(_type=\'radio\',_name=\'%s\'%Nom,_value=\'2\'),"2 "),\n                TD(INPUT(_type=\'radio\',_name=\'%s\'%Nom,_value=\'3\'),"3 "),\n                TD(INPUT(_type=\'radio\',_name=\'%s\'%Nom,_value=\'4\'),"4 "),\n                TD(INPUT(_type=\'radio\',_name=\'%s\'%Nom,_value=\'5\'),"5        "),\n\n                TD(LABEL(\'Private: \')),\n                TD(INPUT(_type=\'radio\',_name=\'%s_private\'%Nom,_value=\'1\'),"oui "),\n                TD(INPUT(_type=\'radio\',_name=\'%s_private\'%Nom,_value=\'0\',value=\'0\'),"non ")\n                )\n\n                )\n    )\n    return tab\n\ndef userstuff():\n    return dict(rows1 = db().select(db.Carac.ALL),rows2 = db().select(db.SkillLevel.ALL) )\n\ndef initdbjack():\n    if db(db.auth_user.username == "bussiere").count() == 0:\n            password= "titi" \n            my_crypt = CRYPT(key=auth.settings.hmac_key)\n            crypt_pass = my_crypt(password)[0]  \n            buss = db.auth_user.insert(\n               email= "bussiere2@gmail.com",\n               username="bussiere",\n               password=crypt_pass,\n            )\n            jack = auth.add_group(\'Jack\', \'Jack master of none\')\n            auth.add_membership(jack, buss)\n            db.commit()  \n    db.commit() \n    carac = ["Force","Logique","Volonte","Charisme","Apparence","Dexterite"]\n    skills = { \n    "Physique":{\n                "Sport":{\n                         "Capoeira" :{ \n                                      "bengale":{}\n                                      },\n                        "Karate":{\n                                  "Nord" : {},\n                                  "Sud" : {},\n                                 },\n                         },\n            },\n\n\n    "Technique":{\n                "Mettalerrie" : {\n                                 "Forge" : {},\n                                  \n                                  },\n                 "Couture" : {\n                                  \n                                  },\n                "Conduite" : {\n                                  \n                                  },\n                 \n    },\n\n    "Savoir":{\n              "Informatique" : {\n                                   "Programmation" :{\n                                                     "Python" :{\n                                                                 "Django" : {} ,\n                                                                  "Web2py" : {}\n                                                                },\n                                                     "Methode" :{\n                                                                 "Uml":{},\n                                                                  "Merise": {}\n                                                                },\n                                                     },\n                                   },\n\n            },\n    }\n\n    for c in carac :\n        if db(db.Carac.Nom == c).count() == 0:\n            db.Carac.insert(Nom=c)\n\n    for level1 in skills.keys() :\n        i = 0\n        if db(db.Skill.Nom == level1).count() == 0:\n            Skill1 = db.SkillLevel.insert(Skill = (db.Skill.insert(Nom=level1)),Level = i)\n\n            for level2 in skills[level1].keys() :\n                i = 1\n                if db(db.Skill.Nom == level2).count() == 0:\n                    #Todo\n                    # c\'est crade a revoir :\n                    for row in db((db.Skill.Nom==level1) & (db.Skill.id)).select() :\n                        parent = row.id\n                    #fin du truc a revoir\n                    Skill2 = db.SkillLevel.insert(Skill = (db.Skill.insert(Nom=level2)),Level = i,Parent = parent )\n                    for level3 in skills[level1][level2].keys() :\n                        i = 2\n                        if db(db.Skill.Nom == level3).count() == 0:\n                            #Todo\n                            # c\'est crade a revoir :\n                            for row in db((db.Skill.Nom==level2) & (db.Skill.id)).select() :\n                                parent = row.id\n                            #fin du truc a revoir\n                            Skill3 = db.SkillLevel.insert(Skill = (db.Skill.insert(Nom=level3)),Level = i,Parent = parent)\n                            for level4 in skills[level1][level2][level3].keys() :\n                                i = 3\n                                if db(db.Skill.Nom == level4).count() == 0:\n                                #Todo\n                                # c\'est crade a revoir :\n                                    for row in db((db.Skill.Nom==level3) & (db.Skill.id)).select() :\n                                        parent = row.id\n                                #fin du truc a revoir\n                                    Skill3 = db.SkillLevel.insert(Skill = (db.Skill.insert(Nom=level4)),Level = i,Parent = parent)\n                                    for level5 in skills[level1][level2][level3][level4].keys() :\n                                        i = 4\n                                        if db(db.Skill.Nom == level5).count() == 0:\n                                        #Todo\n                                        # c\'est crade a revoir :\n                                            for row in db((db.Skill.Nom==level4) & (db.Skill.id)).select() :\n                                                parent = row.id\n                                        #fin du truc a revoir\n                                            Skill4 = db.SkillLevel.insert(Skill = (db.Skill.insert(Nom=level5)),Level = i,Parent = parent)\n\n\n\n    Item = {\n    "Machine a Coudre" : "Couture",\n    "Voiture" : "Conduite",\n    "Decoupeuse a plasma" : "Mettalerrie",\n    }\n\n\n    for row in Item.keys() :\n        if db(db.Item.Nom == Item[row]).count() == 0:\n            db.Item.insert(Nom=row,Skill=db(db.Skill.Nom==Item[row]).id)                                       \n    db.commit() \n\n\n\n\n\n\n\ndef liste_invitations():\n    return dict(rows = db().select(db.Invitation.ALL))\n\ndef liste_user():\n    return dict(rows = db().select(db.auth_user.ALL))\n\n#@auth.requires_membership(\'manager\')\ndef generate_invitationpage():\n   form=FORM("Nombre d\'invit a generer:", INPUT(_name=\'nmbreinvit\'), INPUT(_type=\'submit\'))\n   if form.process().accepted and form.vars.nmbreinvit != None :\n       i = form.vars.nmbreinvit\n       invitsgenere = generate_invitation(int(i))\n       for invit in invitsgenere :\n           db.Invitation.insert(Code=invit)\n           db.commit()\n       session.flash = \'invitation inserted\'\n       form=FORM("Nombre d\'invit a generer:", INPUT(_name=\'nmbreinvit\'), INPUT(_type=\'submit\'))\n       #db.Invitation.insert(Code="Toto-5542")\n       db.commit()\n   return dict(form=form)\n\ndef verif_invitation(form):\n    print form.vars.invitation\n    if db.Invitation(db.Invitation.Code==form.vars.invitation) == None :\n        form.errors.invitation = \'code invitation incorrect\'\n        print "mauvais"\n    else :\n        print "bon"\n\ndef invitation():\n    form=FORM("Code Invitation :", INPUT(_name=\'invitation\'),"<Email :",INPUT(_name=\'email\'),  INPUT(_type=\'submit\'))\n    if form.process(onvalidation=verif_invitation).accepted and  form.vars.invitation != None  :\n        email = form.vars.email\n        if db(db.auth_user.email == email).count() == 0:\n            password= form.vars.invitation  \n            my_crypt = CRYPT(key=auth.settings.hmac_key)\n            crypt_pass = my_crypt(password)[0]  \n            db.auth_user.insert(\n               email= email,\n               username="John_Doe",\n               password=crypt_pass,\n            )\n            db.commit()  \n            user = db(db.auth_user.email==email).select().first()\n            auth.user = Storage(auth.settings.table_user._filter_fields(user, id=True))\n            auth.environment.session.auth = Storage(user=user, last_visit=request.now,\n                                                expiration=auth.settings.expiration)\n            redirect(URL(\'inscriptioninvit\'))\n    return dict(form=form)\n\ndef faq():\n\n    return dict()\ndef user():\n    """\n    exposes:\n    http://..../[app]/default/user/login\n    http://..../[app]/default/user/logout\n    http://..../[app]/default/user/register\n    http://..../[app]/default/user/profile\n    http://..../[app]/default/user/retrieve_password\n    http://..../[app]/default/user/change_password\n    use @auth.requires_login()\n        @auth.requires_membership(\'group name\')\n        @auth.requires_permission(\'read\',\'table name\',record_id)\n    to decorate functions that need access control\n    """\n    return dict(form=auth())\n\n\ndef download():\n    """\n    allows downloading of uploaded files\n    http://..../[app]/default/download/[filename]\n    """\n    return response.download(request,db)\n\n\ndef call():\n    """\n    exposes services. for example:\n    http://..../[app]/default/call/jsonrpc\n    decorate with @services.jsonrpc the functions to expose\n    supports xml, json, xmlrpc, jsonrpc, amfrpc, rss, csv\n    """\n    return service()\n\n\n@auth.requires_signature()\ndef data():\n    """\n    http://..../[app]/default/data/tables\n    http://..../[app]/default/data/create/[table]\n    http://..../[app]/default/data/read/[table]/[id]\n    http://..../[app]/default/data/update/[table]/[id]\n    http://..../[app]/default/data/delete/[table]/[id]\n    http://..../[app]/default/data/select/[table]\n    http://..../[app]/default/data/search/[table]\n    but URLs must be signed, i.e. linked with\n      A(\'table\',_href=URL(\'data/tables\',user_signature=True))\n    or with the signed load operator\n      LOAD(\'default\',\'data.load\',args=\'tables\',ajax=True,user_signature=True)\n    """\n    return dict(form=crud())\n\nresponse._vars=response._caller(initdbjack)\n'
p7
sS'snapshot'
p8
(dp9
S'exception'
p10
(dp11
S'__hash__'
p12
S"<method-wrapper '__hash__' of exceptions.AttributeError object at 0x083F5148>"
p13
sS'__setattr__'
p14
S"<method-wrapper '__setattr__' of exceptions.AttributeError object at 0x083F5148>"
p15
sS'__reduce_ex__'
p16
S'<built-in method __reduce_ex__ of exceptions.AttributeError object at 0x083F5148>'
p17
sS'__getslice__'
p18
S"<method-wrapper '__getslice__' of exceptions.AttributeError object at 0x083F5148>"
p19
sS'__getitem__'
p20
S"<method-wrapper '__getitem__' of exceptions.AttributeError object at 0x083F5148>"
p21
sS'__setstate__'
p22
S'<built-in method __setstate__ of exceptions.AttributeError object at 0x083F5148>'
p23
sS'__reduce__'
p24
S'<built-in method __reduce__ of exceptions.AttributeError object at 0x083F5148>'
p25
sS'__str__'
p26
S"<method-wrapper '__str__' of exceptions.AttributeError object at 0x083F5148>"
p27
sS'args'
p28
S'("\'Set\' object has no attribute \'id\'",)'
p29
sS'__getattribute__'
p30
S"<method-wrapper '__getattribute__' of exceptions.AttributeError object at 0x083F5148>"
p31
sS'__class__'
p32
S"<type 'exceptions.AttributeError'>"
p33
sS'__delattr__'
p34
S"<method-wrapper '__delattr__' of exceptions.AttributeError object at 0x083F5148>"
p35
sS'__repr__'
p36
S"<method-wrapper '__repr__' of exceptions.AttributeError object at 0x083F5148>"
p37
sS'__dict__'
p38
S'{}'
p39
sS'__doc__'
p40
S"'Attribute not found.'"
p41
sS'__init__'
p42
S"<method-wrapper '__init__' of exceptions.AttributeError object at 0x083F5148>"
p43
sS'__new__'
p44
S'<built-in method __new__ of type object at 0x1E1CDA68>'
p45
ssS'evalue'
p46
S"'Set' object has no attribute 'id'"
p47
sS'request'
p48
ccopy_reg
_reconstructor
p49
(cgluon.html
BEAUTIFY
p50
c__builtin__
object
p51
NtRp52
(dp53
S'attributes'
p54
(dp55
sS'components'
p56
(lp57
g49
(cgluon.html
TABLE
p58
g51
NtRp59
(dp60
g54
(dp61
S'level'
p62
I5
ssS'parent'
p63
Nsg56
(lp64
g49
(cgluon.html
TR
p65
g51
NtRp66
(dp67
g54
(dp68
sg63
g59
sg56
(lp69
g49
(cgluon.html
TD
p70
g51
NtRp71
(dp72
g54
(dp73
S'_style'
p74
S'font-weight:bold;vertical-align:top'
p75
ssg63
g66
sg56
(lp76
S'ajax'
p77
asbag49
(g70
g51
NtRp78
(dp79
g54
(dp80
S'_valign'
p81
S'top'
p82
ssg63
g66
sg56
(lp83
S':'
asbag49
(g70
g51
NtRp84
(dp85
g54
(dp86
sg63
g66
sg56
(lp87
g49
(g50
g51
NtRp88
(dp89
g54
(dp90
g62
I5
ssg63
g84
sg56
(lp91
S'False'
p92
asbasbasbag49
(g65
g51
NtRp93
(dp94
g54
(dp95
sg63
g59
sg56
(lp96
g49
(g70
g51
NtRp97
(dp98
g54
(dp99
g74
g75
ssg63
g93
sg56
(lp100
S'application'
p101
asbag49
(g70
g51
NtRp102
(dp103
g54
(dp104
g81
g82
ssg63
g93
sg56
(lp105
S':'
asbag49
(g70
g51
NtRp106
(dp107
g54
(dp108
sg63
g93
sg56
(lp109
g49
(g50
g51
NtRp110
(dp111
g54
(dp112
g62
I5
ssg63
g106
sg56
(lp113
S'init'
p114
asbasbasbag49
(g65
g51
NtRp115
(dp116
g54
(dp117
sg63
g59
sg56
(lp118
g49
(g70
g51
NtRp119
(dp120
g54
(dp121
g74
g75
ssg63
g115
sg56
(lp122
g28
asbag49
(g70
g51
NtRp123
(dp124
g54
(dp125
g81
g82
ssg63
g115
sg56
(lp126
S':'
asbag49
(g70
g51
NtRp127
(dp128
g54
(dp129
sg63
g115
sg56
(lp130
g49
(g50
g51
NtRp131
(dp132
g54
(dp133
g62
I5
ssg63
g127
sg56
(lp134
g49
(g58
g51
NtRp135
(dp136
g54
(dp137
g62
I4
ssg63
Nsg56
(lp138
sbasbasbasbag49
(g65
g51
NtRp139
(dp140
g54
(dp141
sg63
g59
sg56
(lp142
g49
(g70
g51
NtRp143
(dp144
g54
(dp145
g74
g75
ssg63
g139
sg56
(lp146
S'body'
p147
asbag49
(g70
g51
NtRp148
(dp149
g54
(dp150
g81
g82
ssg63
g139
sg56
(lp151
S':'
asbag49
(g70
g51
NtRp152
(dp153
g54
(dp154
sg63
g139
sg56
(lp155
g49
(g50
g51
NtRp156
(dp157
g54
(dp158
g62
I5
ssg63
g152
sg56
(lp159
S'<cStringIO.StringO object at 0x0828CD20>'
p160
asbasbasbag49
(g65
g51
NtRp161
(dp162
g54
(dp163
sg63
g59
sg56
(lp164
g49
(g70
g51
NtRp165
(dp166
g54
(dp167
g74
g75
ssg63
g161
sg56
(lp168
S'client'
p169
asbag49
(g70
g51
NtRp170
(dp171
g54
(dp172
g81
g82
ssg63
g161
sg56
(lp173
S':'
asbag49
(g70
g51
NtRp174
(dp175
g54
(dp176
sg63
g161
sg56
(lp177
g49
(g50
g51
NtRp178
(dp179
g54
(dp180
g62
I5
ssg63
g174
sg56
(lp181
S'127.0.0.1'
p182
asbasbasbag49
(g65
g51
NtRp183
(dp184
g54
(dp185
sg63
g59
sg56
(lp186
g49
(g70
g51
NtRp187
(dp188
g54
(dp189
g74
g75
ssg63
g183
sg56
(lp190
S'controller'
p191
asbag49
(g70
g51
NtRp192
(dp193
g54
(dp194
g81
g82
ssg63
g183
sg56
(lp195
S':'
asbag49
(g70
g51
NtRp196
(dp197
g54
(dp198
sg63
g183
sg56
(lp199
g49
(g50
g51
NtRp200
(dp201
g54
(dp202
g62
I5
ssg63
g196
sg56
(lp203
S'default'
p204
asbasbasbag49
(g65
g51
NtRp205
(dp206
g54
(dp207
sg63
g59
sg56
(lp208
g49
(g70
g51
NtRp209
(dp210
g54
(dp211
g74
g75
ssg63
g205
sg56
(lp212
S'cookies'
p213
asbag49
(g70
g51
NtRp214
(dp215
g54
(dp216
g81
g82
ssg63
g205
sg56
(lp217
S':'
asbag49
(g70
g51
NtRp218
(dp219
g54
(dp220
sg63
g205
sg56
(lp221
g49
(g50
g51
NtRp222
(dp223
g54
(dp224
g62
I5
ssg63
g218
sg56
(lp225
g49
(g58
g51
NtRp226
(dp227
g54
(dp228
g62
I4
ssg63
Nsg56
(lp229
g49
(g65
g51
NtRp230
(dp231
g54
(dp232
sg63
g226
sg56
(lp233
g49
(g70
g51
NtRp234
(dp235
g54
(dp236
g74
g75
ssg63
g230
sg56
(lp237
S'session_id_admin'
p238
asbag49
(g70
g51
NtRp239
(dp240
g54
(dp241
g81
g82
ssg63
g230
sg56
(lp242
S':'
asbag49
(g70
g51
NtRp243
(dp244
g54
(dp245
sg63
g230
sg56
(lp246
g49
(g50
g51
NtRp247
(dp248
g54
(dp249
g62
I4
ssg63
g243
sg56
(lp250
g49
(g58
g51
NtRp251
(dp252
g54
(dp253
g62
I3
ssg63
Nsg56
(lp254
g49
(g65
g51
NtRp255
(dp256
g54
(dp257
sg63
g251
sg56
(lp258
g49
(g70
g51
NtRp259
(dp260
g54
(dp261
g74
g75
ssg63
g255
sg56
(lp262
S'comment'
p263
asbag49
(g70
g51
NtRp264
(dp265
g54
(dp266
g81
g82
ssg63
g255
sg56
(lp267
S':'
asbag49
(g70
g51
NtRp268
(dp269
g54
(dp270
sg63
g255
sg56
(lp271
g49
(g50
g51
NtRp272
(dp273
g54
(dp274
g62
I3
ssg63
g268
sg56
(lp275
S''
asbasbasbag49
(g65
g51
NtRp276
(dp277
g54
(dp278
sg63
g251
sg56
(lp279
g49
(g70
g51
NtRp280
(dp281
g54
(dp282
g74
g75
ssg63
g276
sg56
(lp283
S'domain'
p284
asbag49
(g70
g51
NtRp285
(dp286
g54
(dp287
g81
g82
ssg63
g276
sg56
(lp288
S':'
asbag49
(g70
g51
NtRp289
(dp290
g54
(dp291
sg63
g276
sg56
(lp292
g49
(g50
g51
NtRp293
(dp294
g54
(dp295
g62
I3
ssg63
g289
sg56
(lp296
S''
asbasbasbag49
(g65
g51
NtRp297
(dp298
g54
(dp299
sg63
g251
sg56
(lp300
g49
(g70
g51
NtRp301
(dp302
g54
(dp303
g74
g75
ssg63
g297
sg56
(lp304
S'expires'
p305
asbag49
(g70
g51
NtRp306
(dp307
g54
(dp308
g81
g82
ssg63
g297
sg56
(lp309
S':'
asbag49
(g70
g51
NtRp310
(dp311
g54
(dp312
sg63
g297
sg56
(lp313
g49
(g50
g51
NtRp314
(dp315
g54
(dp316
g62
I3
ssg63
g310
sg56
(lp317
S''
asbasbasbag49
(g65
g51
NtRp318
(dp319
g54
(dp320
sg63
g251
sg56
(lp321
g49
(g70
g51
NtRp322
(dp323
g54
(dp324
g74
g75
ssg63
g318
sg56
(lp325
S'max-age'
p326
asbag49
(g70
g51
NtRp327
(dp328
g54
(dp329
g81
g82
ssg63
g318
sg56
(lp330
S':'
asbag49
(g70
g51
NtRp331
(dp332
g54
(dp333
sg63
g318
sg56
(lp334
g49
(g50
g51
NtRp335
(dp336
g54
(dp337
g62
I3
ssg63
g331
sg56
(lp338
S''
asbasbasbag49
(g65
g51
NtRp339
(dp340
g54
(dp341
sg63
g251
sg56
(lp342
g49
(g70
g51
NtRp343
(dp344
g54
(dp345
g74
g75
ssg63
g339
sg56
(lp346
S'path'
p347
asbag49
(g70
g51
NtRp348
(dp349
g54
(dp350
g81
g82
ssg63
g339
sg56
(lp351
S':'
asbag49
(g70
g51
NtRp352
(dp353
g54
(dp354
sg63
g339
sg56
(lp355
g49
(g50
g51
NtRp356
(dp357
g54
(dp358
g62
I3
ssg63
g352
sg56
(lp359
S''
asbasbasbag49
(g65
g51
NtRp360
(dp361
g54
(dp362
sg63
g251
sg56
(lp363
g49
(g70
g51
NtRp364
(dp365
g54
(dp366
g74
g75
ssg63
g360
sg56
(lp367
S'secure'
p368
asbag49
(g70
g51
NtRp369
(dp370
g54
(dp371
g81
g82
ssg63
g360
sg56
(lp372
S':'
asbag49
(g70
g51
NtRp373
(dp374
g54
(dp375
sg63
g360
sg56
(lp376
g49
(g50
g51
NtRp377
(dp378
g54
(dp379
g62
I3
ssg63
g373
sg56
(lp380
S''
asbasbasbag49
(g65
g51
NtRp381
(dp382
g54
(dp383
sg63
g251
sg56
(lp384
g49
(g70
g51
NtRp385
(dp386
g54
(dp387
g74
g75
ssg63
g381
sg56
(lp388
S'version'
p389
asbag49
(g70
g51
NtRp390
(dp391
g54
(dp392
g81
g82
ssg63
g381
sg56
(lp393
S':'
asbag49
(g70
g51
NtRp394
(dp395
g54
(dp396
sg63
g381
sg56
(lp397
g49
(g50
g51
NtRp398
(dp399
g54
(dp400
g62
I3
ssg63
g394
sg56
(lp401
S''
asbasbasbasbasbasbasbag49
(g65
g51
NtRp402
(dp403
g54
(dp404
sg63
g226
sg56
(lp405
g49
(g70
g51
NtRp406
(dp407
g54
(dp408
g74
g75
ssg63
g402
sg56
(lp409
S'session_id_init'
p410
asbag49
(g70
g51
NtRp411
(dp412
g54
(dp413
g81
g82
ssg63
g402
sg56
(lp414
S':'
asbag49
(g70
g51
NtRp415
(dp416
g54
(dp417
sg63
g402
sg56
(lp418
g49
(g50
g51
NtRp419
(dp420
g54
(dp421
g62
I4
ssg63
g415
sg56
(lp422
g49
(g58
g51
NtRp423
(dp424
g54
(dp425
g62
I3
ssg63
Nsg56
(lp426
g49
(g65
g51
NtRp427
(dp428
g54
(dp429
sg63
g423
sg56
(lp430
g49
(g70
g51
NtRp431
(dp432
g54
(dp433
g74
g75
ssg63
g427
sg56
(lp434
g263
asbag49
(g70
g51
NtRp435
(dp436
g54
(dp437
g81
g82
ssg63
g427
sg56
(lp438
S':'
asbag49
(g70
g51
NtRp439
(dp440
g54
(dp441
sg63
g427
sg56
(lp442
g49
(g50
g51
NtRp443
(dp444
g54
(dp445
g62
I3
ssg63
g439
sg56
(lp446
S''
asbasbasbag49
(g65
g51
NtRp447
(dp448
g54
(dp449
sg63
g423
sg56
(lp450
g49
(g70
g51
NtRp451
(dp452
g54
(dp453
g74
g75
ssg63
g447
sg56
(lp454
g284
asbag49
(g70
g51
NtRp455
(dp456
g54
(dp457
g81
g82
ssg63
g447
sg56
(lp458
S':'
asbag49
(g70
g51
NtRp459
(dp460
g54
(dp461
sg63
g447
sg56
(lp462
g49
(g50
g51
NtRp463
(dp464
g54
(dp465
g62
I3
ssg63
g459
sg56
(lp466
S''
asbasbasbag49
(g65
g51
NtRp467
(dp468
g54
(dp469
sg63
g423
sg56
(lp470
g49
(g70
g51
NtRp471
(dp472
g54
(dp473
g74
g75
ssg63
g467
sg56
(lp474
g305
asbag49
(g70
g51
NtRp475
(dp476
g54
(dp477
g81
g82
ssg63
g467
sg56
(lp478
S':'
asbag49
(g70
g51
NtRp479
(dp480
g54
(dp481
sg63
g467
sg56
(lp482
g49
(g50
g51
NtRp483
(dp484
g54
(dp485
g62
I3
ssg63
g479
sg56
(lp486
S''
asbasbasbag49
(g65
g51
NtRp487
(dp488
g54
(dp489
sg63
g423
sg56
(lp490
g49
(g70
g51
NtRp491
(dp492
g54
(dp493
g74
g75
ssg63
g487
sg56
(lp494
g326
asbag49
(g70
g51
NtRp495
(dp496
g54
(dp497
g81
g82
ssg63
g487
sg56
(lp498
S':'
asbag49
(g70
g51
NtRp499
(dp500
g54
(dp501
sg63
g487
sg56
(lp502
g49
(g50
g51
NtRp503
(dp504
g54
(dp505
g62
I3
ssg63
g499
sg56
(lp506
S''
asbasbasbag49
(g65
g51
NtRp507
(dp508
g54
(dp509
sg63
g423
sg56
(lp510
g49
(g70
g51
NtRp511
(dp512
g54
(dp513
g74
g75
ssg63
g507
sg56
(lp514
g347
asbag49
(g70
g51
NtRp515
(dp516
g54
(dp517
g81
g82
ssg63
g507
sg56
(lp518
S':'
asbag49
(g70
g51
NtRp519
(dp520
g54
(dp521
sg63
g507
sg56
(lp522
g49
(g50
g51
NtRp523
(dp524
g54
(dp525
g62
I3
ssg63
g519
sg56
(lp526
S''
asbasbasbag49
(g65
g51
NtRp527
(dp528
g54
(dp529
sg63
g423
sg56
(lp530
g49
(g70
g51
NtRp531
(dp532
g54
(dp533
g74
g75
ssg63
g527
sg56
(lp534
g368
asbag49
(g70
g51
NtRp535
(dp536
g54
(dp537
g81
g82
ssg63
g527
sg56
(lp538
S':'
asbag49
(g70
g51
NtRp539
(dp540
g54
(dp541
sg63
g527
sg56
(lp542
g49
(g50
g51
NtRp543
(dp544
g54
(dp545
g62
I3
ssg63
g539
sg56
(lp546
S''
asbasbasbag49
(g65
g51
NtRp547
(dp548
g54
(dp549
sg63
g423
sg56
(lp550
g49
(g70
g51
NtRp551
(dp552
g54
(dp553
g74
g75
ssg63
g547
sg56
(lp554
g389
asbag49
(g70
g51
NtRp555
(dp556
g54
(dp557
g81
g82
ssg63
g547
sg56
(lp558
S':'
asbag49
(g70
g51
NtRp559
(dp560
g54
(dp561
sg63
g547
sg56
(lp562
g49
(g50
g51
NtRp563
(dp564
g54
(dp565
g62
I3
ssg63
g559
sg56
(lp566
S''
asbasbasbasbasbasbasbasbasbasbasbag49
(g65
g51
NtRp567
(dp568
g54
(dp569
sg63
g59
sg56
(lp570
g49
(g70
g51
NtRp571
(dp572
g54
(dp573
g74
g75
ssg63
g567
sg56
(lp574
S'env'
p575
asbag49
(g70
g51
NtRp576
(dp577
g54
(dp578
g81
g82
ssg63
g567
sg56
(lp579
S':'
asbag49
(g70
g51
NtRp580
(dp581
g54
(dp582
sg63
g567
sg56
(lp583
g49
(g50
g51
NtRp584
(dp585
g54
(dp586
g62
I5
ssg63
g580
sg56
(lp587
g49
(g58
g51
NtRp588
(dp589
g54
(dp590
g62
I4
ssg63
Nsg56
(lp591
g49
(g65
g51
NtRp592
(dp593
g54
(dp594
sg63
g588
sg56
(lp595
g49
(g70
g51
NtRp596
(dp597
g54
(dp598
g74
g75
ssg63
g592
sg56
(lp599
S'app_folders'
p600
asbag49
(g70
g51
NtRp601
(dp602
g54
(dp603
g81
g82
ssg63
g592
sg56
(lp604
S':'
asbag49
(g70
g51
NtRp605
(dp606
g54
(dp607
sg63
g592
sg56
(lp608
g49
(g50
g51
NtRp609
(dp610
g54
(dp611
g62
I4
ssg63
g605
sg56
(lp612
S"set(['C:\\\\Users\\\\Bussiere\\\\Dropbox\\\\Projets\\\\jackpoint\\\\web2py\\\\applications\\\\init\\\\', 'C:\\\\Users\\\\Bussiere\\\\Dropbox\\\\Projets\\\\jackpoint\\\\web2py\\\\applications\\\\admin\\\\'])"
p613
asbasbasbag49
(g65
g51
NtRp614
(dp615
g54
(dp616
sg63
g588
sg56
(lp617
g49
(g70
g51
NtRp618
(dp619
g54
(dp620
g74
g75
ssg63
g614
sg56
(lp621
S'applications_parent'
p622
asbag49
(g70
g51
NtRp623
(dp624
g54
(dp625
g81
g82
ssg63
g614
sg56
(lp626
S':'
asbag49
(g70
g51
NtRp627
(dp628
g54
(dp629
sg63
g614
sg56
(lp630
g49
(g50
g51
NtRp631
(dp632
g54
(dp633
g62
I4
ssg63
g627
sg56
(lp634
S'C:\\Users\\Bussiere\\Dropbox\\Projets\\jackpoint\\web2py'
p635
asbasbasbag49
(g65
g51
NtRp636
(dp637
g54
(dp638
sg63
g588
sg56
(lp639
g49
(g70
g51
NtRp640
(dp641
g54
(dp642
g74
g75
ssg63
g636
sg56
(lp643
S'cmd_args'
p644
asbag49
(g70
g51
NtRp645
(dp646
g54
(dp647
g81
g82
ssg63
g636
sg56
(lp648
S':'
asbag49
(g70
g51
NtRp649
(dp650
g54
(dp651
sg63
g636
sg56
(lp652
g49
(g50
g51
NtRp653
(dp654
g54
(dp655
g62
I4
ssg63
g649
sg56
(lp656
g49
(g58
g51
NtRp657
(dp658
g54
(dp659
g62
I3
ssg63
Nsg56
(lp660
sbasbasbasbag49
(g65
g51
NtRp661
(dp662
g54
(dp663
sg63
g588
sg56
(lp664
g49
(g70
g51
NtRp665
(dp666
g54
(dp667
g74
g75
ssg63
g661
sg56
(lp668
S'cmd_options'
p669
asbag49
(g70
g51
NtRp670
(dp671
g54
(dp672
g81
g82
ssg63
g661
sg56
(lp673
S':'
asbag49
(g70
g51
NtRp674
(dp675
g54
(dp676
sg63
g661
sg56
(lp677
g49
(g50
g51
NtRp678
(dp679
g54
(dp680
g62
I4
ssg63
g674
sg56
(lp681
S"<Values at 0x3ca5fa8: {'verbose': False, 'ip': '127.0.0.1', 'shutdown_timeout': 5, 'taskbar': False, 'nocron': False, 'pid_filename': 'httpserver.pid', 'maxthreads': None, 'softcron': False, 'server_name': 'Batou', 'bpython': False, 'nogui': False, 'port': 8000, 'extcron': False, 'debuglevel': 30, 'test': None, 'folder': 'C:\\\\Users\\\\Bussiere\\\\Dropbox\\\\Projets\\\\jackpoint\\\\web2py', 'config': '', 'import_models': False, 'winservice': '', 'shell': None, 'run': '', 'log_filename': 'httpserver.log', 'args': [''], 'socket_timeout': 5, 'ssl_ca_certificate': None, 'scheduler': None, 'profiler_filename': None, 'ssl_private_key': '', 'password': '<ask>', 'request_queue_size': 5, 'ssl_certificate': '', 'cronjob': False, 'numthreads': None, 'quiet': False, 'interfaces': None, 'minthreads': None, 'timeout': 10, 'plain': False, 'nobanner': False}>"
p682
asbasbasbag49
(g65
g51
NtRp683
(dp684
g54
(dp685
sg63
g588
sg56
(lp686
g49
(g70
g51
NtRp687
(dp688
g54
(dp689
g74
g75
ssg63
g683
sg56
(lp690
S'db_sessions'
p691
asbag49
(g70
g51
NtRp692
(dp693
g54
(dp694
g81
g82
ssg63
g683
sg56
(lp695
S':'
asbag49
(g70
g51
NtRp696
(dp697
g54
(dp698
sg63
g683
sg56
(lp699
g49
(g50
g51
NtRp700
(dp701
g54
(dp702
g62
I4
ssg63
g696
sg56
(lp703
S"set(['init'])"
p704
asbasbasbag49
(g65
g51
NtRp705
(dp706
g54
(dp707
sg63
g588
sg56
(lp708
g49
(g70
g51
NtRp709
(dp710
g54
(dp711
g74
g75
ssg63
g705
sg56
(lp712
S'debugging'
p713
asbag49
(g70
g51
NtRp714
(dp715
g54
(dp716
g81
g82
ssg63
g705
sg56
(lp717
S':'
asbag49
(g70
g51
NtRp718
(dp719
g54
(dp720
sg63
g705
sg56
(lp721
g49
(g50
g51
NtRp722
(dp723
g54
(dp724
g62
I4
ssg63
g718
sg56
(lp725
S'True'
p726
asbasbasbag49
(g65
g51
NtRp727
(dp728
g54
(dp729
sg63
g588
sg56
(lp730
g49
(g70
g51
NtRp731
(dp732
g54
(dp733
g74
g75
ssg63
g727
sg56
(lp734
S'gluon_parent'
p735
asbag49
(g70
g51
NtRp736
(dp737
g54
(dp738
g81
g82
ssg63
g727
sg56
(lp739
S':'
asbag49
(g70
g51
NtRp740
(dp741
g54
(dp742
sg63
g727
sg56
(lp743
g49
(g50
g51
NtRp744
(dp745
g54
(dp746
g62
I4
ssg63
g740
sg56
(lp747
S'C:\\Users\\Bussiere\\Dropbox\\Projets\\jackpoint\\web2py'
p748
asbasbasbag49
(g65
g51
NtRp749
(dp750
g54
(dp751
sg63
g588
sg56
(lp752
g49
(g70
g51
NtRp753
(dp754
g54
(dp755
g74
g75
ssg63
g749
sg56
(lp756
S'http_accept'
p757
asbag49
(g70
g51
NtRp758
(dp759
g54
(dp760
g81
g82
ssg63
g749
sg56
(lp761
S':'
asbag49
(g70
g51
NtRp762
(dp763
g54
(dp764
sg63
g749
sg56
(lp765
g49
(g50
g51
NtRp766
(dp767
g54
(dp768
g62
I4
ssg63
g762
sg56
(lp769
S'text/html,application/xhtml+xml,application/xml;q=0.9,*/*;q=0.8'
p770
asbasbasbag49
(g65
g51
NtRp771
(dp772
g54
(dp773
sg63
g588
sg56
(lp774
g49
(g70
g51
NtRp775
(dp776
g54
(dp777
g74
g75
ssg63
g771
sg56
(lp778
S'http_accept_charset'
p779
asbag49
(g70
g51
NtRp780
(dp781
g54
(dp782
g81
g82
ssg63
g771
sg56
(lp783
S':'
asbag49
(g70
g51
NtRp784
(dp785
g54
(dp786
sg63
g771
sg56
(lp787
g49
(g50
g51
NtRp788
(dp789
g54
(dp790
g62
I4
ssg63
g784
sg56
(lp791
S'ISO-8859-1,utf-8;q=0.7,*;q=0.3'
p792
asbasbasbag49
(g65
g51
NtRp793
(dp794
g54
(dp795
sg63
g588
sg56
(lp796
g49
(g70
g51
NtRp797
(dp798
g54
(dp799
g74
g75
ssg63
g793
sg56
(lp800
S'http_accept_encoding'
p801
asbag49
(g70
g51
NtRp802
(dp803
g54
(dp804
g81
g82
ssg63
g793
sg56
(lp805
S':'
asbag49
(g70
g51
NtRp806
(dp807
g54
(dp808
sg63
g793
sg56
(lp809
g49
(g50
g51
NtRp810
(dp811
g54
(dp812
g62
I4
ssg63
g806
sg56
(lp813
S'gzip,deflate,sdch'
p814
asbasbasbag49
(g65
g51
NtRp815
(dp816
g54
(dp817
sg63
g588
sg56
(lp818
g49
(g70
g51
NtRp819
(dp820
g54
(dp821
g74
g75
ssg63
g815
sg56
(lp822
S'http_accept_language'
p823
asbag49
(g70
g51
NtRp824
(dp825
g54
(dp826
g81
g82
ssg63
g815
sg56
(lp827
S':'
asbag49
(g70
g51
NtRp828
(dp829
g54
(dp830
sg63
g815
sg56
(lp831
g49
(g50
g51
NtRp832
(dp833
g54
(dp834
g62
I4
ssg63
g828
sg56
(lp835
S'en-US,en;q=0.8'
p836
asbasbasbag49
(g65
g51
NtRp837
(dp838
g54
(dp839
sg63
g588
sg56
(lp840
g49
(g70
g51
NtRp841
(dp842
g54
(dp843
g74
g75
ssg63
g837
sg56
(lp844
S'http_connection'
p845
asbag49
(g70
g51
NtRp846
(dp847
g54
(dp848
g81
g82
ssg63
g837
sg56
(lp849
S':'
asbag49
(g70
g51
NtRp850
(dp851
g54
(dp852
sg63
g837
sg56
(lp853
g49
(g50
g51
NtRp854
(dp855
g54
(dp856
g62
I4
ssg63
g850
sg56
(lp857
S'keep-alive'
p858
asbasbasbag49
(g65
g51
NtRp859
(dp860
g54
(dp861
sg63
g588
sg56
(lp862
g49
(g70
g51
NtRp863
(dp864
g54
(dp865
g74
g75
ssg63
g859
sg56
(lp866
S'http_cookie'
p867
asbag49
(g70
g51
NtRp868
(dp869
g54
(dp870
g81
g82
ssg63
g859
sg56
(lp871
S':'
asbag49
(g70
g51
NtRp872
(dp873
g54
(dp874
sg63
g859
sg56
(lp875
g49
(g50
g51
NtRp876
(dp877
g54
(dp878
g62
I4
ssg63
g872
sg56
(lp879
S'session_id_admin=127.0.0.1-0bfa24bd-fd8c-4100-9bfe-4a468b383bac; session_id_init="22:916ef1c2-7902-46d9-bbc5-80f0afcec41d"'
p880
asbasbasbag49
(g65
g51
NtRp881
(dp882
g54
(dp883
sg63
g588
sg56
(lp884
g49
(g70
g51
NtRp885
(dp886
g54
(dp887
g74
g75
ssg63
g881
sg56
(lp888
S'http_host'
p889
asbag49
(g70
g51
NtRp890
(dp891
g54
(dp892
g81
g82
ssg63
g881
sg56
(lp893
S':'
asbag49
(g70
g51
NtRp894
(dp895
g54
(dp896
sg63
g881
sg56
(lp897
g49
(g50
g51
NtRp898
(dp899
g54
(dp900
g62
I4
ssg63
g894
sg56
(lp901
S'localhost:8000'
p902
asbasbasbag49
(g65
g51
NtRp903
(dp904
g54
(dp905
sg63
g588
sg56
(lp906
g49
(g70
g51
NtRp907
(dp908
g54
(dp909
g74
g75
ssg63
g903
sg56
(lp910
S'http_user_agent'
p911
asbag49
(g70
g51
NtRp912
(dp913
g54
(dp914
g81
g82
ssg63
g903
sg56
(lp915
S':'
asbag49
(g70
g51
NtRp916
(dp917
g54
(dp918
sg63
g903
sg56
(lp919
g49
(g50
g51
NtRp920
(dp921
g54
(dp922
g62
I4
ssg63
g916
sg56
(lp923
S'Mozilla/5.0 (Windows NT 6.1; WOW64) AppleWebKit/535.18 (KHTML, like Gecko) Chrome/18.0.1011.0 Safari/535.18'
p924
asbasbasbag49
(g65
g51
NtRp925
(dp926
g54
(dp927
sg63
g588
sg56
(lp928
g49
(g70
g51
NtRp929
(dp930
g54
(dp931
g74
g75
ssg63
g925
sg56
(lp932
S'is_jython'
p933
asbag49
(g70
g51
NtRp934
(dp935
g54
(dp936
g81
g82
ssg63
g925
sg56
(lp937
S':'
asbag49
(g70
g51
NtRp938
(dp939
g54
(dp940
sg63
g925
sg56
(lp941
g49
(g50
g51
NtRp942
(dp943
g54
(dp944
g62
I4
ssg63
g938
sg56
(lp945
g92
asbasbasbag49
(g65
g51
NtRp946
(dp947
g54
(dp948
sg63
g588
sg56
(lp949
g49
(g70
g51
NtRp950
(dp951
g54
(dp952
g74
g75
ssg63
g946
sg56
(lp953
S'is_pypy'
p954
asbag49
(g70
g51
NtRp955
(dp956
g54
(dp957
g81
g82
ssg63
g946
sg56
(lp958
S':'
asbag49
(g70
g51
NtRp959
(dp960
g54
(dp961
sg63
g946
sg56
(lp962
g49
(g50
g51
NtRp963
(dp964
g54
(dp965
g62
I4
ssg63
g959
sg56
(lp966
g92
asbasbasbag49
(g65
g51
NtRp967
(dp968
g54
(dp969
sg63
g588
sg56
(lp970
g49
(g70
g51
NtRp971
(dp972
g54
(dp973
g74
g75
ssg63
g967
sg56
(lp974
S'path_info'
p975
asbag49
(g70
g51
NtRp976
(dp977
g54
(dp978
g81
g82
ssg63
g967
sg56
(lp979
S':'
asbag49
(g70
g51
NtRp980
(dp981
g54
(dp982
sg63
g967
sg56
(lp983
g49
(g50
g51
NtRp984
(dp985
g54
(dp986
g62
I4
ssg63
g980
sg56
(lp987
S'/init/default/initdbjack'
p988
asbasbasbag49
(g65
g51
NtRp989
(dp990
g54
(dp991
sg63
g588
sg56
(lp992
g49
(g70
g51
NtRp993
(dp994
g54
(dp995
g74
g75
ssg63
g989
sg56
(lp996
S'query_string'
p997
asbag49
(g70
g51
NtRp998
(dp999
g54
(dp1000
g81
g82
ssg63
g989
sg56
(lp1001
S':'
asbag49
(g70
g51
NtRp1002
(dp1003
g54
(dp1004
sg63
g989
sg56
(lp1005
g49
(g50
g51
NtRp1006
(dp1007
g54
(dp1008
g62
I4
ssg63
g1002
sg56
(lp1009
S''
asbasbasbag49
(g65
g51
NtRp1010
(dp1011
g54
(dp1012
sg63
g588
sg56
(lp1013
g49
(g70
g51
NtRp1014
(dp1015
g54
(dp1016
g74
g75
ssg63
g1010
sg56
(lp1017
S'remote_addr'
p1018
asbag49
(g70
g51
NtRp1019
(dp1020
g54
(dp1021
g81
g82
ssg63
g1010
sg56
(lp1022
S':'
asbag49
(g70
g51
NtRp1023
(dp1024
g54
(dp1025
sg63
g1010
sg56
(lp1026
g49
(g50
g51
NtRp1027
(dp1028
g54
(dp1029
g62
I4
ssg63
g1023
sg56
(lp1030
g182
asbasbasbag49
(g65
g51
NtRp1031
(dp1032
g54
(dp1033
sg63
g588
sg56
(lp1034
g49
(g70
g51
NtRp1035
(dp1036
g54
(dp1037
g74
g75
ssg63
g1031
sg56
(lp1038
S'remote_port'
p1039
asbag49
(g70
g51
NtRp1040
(dp1041
g54
(dp1042
g81
g82
ssg63
g1031
sg56
(lp1043
S':'
asbag49
(g70
g51
NtRp1044
(dp1045
g54
(dp1046
sg63
g1031
sg56
(lp1047
g49
(g50
g51
NtRp1048
(dp1049
g54
(dp1050
g62
I4
ssg63
g1044
sg56
(lp1051
S'56614'
p1052
asbasbasbag49
(g65
g51
NtRp1053
(dp1054
g54
(dp1055
sg63
g588
sg56
(lp1056
g49
(g70
g51
NtRp1057
(dp1058
g54
(dp1059
g74
g75
ssg63
g1053
sg56
(lp1060
S'request_method'
p1061
asbag49
(g70
g51
NtRp1062
(dp1063
g54
(dp1064
g81
g82
ssg63
g1053
sg56
(lp1065
S':'
asbag49
(g70
g51
NtRp1066
(dp1067
g54
(dp1068
sg63
g1053
sg56
(lp1069
g49
(g50
g51
NtRp1070
(dp1071
g54
(dp1072
g62
I4
ssg63
g1066
sg56
(lp1073
S'GET'
p1074
asbasbasbag49
(g65
g51
NtRp1075
(dp1076
g54
(dp1077
sg63
g588
sg56
(lp1078
g49
(g70
g51
NtRp1079
(dp1080
g54
(dp1081
g74
g75
ssg63
g1075
sg56
(lp1082
S'script_name'
p1083
asbag49
(g70
g51
NtRp1084
(dp1085
g54
(dp1086
g81
g82
ssg63
g1075
sg56
(lp1087
S':'
asbag49
(g70
g51
NtRp1088
(dp1089
g54
(dp1090
sg63
g1075
sg56
(lp1091
g49
(g50
g51
NtRp1092
(dp1093
g54
(dp1094
g62
I4
ssg63
g1088
sg56
(lp1095
S''
asbasbasbag49
(g65
g51
NtRp1096
(dp1097
g54
(dp1098
sg63
g588
sg56
(lp1099
g49
(g70
g51
NtRp1100
(dp1101
g54
(dp1102
g74
g75
ssg63
g1096
sg56
(lp1103
S'server_name'
p1104
asbag49
(g70
g51
NtRp1105
(dp1106
g54
(dp1107
g81
g82
ssg63
g1096
sg56
(lp1108
S':'
asbag49
(g70
g51
NtRp1109
(dp1110
g54
(dp1111
sg63
g1096
sg56
(lp1112
g49
(g50
g51
NtRp1113
(dp1114
g54
(dp1115
g62
I4
ssg63
g1109
sg56
(lp1116
S'Batou'
p1117
asbasbasbag49
(g65
g51
NtRp1118
(dp1119
g54
(dp1120
sg63
g588
sg56
(lp1121
g49
(g70
g51
NtRp1122
(dp1123
g54
(dp1124
g74
g75
ssg63
g1118
sg56
(lp1125
S'server_port'
p1126
asbag49
(g70
g51
NtRp1127
(dp1128
g54
(dp1129
g81
g82
ssg63
g1118
sg56
(lp1130
S':'
asbag49
(g70
g51
NtRp1131
(dp1132
g54
(dp1133
sg63
g1118
sg56
(lp1134
g49
(g50
g51
NtRp1135
(dp1136
g54
(dp1137
g62
I4
ssg63
g1131
sg56
(lp1138
S'8000'
p1139
asbasbasbag49
(g65
g51
NtRp1140
(dp1141
g54
(dp1142
sg63
g588
sg56
(lp1143
g49
(g70
g51
NtRp1144
(dp1145
g54
(dp1146
g74
g75
ssg63
g1140
sg56
(lp1147
S'server_protocol'
p1148
asbag49
(g70
g51
NtRp1149
(dp1150
g54
(dp1151
g81
g82
ssg63
g1140
sg56
(lp1152
S':'
asbag49
(g70
g51
NtRp1153
(dp1154
g54
(dp1155
sg63
g1140
sg56
(lp1156
g49
(g50
g51
NtRp1157
(dp1158
g54
(dp1159
g62
I4
ssg63
g1153
sg56
(lp1160
S'HTTP/1.1'
p1161
asbasbasbag49
(g65
g51
NtRp1162
(dp1163
g54
(dp1164
sg63
g588
sg56
(lp1165
g49
(g70
g51
NtRp1166
(dp1167
g54
(dp1168
g74
g75
ssg63
g1162
sg56
(lp1169
S'server_software'
p1170
asbag49
(g70
g51
NtRp1171
(dp1172
g54
(dp1173
g81
g82
ssg63
g1162
sg56
(lp1174
S':'
asbag49
(g70
g51
NtRp1175
(dp1176
g54
(dp1177
sg63
g1162
sg56
(lp1178
g49
(g50
g51
NtRp1179
(dp1180
g54
(dp1181
g62
I4
ssg63
g1175
sg56
(lp1182
S'Rocket 1.2.4'
p1183
asbasbasbag49
(g65
g51
NtRp1184
(dp1185
g54
(dp1186
sg63
g588
sg56
(lp1187
g49
(g70
g51
NtRp1188
(dp1189
g54
(dp1190
g74
g75
ssg63
g1184
sg56
(lp1191
S'web2py_crontype'
p1192
asbag49
(g70
g51
NtRp1193
(dp1194
g54
(dp1195
g81
g82
ssg63
g1184
sg56
(lp1196
S':'
asbag49
(g70
g51
NtRp1197
(dp1198
g54
(dp1199
sg63
g1184
sg56
(lp1200
g49
(g50
g51
NtRp1201
(dp1202
g54
(dp1203
g62
I4
ssg63
g1197
sg56
(lp1204
S'hard'
p1205
asbasbasbag49
(g65
g51
NtRp1206
(dp1207
g54
(dp1208
sg63
g588
sg56
(lp1209
g49
(g70
g51
NtRp1210
(dp1211
g54
(dp1212
g74
g75
ssg63
g1206
sg56
(lp1213
S'web2py_path'
p1214
asbag49
(g70
g51
NtRp1215
(dp1216
g54
(dp1217
g81
g82
ssg63
g1206
sg56
(lp1218
S':'
asbag49
(g70
g51
NtRp1219
(dp1220
g54
(dp1221
sg63
g1206
sg56
(lp1222
g49
(g50
g51
NtRp1223
(dp1224
g54
(dp1225
g62
I4
ssg63
g1219
sg56
(lp1226
g635
asbasbasbag49
(g65
g51
NtRp1227
(dp1228
g54
(dp1229
sg63
g588
sg56
(lp1230
g49
(g70
g51
NtRp1231
(dp1232
g54
(dp1233
g74
g75
ssg63
g1227
sg56
(lp1234
S'web2py_version'
p1235
asbag49
(g70
g51
NtRp1236
(dp1237
g54
(dp1238
g81
g82
ssg63
g1227
sg56
(lp1239
S':'
asbag49
(g70
g51
NtRp1240
(dp1241
g54
(dp1242
sg63
g1227
sg56
(lp1243
g49
(g50
g51
NtRp1244
(dp1245
g54
(dp1246
g62
I4
ssg63
g1240
sg56
(lp1247
g49
(g58
g51
NtRp1248
(dp1249
g54
(dp1250
g62
I3
ssg63
Nsg56
(lp1251
g49
(g65
g51
NtRp1252
(dp1253
g54
(dp1254
sg63
g1248
sg56
(lp1255
g49
(g70
g51
NtRp1256
(dp1257
g54
(dp1258
sg63
g1252
sg56
(lp1259
g49
(g50
g51
NtRp1260
(dp1261
g54
(dp1262
g62
I3
ssg63
g1256
sg56
(lp1263
S'1'
asbasbasbag49
(g65
g51
NtRp1264
(dp1265
g54
(dp1266
sg63
g1248
sg56
(lp1267
g49
(g70
g51
NtRp1268
(dp1269
g54
(dp1270
sg63
g1264
sg56
(lp1271
g49
(g50
g51
NtRp1272
(dp1273
g54
(dp1274
g62
I3
ssg63
g1268
sg56
(lp1275
S'99'
p1276
asbasbasbag49
(g65
g51
NtRp1277
(dp1278
g54
(dp1279
sg63
g1248
sg56
(lp1280
g49
(g70
g51
NtRp1281
(dp1282
g54
(dp1283
sg63
g1277
sg56
(lp1284
g49
(g50
g51
NtRp1285
(dp1286
g54
(dp1287
g62
I3
ssg63
g1281
sg56
(lp1288
S'7'
asbasbasbag49
(g65
g51
NtRp1289
(dp1290
g54
(dp1291
sg63
g1248
sg56
(lp1292
g49
(g70
g51
NtRp1293
(dp1294
g54
(dp1295
sg63
g1289
sg56
(lp1296
g49
(g50
g51
NtRp1297
(dp1298
g54
(dp1299
g62
I3
ssg63
g1293
sg56
(lp1300
S'datetime.datetime(2012, 3, 4, 22, 12, 8)'
p1301
asbasbasbag49
(g65
g51
NtRp1302
(dp1303
g54
(dp1304
sg63
g1248
sg56
(lp1305
g49
(g70
g51
NtRp1306
(dp1307
g54
(dp1308
sg63
g1302
sg56
(lp1309
g49
(g50
g51
NtRp1310
(dp1311
g54
(dp1312
g62
I3
ssg63
g1306
sg56
(lp1313
S'stable'
p1314
asbasbasbasbasbasbasbag49
(g65
g51
NtRp1315
(dp1316
g54
(dp1317
sg63
g588
sg56
(lp1318
g49
(g70
g51
NtRp1319
(dp1320
g54
(dp1321
g74
g75
ssg63
g1315
sg56
(lp1322
S'wsgi_errors'
p1323
asbag49
(g70
g51
NtRp1324
(dp1325
g54
(dp1326
g81
g82
ssg63
g1315
sg56
(lp1327
S':'
asbag49
(g70
g51
NtRp1328
(dp1329
g54
(dp1330
sg63
g1315
sg56
(lp1331
g49
(g50
g51
NtRp1332
(dp1333
g54
(dp1334
g62
I4
ssg63
g1328
sg56
(lp1335
S"<open file '<stderr>', mode 'w' at 0x004300B0>"
p1336
asbasbasbag49
(g65
g51
NtRp1337
(dp1338
g54
(dp1339
sg63
g588
sg56
(lp1340
g49
(g70
g51
NtRp1341
(dp1342
g54
(dp1343
g74
g75
ssg63
g1337
sg56
(lp1344
S'wsgi_file_wrapper'
p1345
asbag49
(g70
g51
NtRp1346
(dp1347
g54
(dp1348
g81
g82
ssg63
g1337
sg56
(lp1349
S':'
asbag49
(g70
g51
NtRp1350
(dp1351
g54
(dp1352
sg63
g1337
sg56
(lp1353
g49
(g50
g51
NtRp1354
(dp1355
g54
(dp1356
g62
I4
ssg63
g1350
sg56
(lp1357
S'<class wsgiref.util.FileWrapper at 0x02C44900>'
p1358
asbasbasbag49
(g65
g51
NtRp1359
(dp1360
g54
(dp1361
sg63
g588
sg56
(lp1362
g49
(g70
g51
NtRp1363
(dp1364
g54
(dp1365
g74
g75
ssg63
g1359
sg56
(lp1366
S'wsgi_input'
p1367
asbag49
(g70
g51
NtRp1368
(dp1369
g54
(dp1370
g81
g82
ssg63
g1359
sg56
(lp1371
S':'
asbag49
(g70
g51
NtRp1372
(dp1373
g54
(dp1374
sg63
g1359
sg56
(lp1375
g49
(g50
g51
NtRp1376
(dp1377
g54
(dp1378
g62
I4
ssg63
g1372
sg56
(lp1379
S'<socket._fileobject object at 0x0822D5F0>'
p1380
asbasbasbag49
(g65
g51
NtRp1381
(dp1382
g54
(dp1383
sg63
g588
sg56
(lp1384
g49
(g70
g51
NtRp1385
(dp1386
g54
(dp1387
g74
g75
ssg63
g1381
sg56
(lp1388
S'wsgi_multiprocess'
p1389
asbag49
(g70
g51
NtRp1390
(dp1391
g54
(dp1392
g81
g82
ssg63
g1381
sg56
(lp1393
S':'
asbag49
(g70
g51
NtRp1394
(dp1395
g54
(dp1396
sg63
g1381
sg56
(lp1397
g49
(g50
g51
NtRp1398
(dp1399
g54
(dp1400
g62
I4
ssg63
g1394
sg56
(lp1401
g92
asbasbasbag49
(g65
g51
NtRp1402
(dp1403
g54
(dp1404
sg63
g588
sg56
(lp1405
g49
(g70
g51
NtRp1406
(dp1407
g54
(dp1408
g74
g75
ssg63
g1402
sg56
(lp1409
S'wsgi_multithread'
p1410
asbag49
(g70
g51
NtRp1411
(dp1412
g54
(dp1413
g81
g82
ssg63
g1402
sg56
(lp1414
S':'
asbag49
(g70
g51
NtRp1415
(dp1416
g54
(dp1417
sg63
g1402
sg56
(lp1418
g49
(g50
g51
NtRp1419
(dp1420
g54
(dp1421
g62
I4
ssg63
g1415
sg56
(lp1422
g726
asbasbasbag49
(g65
g51
NtRp1423
(dp1424
g54
(dp1425
sg63
g588
sg56
(lp1426
g49
(g70
g51
NtRp1427
(dp1428
g54
(dp1429
g74
g75
ssg63
g1423
sg56
(lp1430
S'wsgi_run_once'
p1431
asbag49
(g70
g51
NtRp1432
(dp1433
g54
(dp1434
g81
g82
ssg63
g1423
sg56
(lp1435
S':'
asbag49
(g70
g51
NtRp1436
(dp1437
g54
(dp1438
sg63
g1423
sg56
(lp1439
g49
(g50
g51
NtRp1440
(dp1441
g54
(dp1442
g62
I4
ssg63
g1436
sg56
(lp1443
g92
asbasbasbag49
(g65
g51
NtRp1444
(dp1445
g54
(dp1446
sg63
g588
sg56
(lp1447
g49
(g70
g51
NtRp1448
(dp1449
g54
(dp1450
g74
g75
ssg63
g1444
sg56
(lp1451
S'wsgi_url_scheme'
p1452
asbag49
(g70
g51
NtRp1453
(dp1454
g54
(dp1455
g81
g82
ssg63
g1444
sg56
(lp1456
S':'
asbag49
(g70
g51
NtRp1457
(dp1458
g54
(dp1459
sg63
g1444
sg56
(lp1460
g49
(g50
g51
NtRp1461
(dp1462
g54
(dp1463
g62
I4
ssg63
g1457
sg56
(lp1464
S'http'
p1465
asbasbasbag49
(g65
g51
NtRp1466
(dp1467
g54
(dp1468
sg63
g588
sg56
(lp1469
g49
(g70
g51
NtRp1470
(dp1471
g54
(dp1472
g74
g75
ssg63
g1466
sg56
(lp1473
S'wsgi_version'
p1474
asbag49
(g70
g51
NtRp1475
(dp1476
g54
(dp1477
g81
g82
ssg63
g1466
sg56
(lp1478
S':'
asbag49
(g70
g51
NtRp1479
(dp1480
g54
(dp1481
sg63
g1466
sg56
(lp1482
g49
(g50
g51
NtRp1483
(dp1484
g54
(dp1485
g62
I4
ssg63
g1479
sg56
(lp1486
g49
(g58
g51
NtRp1487
(dp1488
g54
(dp1489
g62
I3
ssg63
Nsg56
(lp1490
g49
(g65
g51
NtRp1491
(dp1492
g54
(dp1493
sg63
g1487
sg56
(lp1494
g49
(g70
g51
NtRp1495
(dp1496
g54
(dp1497
sg63
g1491
sg56
(lp1498
g49
(g50
g51
NtRp1499
(dp1500
g54
(dp1501
g62
I3
ssg63
g1495
sg56
(lp1502
S'1'
asbasbasbag49
(g65
g51
NtRp1503
(dp1504
g54
(dp1505
sg63
g1487
sg56
(lp1506
g49
(g70
g51
NtRp1507
(dp1508
g54
(dp1509
sg63
g1503
sg56
(lp1510
g49
(g50
g51
NtRp1511
(dp1512
g54
(dp1513
g62
I3
ssg63
g1507
sg56
(lp1514
S'0'
asbasbasbasbasbasbasbasbasbasbasbag49
(g65
g51
NtRp1515
(dp1516
g54
(dp1517
sg63
g59
sg56
(lp1518
g49
(g70
g51
NtRp1519
(dp1520
g54
(dp1521
g74
g75
ssg63
g1515
sg56
(lp1522
S'extension'
p1523
asbag49
(g70
g51
NtRp1524
(dp1525
g54
(dp1526
g81
g82
ssg63
g1515
sg56
(lp1527
S':'
asbag49
(g70
g51
NtRp1528
(dp1529
g54
(dp1530
sg63
g1515
sg56
(lp1531
g49
(g50
g51
NtRp1532
(dp1533
g54
(dp1534
g62
I5
ssg63
g1528
sg56
(lp1535
S'html'
p1536
asbasbasbag49
(g65
g51
NtRp1537
(dp1538
g54
(dp1539
sg63
g59
sg56
(lp1540
g49
(g70
g51
NtRp1541
(dp1542
g54
(dp1543
g74
g75
ssg63
g1537
sg56
(lp1544
S'folder'
p1545
asbag49
(g70
g51
NtRp1546
(dp1547
g54
(dp1548
g81
g82
ssg63
g1537
sg56
(lp1549
S':'
asbag49
(g70
g51
NtRp1550
(dp1551
g54
(dp1552
sg63
g1537
sg56
(lp1553
g49
(g50
g51
NtRp1554
(dp1555
g54
(dp1556
g62
I5
ssg63
g1550
sg56
(lp1557
S'C:\\Users\\Bussiere\\Dropbox\\Projets\\jackpoint\\web2py\\applications\\init\\'
p1558
asbasbasbag49
(g65
g51
NtRp1559
(dp1560
g54
(dp1561
sg63
g59
sg56
(lp1562
g49
(g70
g51
NtRp1563
(dp1564
g54
(dp1565
g74
g75
ssg63
g1559
sg56
(lp1566
S'function'
p1567
asbag49
(g70
g51
NtRp1568
(dp1569
g54
(dp1570
g81
g82
ssg63
g1559
sg56
(lp1571
S':'
asbag49
(g70
g51
NtRp1572
(dp1573
g54
(dp1574
sg63
g1559
sg56
(lp1575
g49
(g50
g51
NtRp1576
(dp1577
g54
(dp1578
g62
I5
ssg63
g1572
sg56
(lp1579
S'initdbjack'
p1580
asbasbasbag49
(g65
g51
NtRp1581
(dp1582
g54
(dp1583
sg63
g59
sg56
(lp1584
g49
(g70
g51
NtRp1585
(dp1586
g54
(dp1587
g74
g75
ssg63
g1581
sg56
(lp1588
S'get_vars'
p1589
asbag49
(g70
g51
NtRp1590
(dp1591
g54
(dp1592
g81
g82
ssg63
g1581
sg56
(lp1593
S':'
asbag49
(g70
g51
NtRp1594
(dp1595
g54
(dp1596
sg63
g1581
sg56
(lp1597
g49
(g50
g51
NtRp1598
(dp1599
g54
(dp1600
g62
I5
ssg63
g1594
sg56
(lp1601
g49
(g58
g51
NtRp1602
(dp1603
g54
(dp1604
g62
I4
ssg63
Nsg56
(lp1605
sbasbasbasbag49
(g65
g51
NtRp1606
(dp1607
g54
(dp1608
sg63
g59
sg56
(lp1609
g49
(g70
g51
NtRp1610
(dp1611
g54
(dp1612
g74
g75
ssg63
g1606
sg56
(lp1613
S'global_settings'
p1614
asbag49
(g70
g51
NtRp1615
(dp1616
g54
(dp1617
g81
g82
ssg63
g1606
sg56
(lp1618
S':'
asbag49
(g70
g51
NtRp1619
(dp1620
g54
(dp1621
sg63
g1606
sg56
(lp1622
g49
(g50
g51
NtRp1623
(dp1624
g54
(dp1625
g62
I5
ssg63
g1619
sg56
(lp1626
g49
(g58
g51
NtRp1627
(dp1628
g54
(dp1629
g62
I4
ssg63
Nsg56
(lp1630
g49
(g65
g51
NtRp1631
(dp1632
g54
(dp1633
sg63
g1627
sg56
(lp1634
g49
(g70
g51
NtRp1635
(dp1636
g54
(dp1637
g74
g75
ssg63
g1631
sg56
(lp1638
g600
asbag49
(g70
g51
NtRp1639
(dp1640
g54
(dp1641
g81
g82
ssg63
g1631
sg56
(lp1642
S':'
asbag49
(g70
g51
NtRp1643
(dp1644
g54
(dp1645
sg63
g1631
sg56
(lp1646
g49
(g50
g51
NtRp1647
(dp1648
g54
(dp1649
g62
I4
ssg63
g1643
sg56
(lp1650
S"set(['C:\\\\Users\\\\Bussiere\\\\Dropbox\\\\Projets\\\\jackpoint\\\\web2py\\\\applications\\\\init\\\\', 'C:\\\\Users\\\\Bussiere\\\\Dropbox\\\\Projets\\\\jackpoint\\\\web2py\\\\applications\\\\admin\\\\'])"
p1651
asbasbasbag49
(g65
g51
NtRp1652
(dp1653
g54
(dp1654
sg63
g1627
sg56
(lp1655
g49
(g70
g51
NtRp1656
(dp1657
g54
(dp1658
g74
g75
ssg63
g1652
sg56
(lp1659
g622
asbag49
(g70
g51
NtRp1660
(dp1661
g54
(dp1662
g81
g82
ssg63
g1652
sg56
(lp1663
S':'
asbag49
(g70
g51
NtRp1664
(dp1665
g54
(dp1666
sg63
g1652
sg56
(lp1667
g49
(g50
g51
NtRp1668
(dp1669
g54
(dp1670
g62
I4
ssg63
g1664
sg56
(lp1671
g635
asbasbasbag49
(g65
g51
NtRp1672
(dp1673
g54
(dp1674
sg63
g1627
sg56
(lp1675
g49
(g70
g51
NtRp1676
(dp1677
g54
(dp1678
g74
g75
ssg63
g1672
sg56
(lp1679
g644
asbag49
(g70
g51
NtRp1680
(dp1681
g54
(dp1682
g81
g82
ssg63
g1672
sg56
(lp1683
S':'
asbag49
(g70
g51
NtRp1684
(dp1685
g54
(dp1686
sg63
g1672
sg56
(lp1687
g49
(g50
g51
NtRp1688
(dp1689
g54
(dp1690
g62
I4
ssg63
g1684
sg56
(lp1691
g49
(g58
g51
NtRp1692
(dp1693
g54
(dp1694
g62
I3
ssg63
Nsg56
(lp1695
sbasbasbasbag49
(g65
g51
NtRp1696
(dp1697
g54
(dp1698
sg63
g1627
sg56
(lp1699
g49
(g70
g51
NtRp1700
(dp1701
g54
(dp1702
g74
g75
ssg63
g1696
sg56
(lp1703
g669
asbag49
(g70
g51
NtRp1704
(dp1705
g54
(dp1706
g81
g82
ssg63
g1696
sg56
(lp1707
S':'
asbag49
(g70
g51
NtRp1708
(dp1709
g54
(dp1710
sg63
g1696
sg56
(lp1711
g49
(g50
g51
NtRp1712
(dp1713
g54
(dp1714
g62
I4
ssg63
g1708
sg56
(lp1715
S"<Values at 0x3ca5fa8: {'verbose': False, 'ip': '127.0.0.1', 'shutdown_timeout': 5, 'taskbar': False, 'nocron': False, 'pid_filename': 'httpserver.pid', 'maxthreads': None, 'softcron': False, 'server_name': 'Batou', 'bpython': False, 'nogui': False, 'port': 8000, 'extcron': False, 'debuglevel': 30, 'test': None, 'folder': 'C:\\\\Users\\\\Bussiere\\\\Dropbox\\\\Projets\\\\jackpoint\\\\web2py', 'config': '', 'import_models': False, 'winservice': '', 'shell': None, 'run': '', 'log_filename': 'httpserver.log', 'args': [''], 'socket_timeout': 5, 'ssl_ca_certificate': None, 'scheduler': None, 'profiler_filename': None, 'ssl_private_key': '', 'password': '<ask>', 'request_queue_size': 5, 'ssl_certificate': '', 'cronjob': False, 'numthreads': None, 'quiet': False, 'interfaces': None, 'minthreads': None, 'timeout': 10, 'plain': False, 'nobanner': False}>"
p1716
asbasbasbag49
(g65
g51
NtRp1717
(dp1718
g54
(dp1719
sg63
g1627
sg56
(lp1720
g49
(g70
g51
NtRp1721
(dp1722
g54
(dp1723
g74
g75
ssg63
g1717
sg56
(lp1724
g691
asbag49
(g70
g51
NtRp1725
(dp1726
g54
(dp1727
g81
g82
ssg63
g1717
sg56
(lp1728
S':'
asbag49
(g70
g51
NtRp1729
(dp1730
g54
(dp1731
sg63
g1717
sg56
(lp1732
g49
(g50
g51
NtRp1733
(dp1734
g54
(dp1735
g62
I4
ssg63
g1729
sg56
(lp1736
S"set(['init'])"
p1737
asbasbasbag49
(g65
g51
NtRp1738
(dp1739
g54
(dp1740
sg63
g1627
sg56
(lp1741
g49
(g70
g51
NtRp1742
(dp1743
g54
(dp1744
g74
g75
ssg63
g1738
sg56
(lp1745
g713
asbag49
(g70
g51
NtRp1746
(dp1747
g54
(dp1748
g81
g82
ssg63
g1738
sg56
(lp1749
S':'
asbag49
(g70
g51
NtRp1750
(dp1751
g54
(dp1752
sg63
g1738
sg56
(lp1753
g49
(g50
g51
NtRp1754
(dp1755
g54
(dp1756
g62
I4
ssg63
g1750
sg56
(lp1757
g726
asbasbasbag49
(g65
g51
NtRp1758
(dp1759
g54
(dp1760
sg63
g1627
sg56
(lp1761
g49
(g70
g51
NtRp1762
(dp1763
g54
(dp1764
g74
g75
ssg63
g1758
sg56
(lp1765
g735
asbag49
(g70
g51
NtRp1766
(dp1767
g54
(dp1768
g81
g82
ssg63
g1758
sg56
(lp1769
S':'
asbag49
(g70
g51
NtRp1770
(dp1771
g54
(dp1772
sg63
g1758
sg56
(lp1773
g49
(g50
g51
NtRp1774
(dp1775
g54
(dp1776
g62
I4
ssg63
g1770
sg56
(lp1777
g748
asbasbasbag49
(g65
g51
NtRp1778
(dp1779
g54
(dp1780
sg63
g1627
sg56
(lp1781
g49
(g70
g51
NtRp1782
(dp1783
g54
(dp1784
g74
g75
ssg63
g1778
sg56
(lp1785
g933
asbag49
(g70
g51
NtRp1786
(dp1787
g54
(dp1788
g81
g82
ssg63
g1778
sg56
(lp1789
S':'
asbag49
(g70
g51
NtRp1790
(dp1791
g54
(dp1792
sg63
g1778
sg56
(lp1793
g49
(g50
g51
NtRp1794
(dp1795
g54
(dp1796
g62
I4
ssg63
g1790
sg56
(lp1797
g92
asbasbasbag49
(g65
g51
NtRp1798
(dp1799
g54
(dp1800
sg63
g1627
sg56
(lp1801
g49
(g70
g51
NtRp1802
(dp1803
g54
(dp1804
g74
g75
ssg63
g1798
sg56
(lp1805
g954
asbag49
(g70
g51
NtRp1806
(dp1807
g54
(dp1808
g81
g82
ssg63
g1798
sg56
(lp1809
S':'
asbag49
(g70
g51
NtRp1810
(dp1811
g54
(dp1812
sg63
g1798
sg56
(lp1813
g49
(g50
g51
NtRp1814
(dp1815
g54
(dp1816
g62
I4
ssg63
g1810
sg56
(lp1817
g92
asbasbasbag49
(g65
g51
NtRp1818
(dp1819
g54
(dp1820
sg63
g1627
sg56
(lp1821
g49
(g70
g51
NtRp1822
(dp1823
g54
(dp1824
g74
g75
ssg63
g1818
sg56
(lp1825
g1192
asbag49
(g70
g51
NtRp1826
(dp1827
g54
(dp1828
g81
g82
ssg63
g1818
sg56
(lp1829
S':'
asbag49
(g70
g51
NtRp1830
(dp1831
g54
(dp1832
sg63
g1818
sg56
(lp1833
g49
(g50
g51
NtRp1834
(dp1835
g54
(dp1836
g62
I4
ssg63
g1830
sg56
(lp1837
g1205
asbasbasbag49
(g65
g51
NtRp1838
(dp1839
g54
(dp1840
sg63
g1627
sg56
(lp1841
g49
(g70
g51
NtRp1842
(dp1843
g54
(dp1844
g74
g75
ssg63
g1838
sg56
(lp1845
g1235
asbag49
(g70
g51
NtRp1846
(dp1847
g54
(dp1848
g81
g82
ssg63
g1838
sg56
(lp1849
S':'
asbag49
(g70
g51
NtRp1850
(dp1851
g54
(dp1852
sg63
g1838
sg56
(lp1853
g49
(g50
g51
NtRp1854
(dp1855
g54
(dp1856
g62
I4
ssg63
g1850
sg56
(lp1857
g49
(g58
g51
NtRp1858
(dp1859
g54
(dp1860
g62
I3
ssg63
Nsg56
(lp1861
g49
(g65
g51
NtRp1862
(dp1863
g54
(dp1864
sg63
g1858
sg56
(lp1865
g49
(g70
g51
NtRp1866
(dp1867
g54
(dp1868
sg63
g1862
sg56
(lp1869
g49
(g50
g51
NtRp1870
(dp1871
g54
(dp1872
g62
I3
ssg63
g1866
sg56
(lp1873
S'1'
asbasbasbag49
(g65
g51
NtRp1874
(dp1875
g54
(dp1876
sg63
g1858
sg56
(lp1877
g49
(g70
g51
NtRp1878
(dp1879
g54
(dp1880
sg63
g1874
sg56
(lp1881
g49
(g50
g51
NtRp1882
(dp1883
g54
(dp1884
g62
I3
ssg63
g1878
sg56
(lp1885
S'99'
p1886
asbasbasbag49
(g65
g51
NtRp1887
(dp1888
g54
(dp1889
sg63
g1858
sg56
(lp1890
g49
(g70
g51
NtRp1891
(dp1892
g54
(dp1893
sg63
g1887
sg56
(lp1894
g49
(g50
g51
NtRp1895
(dp1896
g54
(dp1897
g62
I3
ssg63
g1891
sg56
(lp1898
S'7'
asbasbasbag49
(g65
g51
NtRp1899
(dp1900
g54
(dp1901
sg63
g1858
sg56
(lp1902
g49
(g70
g51
NtRp1903
(dp1904
g54
(dp1905
sg63
g1899
sg56
(lp1906
g49
(g50
g51
NtRp1907
(dp1908
g54
(dp1909
g62
I3
ssg63
g1903
sg56
(lp1910
S'datetime.datetime(2012, 3, 4, 22, 12, 8)'
p1911
asbasbasbag49
(g65
g51
NtRp1912
(dp1913
g54
(dp1914
sg63
g1858
sg56
(lp1915
g49
(g70
g51
NtRp1916
(dp1917
g54
(dp1918
sg63
g1912
sg56
(lp1919
g49
(g50
g51
NtRp1920
(dp1921
g54
(dp1922
g62
I3
ssg63
g1916
sg56
(lp1923
g1314
asbasbasbasbasbasbasbasbasbasbasbag49
(g65
g51
NtRp1924
(dp1925
g54
(dp1926
sg63
g59
sg56
(lp1927
g49
(g70
g51
NtRp1928
(dp1929
g54
(dp1930
g74
g75
ssg63
g1924
sg56
(lp1931
S'is_https'
p1932
asbag49
(g70
g51
NtRp1933
(dp1934
g54
(dp1935
g81
g82
ssg63
g1924
sg56
(lp1936
S':'
asbag49
(g70
g51
NtRp1937
(dp1938
g54
(dp1939
sg63
g1924
sg56
(lp1940
g49
(g50
g51
NtRp1941
(dp1942
g54
(dp1943
g62
I5
ssg63
g1937
sg56
(lp1944
g92
asbasbasbag49
(g65
g51
NtRp1945
(dp1946
g54
(dp1947
sg63
g59
sg56
(lp1948
g49
(g70
g51
NtRp1949
(dp1950
g54
(dp1951
g74
g75
ssg63
g1945
sg56
(lp1952
S'is_local'
p1953
asbag49
(g70
g51
NtRp1954
(dp1955
g54
(dp1956
g81
g82
ssg63
g1945
sg56
(lp1957
S':'
asbag49
(g70
g51
NtRp1958
(dp1959
g54
(dp1960
sg63
g1945
sg56
(lp1961
g49
(g50
g51
NtRp1962
(dp1963
g54
(dp1964
g62
I5
ssg63
g1958
sg56
(lp1965
g726
asbasbasbag49
(g65
g51
NtRp1966
(dp1967
g54
(dp1968
sg63
g59
sg56
(lp1969
g49
(g70
g51
NtRp1970
(dp1971
g54
(dp1972
g74
g75
ssg63
g1966
sg56
(lp1973
S'is_restful'
p1974
asbag49
(g70
g51
NtRp1975
(dp1976
g54
(dp1977
g81
g82
ssg63
g1966
sg56
(lp1978
S':'
asbag49
(g70
g51
NtRp1979
(dp1980
g54
(dp1981
sg63
g1966
sg56
(lp1982
g49
(g50
g51
NtRp1983
(dp1984
g54
(dp1985
g62
I5
ssg63
g1979
sg56
(lp1986
g92
asbasbasbag49
(g65
g51
NtRp1987
(dp1988
g54
(dp1989
sg63
g59
sg56
(lp1990
g49
(g70
g51
NtRp1991
(dp1992
g54
(dp1993
g74
g75
ssg63
g1987
sg56
(lp1994
S'now'
p1995
asbag49
(g70
g51
NtRp1996
(dp1997
g54
(dp1998
g81
g82
ssg63
g1987
sg56
(lp1999
S':'
asbag49
(g70
g51
NtRp2000
(dp2001
g54
(dp2002
sg63
g1987
sg56
(lp2003
g49
(g50
g51
NtRp2004
(dp2005
g54
(dp2006
g62
I5
ssg63
g2000
sg56
(lp2007
S'datetime.datetime(2012, 3, 29, 23, 25, 20, 61000)'
p2008
asbasbasbag49
(g65
g51
NtRp2009
(dp2010
g54
(dp2011
sg63
g59
sg56
(lp2012
g49
(g70
g51
NtRp2013
(dp2014
g54
(dp2015
g74
g75
ssg63
g2009
sg56
(lp2016
S'post_vars'
p2017
asbag49
(g70
g51
NtRp2018
(dp2019
g54
(dp2020
g81
g82
ssg63
g2009
sg56
(lp2021
S':'
asbag49
(g70
g51
NtRp2022
(dp2023
g54
(dp2024
sg63
g2009
sg56
(lp2025
g49
(g50
g51
NtRp2026
(dp2027
g54
(dp2028
g62
I5
ssg63
g2022
sg56
(lp2029
g49
(g58
g51
NtRp2030
(dp2031
g54
(dp2032
g62
I4
ssg63
Nsg56
(lp2033
sbasbasbasbag49
(g65
g51
NtRp2034
(dp2035
g54
(dp2036
sg63
g59
sg56
(lp2037
g49
(g70
g51
NtRp2038
(dp2039
g54
(dp2040
g74
g75
ssg63
g2034
sg56
(lp2041
S'url'
p2042
asbag49
(g70
g51
NtRp2043
(dp2044
g54
(dp2045
g81
g82
ssg63
g2034
sg56
(lp2046
S':'
asbag49
(g70
g51
NtRp2047
(dp2048
g54
(dp2049
sg63
g2034
sg56
(lp2050
g49
(g50
g51
NtRp2051
(dp2052
g54
(dp2053
g62
I5
ssg63
g2047
sg56
(lp2054
S'/init/default/initdbjack'
p2055
asbasbasbag49
(g65
g51
NtRp2056
(dp2057
g54
(dp2058
sg63
g59
sg56
(lp2059
g49
(g70
g51
NtRp2060
(dp2061
g54
(dp2062
g74
g75
ssg63
g2056
sg56
(lp2063
S'utcnow'
p2064
asbag49
(g70
g51
NtRp2065
(dp2066
g54
(dp2067
g81
g82
ssg63
g2056
sg56
(lp2068
S':'
asbag49
(g70
g51
NtRp2069
(dp2070
g54
(dp2071
sg63
g2056
sg56
(lp2072
g49
(g50
g51
NtRp2073
(dp2074
g54
(dp2075
g62
I5
ssg63
g2069
sg56
(lp2076
S'datetime.datetime(2012, 3, 29, 21, 25, 20, 61000)'
p2077
asbasbasbag49
(g65
g51
NtRp2078
(dp2079
g54
(dp2080
sg63
g59
sg56
(lp2081
g49
(g70
g51
NtRp2082
(dp2083
g54
(dp2084
g74
g75
ssg63
g2078
sg56
(lp2085
S'uuid'
p2086
asbag49
(g70
g51
NtRp2087
(dp2088
g54
(dp2089
g81
g82
ssg63
g2078
sg56
(lp2090
S':'
asbag49
(g70
g51
NtRp2091
(dp2092
g54
(dp2093
sg63
g2078
sg56
(lp2094
g49
(g50
g51
NtRp2095
(dp2096
g54
(dp2097
g62
I5
ssg63
g2091
sg56
(lp2098
S'init/127.0.0.1.2012-03-29.23-25-20.07a9f3ad-5463-4001-9258-222648487603'
p2099
asbasbasbag49
(g65
g51
NtRp2100
(dp2101
g54
(dp2102
sg63
g59
sg56
(lp2103
g49
(g70
g51
NtRp2104
(dp2105
g54
(dp2106
g74
g75
ssg63
g2100
sg56
(lp2107
S'vars'
p2108
asbag49
(g70
g51
NtRp2109
(dp2110
g54
(dp2111
g81
g82
ssg63
g2100
sg56
(lp2112
S':'
asbag49
(g70
g51
NtRp2113
(dp2114
g54
(dp2115
sg63
g2100
sg56
(lp2116
g49
(g50
g51
NtRp2117
(dp2118
g54
(dp2119
g62
I5
ssg63
g2113
sg56
(lp2120
g49
(g58
g51
NtRp2121
(dp2122
g54
(dp2123
g62
I4
ssg63
Nsg56
(lp2124
sbasbasbasbag49
(g65
g51
NtRp2125
(dp2126
g54
(dp2127
sg63
g59
sg56
(lp2128
g49
(g70
g51
NtRp2129
(dp2130
g54
(dp2131
g74
g75
ssg63
g2125
sg56
(lp2132
S'wsgi'
p2133
asbag49
(g70
g51
NtRp2134
(dp2135
g54
(dp2136
g81
g82
ssg63
g2125
sg56
(lp2137
S':'
asbag49
(g70
g51
NtRp2138
(dp2139
g54
(dp2140
sg63
g2125
sg56
(lp2141
g49
(g50
g51
NtRp2142
(dp2143
g54
(dp2144
g62
I5
ssg63
g2138
sg56
(lp2145
g49
(g58
g51
NtRp2146
(dp2147
g54
(dp2148
g62
I4
ssg63
Nsg56
(lp2149
g49
(g65
g51
NtRp2150
(dp2151
g54
(dp2152
sg63
g2146
sg56
(lp2153
g49
(g70
g51
NtRp2154
(dp2155
g54
(dp2156
g74
g75
ssg63
g2150
sg56
(lp2157
S'environ'
p2158
asbag49
(g70
g51
NtRp2159
(dp2160
g54
(dp2161
g81
g82
ssg63
g2150
sg56
(lp2162
S':'
asbag49
(g70
g51
NtRp2163
(dp2164
g54
(dp2165
sg63
g2150
sg56
(lp2166
g49
(g50
g51
NtRp2167
(dp2168
g54
(dp2169
g62
I4
ssg63
g2163
sg56
(lp2170
g49
(g58
g51
NtRp2171
(dp2172
g54
(dp2173
g62
I3
ssg63
Nsg56
(lp2174
g49
(g65
g51
NtRp2175
(dp2176
g54
(dp2177
sg63
g2171
sg56
(lp2178
g49
(g70
g51
NtRp2179
(dp2180
g54
(dp2181
g74
g75
ssg63
g2175
sg56
(lp2182
S'HTTP_ACCEPT'
p2183
asbag49
(g70
g51
NtRp2184
(dp2185
g54
(dp2186
g81
g82
ssg63
g2175
sg56
(lp2187
S':'
asbag49
(g70
g51
NtRp2188
(dp2189
g54
(dp2190
sg63
g2175
sg56
(lp2191
g49
(g50
g51
NtRp2192
(dp2193
g54
(dp2194
g62
I3
ssg63
g2188
sg56
(lp2195
g770
asbasbasbag49
(g65
g51
NtRp2196
(dp2197
g54
(dp2198
sg63
g2171
sg56
(lp2199
g49
(g70
g51
NtRp2200
(dp2201
g54
(dp2202
g74
g75
ssg63
g2196
sg56
(lp2203
S'HTTP_ACCEPT_CHARSET'
p2204
asbag49
(g70
g51
NtRp2205
(dp2206
g54
(dp2207
g81
g82
ssg63
g2196
sg56
(lp2208
S':'
asbag49
(g70
g51
NtRp2209
(dp2210
g54
(dp2211
sg63
g2196
sg56
(lp2212
g49
(g50
g51
NtRp2213
(dp2214
g54
(dp2215
g62
I3
ssg63
g2209
sg56
(lp2216
g792
asbasbasbag49
(g65
g51
NtRp2217
(dp2218
g54
(dp2219
sg63
g2171
sg56
(lp2220
g49
(g70
g51
NtRp2221
(dp2222
g54
(dp2223
g74
g75
ssg63
g2217
sg56
(lp2224
S'HTTP_ACCEPT_ENCODING'
p2225
asbag49
(g70
g51
NtRp2226
(dp2227
g54
(dp2228
g81
g82
ssg63
g2217
sg56
(lp2229
S':'
asbag49
(g70
g51
NtRp2230
(dp2231
g54
(dp2232
sg63
g2217
sg56
(lp2233
g49
(g50
g51
NtRp2234
(dp2235
g54
(dp2236
g62
I3
ssg63
g2230
sg56
(lp2237
g814
asbasbasbag49
(g65
g51
NtRp2238
(dp2239
g54
(dp2240
sg63
g2171
sg56
(lp2241
g49
(g70
g51
NtRp2242
(dp2243
g54
(dp2244
g74
g75
ssg63
g2238
sg56
(lp2245
S'HTTP_ACCEPT_LANGUAGE'
p2246
asbag49
(g70
g51
NtRp2247
(dp2248
g54
(dp2249
g81
g82
ssg63
g2238
sg56
(lp2250
S':'
asbag49
(g70
g51
NtRp2251
(dp2252
g54
(dp2253
sg63
g2238
sg56
(lp2254
g49
(g50
g51
NtRp2255
(dp2256
g54
(dp2257
g62
I3
ssg63
g2251
sg56
(lp2258
g836
asbasbasbag49
(g65
g51
NtRp2259
(dp2260
g54
(dp2261
sg63
g2171
sg56
(lp2262
g49
(g70
g51
NtRp2263
(dp2264
g54
(dp2265
g74
g75
ssg63
g2259
sg56
(lp2266
S'HTTP_CONNECTION'
p2267
asbag49
(g70
g51
NtRp2268
(dp2269
g54
(dp2270
g81
g82
ssg63
g2259
sg56
(lp2271
S':'
asbag49
(g70
g51
NtRp2272
(dp2273
g54
(dp2274
sg63
g2259
sg56
(lp2275
g49
(g50
g51
NtRp2276
(dp2277
g54
(dp2278
g62
I3
ssg63
g2272
sg56
(lp2279
g858
asbasbasbag49
(g65
g51
NtRp2280
(dp2281
g54
(dp2282
sg63
g2171
sg56
(lp2283
g49
(g70
g51
NtRp2284
(dp2285
g54
(dp2286
g74
g75
ssg63
g2280
sg56
(lp2287
S'HTTP_COOKIE'
p2288
asbag49
(g70
g51
NtRp2289
(dp2290
g54
(dp2291
g81
g82
ssg63
g2280
sg56
(lp2292
S':'
asbag49
(g70
g51
NtRp2293
(dp2294
g54
(dp2295
sg63
g2280
sg56
(lp2296
g49
(g50
g51
NtRp2297
(dp2298
g54
(dp2299
g62
I3
ssg63
g2293
sg56
(lp2300
g880
asbasbasbag49
(g65
g51
NtRp2301
(dp2302
g54
(dp2303
sg63
g2171
sg56
(lp2304
g49
(g70
g51
NtRp2305
(dp2306
g54
(dp2307
g74
g75
ssg63
g2301
sg56
(lp2308
S'HTTP_HOST'
p2309
asbag49
(g70
g51
NtRp2310
(dp2311
g54
(dp2312
g81
g82
ssg63
g2301
sg56
(lp2313
S':'
asbag49
(g70
g51
NtRp2314
(dp2315
g54
(dp2316
sg63
g2301
sg56
(lp2317
g49
(g50
g51
NtRp2318
(dp2319
g54
(dp2320
g62
I3
ssg63
g2314
sg56
(lp2321
g902
asbasbasbag49
(g65
g51
NtRp2322
(dp2323
g54
(dp2324
sg63
g2171
sg56
(lp2325
g49
(g70
g51
NtRp2326
(dp2327
g54
(dp2328
g74
g75
ssg63
g2322
sg56
(lp2329
S'HTTP_USER_AGENT'
p2330
asbag49
(g70
g51
NtRp2331
(dp2332
g54
(dp2333
g81
g82
ssg63
g2322
sg56
(lp2334
S':'
asbag49
(g70
g51
NtRp2335
(dp2336
g54
(dp2337
sg63
g2322
sg56
(lp2338
g49
(g50
g51
NtRp2339
(dp2340
g54
(dp2341
g62
I3
ssg63
g2335
sg56
(lp2342
g924
asbasbasbag49
(g65
g51
NtRp2343
(dp2344
g54
(dp2345
sg63
g2171
sg56
(lp2346
g49
(g70
g51
NtRp2347
(dp2348
g54
(dp2349
g74
g75
ssg63
g2343
sg56
(lp2350
S'PATH_INFO'
p2351
asbag49
(g70
g51
NtRp2352
(dp2353
g54
(dp2354
g81
g82
ssg63
g2343
sg56
(lp2355
S':'
asbag49
(g70
g51
NtRp2356
(dp2357
g54
(dp2358
sg63
g2343
sg56
(lp2359
g49
(g50
g51
NtRp2360
(dp2361
g54
(dp2362
g62
I3
ssg63
g2356
sg56
(lp2363
g988
asbasbasbag49
(g65
g51
NtRp2364
(dp2365
g54
(dp2366
sg63
g2171
sg56
(lp2367
g49
(g70
g51
NtRp2368
(dp2369
g54
(dp2370
g74
g75
ssg63
g2364
sg56
(lp2371
S'QUERY_STRING'
p2372
asbag49
(g70
g51
NtRp2373
(dp2374
g54
(dp2375
g81
g82
ssg63
g2364
sg56
(lp2376
S':'
asbag49
(g70
g51
NtRp2377
(dp2378
g54
(dp2379
sg63
g2364
sg56
(lp2380
g49
(g50
g51
NtRp2381
(dp2382
g54
(dp2383
g62
I3
ssg63
g2377
sg56
(lp2384
S''
asbasbasbag49
(g65
g51
NtRp2385
(dp2386
g54
(dp2387
sg63
g2171
sg56
(lp2388
g49
(g70
g51
NtRp2389
(dp2390
g54
(dp2391
g74
g75
ssg63
g2385
sg56
(lp2392
S'REMOTE_ADDR'
p2393
asbag49
(g70
g51
NtRp2394
(dp2395
g54
(dp2396
g81
g82
ssg63
g2385
sg56
(lp2397
S':'
asbag49
(g70
g51
NtRp2398
(dp2399
g54
(dp2400
sg63
g2385
sg56
(lp2401
g49
(g50
g51
NtRp2402
(dp2403
g54
(dp2404
g62
I3
ssg63
g2398
sg56
(lp2405
g182
asbasbasbag49
(g65
g51
NtRp2406
(dp2407
g54
(dp2408
sg63
g2171
sg56
(lp2409
g49
(g70
g51
NtRp2410
(dp2411
g54
(dp2412
g74
g75
ssg63
g2406
sg56
(lp2413
S'REMOTE_PORT'
p2414
asbag49
(g70
g51
NtRp2415
(dp2416
g54
(dp2417
g81
g82
ssg63
g2406
sg56
(lp2418
S':'
asbag49
(g70
g51
NtRp2419
(dp2420
g54
(dp2421
sg63
g2406
sg56
(lp2422
g49
(g50
g51
NtRp2423
(dp2424
g54
(dp2425
g62
I3
ssg63
g2419
sg56
(lp2426
g1052
asbasbasbag49
(g65
g51
NtRp2427
(dp2428
g54
(dp2429
sg63
g2171
sg56
(lp2430
g49
(g70
g51
NtRp2431
(dp2432
g54
(dp2433
g74
g75
ssg63
g2427
sg56
(lp2434
S'REQUEST_METHOD'
p2435
asbag49
(g70
g51
NtRp2436
(dp2437
g54
(dp2438
g81
g82
ssg63
g2427
sg56
(lp2439
S':'
asbag49
(g70
g51
NtRp2440
(dp2441
g54
(dp2442
sg63
g2427
sg56
(lp2443
g49
(g50
g51
NtRp2444
(dp2445
g54
(dp2446
g62
I3
ssg63
g2440
sg56
(lp2447
g1074
asbasbasbag49
(g65
g51
NtRp2448
(dp2449
g54
(dp2450
sg63
g2171
sg56
(lp2451
g49
(g70
g51
NtRp2452
(dp2453
g54
(dp2454
g74
g75
ssg63
g2448
sg56
(lp2455
S'SCRIPT_NAME'
p2456
asbag49
(g70
g51
NtRp2457
(dp2458
g54
(dp2459
g81
g82
ssg63
g2448
sg56
(lp2460
S':'
asbag49
(g70
g51
NtRp2461
(dp2462
g54
(dp2463
sg63
g2448
sg56
(lp2464
g49
(g50
g51
NtRp2465
(dp2466
g54
(dp2467
g62
I3
ssg63
g2461
sg56
(lp2468
S''
asbasbasbag49
(g65
g51
NtRp2469
(dp2470
g54
(dp2471
sg63
g2171
sg56
(lp2472
g49
(g70
g51
NtRp2473
(dp2474
g54
(dp2475
g74
g75
ssg63
g2469
sg56
(lp2476
S'SERVER_NAME'
p2477
asbag49
(g70
g51
NtRp2478
(dp2479
g54
(dp2480
g81
g82
ssg63
g2469
sg56
(lp2481
S':'
asbag49
(g70
g51
NtRp2482
(dp2483
g54
(dp2484
sg63
g2469
sg56
(lp2485
g49
(g50
g51
NtRp2486
(dp2487
g54
(dp2488
g62
I3
ssg63
g2482
sg56
(lp2489
g1117
asbasbasbag49
(g65
g51
NtRp2490
(dp2491
g54
(dp2492
sg63
g2171
sg56
(lp2493
g49
(g70
g51
NtRp2494
(dp2495
g54
(dp2496
g74
g75
ssg63
g2490
sg56
(lp2497
S'SERVER_PORT'
p2498
asbag49
(g70
g51
NtRp2499
(dp2500
g54
(dp2501
g81
g82
ssg63
g2490
sg56
(lp2502
S':'
asbag49
(g70
g51
NtRp2503
(dp2504
g54
(dp2505
sg63
g2490
sg56
(lp2506
g49
(g50
g51
NtRp2507
(dp2508
g54
(dp2509
g62
I3
ssg63
g2503
sg56
(lp2510
g1139
asbasbasbag49
(g65
g51
NtRp2511
(dp2512
g54
(dp2513
sg63
g2171
sg56
(lp2514
g49
(g70
g51
NtRp2515
(dp2516
g54
(dp2517
g74
g75
ssg63
g2511
sg56
(lp2518
S'SERVER_PROTOCOL'
p2519
asbag49
(g70
g51
NtRp2520
(dp2521
g54
(dp2522
g81
g82
ssg63
g2511
sg56
(lp2523
S':'
asbag49
(g70
g51
NtRp2524
(dp2525
g54
(dp2526
sg63
g2511
sg56
(lp2527
g49
(g50
g51
NtRp2528
(dp2529
g54
(dp2530
g62
I3
ssg63
g2524
sg56
(lp2531
g1161
asbasbasbag49
(g65
g51
NtRp2532
(dp2533
g54
(dp2534
sg63
g2171
sg56
(lp2535
g49
(g70
g51
NtRp2536
(dp2537
g54
(dp2538
g74
g75
ssg63
g2532
sg56
(lp2539
S'SERVER_SOFTWARE'
p2540
asbag49
(g70
g51
NtRp2541
(dp2542
g54
(dp2543
g81
g82
ssg63
g2532
sg56
(lp2544
S':'
asbag49
(g70
g51
NtRp2545
(dp2546
g54
(dp2547
sg63
g2532
sg56
(lp2548
g49
(g50
g51
NtRp2549
(dp2550
g54
(dp2551
g62
I3
ssg63
g2545
sg56
(lp2552
g1183
asbasbasbag49
(g65
g51
NtRp2553
(dp2554
g54
(dp2555
sg63
g2171
sg56
(lp2556
g49
(g70
g51
NtRp2557
(dp2558
g54
(dp2559
g74
g75
ssg63
g2553
sg56
(lp2560
S'wsgi.errors'
p2561
asbag49
(g70
g51
NtRp2562
(dp2563
g54
(dp2564
g81
g82
ssg63
g2553
sg56
(lp2565
S':'
asbag49
(g70
g51
NtRp2566
(dp2567
g54
(dp2568
sg63
g2553
sg56
(lp2569
g49
(g50
g51
NtRp2570
(dp2571
g54
(dp2572
g62
I3
ssg63
g2566
sg56
(lp2573
S"<open file '<stderr>', mode 'w' at 0x004300B0>"
p2574
asbasbasbag49
(g65
g51
NtRp2575
(dp2576
g54
(dp2577
sg63
g2171
sg56
(lp2578
g49
(g70
g51
NtRp2579
(dp2580
g54
(dp2581
g74
g75
ssg63
g2575
sg56
(lp2582
S'wsgi.file_wrapper'
p2583
asbag49
(g70
g51
NtRp2584
(dp2585
g54
(dp2586
g81
g82
ssg63
g2575
sg56
(lp2587
S':'
asbag49
(g70
g51
NtRp2588
(dp2589
g54
(dp2590
sg63
g2575
sg56
(lp2591
g49
(g50
g51
NtRp2592
(dp2593
g54
(dp2594
g62
I3
ssg63
g2588
sg56
(lp2595
S'<class wsgiref.util.FileWrapper at 0x02C44900>'
p2596
asbasbasbag49
(g65
g51
NtRp2597
(dp2598
g54
(dp2599
sg63
g2171
sg56
(lp2600
g49
(g70
g51
NtRp2601
(dp2602
g54
(dp2603
g74
g75
ssg63
g2597
sg56
(lp2604
S'wsgi.input'
p2605
asbag49
(g70
g51
NtRp2606
(dp2607
g54
(dp2608
g81
g82
ssg63
g2597
sg56
(lp2609
S':'
asbag49
(g70
g51
NtRp2610
(dp2611
g54
(dp2612
sg63
g2597
sg56
(lp2613
g49
(g50
g51
NtRp2614
(dp2615
g54
(dp2616
g62
I3
ssg63
g2610
sg56
(lp2617
S'<cStringIO.StringO object at 0x0828CD20>'
p2618
asbasbasbag49
(g65
g51
NtRp2619
(dp2620
g54
(dp2621
sg63
g2171
sg56
(lp2622
g49
(g70
g51
NtRp2623
(dp2624
g54
(dp2625
g74
g75
ssg63
g2619
sg56
(lp2626
S'wsgi.multiprocess'
p2627
asbag49
(g70
g51
NtRp2628
(dp2629
g54
(dp2630
g81
g82
ssg63
g2619
sg56
(lp2631
S':'
asbag49
(g70
g51
NtRp2632
(dp2633
g54
(dp2634
sg63
g2619
sg56
(lp2635
g49
(g50
g51
NtRp2636
(dp2637
g54
(dp2638
g62
I3
ssg63
g2632
sg56
(lp2639
g92
asbasbasbag49
(g65
g51
NtRp2640
(dp2641
g54
(dp2642
sg63
g2171
sg56
(lp2643
g49
(g70
g51
NtRp2644
(dp2645
g54
(dp2646
g74
g75
ssg63
g2640
sg56
(lp2647
S'wsgi.multithread'
p2648
asbag49
(g70
g51
NtRp2649
(dp2650
g54
(dp2651
g81
g82
ssg63
g2640
sg56
(lp2652
S':'
asbag49
(g70
g51
NtRp2653
(dp2654
g54
(dp2655
sg63
g2640
sg56
(lp2656
g49
(g50
g51
NtRp2657
(dp2658
g54
(dp2659
g62
I3
ssg63
g2653
sg56
(lp2660
g726
asbasbasbag49
(g65
g51
NtRp2661
(dp2662
g54
(dp2663
sg63
g2171
sg56
(lp2664
g49
(g70
g51
NtRp2665
(dp2666
g54
(dp2667
g74
g75
ssg63
g2661
sg56
(lp2668
S'wsgi.run_once'
p2669
asbag49
(g70
g51
NtRp2670
(dp2671
g54
(dp2672
g81
g82
ssg63
g2661
sg56
(lp2673
S':'
asbag49
(g70
g51
NtRp2674
(dp2675
g54
(dp2676
sg63
g2661
sg56
(lp2677
g49
(g50
g51
NtRp2678
(dp2679
g54
(dp2680
g62
I3
ssg63
g2674
sg56
(lp2681
g92
asbasbasbag49
(g65
g51
NtRp2682
(dp2683
g54
(dp2684
sg63
g2171
sg56
(lp2685
g49
(g70
g51
NtRp2686
(dp2687
g54
(dp2688
g74
g75
ssg63
g2682
sg56
(lp2689
S'wsgi.url_scheme'
p2690
asbag49
(g70
g51
NtRp2691
(dp2692
g54
(dp2693
g81
g82
ssg63
g2682
sg56
(lp2694
S':'
asbag49
(g70
g51
NtRp2695
(dp2696
g54
(dp2697
sg63
g2682
sg56
(lp2698
g49
(g50
g51
NtRp2699
(dp2700
g54
(dp2701
g62
I3
ssg63
g2695
sg56
(lp2702
g1465
asbasbasbag49
(g65
g51
NtRp2703
(dp2704
g54
(dp2705
sg63
g2171
sg56
(lp2706
g49
(g70
g51
NtRp2707
(dp2708
g54
(dp2709
g74
g75
ssg63
g2703
sg56
(lp2710
S'wsgi.version'
p2711
asbag49
(g70
g51
NtRp2712
(dp2713
g54
(dp2714
g81
g82
ssg63
g2703
sg56
(lp2715
S':'
asbag49
(g70
g51
NtRp2716
(dp2717
g54
(dp2718
sg63
g2703
sg56
(lp2719
g49
(g50
g51
NtRp2720
(dp2721
g54
(dp2722
g62
I3
ssg63
g2716
sg56
(lp2723
S'1'
asbasbasbasbasbasbasbasbasbasbasbasbasbsS'frames'
p2724
(lp2725
(dp2726
S'file'
p2727
S'C:\\Users\\Bussiere\\Dropbox\\Projets\\jackpoint\\web2py\\gluon\\restricted.py'
p2728
sS'dump'
p2729
(dp2730
sS'lnum'
p2731
I205
sS'lines'
p2732
(dp2733
I200
S'    try:'
p2734
sI201
S'        if type(code) == types.CodeType:'
p2735
sI202
S'            ccode = code'
p2736
sI203
S'        else:'
p2737
sI204
S'            ccode = compile2(code,layer)'
p2738
sI205
S'        exec ccode in environment'
p2739
sI206
S'    except HTTP:'
p2740
sI207
S'        raise'
p2741
sI208
S'    except RestrictedError:'
p2742
sI209
S'        # do not encapsulate (obfuscate) the original RestrictedError'
p2743
ssS'call'
p2744
S"(code='\\xef\\xbb\\xbf# -*- coding: utf-8 -*-\\n# this file is releas...())\\n\\nresponse._vars=response._caller(initdbjack)\\n', environment={'A': <class 'gluon.html.A'>, 'Auth': <class 'gluon.tools.Auth'>, 'AutocompleteWidget': <class 'gluon.sqlhtml.AutocompleteWidget'>, 'B': <class 'gluon.html.B'>, 'BEAUTIFY': <class 'gluon.html.BEAUTIFY'>, 'BODY': <class 'gluon.html.BODY'>, 'BR': <class 'gluon.html.BR'>, 'BUTTON': <class 'gluon.html.BUTTON'>, 'BooleanWidget': <class 'gluon.sqlhtml.BooleanWidget'>, 'CALLABLETYPES': (<type 'function'>, <type 'function'>, <type 'builtin_function_or_method'>, <type 'instancemethod'>, <type 'builtin_function_or_method'>), ...}, layer=r'C:\\Users\\Bussiere\\Dropbox\\Projets\\jackpoint\\web2py\\applications\\init\\controllers/default.py')"
p2745
sS'func'
p2746
S'restricted'
p2747
sa(dp2748
g2727
S'C:\\Users\\Bussiere\\Dropbox\\Projets\\jackpoint\\web2py\\applications\\init\\controllers\\default.py'
p2749
sg2729
(dp2750
sg2731
I617
sg2732
(dp2751
I608
S'    http://..../[app]/default/data/select/[table]'
p2752
sI609
S'    http://..../[app]/default/data/search/[table]'
p2753
sI610
S'    but URLs must be signed, i.e. linked with'
p2754
sI611
S"      A('table',_href=URL('data/tables',user_signature=True))"
p2755
sI612
S'    or with the signed load operator'
p2756
sI613
S"      LOAD('default','data.load',args='tables',ajax=True,user_signature=True)"
p2757
sI614
S'    """'
p2758
sI615
S'    return dict(form=crud())'
p2759
sI606
S'    http://..../[app]/default/data/update/[table]/[id]'
p2760
sI607
S'    http://..../[app]/default/data/delete/[table]/[id]'
p2761
ssg2744
S'()'
p2762
sg2746
S'<module>'
p2763
sa(dp2764
g2727
S'C:\\Users\\Bussiere\\Dropbox\\Projets\\jackpoint\\web2py\\gluon\\globals.py'
p2765
sg2729
(dp2766
sg2731
I173
sg2732
(dp2767
I168
S'        self.menu = []             # used by the default view layout'
p2768
sI169
S'        self.files = []            # used by web2py_ajax.html'
p2769
sI170
S'        self.generic_patterns = [] # patterns to allow generic views'
p2770
sI171
S"        self.delimiters = ('{{','}}')"
p2771
sI172
S'        self._vars = None'
p2772
sI173
S'        self._caller = lambda f: f()'
p2773
sI174
S'        self._view_environment = None'
p2774
sI175
S'        self._custom_commit = None'
p2775
sI176
S'        self._custom_rollback = None'
p2776
sI177
S''
ssg2744
S'(f=<function initdbjack at 0x0413B2B0>)'
p2777
sg2746
S'<lambda>'
p2778
sa(dp2779
g2727
S'C:\\Users\\Bussiere\\Dropbox\\Projets\\jackpoint\\web2py\\applications\\init\\controllers\\default.py'
p2780
sg2729
(dp2781
sg2731
I503
sg2732
(dp2782
I498
S'    }'
p2783
sI499
S''
sI500
S''
sI501
S'    for row in Item.keys() :'
p2784
sI502
S'        if db(db.Item.Nom == Item[row]).count() == 0:'
p2785
sI503
S'            db.Item.insert(Nom=row,Skill=db(db.Skill.Nom==Item[row]).id)'
p2786
sI504
S'    db.commit()'
p2787
sI505
S''
sI506
S''
sI507
S''
ssg2744
S'()'
p2788
sg2746
S'initdbjack'
p2789
sasS'pyver'
p2790
S'Python 2.5.4: C:\\Users\\Bussiere\\Dropbox\\Projets\\jackpoint\\web2py\\web2py.exe'
p2791
sS'session'
p2792
g49
(g50
g51
NtRp2793
(dp2794
g54
(dp2795
sg56
(lp2796
g49
(g58
g51
NtRp2797
(dp2798
g54
(dp2799
g62
I5
ssg63
Nsg56
(lp2800
sbasbsS'etype'
p2801
S"<type 'exceptions.AttributeError'>"
p2802
sS'date'
p2803
S'Thu Mar 29 23:25:20 2012'
p2804
sS'response'
p2805
g49
(g50
g51
NtRp2806
(dp2807
g54
(dp2808
sg56
(lp2809
g49
(g58
g51
NtRp2810
(dp2811
g54
(dp2812
g62
I5
ssg63
Nsg56
(lp2813
g49
(g65
g51
NtRp2814
(dp2815
g54
(dp2816
sg63
g2810
sg56
(lp2817
g49
(g70
g51
NtRp2818
(dp2819
g54
(dp2820
g74
g75
ssg63
g2814
sg56
(lp2821
g147
asbag49
(g70
g51
NtRp2822
(dp2823
g54
(dp2824
g81
g82
ssg63
g2814
sg56
(lp2825
S':'
asbag49
(g70
g51
NtRp2826
(dp2827
g54
(dp2828
sg63
g2814
sg56
(lp2829
g49
(g50
g51
NtRp2830
(dp2831
g54
(dp2832
g62
I5
ssg63
g2826
sg56
(lp2833
S'<cStringIO.StringO object at 0x0828C940>'
p2834
asbasbasbag49
(g65
g51
NtRp2835
(dp2836
g54
(dp2837
sg63
g2810
sg56
(lp2838
g49
(g70
g51
NtRp2839
(dp2840
g54
(dp2841
g74
g75
ssg63
g2835
sg56
(lp2842
g213
asbag49
(g70
g51
NtRp2843
(dp2844
g54
(dp2845
g81
g82
ssg63
g2835
sg56
(lp2846
S':'
asbag49
(g70
g51
NtRp2847
(dp2848
g54
(dp2849
sg63
g2835
sg56
(lp2850
g49
(g50
g51
NtRp2851
(dp2852
g54
(dp2853
g62
I5
ssg63
g2847
sg56
(lp2854
g49
(g58
g51
NtRp2855
(dp2856
g54
(dp2857
g62
I4
ssg63
Nsg56
(lp2858
g49
(g65
g51
NtRp2859
(dp2860
g54
(dp2861
sg63
g2855
sg56
(lp2862
g49
(g70
g51
NtRp2863
(dp2864
g54
(dp2865
g74
g75
ssg63
g2859
sg56
(lp2866
S'session_id_init'
p2867
asbag49
(g70
g51
NtRp2868
(dp2869
g54
(dp2870
g81
g82
ssg63
g2859
sg56
(lp2871
S':'
asbag49
(g70
g51
NtRp2872
(dp2873
g54
(dp2874
sg63
g2859
sg56
(lp2875
g49
(g50
g51
NtRp2876
(dp2877
g54
(dp2878
g62
I4
ssg63
g2872
sg56
(lp2879
g49
(g58
g51
NtRp2880
(dp2881
g54
(dp2882
g62
I3
ssg63
Nsg56
(lp2883
g49
(g65
g51
NtRp2884
(dp2885
g54
(dp2886
sg63
g2880
sg56
(lp2887
g49
(g70
g51
NtRp2888
(dp2889
g54
(dp2890
g74
g75
ssg63
g2884
sg56
(lp2891
g263
asbag49
(g70
g51
NtRp2892
(dp2893
g54
(dp2894
g81
g82
ssg63
g2884
sg56
(lp2895
S':'
asbag49
(g70
g51
NtRp2896
(dp2897
g54
(dp2898
sg63
g2884
sg56
(lp2899
g49
(g50
g51
NtRp2900
(dp2901
g54
(dp2902
g62
I3
ssg63
g2896
sg56
(lp2903
S''
asbasbasbag49
(g65
g51
NtRp2904
(dp2905
g54
(dp2906
sg63
g2880
sg56
(lp2907
g49
(g70
g51
NtRp2908
(dp2909
g54
(dp2910
g74
g75
ssg63
g2904
sg56
(lp2911
g284
asbag49
(g70
g51
NtRp2912
(dp2913
g54
(dp2914
g81
g82
ssg63
g2904
sg56
(lp2915
S':'
asbag49
(g70
g51
NtRp2916
(dp2917
g54
(dp2918
sg63
g2904
sg56
(lp2919
g49
(g50
g51
NtRp2920
(dp2921
g54
(dp2922
g62
I3
ssg63
g2916
sg56
(lp2923
S''
asbasbasbag49
(g65
g51
NtRp2924
(dp2925
g54
(dp2926
sg63
g2880
sg56
(lp2927
g49
(g70
g51
NtRp2928
(dp2929
g54
(dp2930
g74
g75
ssg63
g2924
sg56
(lp2931
g305
asbag49
(g70
g51
NtRp2932
(dp2933
g54
(dp2934
g81
g82
ssg63
g2924
sg56
(lp2935
S':'
asbag49
(g70
g51
NtRp2936
(dp2937
g54
(dp2938
sg63
g2924
sg56
(lp2939
g49
(g50
g51
NtRp2940
(dp2941
g54
(dp2942
g62
I3
ssg63
g2936
sg56
(lp2943
S''
asbasbasbag49
(g65
g51
NtRp2944
(dp2945
g54
(dp2946
sg63
g2880
sg56
(lp2947
g49
(g70
g51
NtRp2948
(dp2949
g54
(dp2950
g74
g75
ssg63
g2944
sg56
(lp2951
g326
asbag49
(g70
g51
NtRp2952
(dp2953
g54
(dp2954
g81
g82
ssg63
g2944
sg56
(lp2955
S':'
asbag49
(g70
g51
NtRp2956
(dp2957
g54
(dp2958
sg63
g2944
sg56
(lp2959
g49
(g50
g51
NtRp2960
(dp2961
g54
(dp2962
g62
I3
ssg63
g2956
sg56
(lp2963
S''
asbasbasbag49
(g65
g51
NtRp2964
(dp2965
g54
(dp2966
sg63
g2880
sg56
(lp2967
g49
(g70
g51
NtRp2968
(dp2969
g54
(dp2970
g74
g75
ssg63
g2964
sg56
(lp2971
g347
asbag49
(g70
g51
NtRp2972
(dp2973
g54
(dp2974
g81
g82
ssg63
g2964
sg56
(lp2975
S':'
asbag49
(g70
g51
NtRp2976
(dp2977
g54
(dp2978
sg63
g2964
sg56
(lp2979
g49
(g50
g51
NtRp2980
(dp2981
g54
(dp2982
g62
I3
ssg63
g2976
sg56
(lp2983
S'/'
asbasbasbag49
(g65
g51
NtRp2984
(dp2985
g54
(dp2986
sg63
g2880
sg56
(lp2987
g49
(g70
g51
NtRp2988
(dp2989
g54
(dp2990
g74
g75
ssg63
g2984
sg56
(lp2991
g368
asbag49
(g70
g51
NtRp2992
(dp2993
g54
(dp2994
g81
g82
ssg63
g2984
sg56
(lp2995
S':'
asbag49
(g70
g51
NtRp2996
(dp2997
g54
(dp2998
sg63
g2984
sg56
(lp2999
g49
(g50
g51
NtRp3000
(dp3001
g54
(dp3002
g62
I3
ssg63
g2996
sg56
(lp3003
S''
asbasbasbag49
(g65
g51
NtRp3004
(dp3005
g54
(dp3006
sg63
g2880
sg56
(lp3007
g49
(g70
g51
NtRp3008
(dp3009
g54
(dp3010
g74
g75
ssg63
g3004
sg56
(lp3011
g389
asbag49
(g70
g51
NtRp3012
(dp3013
g54
(dp3014
g81
g82
ssg63
g3004
sg56
(lp3015
S':'
asbag49
(g70
g51
NtRp3016
(dp3017
g54
(dp3018
sg63
g3004
sg56
(lp3019
g49
(g50
g51
NtRp3020
(dp3021
g54
(dp3022
g62
I3
ssg63
g3016
sg56
(lp3023
S''
asbasbasbasbasbasbasbasbasbasbasbag49
(g65
g51
NtRp3024
(dp3025
g54
(dp3026
sg63
g2810
sg56
(lp3027
g49
(g70
g51
NtRp3028
(dp3029
g54
(dp3030
g74
g75
ssg63
g3024
sg56
(lp3031
S'delimiters'
p3032
asbag49
(g70
g51
NtRp3033
(dp3034
g54
(dp3035
g81
g82
ssg63
g3024
sg56
(lp3036
S':'
asbag49
(g70
g51
NtRp3037
(dp3038
g54
(dp3039
sg63
g3024
sg56
(lp3040
g49
(g50
g51
NtRp3041
(dp3042
g54
(dp3043
g62
I5
ssg63
g3037
sg56
(lp3044
g49
(g58
g51
NtRp3045
(dp3046
g54
(dp3047
g62
I4
ssg63
Nsg56
(lp3048
g49
(g65
g51
NtRp3049
(dp3050
g54
(dp3051
sg63
g3045
sg56
(lp3052
g49
(g70
g51
NtRp3053
(dp3054
g54
(dp3055
sg63
g3049
sg56
(lp3056
g49
(g50
g51
NtRp3057
(dp3058
g54
(dp3059
g62
I4
ssg63
g3053
sg56
(lp3060
S'{{'
p3061
asbasbasbag49
(g65
g51
NtRp3062
(dp3063
g54
(dp3064
sg63
g3045
sg56
(lp3065
g49
(g70
g51
NtRp3066
(dp3067
g54
(dp3068
sg63
g3062
sg56
(lp3069
g49
(g50
g51
NtRp3070
(dp3071
g54
(dp3072
g62
I4
ssg63
g3066
sg56
(lp3073
S'}}'
p3074
asbasbasbasbasbasbasbag49
(g65
g51
NtRp3075
(dp3076
g54
(dp3077
sg63
g2810
sg56
(lp3078
g49
(g70
g51
NtRp3079
(dp3080
g54
(dp3081
g74
g75
ssg63
g3075
sg56
(lp3082
S'files'
p3083
asbag49
(g70
g51
NtRp3084
(dp3085
g54
(dp3086
g81
g82
ssg63
g3075
sg56
(lp3087
S':'
asbag49
(g70
g51
NtRp3088
(dp3089
g54
(dp3090
sg63
g3075
sg56
(lp3091
g49
(g50
g51
NtRp3092
(dp3093
g54
(dp3094
g62
I5
ssg63
g3088
sg56
(lp3095
g49
(g58
g51
NtRp3096
(dp3097
g54
(dp3098
g62
I4
ssg63
Nsg56
(lp3099
sbasbasbasbag49
(g65
g51
NtRp3100
(dp3101
g54
(dp3102
sg63
g2810
sg56
(lp3103
g49
(g70
g51
NtRp3104
(dp3105
g54
(dp3106
g74
g75
ssg63
g3100
sg56
(lp3107
S'flash'
p3108
asbag49
(g70
g51
NtRp3109
(dp3110
g54
(dp3111
g81
g82
ssg63
g3100
sg56
(lp3112
S':'
asbag49
(g70
g51
NtRp3113
(dp3114
g54
(dp3115
sg63
g3100
sg56
(lp3116
g49
(g50
g51
NtRp3117
(dp3118
g54
(dp3119
g62
I5
ssg63
g3113
sg56
(lp3120
S''
asbasbasbag49
(g65
g51
NtRp3121
(dp3122
g54
(dp3123
sg63
g2810
sg56
(lp3124
g49
(g70
g51
NtRp3125
(dp3126
g54
(dp3127
g74
g75
ssg63
g3121
sg56
(lp3128
S'generic_patterns'
p3129
asbag49
(g70
g51
NtRp3130
(dp3131
g54
(dp3132
g81
g82
ssg63
g3121
sg56
(lp3133
S':'
asbag49
(g70
g51
NtRp3134
(dp3135
g54
(dp3136
sg63
g3121
sg56
(lp3137
g49
(g50
g51
NtRp3138
(dp3139
g54
(dp3140
g62
I5
ssg63
g3134
sg56
(lp3141
g49
(g58
g51
NtRp3142
(dp3143
g54
(dp3144
g62
I4
ssg63
Nsg56
(lp3145
g49
(g65
g51
NtRp3146
(dp3147
g54
(dp3148
sg63
g3142
sg56
(lp3149
g49
(g70
g51
NtRp3150
(dp3151
g54
(dp3152
sg63
g3146
sg56
(lp3153
g49
(g50
g51
NtRp3154
(dp3155
g54
(dp3156
g62
I4
ssg63
g3150
sg56
(lp3157
S'*'
asbasbasbasbasbasbasbag49
(g65
g51
NtRp3158
(dp3159
g54
(dp3160
sg63
g2810
sg56
(lp3161
g49
(g70
g51
NtRp3162
(dp3163
g54
(dp3164
g74
g75
ssg63
g3158
sg56
(lp3165
S'headers'
p3166
asbag49
(g70
g51
NtRp3167
(dp3168
g54
(dp3169
g81
g82
ssg63
g3158
sg56
(lp3170
S':'
asbag49
(g70
g51
NtRp3171
(dp3172
g54
(dp3173
sg63
g3158
sg56
(lp3174
g49
(g50
g51
NtRp3175
(dp3176
g54
(dp3177
g62
I5
ssg63
g3171
sg56
(lp3178
g49
(g58
g51
NtRp3179
(dp3180
g54
(dp3181
g62
I4
ssg63
Nsg56
(lp3182
g49
(g65
g51
NtRp3183
(dp3184
g54
(dp3185
sg63
g3179
sg56
(lp3186
g49
(g70
g51
NtRp3187
(dp3188
g54
(dp3189
g74
g75
ssg63
g3183
sg56
(lp3190
S'Cache-Control'
p3191
asbag49
(g70
g51
NtRp3192
(dp3193
g54
(dp3194
g81
g82
ssg63
g3183
sg56
(lp3195
S':'
asbag49
(g70
g51
NtRp3196
(dp3197
g54
(dp3198
sg63
g3183
sg56
(lp3199
g49
(g50
g51
NtRp3200
(dp3201
g54
(dp3202
g62
I4
ssg63
g3196
sg56
(lp3203
S'no-store, no-cache, must-revalidate, post-check=0, pre-check=0'
p3204
asbasbasbag49
(g65
g51
NtRp3205
(dp3206
g54
(dp3207
sg63
g3179
sg56
(lp3208
g49
(g70
g51
NtRp3209
(dp3210
g54
(dp3211
g74
g75
ssg63
g3205
sg56
(lp3212
S'Content-Type'
p3213
asbag49
(g70
g51
NtRp3214
(dp3215
g54
(dp3216
g81
g82
ssg63
g3205
sg56
(lp3217
S':'
asbag49
(g70
g51
NtRp3218
(dp3219
g54
(dp3220
sg63
g3205
sg56
(lp3221
g49
(g50
g51
NtRp3222
(dp3223
g54
(dp3224
g62
I4
ssg63
g3218
sg56
(lp3225
S'text/html; charset=utf-8'
p3226
asbasbasbag49
(g65
g51
NtRp3227
(dp3228
g54
(dp3229
sg63
g3179
sg56
(lp3230
g49
(g70
g51
NtRp3231
(dp3232
g54
(dp3233
g74
g75
ssg63
g3227
sg56
(lp3234
S'Expires'
p3235
asbag49
(g70
g51
NtRp3236
(dp3237
g54
(dp3238
g81
g82
ssg63
g3227
sg56
(lp3239
S':'
asbag49
(g70
g51
NtRp3240
(dp3241
g54
(dp3242
sg63
g3227
sg56
(lp3243
g49
(g50
g51
NtRp3244
(dp3245
g54
(dp3246
g62
I4
ssg63
g3240
sg56
(lp3247
S'Thu, 29 Mar 2012 21:25:20 GMT'
p3248
asbasbasbag49
(g65
g51
NtRp3249
(dp3250
g54
(dp3251
sg63
g3179
sg56
(lp3252
g49
(g70
g51
NtRp3253
(dp3254
g54
(dp3255
g74
g75
ssg63
g3249
sg56
(lp3256
S'Pragma'
p3257
asbag49
(g70
g51
NtRp3258
(dp3259
g54
(dp3260
g81
g82
ssg63
g3249
sg56
(lp3261
S':'
asbag49
(g70
g51
NtRp3262
(dp3263
g54
(dp3264
sg63
g3249
sg56
(lp3265
g49
(g50
g51
NtRp3266
(dp3267
g54
(dp3268
g62
I4
ssg63
g3262
sg56
(lp3269
S'no-cache'
p3270
asbasbasbag49
(g65
g51
NtRp3271
(dp3272
g54
(dp3273
sg63
g3179
sg56
(lp3274
g49
(g70
g51
NtRp3275
(dp3276
g54
(dp3277
g74
g75
ssg63
g3271
sg56
(lp3278
S'X-Powered-By'
p3279
asbag49
(g70
g51
NtRp3280
(dp3281
g54
(dp3282
g81
g82
ssg63
g3271
sg56
(lp3283
S':'
asbag49
(g70
g51
NtRp3284
(dp3285
g54
(dp3286
sg63
g3271
sg56
(lp3287
g49
(g50
g51
NtRp3288
(dp3289
g54
(dp3290
g62
I4
ssg63
g3284
sg56
(lp3291
S'web2py'
p3292
asbasbasbasbasbasbasbag49
(g65
g51
NtRp3293
(dp3294
g54
(dp3295
sg63
g2810
sg56
(lp3296
g49
(g70
g51
NtRp3297
(dp3298
g54
(dp3299
g74
g75
ssg63
g3293
sg56
(lp3300
S'menu'
p3301
asbag49
(g70
g51
NtRp3302
(dp3303
g54
(dp3304
g81
g82
ssg63
g3293
sg56
(lp3305
S':'
asbag49
(g70
g51
NtRp3306
(dp3307
g54
(dp3308
sg63
g3293
sg56
(lp3309
g49
(g50
g51
NtRp3310
(dp3311
g54
(dp3312
g62
I5
ssg63
g3306
sg56
(lp3313
g49
(g58
g51
NtRp3314
(dp3315
g54
(dp3316
g62
I4
ssg63
Nsg56
(lp3317
g49
(g65
g51
NtRp3318
(dp3319
g54
(dp3320
sg63
g3314
sg56
(lp3321
g49
(g70
g51
NtRp3322
(dp3323
g54
(dp3324
sg63
g3318
sg56
(lp3325
g49
(g50
g51
NtRp3326
(dp3327
g54
(dp3328
g62
I4
ssg63
g3322
sg56
(lp3329
g49
(g58
g51
NtRp3330
(dp3331
g54
(dp3332
g62
I3
ssg63
Nsg56
(lp3333
g49
(g65
g51
NtRp3334
(dp3335
g54
(dp3336
sg63
g3330
sg56
(lp3337
g49
(g70
g51
NtRp3338
(dp3339
g54
(dp3340
sg63
g3334
sg56
(lp3341
g49
(g50
g51
NtRp3342
(dp3343
g54
(dp3344
g62
I3
ssg63
g3338
sg56
(lp3345
cgluon.languages
lazyT_unpickle
p3346
(S's\x04\x00\x00\x00Home'
tRp3347
asbasbasbag49
(g65
g51
NtRp3348
(dp3349
g54
(dp3350
sg63
g3330
sg56
(lp3351
g49
(g70
g51
NtRp3352
(dp3353
g54
(dp3354
sg63
g3348
sg56
(lp3355
g49
(g50
g51
NtRp3356
(dp3357
g54
(dp3358
g62
I3
ssg63
g3352
sg56
(lp3359
g92
asbasbasbag49
(g65
g51
NtRp3360
(dp3361
g54
(dp3362
sg63
g3330
sg56
(lp3363
g49
(g70
g51
NtRp3364
(dp3365
g54
(dp3366
sg63
g3360
sg56
(lp3367
g49
(g50
g51
NtRp3368
(dp3369
g54
(dp3370
g62
I3
ssg63
g3364
sg56
(lp3371
S'/init/default/index'
p3372
asbasbasbag49
(g65
g51
NtRp3373
(dp3374
g54
(dp3375
sg63
g3330
sg56
(lp3376
g49
(g70
g51
NtRp3377
(dp3378
g54
(dp3379
sg63
g3373
sg56
(lp3380
g49
(g50
g51
NtRp3381
(dp3382
g54
(dp3383
g62
I3
ssg63
g3377
sg56
(lp3384
g49
(g58
g51
NtRp3385
(dp3386
g54
(dp3387
g62
I2
ssg63
Nsg56
(lp3388
sbasbasbasbasbasbasbasbag49
(g65
g51
NtRp3389
(dp3390
g54
(dp3391
sg63
g3314
sg56
(lp3392
g49
(g70
g51
NtRp3393
(dp3394
g54
(dp3395
sg63
g3389
sg56
(lp3396
g49
(g50
g51
NtRp3397
(dp3398
g54
(dp3399
g62
I4
ssg63
g3393
sg56
(lp3400
g49
(g58
g51
NtRp3401
(dp3402
g54
(dp3403
g62
I3
ssg63
Nsg56
(lp3404
g49
(g65
g51
NtRp3405
(dp3406
g54
(dp3407
sg63
g3401
sg56
(lp3408
g49
(g70
g51
NtRp3409
(dp3410
g54
(dp3411
sg63
g3405
sg56
(lp3412
g49
(g50
g51
NtRp3413
(dp3414
g54
(dp3415
g62
I3
ssg63
g3409
sg56
(lp3416
g49
(cgluon.html
SPAN
p3417
g51
NtRp3418
(dp3419
g54
(dp3420
g74
S'color:yellow'
p3421
ssg63
Nsg56
(lp3422
g3292
asbasbasbasbag49
(g65
g51
NtRp3423
(dp3424
g54
(dp3425
sg63
g3401
sg56
(lp3426
g49
(g70
g51
NtRp3427
(dp3428
g54
(dp3429
sg63
g3423
sg56
(lp3430
g49
(g50
g51
NtRp3431
(dp3432
g54
(dp3433
g62
I3
ssg63
g3427
sg56
(lp3434
g92
asbasbasbag49
(g65
g51
NtRp3435
(dp3436
g54
(dp3437
sg63
g3401
sg56
(lp3438
g49
(g70
g51
NtRp3439
(dp3440
g54
(dp3441
sg63
g3435
sg56
(lp3442
g49
(g50
g51
NtRp3443
(dp3444
g54
(dp3445
g62
I3
ssg63
g3439
sg56
(lp3446
S'None'
p3447
asbasbasbag49
(g65
g51
NtRp3448
(dp3449
g54
(dp3450
sg63
g3401
sg56
(lp3451
g49
(g70
g51
NtRp3452
(dp3453
g54
(dp3454
sg63
g3448
sg56
(lp3455
g49
(g50
g51
NtRp3456
(dp3457
g54
(dp3458
g62
I3
ssg63
g3452
sg56
(lp3459
g49
(g58
g51
NtRp3460
(dp3461
g54
(dp3462
g62
I2
ssg63
Nsg56
(lp3463
g49
(g65
g51
NtRp3464
(dp3465
g54
(dp3466
sg63
g3460
sg56
(lp3467
g49
(g70
g51
NtRp3468
(dp3469
g54
(dp3470
sg63
g3464
sg56
(lp3471
g49
(g50
g51
NtRp3472
(dp3473
g54
(dp3474
g62
I2
ssg63
g3468
sg56
(lp3475
g49
(g58
g51
NtRp3476
(dp3477
g54
(dp3478
g62
I1
ssg63
Nsg56
(lp3479
g49
(g65
g51
NtRp3480
(dp3481
g54
(dp3482
sg63
g3476
sg56
(lp3483
g49
(g70
g51
NtRp3484
(dp3485
g54
(dp3486
sg63
g3480
sg56
(lp3487
g49
(g50
g51
NtRp3488
(dp3489
g54
(dp3490
g62
I1
ssg63
g3484
sg56
(lp3491
g3346
(S's\x08\x00\x00\x00My Sites'
tRp3492
asbasbasbag49
(g65
g51
NtRp3493
(dp3494
g54
(dp3495
sg63
g3476
sg56
(lp3496
g49
(g70
g51
NtRp3497
(dp3498
g54
(dp3499
sg63
g3493
sg56
(lp3500
g49
(g50
g51
NtRp3501
(dp3502
g54
(dp3503
g62
I1
ssg63
g3497
sg56
(lp3504
I00
asbasbasbag49
(g65
g51
NtRp3505
(dp3506
g54
(dp3507
sg63
g3476
sg56
(lp3508
g49
(g70
g51
NtRp3509
(dp3510
g54
(dp3511
sg63
g3505
sg56
(lp3512
g49
(g50
g51
NtRp3513
(dp3514
g54
(dp3515
g62
I1
ssg63
g3509
sg56
(lp3516
S'/admin/default/site'
p3517
asbasbasbasbasbasbasbag49
(g65
g51
NtRp3518
(dp3519
g54
(dp3520
sg63
g3460
sg56
(lp3521
g49
(g70
g51
NtRp3522
(dp3523
g54
(dp3524
sg63
g3518
sg56
(lp3525
g49
(g50
g51
NtRp3526
(dp3527
g54
(dp3528
g62
I2
ssg63
g3522
sg56
(lp3529
g49
(g58
g51
NtRp3530
(dp3531
g54
(dp3532
g62
I1
ssg63
Nsg56
(lp3533
g49
(g65
g51
NtRp3534
(dp3535
g54
(dp3536
sg63
g3530
sg56
(lp3537
g49
(g70
g51
NtRp3538
(dp3539
g54
(dp3540
sg63
g3534
sg56
(lp3541
g49
(g50
g51
NtRp3542
(dp3543
g54
(dp3544
g62
I1
ssg63
g3538
sg56
(lp3545
g3346
(S's\x08\x00\x00\x00This App'
tRp3546
asbasbasbag49
(g65
g51
NtRp3547
(dp3548
g54
(dp3549
sg63
g3530
sg56
(lp3550
g49
(g70
g51
NtRp3551
(dp3552
g54
(dp3553
sg63
g3547
sg56
(lp3554
g49
(g50
g51
NtRp3555
(dp3556
g54
(dp3557
g62
I1
ssg63
g3551
sg56
(lp3558
I00
asbasbasbag49
(g65
g51
NtRp3559
(dp3560
g54
(dp3561
sg63
g3530
sg56
(lp3562
g49
(g70
g51
NtRp3563
(dp3564
g54
(dp3565
sg63
g3559
sg56
(lp3566
g49
(g50
g51
NtRp3567
(dp3568
g54
(dp3569
g62
I1
ssg63
g3563
sg56
(lp3570
S'/admin/default/design/init'
p3571
asbasbasbag49
(g65
g51
NtRp3572
(dp3573
g54
(dp3574
sg63
g3530
sg56
(lp3575
g49
(g70
g51
NtRp3576
(dp3577
g54
(dp3578
sg63
g3572
sg56
(lp3579
g49
(g50
g51
NtRp3580
(dp3581
g54
(dp3582
g62
I1
ssg63
g3576
sg56
(lp3583
(lp3584
(g3346
(S's\n\x00\x00\x00Controller'
tRp3585
I00
S'/admin/default/edit/init/controllers/default.py'
tp3586
a(g3346
(S's\x04\x00\x00\x00View'
tRp3587
I00
S'/admin/default/edit/init/views/default/initdbjack.html'
tp3588
a(g3346
(S's\x06\x00\x00\x00Layout'
tRp3589
I00
S'/admin/default/edit/init/views/layout.html'
tp3590
a(g3346
(S's\n\x00\x00\x00Stylesheet'
tRp3591
I00
S'/admin/default/edit/init/static/css/web2py.css'
tp3592
a(g3346
(S's\x08\x00\x00\x00DB Model'
tRp3593
I00
S'/admin/default/edit/init/models/db.py'
tp3594
a(g3346
(S's\n\x00\x00\x00Menu Model'
tRp3595
I00
S'/admin/default/edit/init/models/menu.py'
tp3596
a(g3346
(S's\x08\x00\x00\x00Database'
tRp3597
I00
S'/init/appadmin/index'
tp3598
a(g3346
(S's\x06\x00\x00\x00Errors'
tRp3599
I00
S'/admin/default/errors/init'
tp3600
a(g3346
(S's\x05\x00\x00\x00About'
tRp3601
I00
S'/admin/default/about/init'
tp3602
aasbasbasbasbasbasbasbag49
(g65
g51
NtRp3603
(dp3604
g54
(dp3605
sg63
g3460
sg56
(lp3606
g49
(g70
g51
NtRp3607
(dp3608
g54
(dp3609
sg63
g3603
sg56
(lp3610
g49
(g50
g51
NtRp3611
(dp3612
g54
(dp3613
g62
I2
ssg63
g3607
sg56
(lp3614
g49
(g58
g51
NtRp3615
(dp3616
g54
(dp3617
g62
I1
ssg63
Nsg56
(lp3618
g49
(g65
g51
NtRp3619
(dp3620
g54
(dp3621
sg63
g3615
sg56
(lp3622
g49
(g70
g51
NtRp3623
(dp3624
g54
(dp3625
sg63
g3619
sg56
(lp3626
g49
(g50
g51
NtRp3627
(dp3628
g54
(dp3629
g62
I1
ssg63
g3623
sg56
(lp3630
S'web2py.com'
p3631
asbasbasbag49
(g65
g51
NtRp3632
(dp3633
g54
(dp3634
sg63
g3615
sg56
(lp3635
g49
(g70
g51
NtRp3636
(dp3637
g54
(dp3638
sg63
g3632
sg56
(lp3639
g49
(g50
g51
NtRp3640
(dp3641
g54
(dp3642
g62
I1
ssg63
g3636
sg56
(lp3643
I00
asbasbasbag49
(g65
g51
NtRp3644
(dp3645
g54
(dp3646
sg63
g3615
sg56
(lp3647
g49
(g70
g51
NtRp3648
(dp3649
g54
(dp3650
sg63
g3644
sg56
(lp3651
g49
(g50
g51
NtRp3652
(dp3653
g54
(dp3654
g62
I1
ssg63
g3648
sg56
(lp3655
S'http://www.web2py.com'
p3656
asbasbasbag49
(g65
g51
NtRp3657
(dp3658
g54
(dp3659
sg63
g3615
sg56
(lp3660
g49
(g70
g51
NtRp3661
(dp3662
g54
(dp3663
sg63
g3657
sg56
(lp3664
g49
(g50
g51
NtRp3665
(dp3666
g54
(dp3667
g62
I1
ssg63
g3661
sg56
(lp3668
(lp3669
(g3346
(S's\x08\x00\x00\x00Download'
tRp3670
I00
S'http://www.web2py.com/examples/default/download'
p3671
tp3672
a(g3346
(S's\x07\x00\x00\x00Support'
tRp3673
I00
S'http://www.web2py.com/examples/default/support'
p3674
tp3675
a(g3346
(S's\x04\x00\x00\x00Demo'
tRp3676
I00
S'http://web2py.com/demo_admin'
p3677
tp3678
a(g3346
(S's\x0e\x00\x00\x00Quick Examples'
tRp3679
I00
S'http://web2py.com/examples/default/examples'
p3680
tp3681
a(g3346
(S's\x03\x00\x00\x00FAQ'
tRp3682
I00
S'http://web2py.com/AlterEgo'
p3683
tp3684
a(g3346
(S's\x06\x00\x00\x00Videos'
tRp3685
I00
S'http://www.web2py.com/examples/default/videos/'
p3686
tp3687
a(g3346
(S's\x11\x00\x00\x00Free Applications'
tRp3688
I00
S'http://web2py.com/appliances'
p3689
tp3690
a(g3346
(S's\x07\x00\x00\x00Plugins'
tRp3691
I00
S'http://web2py.com/plugins'
p3692
tp3693
a(g3346
(S's\x07\x00\x00\x00Layouts'
tRp3694
I00
S'http://web2py.com/layouts'
p3695
tp3696
a(g3346
(S's\x07\x00\x00\x00Recipes'
tRp3697
I00
S'http://web2pyslices.com/'
p3698
tp3699
a(g3346
(S's\x08\x00\x00\x00Semantic'
tRp3700
I00
S'http://web2py.com/semantic'
p3701
tp3702
aasbasbasbasbasbasbasbag49
(g65
g51
NtRp3703
(dp3704
g54
(dp3705
sg63
g3460
sg56
(lp3706
g49
(g70
g51
NtRp3707
(dp3708
g54
(dp3709
sg63
g3703
sg56
(lp3710
g49
(g50
g51
NtRp3711
(dp3712
g54
(dp3713
g62
I2
ssg63
g3707
sg56
(lp3714
g49
(g58
g51
NtRp3715
(dp3716
g54
(dp3717
g62
I1
ssg63
Nsg56
(lp3718
g49
(g65
g51
NtRp3719
(dp3720
g54
(dp3721
sg63
g3715
sg56
(lp3722
g49
(g70
g51
NtRp3723
(dp3724
g54
(dp3725
sg63
g3719
sg56
(lp3726
g49
(g50
g51
NtRp3727
(dp3728
g54
(dp3729
g62
I1
ssg63
g3723
sg56
(lp3730
g3346
(S's\r\x00\x00\x00Documentation'
tRp3731
asbasbasbag49
(g65
g51
NtRp3732
(dp3733
g54
(dp3734
sg63
g3715
sg56
(lp3735
g49
(g70
g51
NtRp3736
(dp3737
g54
(dp3738
sg63
g3732
sg56
(lp3739
g49
(g50
g51
NtRp3740
(dp3741
g54
(dp3742
g62
I1
ssg63
g3736
sg56
(lp3743
I00
asbasbasbag49
(g65
g51
NtRp3744
(dp3745
g54
(dp3746
sg63
g3715
sg56
(lp3747
g49
(g70
g51
NtRp3748
(dp3749
g54
(dp3750
sg63
g3744
sg56
(lp3751
g49
(g50
g51
NtRp3752
(dp3753
g54
(dp3754
g62
I1
ssg63
g3748
sg56
(lp3755
S'http://www.web2py.com/book'
p3756
asbasbasbag49
(g65
g51
NtRp3757
(dp3758
g54
(dp3759
sg63
g3715
sg56
(lp3760
g49
(g70
g51
NtRp3761
(dp3762
g54
(dp3763
sg63
g3757
sg56
(lp3764
g49
(g50
g51
NtRp3765
(dp3766
g54
(dp3767
g62
I1
ssg63
g3761
sg56
(lp3768
(lp3769
(g3346
(S's\x07\x00\x00\x00Preface'
tRp3770
I00
S'http://www.web2py.com/book/default/chapter/00'
p3771
tp3772
a(g3346
(S's\x0c\x00\x00\x00Introduction'
tRp3773
I00
S'http://www.web2py.com/book/default/chapter/01'
p3774
tp3775
a(g3346
(S's\x06\x00\x00\x00Python'
tRp3776
I00
S'http://www.web2py.com/book/default/chapter/02'
p3777
tp3778
a(g3346
(S's\x08\x00\x00\x00Overview'
tRp3779
I00
S'http://www.web2py.com/book/default/chapter/03'
p3780
tp3781
a(g3346
(S's\x08\x00\x00\x00The Core'
tRp3782
I00
S'http://www.web2py.com/book/default/chapter/04'
p3783
tp3784
a(g3346
(S's\t\x00\x00\x00The Views'
tRp3785
I00
S'http://www.web2py.com/book/default/chapter/05'
p3786
tp3787
a(g3346
(S's\x08\x00\x00\x00Database'
tRp3788
I00
S'http://www.web2py.com/book/default/chapter/06'
p3789
tp3790
a(g3346
(S's\x14\x00\x00\x00Forms and Validators'
tRp3791
I00
S'http://www.web2py.com/book/default/chapter/07'
p3792
tp3793
a(g3346
(S's\r\x00\x00\x00Email and SMS'
tRp3794
I00
S'http://www.web2py.com/book/default/chapter/08'
p3795
tp3796
a(g3346
(S's\x0e\x00\x00\x00Access Control'
tRp3797
I00
S'http://www.web2py.com/book/default/chapter/09'
p3798
tp3799
a(g3346
(S's\x08\x00\x00\x00Services'
tRp3800
I00
S'http://www.web2py.com/book/default/chapter/10'
p3801
tp3802
a(g3346
(S's\x0c\x00\x00\x00Ajax Recipes'
tRp3803
I00
S'http://www.web2py.com/book/default/chapter/11'
p3804
tp3805
a(g3346
(S's\x16\x00\x00\x00Components and Plugins'
tRp3806
I00
S'http://www.web2py.com/book/default/chapter/12'
p3807
tp3808
a(g3346
(S's\x12\x00\x00\x00Deployment Recipes'
tRp3809
I00
S'http://www.web2py.com/book/default/chapter/13'
p3810
tp3811
a(g3346
(S's\r\x00\x00\x00Other Recipes'
tRp3812
I00
S'http://www.web2py.com/book/default/chapter/14'
p3813
tp3814
a(g3346
(S's\r\x00\x00\x00Buy this book'
tRp3815
I00
S'http://stores.lulu.com/web2py'
p3816
tp3817
aasbasbasbasbasbasbasbag49
(g65
g51
NtRp3818
(dp3819
g54
(dp3820
sg63
g3460
sg56
(lp3821
g49
(g70
g51
NtRp3822
(dp3823
g54
(dp3824
sg63
g3818
sg56
(lp3825
g49
(g50
g51
NtRp3826
(dp3827
g54
(dp3828
g62
I2
ssg63
g3822
sg56
(lp3829
g49
(g58
g51
NtRp3830
(dp3831
g54
(dp3832
g62
I1
ssg63
Nsg56
(lp3833
g49
(g65
g51
NtRp3834
(dp3835
g54
(dp3836
sg63
g3830
sg56
(lp3837
g49
(g70
g51
NtRp3838
(dp3839
g54
(dp3840
sg63
g3834
sg56
(lp3841
g49
(g50
g51
NtRp3842
(dp3843
g54
(dp3844
g62
I1
ssg63
g3838
sg56
(lp3845
g3346
(S's\t\x00\x00\x00Community'
tRp3846
asbasbasbag49
(g65
g51
NtRp3847
(dp3848
g54
(dp3849
sg63
g3830
sg56
(lp3850
g49
(g70
g51
NtRp3851
(dp3852
g54
(dp3853
sg63
g3847
sg56
(lp3854
g49
(g50
g51
NtRp3855
(dp3856
g54
(dp3857
g62
I1
ssg63
g3851
sg56
(lp3858
I00
asbasbasbag49
(g65
g51
NtRp3859
(dp3860
g54
(dp3861
sg63
g3830
sg56
(lp3862
g49
(g70
g51
NtRp3863
(dp3864
g54
(dp3865
sg63
g3859
sg56
(lp3866
g49
(g50
g51
NtRp3867
(dp3868
g54
(dp3869
g62
I1
ssg63
g3863
sg56
(lp3870
Nasbasbasbag49
(g65
g51
NtRp3871
(dp3872
g54
(dp3873
sg63
g3830
sg56
(lp3874
g49
(g70
g51
NtRp3875
(dp3876
g54
(dp3877
sg63
g3871
sg56
(lp3878
g49
(g50
g51
NtRp3879
(dp3880
g54
(dp3881
g62
I1
ssg63
g3875
sg56
(lp3882
(lp3883
(g3346
(S's\x06\x00\x00\x00Groups'
tRp3884
I00
S'http://www.web2py.com/examples/default/usergroups'
p3885
tp3886
a(g3346
(S's\x07\x00\x00\x00Twitter'
tRp3887
I00
S'http://twitter.com/web2py'
p3888
tp3889
a(g3346
(S's\t\x00\x00\x00Live Chat'
tRp3890
I00
S'http://webchat.freenode.net/?channels=web2py'
p3891
tp3892
aasbasbasbasbasbasbasbag49
(g65
g51
NtRp3893
(dp3894
g54
(dp3895
sg63
g3460
sg56
(lp3896
g49
(g70
g51
NtRp3897
(dp3898
g54
(dp3899
sg63
g3893
sg56
(lp3900
g49
(g50
g51
NtRp3901
(dp3902
g54
(dp3903
g62
I2
ssg63
g3897
sg56
(lp3904
g49
(g58
g51
NtRp3905
(dp3906
g54
(dp3907
g62
I1
ssg63
Nsg56
(lp3908
g49
(g65
g51
NtRp3909
(dp3910
g54
(dp3911
sg63
g3905
sg56
(lp3912
g49
(g70
g51
NtRp3913
(dp3914
g54
(dp3915
sg63
g3909
sg56
(lp3916
g49
(g50
g51
NtRp3917
(dp3918
g54
(dp3919
g62
I1
ssg63
g3913
sg56
(lp3920
g3346
(S's\x07\x00\x00\x00Plugins'
tRp3921
asbasbasbag49
(g65
g51
NtRp3922
(dp3923
g54
(dp3924
sg63
g3905
sg56
(lp3925
g49
(g70
g51
NtRp3926
(dp3927
g54
(dp3928
sg63
g3922
sg56
(lp3929
g49
(g50
g51
NtRp3930
(dp3931
g54
(dp3932
g62
I1
ssg63
g3926
sg56
(lp3933
I00
asbasbasbag49
(g65
g51
NtRp3934
(dp3935
g54
(dp3936
sg63
g3905
sg56
(lp3937
g49
(g70
g51
NtRp3938
(dp3939
g54
(dp3940
sg63
g3934
sg56
(lp3941
g49
(g50
g51
NtRp3942
(dp3943
g54
(dp3944
g62
I1
ssg63
g3938
sg56
(lp3945
Nasbasbasbag49
(g65
g51
NtRp3946
(dp3947
g54
(dp3948
sg63
g3905
sg56
(lp3949
g49
(g70
g51
NtRp3950
(dp3951
g54
(dp3952
sg63
g3946
sg56
(lp3953
g49
(g50
g51
NtRp3954
(dp3955
g54
(dp3956
g62
I1
ssg63
g3950
sg56
(lp3957
(lp3958
(S'plugin_wiki'
p3959
I00
S'http://web2py.com/examples/default/download'
p3960
tp3961
a(g3346
(S's\r\x00\x00\x00Other Plugins'
tRp3962
I00
g3692
tp3963
a(g3346
(S's\x0e\x00\x00\x00Layout Plugins'
tRp3964
I00
g3695
tp3965
aasbasbasbasbasbasbasbasbasbasbasbasbasbasbasbasbasbasbasbag49
(g65
g51
NtRp3966
(dp3967
g54
(dp3968
sg63
g2810
sg56
(lp3969
g49
(g70
g51
NtRp3970
(dp3971
g54
(dp3972
g74
g75
ssg63
g3966
sg56
(lp3973
S'meta'
p3974
asbag49
(g70
g51
NtRp3975
(dp3976
g54
(dp3977
g81
g82
ssg63
g3966
sg56
(lp3978
S':'
asbag49
(g70
g51
NtRp3979
(dp3980
g54
(dp3981
sg63
g3966
sg56
(lp3982
g49
(g50
g51
NtRp3983
(dp3984
g54
(dp3985
g62
I5
ssg63
g3979
sg56
(lp3986
g49
(g58
g51
NtRp3987
(dp3988
g54
(dp3989
g62
I4
ssg63
Nsg56
(lp3990
g49
(g65
g51
NtRp3991
(dp3992
g54
(dp3993
sg63
g3987
sg56
(lp3994
g49
(g70
g51
NtRp3995
(dp3996
g54
(dp3997
g74
g75
ssg63
g3991
sg56
(lp3998
S'author'
p3999
asbag49
(g70
g51
NtRp4000
(dp4001
g54
(dp4002
g81
g82
ssg63
g3991
sg56
(lp4003
S':'
asbag49
(g70
g51
NtRp4004
(dp4005
g54
(dp4006
sg63
g3991
sg56
(lp4007
g49
(g50
g51
NtRp4008
(dp4009
g54
(dp4010
g62
I4
ssg63
g4004
sg56
(lp4011
S'Your Name <you@example.com>'
p4012
asbasbasbag49
(g65
g51
NtRp4013
(dp4014
g54
(dp4015
sg63
g3987
sg56
(lp4016
g49
(g70
g51
NtRp4017
(dp4018
g54
(dp4019
g74
g75
ssg63
g4013
sg56
(lp4020
S'copyright'
p4021
asbag49
(g70
g51
NtRp4022
(dp4023
g54
(dp4024
g81
g82
ssg63
g4013
sg56
(lp4025
S':'
asbag49
(g70
g51
NtRp4026
(dp4027
g54
(dp4028
sg63
g4013
sg56
(lp4029
g49
(g50
g51
NtRp4030
(dp4031
g54
(dp4032
g62
I4
ssg63
g4026
sg56
(lp4033
S'Copyright 2011'
p4034
asbasbasbag49
(g65
g51
NtRp4035
(dp4036
g54
(dp4037
sg63
g3987
sg56
(lp4038
g49
(g70
g51
NtRp4039
(dp4040
g54
(dp4041
g74
g75
ssg63
g4035
sg56
(lp4042
S'description'
p4043
asbag49
(g70
g51
NtRp4044
(dp4045
g54
(dp4046
g81
g82
ssg63
g4035
sg56
(lp4047
S':'
asbag49
(g70
g51
NtRp4048
(dp4049
g54
(dp4050
sg63
g4035
sg56
(lp4051
g49
(g50
g51
NtRp4052
(dp4053
g54
(dp4054
g62
I4
ssg63
g4048
sg56
(lp4055
S'a cool new app'
p4056
asbasbasbag49
(g65
g51
NtRp4057
(dp4058
g54
(dp4059
sg63
g3987
sg56
(lp4060
g49
(g70
g51
NtRp4061
(dp4062
g54
(dp4063
g74
g75
ssg63
g4057
sg56
(lp4064
S'generator'
p4065
asbag49
(g70
g51
NtRp4066
(dp4067
g54
(dp4068
g81
g82
ssg63
g4057
sg56
(lp4069
S':'
asbag49
(g70
g51
NtRp4070
(dp4071
g54
(dp4072
sg63
g4057
sg56
(lp4073
g49
(g50
g51
NtRp4074
(dp4075
g54
(dp4076
g62
I4
ssg63
g4070
sg56
(lp4077
S'Web2py Web Framework'
p4078
asbasbasbag49
(g65
g51
NtRp4079
(dp4080
g54
(dp4081
sg63
g3987
sg56
(lp4082
g49
(g70
g51
NtRp4083
(dp4084
g54
(dp4085
g74
g75
ssg63
g4079
sg56
(lp4086
S'keywords'
p4087
asbag49
(g70
g51
NtRp4088
(dp4089
g54
(dp4090
g81
g82
ssg63
g4079
sg56
(lp4091
S':'
asbag49
(g70
g51
NtRp4092
(dp4093
g54
(dp4094
sg63
g4079
sg56
(lp4095
g49
(g50
g51
NtRp4096
(dp4097
g54
(dp4098
g62
I4
ssg63
g4092
sg56
(lp4099
S'web2py, python, framework'
p4100
asbasbasbasbasbasbasbag49
(g65
g51
NtRp4101
(dp4102
g54
(dp4103
sg63
g2810
sg56
(lp4104
g49
(g70
g51
NtRp4105
(dp4106
g54
(dp4107
g74
g75
ssg63
g4101
sg56
(lp4108
S'postprocessing'
p4109
asbag49
(g70
g51
NtRp4110
(dp4111
g54
(dp4112
g81
g82
ssg63
g4101
sg56
(lp4113
S':'
asbag49
(g70
g51
NtRp4114
(dp4115
g54
(dp4116
sg63
g4101
sg56
(lp4117
g49
(g50
g51
NtRp4118
(dp4119
g54
(dp4120
g62
I5
ssg63
g4114
sg56
(lp4121
g49
(g58
g51
NtRp4122
(dp4123
g54
(dp4124
g62
I4
ssg63
Nsg56
(lp4125
sbasbasbasbag49
(g65
g51
NtRp4126
(dp4127
g54
(dp4128
sg63
g2810
sg56
(lp4129
g49
(g70
g51
NtRp4130
(dp4131
g54
(dp4132
g74
g75
ssg63
g4126
sg56
(lp4133
S'session_db'
p4134
asbag49
(g70
g51
NtRp4135
(dp4136
g54
(dp4137
g81
g82
ssg63
g4126
sg56
(lp4138
S':'
asbag49
(g70
g51
NtRp4139
(dp4140
g54
(dp4141
sg63
g4126
sg56
(lp4142
g49
(g50
g51
NtRp4143
(dp4144
g54
(dp4145
g62
I5
ssg63
g4139
sg56
(lp4146
g726
asbasbasbag49
(g65
g51
NtRp4147
(dp4148
g54
(dp4149
sg63
g2810
sg56
(lp4150
g49
(g70
g51
NtRp4151
(dp4152
g54
(dp4153
g74
g75
ssg63
g4147
sg56
(lp4154
S'session_id'
p4155
asbag49
(g70
g51
NtRp4156
(dp4157
g54
(dp4158
g81
g82
ssg63
g4147
sg56
(lp4159
S':'
asbag49
(g70
g51
NtRp4160
(dp4161
g54
(dp4162
sg63
g4147
sg56
(lp4163
g49
(g50
g51
NtRp4164
(dp4165
g54
(dp4166
g62
I5
ssg63
g4160
sg56
(lp4167
S'22:916ef1c2-7902-46d9-bbc5-80f0afcec41d'
p4168
asbasbasbag49
(g65
g51
NtRp4169
(dp4170
g54
(dp4171
sg63
g2810
sg56
(lp4172
g49
(g70
g51
NtRp4173
(dp4174
g54
(dp4175
g74
g75
ssg63
g4169
sg56
(lp4176
S'session_id_name'
p4177
asbag49
(g70
g51
NtRp4178
(dp4179
g54
(dp4180
g81
g82
ssg63
g4169
sg56
(lp4181
S':'
asbag49
(g70
g51
NtRp4182
(dp4183
g54
(dp4184
sg63
g4169
sg56
(lp4185
g49
(g50
g51
NtRp4186
(dp4187
g54
(dp4188
g62
I5
ssg63
g4182
sg56
(lp4189
S'session_id_init'
p4190
asbasbasbag49
(g65
g51
NtRp4191
(dp4192
g54
(dp4193
sg63
g2810
sg56
(lp4194
g49
(g70
g51
NtRp4195
(dp4196
g54
(dp4197
g74
g75
ssg63
g4191
sg56
(lp4198
S'status'
p4199
asbag49
(g70
g51
NtRp4200
(dp4201
g54
(dp4202
g81
g82
ssg63
g4191
sg56
(lp4203
S':'
asbag49
(g70
g51
NtRp4204
(dp4205
g54
(dp4206
sg63
g4191
sg56
(lp4207
g49
(g50
g51
NtRp4208
(dp4209
g54
(dp4210
g62
I5
ssg63
g4204
sg56
(lp4211
S'200'
p4212
asbasbasbag49
(g65
g51
NtRp4213
(dp4214
g54
(dp4215
sg63
g2810
sg56
(lp4216
g49
(g70
g51
NtRp4217
(dp4218
g54
(dp4219
g74
g75
ssg63
g4213
sg56
(lp4220
S'subtitle'
p4221
asbag49
(g70
g51
NtRp4222
(dp4223
g54
(dp4224
g81
g82
ssg63
g4213
sg56
(lp4225
S':'
asbag49
(g70
g51
NtRp4226
(dp4227
g54
(dp4228
sg63
g4213
sg56
(lp4229
g49
(g50
g51
NtRp4230
(dp4231
g54
(dp4232
g62
I5
ssg63
g4226
sg56
(lp4233
g3346
(S's\r\x00\x00\x00customize me!'
tRp4234
asbasbasbag49
(g65
g51
NtRp4235
(dp4236
g54
(dp4237
sg63
g2810
sg56
(lp4238
g49
(g70
g51
NtRp4239
(dp4240
g54
(dp4241
g74
g75
ssg63
g4235
sg56
(lp4242
S'title'
p4243
asbag49
(g70
g51
NtRp4244
(dp4245
g54
(dp4246
g81
g82
ssg63
g4235
sg56
(lp4247
S':'
asbag49
(g70
g51
NtRp4248
(dp4249
g54
(dp4250
sg63
g4235
sg56
(lp4251
g49
(g50
g51
NtRp4252
(dp4253
g54
(dp4254
g62
I5
ssg63
g4248
sg56
(lp4255
S'Init'
p4256
asbasbasbag49
(g65
g51
NtRp4257
(dp4258
g54
(dp4259
sg63
g2810
sg56
(lp4260
g49
(g70
g51
NtRp4261
(dp4262
g54
(dp4263
g74
g75
ssg63
g4257
sg56
(lp4264
g2086
asbag49
(g70
g51
NtRp4265
(dp4266
g54
(dp4267
g81
g82
ssg63
g4257
sg56
(lp4268
S':'
asbag49
(g70
g51
NtRp4269
(dp4270
g54
(dp4271
sg63
g4257
sg56
(lp4272
g49
(g50
g51
NtRp4273
(dp4274
g54
(dp4275
g62
I5
ssg63
g4269
sg56
(lp4276
g2099
asbasbasbag49
(g65
g51
NtRp4277
(dp4278
g54
(dp4279
sg63
g2810
sg56
(lp4280
g49
(g70
g51
NtRp4281
(dp4282
g54
(dp4283
g74
g75
ssg63
g4277
sg56
(lp4284
S'view'
p4285
asbag49
(g70
g51
NtRp4286
(dp4287
g54
(dp4288
g81
g82
ssg63
g4277
sg56
(lp4289
S':'
asbag49
(g70
g51
NtRp4290
(dp4291
g54
(dp4292
sg63
g4277
sg56
(lp4293
g49
(g50
g51
NtRp4294
(dp4295
g54
(dp4296
g62
I5
ssg63
g4290
sg56
(lp4297
S'default/initdbjack.html'
p4298
asbasbasbasbasbsS'locals'
p4299
(dp4300
S'c'
S"'Dexterite'"
p4301
sS'Item'
p4302
S"{'Decoupeuse a plasma': 'Mettalerrie', 'Machine a Coudre': 'Couture', 'Voiture': 'Conduite'}"
p4303
sS'i'
S'0'
sS'level1'
p4304
S"'Savoir'"
p4305
sS'skills'
p4306
S"{'Physique': {'Sport': {'Capoeira': {'bengale': {}}, 'Karate': {'Nord': {}, 'Sud': {}}}}, 'Savoir': {'Informatique': {'Programmation': {'Methode': {'Merise': {}, 'Uml': {}}, 'Python': {'Django': {}, 'Web2py': {}}}}}, 'Technique': {'Conduite': {}, 'Couture': {}, 'Mettalerrie': {'Forge': {}}}}"
p4307
sS'carac'
p4308
S"['Force', 'Logique', 'Volonte', 'Charisme', 'Apparence', 'Dexterite']"
p4309
sS'row'
p4310
S"'Decoupeuse a plasma'"
p4311
sssS'traceback'
p4312
S'Traceback (most recent call last):\n  File "gluon/restricted.py", line 205, in restricted\n  File "C:\\Users\\Bussiere\\Dropbox\\Projets\\jackpoint\\web2py\\applications\\init\\controllers/default.py", line 617, in <module>\n  File "gluon/globals.py", line 173, in <lambda>\n  File "C:\\Users\\Bussiere\\Dropbox\\Projets\\jackpoint\\web2py\\applications\\init\\controllers/default.py", line 503, in initdbjack\nAttributeError: \'Set\' object has no attribute \'id\'\n'
p4313
s.