(dp1
S'output'
p2
S"<class 'sqlite3.IntegrityError'> column Nom is not unique"
p3
sS'layer'
p4
S'C:\\Users\\Bussiere\\Dropbox\\Projets\\jackpoint\\web2py\\applications\\init\\controllers/default.py'
p5
sS'code'
p6
S'\xef\xbb\xbf# -*- coding: utf-8 -*-\n# this file is released under public domain and you can use without limitations\n\n#########################################################################\n## This is a samples controller\n## - index is the default action of any application\n## - user is required for authentication and authorization\n## - download is for downloading files uploaded in the db (does streaming)\n## - call exposes all registered services (none by default)\n#########################################################################\n# Static analyzer import helpers: (STATIC_IMPORT_MARK)\nif 0: \n    import gluon\n    global cache; cache = gluon.cache.Cache()\n    global LOAD; LOAD  = gluon.compileapp.LoadFactory()\n    import gluon.compileapp.local_import_aux as local_import #@UnusedImport\n    from gluon.contrib.gql import GQLDB #@UnusedImport\n    from gluon.dal import Field #@UnusedImport\n    global request; request = gluon.globals.Request()\n    global response; response = gluon.globals.Response()\n    global session; session = gluon.globals.Session()\n    from gluon.html import A #@UnusedImport\n    from gluon.html import B #@UnusedImport\n    from gluon.html import BEAUTIFY #@UnusedImport\n    from gluon.html import BODY #@UnusedImport\n    from gluon.html import BR #@UnusedImport\n    from gluon.html import CENTER #@UnusedImport\n    from gluon.html import CODE #@UnusedImport\n    from gluon.html import DIV #@UnusedImport\n    from gluon.html import EM #@UnusedImport\n    from gluon.html import EMBED #@UnusedImport\n    from gluon.html import embed64 #@UnusedImport\n    from gluon.html import FIELDSET #@UnusedImport\n    from gluon.html import FORM #@UnusedImport\n    from gluon.html import H1 #@UnusedImport\n    from gluon.html import H2 #@UnusedImport\n    from gluon.html import H3 #@UnusedImport\n    from gluon.html import H4 #@UnusedImport\n    from gluon.html import H5 #@UnusedImport\n    from gluon.html import H6 #@UnusedImport\n    from gluon.html import HEAD #@UnusedImport\n    from gluon.html import HR #@UnusedImport\n    from gluon.html import HTML #@UnusedImport\n    from gluon.html import I #@UnusedImport\n    from gluon.html import IFRAME #@UnusedImport\n    from gluon.html import IMG #@UnusedImport\n    from gluon.html import INPUT #@UnusedImport\n    from gluon.html import LABEL #@UnusedImport\n    from gluon.html import LEGEND #@UnusedImport\n    from gluon.html import LI #@UnusedImport\n    from gluon.html import LINK #@UnusedImport\n    from gluon.html import MARKMIN #@UnusedImport\n    from gluon.html import MENU #@UnusedImport\n    from gluon.html import META #@UnusedImport\n    from gluon.html import OBJECT #@UnusedImport\n    from gluon.html import OL #@UnusedImport\n    from gluon.html import ON #@UnusedImport\n    from gluon.html import OPTGROUP #@UnusedImport\n    from gluon.html import OPTION #@UnusedImport\n    from gluon.html import P #@UnusedImport\n    from gluon.html import PRE #@UnusedImport\n    from gluon.html import STYLE #@UnusedImport\n    from gluon.html import SCRIPT #@UnusedImport\n    from gluon.html import SELECT #@UnusedImport\n    from gluon.html import SPAN #@UnusedImport\n    from gluon.html import TABLE #@UnusedImport\n    from gluon.html import TAG #@UnusedImport\n    from gluon.html import TBODY #@UnusedImport\n    from gluon.html import TD #@UnusedImport\n    from gluon.html import TEXTAREA #@UnusedImport\n    from gluon.html import TFOOT #@UnusedImport\n    from gluon.html import TH  #@UnusedImport\n    from gluon.html import THEAD #@UnusedImport\n    from gluon.html import TITLE #@UnusedImport\n    from gluon.html import TR #@UnusedImport\n    from gluon.html import TT #@UnusedImport\n    from gluon.html import UL #@UnusedImport\n    from gluon.html import URL #@UnusedImport\n    from gluon.html import XHTML #@UnusedImport\n    from gluon.html import XML #@UnusedImport\n    from gluon.html import xmlescape #@UnusedImport\n    from gluon.http import HTTP #@UnusedImport\n    from gluon.http import redirect #@UnusedImport\n    import gluon.languages.translator as T #@UnusedImport\n    from gluon.sql import DAL\n    global db; db = DAL()\n    from gluon.sql import SQLDB #@UnusedImport\n    from gluon.sql import SQLField #@UnusedImport\n    from gluon.sqlhtml import SQLFORM #@UnusedImport\n    from gluon.sqlhtml import SQLTABLE #@UnusedImport\n    from gluon.tools import  Auth\n    global auth; auth = Auth()\n    from gluon.tools import Crud\n    global crud; crud = Crud()\n    from gluon.tools import fetch #@UnusedImport\n    from gluon.tools import geocode #@UnusedImport\n    from gluon.tools import Mail\n    global mail; mail = Mail()\n    from gluon.tools import PluginManager\n    global plugins; plugins = PluginManager()\n    from gluon.tools import prettydate #@UnusedImport\n    from gluon.tools import Recaptcha #@UnusedImport\n    from gluon.tools import Service\n    global service; service = Service()\n    from gluon.validators import CLEANUP  #@UnusedImport\n    from gluon.validators import CRYPT #@UnusedImport\n    from gluon.validators import IS_ALPHANUMERIC #@UnusedImport\n    from gluon.validators import IS_DATE #@UnusedImport\n    from gluon.validators import IS_DATE_IN_RANGE #@UnusedImport\n    from gluon.validators import IS_DATETIME #@UnusedImport\n    from gluon.validators import IS_DATETIME_IN_RANGE #@UnusedImport\n    from gluon.validators import IS_DECIMAL_IN_RANGE #@UnusedImport\n    from gluon.validators import IS_EMAIL #@UnusedImport\n    from gluon.validators import IS_EMPTY_OR #@UnusedImport\n    from gluon.validators import IS_EQUAL_TO #@UnusedImport\n    from gluon.validators import IS_EXPR #@UnusedImport\n    from gluon.validators import IS_FLOAT_IN_RANGE #@UnusedImport\n    from gluon.validators import IS_IMAGE #@UnusedImport\n    from gluon.validators import IS_IN_DB #@UnusedImport\n    from gluon.validators import IS_IN_SET #@UnusedImport\n    from gluon.validators import IS_INT_IN_RANGE #@UnusedImport\n    from gluon.validators import IS_IPV4 #@UnusedImport\n    from gluon.validators import IS_LENGTH #@UnusedImport\n    from gluon.validators import IS_LIST_OF #@UnusedImport\n    from gluon.validators import IS_LOWER #@UnusedImport\n    from gluon.validators import IS_MATCH #@UnusedImport\n    from gluon.validators import IS_NOT_EMPTY #@UnusedImport\n    from gluon.validators import IS_NOT_IN_DB #@UnusedImport\n    from gluon.validators import IS_NULL_OR #@UnusedImport\n    from gluon.validators import IS_SLUG #@UnusedImport\n    from gluon.validators import IS_STRONG  #@UnusedImport\n    from gluon.validators import IS_TIME #@UnusedImport\n    from gluon.validators import IS_UPLOAD_FILENAME #@UnusedImport\n    from gluon.validators import IS_UPPER #@UnusedImpor\n\n\nimport random\nfrom uuid import uuid4\nfrom gluon.storage import Storage\nsettings = Storage()\n\n\ndef logout():\n    return auth.logout()\n\n\ndef index():\n    if auth.is_logged_in() :\n        return "You get the blue pills"\n    else :\n        return dict(form=auth.login(),faq=URL(\'faq\'))\n\n\n\ndef ensurefirstuser(Surnom, email, password):\n  users = db(db.auth_user.email == email).select()\n  if users:\n    user_id = users[0].id\n    created = False\n    print (\'found user_id so created equals %s\') % created\n    if settings.debug_ensure_first_user == True:\n      print (\'found user_id so created equals %s\') % created\n    return (user_id, created)\n\n  else:\n    my_crypt = CRYPT(key=auth.settings.hmac_key)\n    crypt_pass = my_crypt(password)[0]    \n    id_user = db.auth_user.insert(\n                   Surnom=Surnom,\n                   email=email,\n                   username=email,\n                   Items = None,\n                   Skills = None,\n                   password=crypt_pass,\n                                   )\n    db.commit()\n    created = True\n    print (\'creating user_id\')\n    if settings.debug_ensure_first_user == True:\n      print (\'creating user_id\')\n    return (id_user, created)\n\n    \n\n\ndef ensure_users():\n  user_id, created = _ensure_user(\'first\', \'last\', \'email@address.com\', \'UserPassword12345\')\n  if settings.debug_ensure_users == True:\n    print (\'user id %i\') % user_id\n    print (\'created %s\') % created\n\ndef ensure_group_role(role, description):\n  if not auth.id_group(role=role):  \n    auth.add_group(role=role, description=description)  \n    if settings.debug_ensure_group_role == True:\n      print (\'created role %s\') % (role)\n\ndef ensure_membership(group_id, user_id):\n  return_group_id = auth.add_membership(role=role, user_id=user_id)\n  if settings.debug_ensure_membership == True:\n    print (\'made user_id member of %s\') % (role)\n  return return_group_id\n \ndef ensure_permissions(role, description, user_id):\n  ensure_group_role(role, description)\n  return_group_id = ensure_membership(group_id, user_id)\n  if settings.debug_ensure_permissions == True:\n    print return_group_id\n\ndef generate_invitation(number,word=4,num=1,numdigit=5):\n    code = [\n[\'BELCHER\', \'FIX\', \'EEL\', \'PANZERBOY\', \'DESK_JOCKEY\', \'CHILLED\', \'ENFORCER\', \'CHERRY_PICKING\', \'COUNTRY_CLUB\', \'BOMBSHELL\', \'PLUGGED_IN\', \'FINI\', \'LEGIT\', \'JAM\', \'BONED_OUT\', \'BLADE\', \'ROUST\', \'SAMURAI\', \'DISK\', \'INPUT\', \'POST_TIME\', \'SOUNDS\', \'SKIP\', \'FLATBACKER\', \'WILSON\', \'SHOEMAKER\', \'DELTA_SIERRA\', \'HEART\', \'CROAK\', \'HEAD_HUNTER\', \'HOSHO_KAISHA\', "DELTA\'D", "\'FACE_(also,_FACE,_EYE-FACE,_I-FACE)", \'WEEFLE\', \'DIRTGIRL\', \'KEYBOARD\', \'BRAIN_BUCKET\', \'DRYING_OUT\', \'OVERCOOK\', \'PIG\', \'COLD_TEA\', \'RECONFIG\', \'PAD\', \'LIT_UP\', \'WRAITH\', \'HANDLE\', \'L.P.\', \'PINCH\', \'TAKE_A_CAB\', \'SPILL\', \'ACE_KOOL\', \'DO\', \'BIZ\', \'BROWNIE\', \'CANDLE_AND_BLOOD\', \'BLUEBOY\', \'UP_ON_IT\', \'BURN\', \'USER_INTERFACE\', \'HOB\', \'GYRO\', \'STUFFIT\', \'THATCH\', \'ICEBREAKER\', \'ZIP_GUN\', \'PETERMAN\', \'PLAY_DOUGH\', \'TREY-EIGHT\', \'SETTLE\', "CHIPPIN\'_IN", \'MEATBALL\', \'RAFFLES\', \'YUBITSUME\', \'CROAKER\', \'SUCKER_POCKETS\', \'L.A.M.A.\', \'GEEK\', \'BUTTONHEAD\'],\n[\'TAKE\', \'TEKIYA\', \'KURUMAKU\', \'BLOC\', \'GAT\', \'JOHATSU\', \'CRYSTAL\', \'A.I.\', \'ZEROED\', \'OVER_THE_SHOULDER\', \'GRAB_GEE\', \'PANZER\', \'GO_LEO\', \'WASHED\', \'I.C.E.\', \'COPSHOP\', \'COLLATERAL_DAMAGE\', \'BIG_DARK\', \'DOUBLE-DEUCE\', \'ZONEDANCE\', \'MARK\', \'COBBERS\', \'CHIMPIRA\', \'TRIADS\', \'SHANK\', \'FRAG\', \'BREATH_VAC\', "CHARLIE\'S_ANGEL", \'MULE\', \'BURNER\', "PACKIN\'", \'HOTDOGGER\', \'BOSOZOKU\', \'RIPPERDOC\', \'THIRDMAN\', \'MAXIMUM,_MAX\', \'CHOOH2_("CHOO")\', \'CRYO_MAX\', \'HEATER\', \'SHARK\', \'JOYGIRL\', \'GURENTAI\', \'BANDIT\', \'VENICE\', \'MIZU_SHOBAI\', \'PASTA_BOYS\', \'SQUID\', \'CYBERED_UP\', \'DEAD_RECKONING\', \'POPSICLE\', \'FAUST\', \'COLLARBOY\', \'SHOES\', \'TORCH\', \'DELTAJOCK\', \'BUTTERFLY_MAN\', \'WISE_GUYS\', \'BOOST\', \'CAIN\', \'FOUR-FIVE\', \'BREAK-DOWN\', \'POLYMER_ONE-SHOT\', \'FLAG\', \'CALL_GIRL\', \'IN_THE_HUNT\', \'HYDRO\', \'DOCK\', \'FENCE\', \'SHAIKUJIN\', \'GOMI\', \'FILTER\', \'SAINT_NICK\', \'LINEFOOT\', \'CAVALRY\', \'PUKE\', \'CONVERSION\', \'FINGER\', \'CONTRACT\'],\n[\'PLASTIC\', \'CRYSTALJOCKEY,_CRYSTALJOCK\', \'SCREW\', \'TOYSTORE\', \'DREAM_TIME\', \'EXOTIC\', \'WALKABOUT\', \'DIAMOND_SEASON\', \'SARAKIN\', \'CHRISTMAS_BUNDLES\', \'SHADES\', \'BUTTON_MAN\', \'FOXTROT_UNIFORM\', \'KAI\', \'UNDER_THE_PAINT\', \'MINIMUM\', \'TRIPLE_A\', \'PIG_ON_A_WHEEL\', \'BAG_MAN\', \'DIP\', \'PIGEONS\', \'MAN\', \'ADAM_HENRY\', \'HIGH\', \'HEAT\', \'NINJO\', \'KNIFE_FIGHT\', \'MOUTHPIECE\', \'AGRIPLEX\', \'DATA_TERM\', \'LIZ\', \'CHROMER\', \'OUTPUT\', \'N.O.E.\', \'CLOSE_A_CONTRACT\', \'LASSIE\', \'FLATLINE\', \'CHIV\', \'SING\', \'AMMO\', \'RAT\', \'MATCHBOX\', \'PULL_AN_ASH\', \'BORYOKUDAN\', \'SQUEEZE\', \'RONIN\', \'HIT\', \'RAGS\', \'TAKE_OUT\', \'BEAT_THE_RAP\', \'GIRI\', \'RUNNING_THE_LINE\', \'HARNESS\', \'GRAVEROBBER\', \'DROP_A_DIME\', \'BADGE_ON_A_BEAVER\', \'FLETCHER\', \'AMPED-OUT\', \'NEUTRALIZE\', \'PETER\', \'CONFIG\', \'HARDFIRE\', \'B.A.M.A.\', \'CHROMATIC_ROCK\', \'MOLDED\', \'RAD\', \'CREASED\', \'CHATTER_BOX\', \'HAND_CANNON\', \'NIPPERS\', \'SIERRA_HOTEL\', \'HOOK_UP\', \'-JOCKEY,_-JOCK\', \'BUG\', \'BATMAN_AND_ROBIN\', \'BLACK_OPERATIONS\', "D.C.\'S", \'SO_KA\'],\n[\'_A.A.A.\', \'HOME_PLATE\', \'LITEJACK\', \'PINEAPPLE\', \'MAKE\', \'THE_STREET\', \'SITREP\', \'HANGING_PAPER\', \'PAINT_BOYS\', \'WETWORK\', \'NINER\', \'BOOKIE\', \'WHIPLASH\', \'TORPEDO\', \'HEATWAVE\', \'SOLAR_WIND\', \'QUIFF\', \'BIKE\', \'TRAFFIC\', \'WIRE_ROOM\', \'OYABUN\', \'COWBOY\', \'KOBUN\', \'MUDBOY\', \'COP_OUT\', \'SOKAIYA\', "\'DORPH", \'JOYBOY\', \'DIRTY\', \'BOAT\', \'DROP\', \'GRAV_or_GEE\', \'APOGEE\', \'BOOSTER\', \'BOOK\', \'FRY\', \'PULLING_TEETH\', \'ONE_LARGE\', \'COMBAT_DRUGS\', \'THRASH\', \'DO_A_GHOST\', \'DELTA\', \'RIN_TIN_TIN\', \'DROP_OUT\', \'GUMI\', \'ROCKERBOY/GIRL\', \'BULLET\', \'DEB\', \'THREADING_THE_NEEDLE\', \'MOTOR\', \'BLEEDER\', \'ARC\', \'BOPPER\', \'WASTE\', \'_DEMUKAI\', \'BREAK\', \'HOLDING_DOWN\', \'FEDS\', \'GAP\', \'RABBI\', \'BAKUTO\', \'CHOMBATTA_(CHOOMBA)\', \'BIG_HATS\', \'MR._JOHNSON\', \'EXEC\', \'BULL\', \'BULLSEYE\', \'POSERGANG\', \'CHAOL\', \'GEISHA\', \'SLAMMIT_ON\', \'POP_CAPS\', \'HARD_TIME\', \'BENJI\', \'MAKING_BANK\', \'PAPERHANGER\', \'NETRUN\', \'BOGEY\'],\n]     \n    i = 0\n    invits = []\n    print number\n    while (i < number):\n        invit = ""\n        j = 0\n        while (j < word):\n            debut = random.randint(0,len(code)-1)\n            codepick = code[debut][random.randint(0,len(code[debut])-1)]\n            j += 1\n            invit += codepick+"-"\n        j = 0\n        while (j < num):\n            invit += randomdig(numdigit)+"-"\n            j += 1\n        i+= 1\n        invit = invit[:-1]\n        if invit not in invits :\n            invits.append(invit[:-1])\n            print invit\n    return invits\n        \ndef randomdig(number):\n    max = "9"*number\n    max = int(max)\n    rand =  random.randint(0,max)\n    rand = str(rand)\n    rand = "0"*(number-len(rand))+rand\n    return rand\n\n@auth.requires_login()\ndef inscriptioninvit():\n    user = auth.environment.session.auth.user\n    caracs = db().select(db.Carac.ALL)\n    form=TABLE(\n        TR(\n            TD(\n                TABLE(\n        TR(\n\n                TD(\n                    LABEL(\'Username : \')\n                    ),\n                TD( \n                    INPUT(_name=\'Username\')\n                    )\n            ),\n    TR(\n        TD(\n            LABEL(\'Email: \')\n            ), \n        TD(\n            INPUT(_name=\'email\',_value=user.email)\n            )\n        ),\n             \n    TR(\n        TD(\n            LABEL(\'Password : \')\n            ), \n        TD(\n            INPUT(_name=\'password1\',_type=\'password\')\n            )\n        ),\n\n     TR(\n        TD(\n            LABEL(\'Password verification : \')\n            ), \n        TD(\n            INPUT(_name=\'password2\',_type=\'password\')\n            )\n        ),\n    \n    \n    )\n                )\n            )\n        )\n            \n\n\n    \n    form.append(TR(LABEL(\'1 = mauvais, 2 = bof, 3 = Moyen,4 = Bon , 5 = Tres Bon\')))\n    for carac in caracs :\n        form.append(\n            TR(\n\n                TD(LABEL(\'%s : \'%carac.Nom)),\n                TD(INPUT(_type=\'radio\',_name=\'%s\'%carac.Nom,_value=\'1\',value=\'1\'),"1 "),\n                TD(INPUT(_type=\'radio\',_name=\'%s\'%carac.Nom,_value=\'2\'),"2 "),\n                TD(INPUT(_type=\'radio\',_name=\'%s\'%carac.Nom,_value=\'3\'),"3 "),\n                TD(INPUT(_type=\'radio\',_name=\'%s\'%carac.Nom,_value=\'4\'),"4 "),\n                TD(INPUT(_type=\'radio\',_name=\'%s\'%carac.Nom,_value=\'5\'),"5        "),\n\n                TD(LABEL(\'Private: \')),\n                TD(INPUT(_type=\'radio\',_name=\'%s_private\'%carac.Nom,_value=\'1\'),"oui "),\n                TD(INPUT(_type=\'radio\',_name=\'%s_private\'%carac.Nom,_value=\'0\',value=\'0\'),"non ")\n                )\n        )\n \n    # form.insert(-1, TR(LABEL(\'titi : \'),INPUT(_name=\'titi\',_value=\'titi\'))\n    # form.insert(-1, TR(LABEL(\'toto : \'),INPUT(_name=\'toto\',_value=\'toto\'))\n\n    form.append(TR(LABEL(\'0 = Inconnu, 1 = mauvais, 2 = bof, 3 = Moyen,4 = Bon , 5 = Moyen\')))\n    \n    #TODO a revoir algo crade :\n    skills1 = db(db.SkillLevel.Level==0).select()\n    skills2 = db(db.SkillLevel.Level==1).select()\n    skills3 = db(db.SkillLevel.Level==2).select()\n    skills4 = db(db.SkillLevel.Level==3).select()\n    skills5 = db(db.SkillLevel.Level==4).select()\n    Listeskill = UL()\n    for skill1 in skills1 :\n        Nom1 = db.Skill(skill1.Skill.id).Nom\n        retour1 = skillstab(Nom1)\n        for skill2 in skills2 :\n            if (skill2.Parent.id == skill1.Skill.id) :\n                Nom2 = db.Skill(skill2.Skill.id).Nom\n                retour2 = skillstab(Nom2)\n                for skill3 in skills3 :\n                    if (skill3.Parent.id == skill2.Skill.id) :\n                        Nom3 = db.Skill(skill3.Skill.id).Nom\n                        retour3 = skillstab(Nom3)\n                        for skill4 in skills4 :\n                            if (skill4.Parent.id == skill3.Skill.id) :\n                                Nom4 = db.Skill(skill4.Skill.id).Nom\n                                retour4 = skillstab(Nom4)\n                                for skill5 in skills5 :\n                                    if (skill5.Parent.id == skill4.Skill.id) :\n                                        Nom5 = db.Skill(skill5.Skill.id).Nom\n                                        retour5 = skillstab(Nom5)\n                                        retour4.append(UL(retour5))\n                                retour3.append(UL(retour4))\n                        retour2.append(UL(retour3))\n                retour1.append(UL(retour2))\n        Listeskill.append(retour1)\n       \n\n\n\n    form.append(TR(Listeskill))\n\n    Items = db(db.Item.ALL)\n    for item in Items :\n        form.append(\n            TR(\n            TD(item.Nom),\n            TD(item.Skill),\n            TD(INPUT(_type=\'checkbox\',_name=\'%s\'%item.Nom)), \n            TD(LABEL(\'Private: \')),\n                TD(INPUT(_type=\'radio\',_name=\'%s_private\'%item.Nom,_value=\'1\'),"oui "),\n                TD(INPUT(_type=\'radio\',_name=\'%s_private\'%item.Nom,_value=\'0\',value=\'0\'),"non ")\n            )\n        )\n\n    form.append(TR(INPUT(_type=\'submit\')))\n    form = FORM(TABLE(form)) \n    return dict(form=form)\n\n\ndef skillstab(Nom) :\n    tab =  LI( Nom," : ",TABLE(\n                    TR(\n                TD(INPUT(_type=\'radio\',_name=\'%s\'%Nom,_value=\'0\',value=\'0\'),"0 "),\n                TD(INPUT(_type=\'radio\',_name=\'%s\'%Nom,_value=\'1\'),"1 "),\n                TD(INPUT(_type=\'radio\',_name=\'%s\'%Nom,_value=\'2\'),"2 "),\n                TD(INPUT(_type=\'radio\',_name=\'%s\'%Nom,_value=\'3\'),"3 "),\n                TD(INPUT(_type=\'radio\',_name=\'%s\'%Nom,_value=\'4\'),"4 "),\n                TD(INPUT(_type=\'radio\',_name=\'%s\'%Nom,_value=\'5\'),"5        "),\n\n                TD(LABEL(\'Private: \')),\n                TD(INPUT(_type=\'radio\',_name=\'%s_private\'%Nom,_value=\'1\'),"oui "),\n                TD(INPUT(_type=\'radio\',_name=\'%s_private\'%Nom,_value=\'0\',value=\'0\'),"non ")\n                )\n\n                )\n    )\n    return tab\n\ndef userstuff():\n    return dict(rows1 = db().select(db.Carac.ALL),rows2 = db().select(db.SkillLevel.ALL),rows3 = db().select(db.Item.ALL) )\n\ndef initdbjack():\n    if db(db.auth_user.username == "bussiere").count() == 0:\n            password= "titi" \n            my_crypt = CRYPT(key=auth.settings.hmac_key)\n            crypt_pass = my_crypt(password)[0]  \n            buss = db.auth_user.insert(\n               email= "bussiere2@gmail.com",\n               username="bussiere",\n               password=crypt_pass,\n            )\n            jack = auth.add_group(\'Jack\', \'Jack master of none\')\n            auth.add_membership(jack, buss)\n            db.commit()  \n    db.commit() \n    carac = ["Force","Logique","Volonte","Charisme","Apparence","Dexterite"]\n    skills = { \n    "Physique":{\n                "Sport":{\n                         "Capoeira" :{ \n                                      "bengale":{}\n                                      },\n                        "Karate":{\n                                  "Nord" : {},\n                                  "Sud" : {},\n                                 },\n                         },\n            },\n\n\n    "Technique":{\n                "Mettalerrie" : {\n                                 "Forge" : {},\n                                  \n                                  },\n                 "Couture" : {\n                                  \n                                  },\n                "Conduite" : {\n                                  \n                                  },\n                 \n    },\n\n    "Savoir":{\n              "Informatique" : {\n                                   "Programmation" :{\n                                                     "Python" :{\n                                                                 "Django" : {} ,\n                                                                  "Web2py" : {}\n                                                                },\n                                                     "Methode" :{\n                                                                 "Uml":{},\n                                                                  "Merise": {}\n                                                                },\n                                                     },\n                                   },\n\n            },\n    }\n\n    for c in carac :\n        if db(db.Carac.Nom == c).count() == 0:\n            db.Carac.insert(Nom=c)\n\n    #TODO a revoir tout pourris on peut rien rajouter de nouveau\n    for level1 in skills.keys() :\n        i = 0\n        if db(db.Skill.Nom == level1).count() == 0:\n            Skill1 = db.SkillLevel.insert(Skill = (db.Skill.insert(Nom=level1)),Level = i)\n\n            for level2 in skills[level1].keys() :\n                i = 1\n                if db(db.Skill.Nom == level2).count() == 0:\n                    #Todo\n                    # c\'est crade a revoir :\n                    for row in db((db.Skill.Nom==level1) & (db.Skill.id)).select() :\n                        parent = row.id\n                    #fin du truc a revoir\n                    Skill2 = db.SkillLevel.insert(Skill = (db.Skill.insert(Nom=level2)),Level = i,Parent = parent )\n                    for level3 in skills[level1][level2].keys() :\n                        i = 2\n                        if db(db.Skill.Nom == level3).count() == 0:\n                            #Todo\n                            # c\'est crade a revoir :\n                            for row in db((db.Skill.Nom==level2) & (db.Skill.id)).select() :\n                                parent = row.id\n                            #fin du truc a revoir\n                            Skill3 = db.SkillLevel.insert(Skill = (db.Skill.insert(Nom=level3)),Level = i,Parent = parent)\n                            for level4 in skills[level1][level2][level3].keys() :\n                                i = 3\n                                if db(db.Skill.Nom == level4).count() == 0:\n                                #Todo\n                                # c\'est crade a revoir :\n                                    for row in db((db.Skill.Nom==level3) & (db.Skill.id)).select() :\n                                        parent = row.id\n                                #fin du truc a revoir\n                                    Skill3 = db.SkillLevel.insert(Skill = (db.Skill.insert(Nom=level4)),Level = i,Parent = parent)\n                                    for level5 in skills[level1][level2][level3][level4].keys() :\n                                        i = 4\n                                        if db(db.Skill.Nom == level5).count() == 0:\n                                        #Todo\n                                        # c\'est crade a revoir :\n                                            for row in db((db.Skill.Nom==level4) & (db.Skill.id)).select() :\n                                                parent = row.id\n                                        #fin du truc a revoir\n                                            Skill4 = db.SkillLevel.insert(Skill = (db.Skill.insert(Nom=level5)),Level = i,Parent = parent)\n\n\n\n    Item = {\n    "Machine a Coudre" : "Couture",\n    "Voiture" : "Conduite",\n    "Decoupeuse a plasma" : "Mettalerrie",\n    }\n\n\n    for row in Item.keys() :\n        if db(db.Item.Nom == Item[row]).count() == 0:\n            db.Item.insert(Nom=row,Skill=db.Skill(Nom=Item[row]))                                       \n    db.commit() \n\n\n\n\n\n\n\ndef liste_invitations():\n    return dict(rows = db().select(db.Invitation.ALL))\n\ndef liste_user():\n    return dict(rows = db().select(db.auth_user.ALL))\n\n#@auth.requires_membership(\'manager\')\ndef generate_invitationpage():\n   form=FORM("Nombre d\'invit a generer:", INPUT(_name=\'nmbreinvit\'), INPUT(_type=\'submit\'))\n   if form.process().accepted and form.vars.nmbreinvit != None :\n       i = form.vars.nmbreinvit\n       invitsgenere = generate_invitation(int(i))\n       for invit in invitsgenere :\n           db.Invitation.insert(Code=invit)\n           db.commit()\n       session.flash = \'invitation inserted\'\n       form=FORM("Nombre d\'invit a generer:", INPUT(_name=\'nmbreinvit\'), INPUT(_type=\'submit\'))\n       #db.Invitation.insert(Code="Toto-5542")\n       db.commit()\n   return dict(form=form)\n\ndef verif_invitation(form):\n    print form.vars.invitation\n    if db.Invitation(db.Invitation.Code==form.vars.invitation) == None :\n        form.errors.invitation = \'code invitation incorrect\'\n        print "mauvais"\n    else :\n        print "bon"\n\ndef invitation():\n    form=FORM("Code Invitation :", INPUT(_name=\'invitation\'),"<Email :",INPUT(_name=\'email\'),  INPUT(_type=\'submit\'))\n    if form.process(onvalidation=verif_invitation).accepted and  form.vars.invitation != None  :\n        email = form.vars.email\n        if db(db.auth_user.email == email).count() == 0:\n            password= form.vars.invitation  \n            my_crypt = CRYPT(key=auth.settings.hmac_key)\n            crypt_pass = my_crypt(password)[0]  \n            db.auth_user.insert(\n               email= email,\n               username="John_Doe",\n               password=crypt_pass,\n            )\n            db.commit()  \n            user = db(db.auth_user.email==email).select().first()\n            auth.user = Storage(auth.settings.table_user._filter_fields(user, id=True))\n            auth.environment.session.auth = Storage(user=user, last_visit=request.now,\n                                                expiration=auth.settings.expiration)\n            redirect(URL(\'inscriptioninvit\'))\n    return dict(form=form)\n\ndef faq():\n\n    return dict()\ndef user():\n    """\n    exposes:\n    http://..../[app]/default/user/login\n    http://..../[app]/default/user/logout\n    http://..../[app]/default/user/register\n    http://..../[app]/default/user/profile\n    http://..../[app]/default/user/retrieve_password\n    http://..../[app]/default/user/change_password\n    use @auth.requires_login()\n        @auth.requires_membership(\'group name\')\n        @auth.requires_permission(\'read\',\'table name\',record_id)\n    to decorate functions that need access control\n    """\n    return dict(form=auth())\n\n\ndef download():\n    """\n    allows downloading of uploaded files\n    http://..../[app]/default/download/[filename]\n    """\n    return response.download(request,db)\n\n\ndef call():\n    """\n    exposes services. for example:\n    http://..../[app]/default/call/jsonrpc\n    decorate with @services.jsonrpc the functions to expose\n    supports xml, json, xmlrpc, jsonrpc, amfrpc, rss, csv\n    """\n    return service()\n\n\n@auth.requires_signature()\ndef data():\n    """\n    http://..../[app]/default/data/tables\n    http://..../[app]/default/data/create/[table]\n    http://..../[app]/default/data/read/[table]/[id]\n    http://..../[app]/default/data/update/[table]/[id]\n    http://..../[app]/default/data/delete/[table]/[id]\n    http://..../[app]/default/data/select/[table]\n    http://..../[app]/default/data/search/[table]\n    but URLs must be signed, i.e. linked with\n      A(\'table\',_href=URL(\'data/tables\',user_signature=True))\n    or with the signed load operator\n      LOAD(\'default\',\'data.load\',args=\'tables\',ajax=True,user_signature=True)\n    """\n    return dict(form=crud())\n\nresponse._vars=response._caller(initdbjack)\n'
p7
sS'snapshot'
p8
(dp9
S'exception'
p10
(dp11
S'__hash__'
p12
S"<method-wrapper '__hash__' of IntegrityError object at 0x047A31C0>"
p13
sS'__module__'
p14
S"'sqlite3'"
p15
sS'__reduce_ex__'
p16
S'<built-in method __reduce_ex__ of IntegrityError object at 0x047A31C0>'
p17
sS'__getslice__'
p18
S"<method-wrapper '__getslice__' of IntegrityError object at 0x047A31C0>"
p19
sS'__getitem__'
p20
S"<method-wrapper '__getitem__' of IntegrityError object at 0x047A31C0>"
p21
sS'__setstate__'
p22
S'<built-in method __setstate__ of IntegrityError object at 0x047A31C0>'
p23
sS'__reduce__'
p24
S'<built-in method __reduce__ of IntegrityError object at 0x047A31C0>'
p25
sS'__str__'
p26
S"<method-wrapper '__str__' of IntegrityError object at 0x047A31C0>"
p27
sS'args'
p28
S"('column Nom is not unique',)"
p29
sS'__getattribute__'
p30
S"<method-wrapper '__getattribute__' of IntegrityError object at 0x047A31C0>"
p31
sS'__class__'
p32
S"<class 'sqlite3.IntegrityError'>"
p33
sS'__delattr__'
p34
S"<method-wrapper '__delattr__' of IntegrityError object at 0x047A31C0>"
p35
sS'__repr__'
p36
S"<method-wrapper '__repr__' of IntegrityError object at 0x047A31C0>"
p37
sS'__setattr__'
p38
S"<method-wrapper '__setattr__' of IntegrityError object at 0x047A31C0>"
p39
sS'__dict__'
p40
S'{}'
p41
sS'__weakref__'
p42
S'None'
p43
sS'__doc__'
p44
S'None'
p45
sS'__init__'
p46
S"<method-wrapper '__init__' of IntegrityError object at 0x047A31C0>"
p47
sS'__new__'
p48
S'<built-in method __new__ of type object at 0x1E1CCCB0>'
p49
ssS'evalue'
p50
S'column Nom is not unique'
p51
sS'request'
p52
ccopy_reg
_reconstructor
p53
(cgluon.html
BEAUTIFY
p54
c__builtin__
object
p55
NtRp56
(dp57
S'attributes'
p58
(dp59
sS'components'
p60
(lp61
g53
(cgluon.html
TABLE
p62
g55
NtRp63
(dp64
g58
(dp65
S'level'
p66
I5
ssS'parent'
p67
Nsg60
(lp68
g53
(cgluon.html
TR
p69
g55
NtRp70
(dp71
g58
(dp72
sg67
g63
sg60
(lp73
g53
(cgluon.html
TD
p74
g55
NtRp75
(dp76
g58
(dp77
S'_style'
p78
S'font-weight:bold;vertical-align:top'
p79
ssg67
g70
sg60
(lp80
S'ajax'
p81
asbag53
(g74
g55
NtRp82
(dp83
g58
(dp84
S'_valign'
p85
S'top'
p86
ssg67
g70
sg60
(lp87
S':'
asbag53
(g74
g55
NtRp88
(dp89
g58
(dp90
sg67
g70
sg60
(lp91
g53
(g54
g55
NtRp92
(dp93
g58
(dp94
g66
I5
ssg67
g88
sg60
(lp95
S'False'
p96
asbasbasbag53
(g69
g55
NtRp97
(dp98
g58
(dp99
sg67
g63
sg60
(lp100
g53
(g74
g55
NtRp101
(dp102
g58
(dp103
g78
g79
ssg67
g97
sg60
(lp104
S'application'
p105
asbag53
(g74
g55
NtRp106
(dp107
g58
(dp108
g85
g86
ssg67
g97
sg60
(lp109
S':'
asbag53
(g74
g55
NtRp110
(dp111
g58
(dp112
sg67
g97
sg60
(lp113
g53
(g54
g55
NtRp114
(dp115
g58
(dp116
g66
I5
ssg67
g110
sg60
(lp117
S'init'
p118
asbasbasbag53
(g69
g55
NtRp119
(dp120
g58
(dp121
sg67
g63
sg60
(lp122
g53
(g74
g55
NtRp123
(dp124
g58
(dp125
g78
g79
ssg67
g119
sg60
(lp126
g28
asbag53
(g74
g55
NtRp127
(dp128
g58
(dp129
g85
g86
ssg67
g119
sg60
(lp130
S':'
asbag53
(g74
g55
NtRp131
(dp132
g58
(dp133
sg67
g119
sg60
(lp134
g53
(g54
g55
NtRp135
(dp136
g58
(dp137
g66
I5
ssg67
g131
sg60
(lp138
g53
(g62
g55
NtRp139
(dp140
g58
(dp141
g66
I4
ssg67
Nsg60
(lp142
sbasbasbasbag53
(g69
g55
NtRp143
(dp144
g58
(dp145
sg67
g63
sg60
(lp146
g53
(g74
g55
NtRp147
(dp148
g58
(dp149
g78
g79
ssg67
g143
sg60
(lp150
S'body'
p151
asbag53
(g74
g55
NtRp152
(dp153
g58
(dp154
g85
g86
ssg67
g143
sg60
(lp155
S':'
asbag53
(g74
g55
NtRp156
(dp157
g58
(dp158
sg67
g143
sg60
(lp159
g53
(g54
g55
NtRp160
(dp161
g58
(dp162
g66
I5
ssg67
g156
sg60
(lp163
S'<cStringIO.StringO object at 0x08487340>'
p164
asbasbasbag53
(g69
g55
NtRp165
(dp166
g58
(dp167
sg67
g63
sg60
(lp168
g53
(g74
g55
NtRp169
(dp170
g58
(dp171
g78
g79
ssg67
g165
sg60
(lp172
S'client'
p173
asbag53
(g74
g55
NtRp174
(dp175
g58
(dp176
g85
g86
ssg67
g165
sg60
(lp177
S':'
asbag53
(g74
g55
NtRp178
(dp179
g58
(dp180
sg67
g165
sg60
(lp181
g53
(g54
g55
NtRp182
(dp183
g58
(dp184
g66
I5
ssg67
g178
sg60
(lp185
S'127.0.0.1'
p186
asbasbasbag53
(g69
g55
NtRp187
(dp188
g58
(dp189
sg67
g63
sg60
(lp190
g53
(g74
g55
NtRp191
(dp192
g58
(dp193
g78
g79
ssg67
g187
sg60
(lp194
S'controller'
p195
asbag53
(g74
g55
NtRp196
(dp197
g58
(dp198
g85
g86
ssg67
g187
sg60
(lp199
S':'
asbag53
(g74
g55
NtRp200
(dp201
g58
(dp202
sg67
g187
sg60
(lp203
g53
(g54
g55
NtRp204
(dp205
g58
(dp206
g66
I5
ssg67
g200
sg60
(lp207
S'default'
p208
asbasbasbag53
(g69
g55
NtRp209
(dp210
g58
(dp211
sg67
g63
sg60
(lp212
g53
(g74
g55
NtRp213
(dp214
g58
(dp215
g78
g79
ssg67
g209
sg60
(lp216
S'cookies'
p217
asbag53
(g74
g55
NtRp218
(dp219
g58
(dp220
g85
g86
ssg67
g209
sg60
(lp221
S':'
asbag53
(g74
g55
NtRp222
(dp223
g58
(dp224
sg67
g209
sg60
(lp225
g53
(g54
g55
NtRp226
(dp227
g58
(dp228
g66
I5
ssg67
g222
sg60
(lp229
g53
(g62
g55
NtRp230
(dp231
g58
(dp232
g66
I4
ssg67
Nsg60
(lp233
g53
(g69
g55
NtRp234
(dp235
g58
(dp236
sg67
g230
sg60
(lp237
g53
(g74
g55
NtRp238
(dp239
g58
(dp240
g78
g79
ssg67
g234
sg60
(lp241
S'session_id_admin'
p242
asbag53
(g74
g55
NtRp243
(dp244
g58
(dp245
g85
g86
ssg67
g234
sg60
(lp246
S':'
asbag53
(g74
g55
NtRp247
(dp248
g58
(dp249
sg67
g234
sg60
(lp250
g53
(g54
g55
NtRp251
(dp252
g58
(dp253
g66
I4
ssg67
g247
sg60
(lp254
g53
(g62
g55
NtRp255
(dp256
g58
(dp257
g66
I3
ssg67
Nsg60
(lp258
g53
(g69
g55
NtRp259
(dp260
g58
(dp261
sg67
g255
sg60
(lp262
g53
(g74
g55
NtRp263
(dp264
g58
(dp265
g78
g79
ssg67
g259
sg60
(lp266
S'comment'
p267
asbag53
(g74
g55
NtRp268
(dp269
g58
(dp270
g85
g86
ssg67
g259
sg60
(lp271
S':'
asbag53
(g74
g55
NtRp272
(dp273
g58
(dp274
sg67
g259
sg60
(lp275
g53
(g54
g55
NtRp276
(dp277
g58
(dp278
g66
I3
ssg67
g272
sg60
(lp279
S''
asbasbasbag53
(g69
g55
NtRp280
(dp281
g58
(dp282
sg67
g255
sg60
(lp283
g53
(g74
g55
NtRp284
(dp285
g58
(dp286
g78
g79
ssg67
g280
sg60
(lp287
S'domain'
p288
asbag53
(g74
g55
NtRp289
(dp290
g58
(dp291
g85
g86
ssg67
g280
sg60
(lp292
S':'
asbag53
(g74
g55
NtRp293
(dp294
g58
(dp295
sg67
g280
sg60
(lp296
g53
(g54
g55
NtRp297
(dp298
g58
(dp299
g66
I3
ssg67
g293
sg60
(lp300
S''
asbasbasbag53
(g69
g55
NtRp301
(dp302
g58
(dp303
sg67
g255
sg60
(lp304
g53
(g74
g55
NtRp305
(dp306
g58
(dp307
g78
g79
ssg67
g301
sg60
(lp308
S'expires'
p309
asbag53
(g74
g55
NtRp310
(dp311
g58
(dp312
g85
g86
ssg67
g301
sg60
(lp313
S':'
asbag53
(g74
g55
NtRp314
(dp315
g58
(dp316
sg67
g301
sg60
(lp317
g53
(g54
g55
NtRp318
(dp319
g58
(dp320
g66
I3
ssg67
g314
sg60
(lp321
S''
asbasbasbag53
(g69
g55
NtRp322
(dp323
g58
(dp324
sg67
g255
sg60
(lp325
g53
(g74
g55
NtRp326
(dp327
g58
(dp328
g78
g79
ssg67
g322
sg60
(lp329
S'max-age'
p330
asbag53
(g74
g55
NtRp331
(dp332
g58
(dp333
g85
g86
ssg67
g322
sg60
(lp334
S':'
asbag53
(g74
g55
NtRp335
(dp336
g58
(dp337
sg67
g322
sg60
(lp338
g53
(g54
g55
NtRp339
(dp340
g58
(dp341
g66
I3
ssg67
g335
sg60
(lp342
S''
asbasbasbag53
(g69
g55
NtRp343
(dp344
g58
(dp345
sg67
g255
sg60
(lp346
g53
(g74
g55
NtRp347
(dp348
g58
(dp349
g78
g79
ssg67
g343
sg60
(lp350
S'path'
p351
asbag53
(g74
g55
NtRp352
(dp353
g58
(dp354
g85
g86
ssg67
g343
sg60
(lp355
S':'
asbag53
(g74
g55
NtRp356
(dp357
g58
(dp358
sg67
g343
sg60
(lp359
g53
(g54
g55
NtRp360
(dp361
g58
(dp362
g66
I3
ssg67
g356
sg60
(lp363
S''
asbasbasbag53
(g69
g55
NtRp364
(dp365
g58
(dp366
sg67
g255
sg60
(lp367
g53
(g74
g55
NtRp368
(dp369
g58
(dp370
g78
g79
ssg67
g364
sg60
(lp371
S'secure'
p372
asbag53
(g74
g55
NtRp373
(dp374
g58
(dp375
g85
g86
ssg67
g364
sg60
(lp376
S':'
asbag53
(g74
g55
NtRp377
(dp378
g58
(dp379
sg67
g364
sg60
(lp380
g53
(g54
g55
NtRp381
(dp382
g58
(dp383
g66
I3
ssg67
g377
sg60
(lp384
S''
asbasbasbag53
(g69
g55
NtRp385
(dp386
g58
(dp387
sg67
g255
sg60
(lp388
g53
(g74
g55
NtRp389
(dp390
g58
(dp391
g78
g79
ssg67
g385
sg60
(lp392
S'version'
p393
asbag53
(g74
g55
NtRp394
(dp395
g58
(dp396
g85
g86
ssg67
g385
sg60
(lp397
S':'
asbag53
(g74
g55
NtRp398
(dp399
g58
(dp400
sg67
g385
sg60
(lp401
g53
(g54
g55
NtRp402
(dp403
g58
(dp404
g66
I3
ssg67
g398
sg60
(lp405
S''
asbasbasbasbasbasbasbag53
(g69
g55
NtRp406
(dp407
g58
(dp408
sg67
g230
sg60
(lp409
g53
(g74
g55
NtRp410
(dp411
g58
(dp412
g78
g79
ssg67
g406
sg60
(lp413
S'session_id_init'
p414
asbag53
(g74
g55
NtRp415
(dp416
g58
(dp417
g85
g86
ssg67
g406
sg60
(lp418
S':'
asbag53
(g74
g55
NtRp419
(dp420
g58
(dp421
sg67
g406
sg60
(lp422
g53
(g54
g55
NtRp423
(dp424
g58
(dp425
g66
I4
ssg67
g419
sg60
(lp426
g53
(g62
g55
NtRp427
(dp428
g58
(dp429
g66
I3
ssg67
Nsg60
(lp430
g53
(g69
g55
NtRp431
(dp432
g58
(dp433
sg67
g427
sg60
(lp434
g53
(g74
g55
NtRp435
(dp436
g58
(dp437
g78
g79
ssg67
g431
sg60
(lp438
g267
asbag53
(g74
g55
NtRp439
(dp440
g58
(dp441
g85
g86
ssg67
g431
sg60
(lp442
S':'
asbag53
(g74
g55
NtRp443
(dp444
g58
(dp445
sg67
g431
sg60
(lp446
g53
(g54
g55
NtRp447
(dp448
g58
(dp449
g66
I3
ssg67
g443
sg60
(lp450
S''
asbasbasbag53
(g69
g55
NtRp451
(dp452
g58
(dp453
sg67
g427
sg60
(lp454
g53
(g74
g55
NtRp455
(dp456
g58
(dp457
g78
g79
ssg67
g451
sg60
(lp458
g288
asbag53
(g74
g55
NtRp459
(dp460
g58
(dp461
g85
g86
ssg67
g451
sg60
(lp462
S':'
asbag53
(g74
g55
NtRp463
(dp464
g58
(dp465
sg67
g451
sg60
(lp466
g53
(g54
g55
NtRp467
(dp468
g58
(dp469
g66
I3
ssg67
g463
sg60
(lp470
S''
asbasbasbag53
(g69
g55
NtRp471
(dp472
g58
(dp473
sg67
g427
sg60
(lp474
g53
(g74
g55
NtRp475
(dp476
g58
(dp477
g78
g79
ssg67
g471
sg60
(lp478
g309
asbag53
(g74
g55
NtRp479
(dp480
g58
(dp481
g85
g86
ssg67
g471
sg60
(lp482
S':'
asbag53
(g74
g55
NtRp483
(dp484
g58
(dp485
sg67
g471
sg60
(lp486
g53
(g54
g55
NtRp487
(dp488
g58
(dp489
g66
I3
ssg67
g483
sg60
(lp490
S''
asbasbasbag53
(g69
g55
NtRp491
(dp492
g58
(dp493
sg67
g427
sg60
(lp494
g53
(g74
g55
NtRp495
(dp496
g58
(dp497
g78
g79
ssg67
g491
sg60
(lp498
g330
asbag53
(g74
g55
NtRp499
(dp500
g58
(dp501
g85
g86
ssg67
g491
sg60
(lp502
S':'
asbag53
(g74
g55
NtRp503
(dp504
g58
(dp505
sg67
g491
sg60
(lp506
g53
(g54
g55
NtRp507
(dp508
g58
(dp509
g66
I3
ssg67
g503
sg60
(lp510
S''
asbasbasbag53
(g69
g55
NtRp511
(dp512
g58
(dp513
sg67
g427
sg60
(lp514
g53
(g74
g55
NtRp515
(dp516
g58
(dp517
g78
g79
ssg67
g511
sg60
(lp518
g351
asbag53
(g74
g55
NtRp519
(dp520
g58
(dp521
g85
g86
ssg67
g511
sg60
(lp522
S':'
asbag53
(g74
g55
NtRp523
(dp524
g58
(dp525
sg67
g511
sg60
(lp526
g53
(g54
g55
NtRp527
(dp528
g58
(dp529
g66
I3
ssg67
g523
sg60
(lp530
S''
asbasbasbag53
(g69
g55
NtRp531
(dp532
g58
(dp533
sg67
g427
sg60
(lp534
g53
(g74
g55
NtRp535
(dp536
g58
(dp537
g78
g79
ssg67
g531
sg60
(lp538
g372
asbag53
(g74
g55
NtRp539
(dp540
g58
(dp541
g85
g86
ssg67
g531
sg60
(lp542
S':'
asbag53
(g74
g55
NtRp543
(dp544
g58
(dp545
sg67
g531
sg60
(lp546
g53
(g54
g55
NtRp547
(dp548
g58
(dp549
g66
I3
ssg67
g543
sg60
(lp550
S''
asbasbasbag53
(g69
g55
NtRp551
(dp552
g58
(dp553
sg67
g427
sg60
(lp554
g53
(g74
g55
NtRp555
(dp556
g58
(dp557
g78
g79
ssg67
g551
sg60
(lp558
g393
asbag53
(g74
g55
NtRp559
(dp560
g58
(dp561
g85
g86
ssg67
g551
sg60
(lp562
S':'
asbag53
(g74
g55
NtRp563
(dp564
g58
(dp565
sg67
g551
sg60
(lp566
g53
(g54
g55
NtRp567
(dp568
g58
(dp569
g66
I3
ssg67
g563
sg60
(lp570
S''
asbasbasbasbasbasbasbasbasbasbasbag53
(g69
g55
NtRp571
(dp572
g58
(dp573
sg67
g63
sg60
(lp574
g53
(g74
g55
NtRp575
(dp576
g58
(dp577
g78
g79
ssg67
g571
sg60
(lp578
S'env'
p579
asbag53
(g74
g55
NtRp580
(dp581
g58
(dp582
g85
g86
ssg67
g571
sg60
(lp583
S':'
asbag53
(g74
g55
NtRp584
(dp585
g58
(dp586
sg67
g571
sg60
(lp587
g53
(g54
g55
NtRp588
(dp589
g58
(dp590
g66
I5
ssg67
g584
sg60
(lp591
g53
(g62
g55
NtRp592
(dp593
g58
(dp594
g66
I4
ssg67
Nsg60
(lp595
g53
(g69
g55
NtRp596
(dp597
g58
(dp598
sg67
g592
sg60
(lp599
g53
(g74
g55
NtRp600
(dp601
g58
(dp602
g78
g79
ssg67
g596
sg60
(lp603
S'app_folders'
p604
asbag53
(g74
g55
NtRp605
(dp606
g58
(dp607
g85
g86
ssg67
g596
sg60
(lp608
S':'
asbag53
(g74
g55
NtRp609
(dp610
g58
(dp611
sg67
g596
sg60
(lp612
g53
(g54
g55
NtRp613
(dp614
g58
(dp615
g66
I4
ssg67
g609
sg60
(lp616
S"set(['C:\\\\Users\\\\Bussiere\\\\Dropbox\\\\Projets\\\\jackpoint\\\\web2py\\\\applications\\\\init\\\\', 'C:\\\\Users\\\\Bussiere\\\\Dropbox\\\\Projets\\\\jackpoint\\\\web2py\\\\applications\\\\admin\\\\'])"
p617
asbasbasbag53
(g69
g55
NtRp618
(dp619
g58
(dp620
sg67
g592
sg60
(lp621
g53
(g74
g55
NtRp622
(dp623
g58
(dp624
g78
g79
ssg67
g618
sg60
(lp625
S'applications_parent'
p626
asbag53
(g74
g55
NtRp627
(dp628
g58
(dp629
g85
g86
ssg67
g618
sg60
(lp630
S':'
asbag53
(g74
g55
NtRp631
(dp632
g58
(dp633
sg67
g618
sg60
(lp634
g53
(g54
g55
NtRp635
(dp636
g58
(dp637
g66
I4
ssg67
g631
sg60
(lp638
S'C:\\Users\\Bussiere\\Dropbox\\Projets\\jackpoint\\web2py'
p639
asbasbasbag53
(g69
g55
NtRp640
(dp641
g58
(dp642
sg67
g592
sg60
(lp643
g53
(g74
g55
NtRp644
(dp645
g58
(dp646
g78
g79
ssg67
g640
sg60
(lp647
S'cmd_args'
p648
asbag53
(g74
g55
NtRp649
(dp650
g58
(dp651
g85
g86
ssg67
g640
sg60
(lp652
S':'
asbag53
(g74
g55
NtRp653
(dp654
g58
(dp655
sg67
g640
sg60
(lp656
g53
(g54
g55
NtRp657
(dp658
g58
(dp659
g66
I4
ssg67
g653
sg60
(lp660
g53
(g62
g55
NtRp661
(dp662
g58
(dp663
g66
I3
ssg67
Nsg60
(lp664
sbasbasbasbag53
(g69
g55
NtRp665
(dp666
g58
(dp667
sg67
g592
sg60
(lp668
g53
(g74
g55
NtRp669
(dp670
g58
(dp671
g78
g79
ssg67
g665
sg60
(lp672
S'cmd_options'
p673
asbag53
(g74
g55
NtRp674
(dp675
g58
(dp676
g85
g86
ssg67
g665
sg60
(lp677
S':'
asbag53
(g74
g55
NtRp678
(dp679
g58
(dp680
sg67
g665
sg60
(lp681
g53
(g54
g55
NtRp682
(dp683
g58
(dp684
g66
I4
ssg67
g678
sg60
(lp685
S"<Values at 0x3ca5fa8: {'verbose': False, 'ip': '127.0.0.1', 'shutdown_timeout': 5, 'taskbar': False, 'nocron': False, 'pid_filename': 'httpserver.pid', 'maxthreads': None, 'softcron': False, 'server_name': 'Batou', 'bpython': False, 'nogui': False, 'port': 8000, 'extcron': False, 'debuglevel': 30, 'test': None, 'folder': 'C:\\\\Users\\\\Bussiere\\\\Dropbox\\\\Projets\\\\jackpoint\\\\web2py', 'config': '', 'import_models': False, 'winservice': '', 'shell': None, 'run': '', 'log_filename': 'httpserver.log', 'args': [''], 'socket_timeout': 5, 'ssl_ca_certificate': None, 'scheduler': None, 'profiler_filename': None, 'ssl_private_key': '', 'password': '<ask>', 'request_queue_size': 5, 'ssl_certificate': '', 'cronjob': False, 'numthreads': None, 'quiet': False, 'interfaces': None, 'minthreads': None, 'timeout': 10, 'plain': False, 'nobanner': False}>"
p686
asbasbasbag53
(g69
g55
NtRp687
(dp688
g58
(dp689
sg67
g592
sg60
(lp690
g53
(g74
g55
NtRp691
(dp692
g58
(dp693
g78
g79
ssg67
g687
sg60
(lp694
S'db_sessions'
p695
asbag53
(g74
g55
NtRp696
(dp697
g58
(dp698
g85
g86
ssg67
g687
sg60
(lp699
S':'
asbag53
(g74
g55
NtRp700
(dp701
g58
(dp702
sg67
g687
sg60
(lp703
g53
(g54
g55
NtRp704
(dp705
g58
(dp706
g66
I4
ssg67
g700
sg60
(lp707
S"set(['init'])"
p708
asbasbasbag53
(g69
g55
NtRp709
(dp710
g58
(dp711
sg67
g592
sg60
(lp712
g53
(g74
g55
NtRp713
(dp714
g58
(dp715
g78
g79
ssg67
g709
sg60
(lp716
S'debugging'
p717
asbag53
(g74
g55
NtRp718
(dp719
g58
(dp720
g85
g86
ssg67
g709
sg60
(lp721
S':'
asbag53
(g74
g55
NtRp722
(dp723
g58
(dp724
sg67
g709
sg60
(lp725
g53
(g54
g55
NtRp726
(dp727
g58
(dp728
g66
I4
ssg67
g722
sg60
(lp729
S'True'
p730
asbasbasbag53
(g69
g55
NtRp731
(dp732
g58
(dp733
sg67
g592
sg60
(lp734
g53
(g74
g55
NtRp735
(dp736
g58
(dp737
g78
g79
ssg67
g731
sg60
(lp738
S'gluon_parent'
p739
asbag53
(g74
g55
NtRp740
(dp741
g58
(dp742
g85
g86
ssg67
g731
sg60
(lp743
S':'
asbag53
(g74
g55
NtRp744
(dp745
g58
(dp746
sg67
g731
sg60
(lp747
g53
(g54
g55
NtRp748
(dp749
g58
(dp750
g66
I4
ssg67
g744
sg60
(lp751
S'C:\\Users\\Bussiere\\Dropbox\\Projets\\jackpoint\\web2py'
p752
asbasbasbag53
(g69
g55
NtRp753
(dp754
g58
(dp755
sg67
g592
sg60
(lp756
g53
(g74
g55
NtRp757
(dp758
g58
(dp759
g78
g79
ssg67
g753
sg60
(lp760
S'http_accept'
p761
asbag53
(g74
g55
NtRp762
(dp763
g58
(dp764
g85
g86
ssg67
g753
sg60
(lp765
S':'
asbag53
(g74
g55
NtRp766
(dp767
g58
(dp768
sg67
g753
sg60
(lp769
g53
(g54
g55
NtRp770
(dp771
g58
(dp772
g66
I4
ssg67
g766
sg60
(lp773
S'text/html,application/xhtml+xml,application/xml;q=0.9,*/*;q=0.8'
p774
asbasbasbag53
(g69
g55
NtRp775
(dp776
g58
(dp777
sg67
g592
sg60
(lp778
g53
(g74
g55
NtRp779
(dp780
g58
(dp781
g78
g79
ssg67
g775
sg60
(lp782
S'http_accept_charset'
p783
asbag53
(g74
g55
NtRp784
(dp785
g58
(dp786
g85
g86
ssg67
g775
sg60
(lp787
S':'
asbag53
(g74
g55
NtRp788
(dp789
g58
(dp790
sg67
g775
sg60
(lp791
g53
(g54
g55
NtRp792
(dp793
g58
(dp794
g66
I4
ssg67
g788
sg60
(lp795
S'ISO-8859-1,utf-8;q=0.7,*;q=0.3'
p796
asbasbasbag53
(g69
g55
NtRp797
(dp798
g58
(dp799
sg67
g592
sg60
(lp800
g53
(g74
g55
NtRp801
(dp802
g58
(dp803
g78
g79
ssg67
g797
sg60
(lp804
S'http_accept_encoding'
p805
asbag53
(g74
g55
NtRp806
(dp807
g58
(dp808
g85
g86
ssg67
g797
sg60
(lp809
S':'
asbag53
(g74
g55
NtRp810
(dp811
g58
(dp812
sg67
g797
sg60
(lp813
g53
(g54
g55
NtRp814
(dp815
g58
(dp816
g66
I4
ssg67
g810
sg60
(lp817
S'gzip,deflate,sdch'
p818
asbasbasbag53
(g69
g55
NtRp819
(dp820
g58
(dp821
sg67
g592
sg60
(lp822
g53
(g74
g55
NtRp823
(dp824
g58
(dp825
g78
g79
ssg67
g819
sg60
(lp826
S'http_accept_language'
p827
asbag53
(g74
g55
NtRp828
(dp829
g58
(dp830
g85
g86
ssg67
g819
sg60
(lp831
S':'
asbag53
(g74
g55
NtRp832
(dp833
g58
(dp834
sg67
g819
sg60
(lp835
g53
(g54
g55
NtRp836
(dp837
g58
(dp838
g66
I4
ssg67
g832
sg60
(lp839
S'en-US,en;q=0.8'
p840
asbasbasbag53
(g69
g55
NtRp841
(dp842
g58
(dp843
sg67
g592
sg60
(lp844
g53
(g74
g55
NtRp845
(dp846
g58
(dp847
g78
g79
ssg67
g841
sg60
(lp848
S'http_cache_control'
p849
asbag53
(g74
g55
NtRp850
(dp851
g58
(dp852
g85
g86
ssg67
g841
sg60
(lp853
S':'
asbag53
(g74
g55
NtRp854
(dp855
g58
(dp856
sg67
g841
sg60
(lp857
g53
(g54
g55
NtRp858
(dp859
g58
(dp860
g66
I4
ssg67
g854
sg60
(lp861
S'max-age=0'
p862
asbasbasbag53
(g69
g55
NtRp863
(dp864
g58
(dp865
sg67
g592
sg60
(lp866
g53
(g74
g55
NtRp867
(dp868
g58
(dp869
g78
g79
ssg67
g863
sg60
(lp870
S'http_connection'
p871
asbag53
(g74
g55
NtRp872
(dp873
g58
(dp874
g85
g86
ssg67
g863
sg60
(lp875
S':'
asbag53
(g74
g55
NtRp876
(dp877
g58
(dp878
sg67
g863
sg60
(lp879
g53
(g54
g55
NtRp880
(dp881
g58
(dp882
g66
I4
ssg67
g876
sg60
(lp883
S'keep-alive'
p884
asbasbasbag53
(g69
g55
NtRp885
(dp886
g58
(dp887
sg67
g592
sg60
(lp888
g53
(g74
g55
NtRp889
(dp890
g58
(dp891
g78
g79
ssg67
g885
sg60
(lp892
S'http_cookie'
p893
asbag53
(g74
g55
NtRp894
(dp895
g58
(dp896
g85
g86
ssg67
g885
sg60
(lp897
S':'
asbag53
(g74
g55
NtRp898
(dp899
g58
(dp900
sg67
g885
sg60
(lp901
g53
(g54
g55
NtRp902
(dp903
g58
(dp904
g66
I4
ssg67
g898
sg60
(lp905
S'session_id_admin=127.0.0.1-0bfa24bd-fd8c-4100-9bfe-4a468b383bac; session_id_init="22:916ef1c2-7902-46d9-bbc5-80f0afcec41d"'
p906
asbasbasbag53
(g69
g55
NtRp907
(dp908
g58
(dp909
sg67
g592
sg60
(lp910
g53
(g74
g55
NtRp911
(dp912
g58
(dp913
g78
g79
ssg67
g907
sg60
(lp914
S'http_host'
p915
asbag53
(g74
g55
NtRp916
(dp917
g58
(dp918
g85
g86
ssg67
g907
sg60
(lp919
S':'
asbag53
(g74
g55
NtRp920
(dp921
g58
(dp922
sg67
g907
sg60
(lp923
g53
(g54
g55
NtRp924
(dp925
g58
(dp926
g66
I4
ssg67
g920
sg60
(lp927
S'localhost:8000'
p928
asbasbasbag53
(g69
g55
NtRp929
(dp930
g58
(dp931
sg67
g592
sg60
(lp932
g53
(g74
g55
NtRp933
(dp934
g58
(dp935
g78
g79
ssg67
g929
sg60
(lp936
S'http_user_agent'
p937
asbag53
(g74
g55
NtRp938
(dp939
g58
(dp940
g85
g86
ssg67
g929
sg60
(lp941
S':'
asbag53
(g74
g55
NtRp942
(dp943
g58
(dp944
sg67
g929
sg60
(lp945
g53
(g54
g55
NtRp946
(dp947
g58
(dp948
g66
I4
ssg67
g942
sg60
(lp949
S'Mozilla/5.0 (Windows NT 6.1; WOW64) AppleWebKit/535.18 (KHTML, like Gecko) Chrome/18.0.1011.0 Safari/535.18'
p950
asbasbasbag53
(g69
g55
NtRp951
(dp952
g58
(dp953
sg67
g592
sg60
(lp954
g53
(g74
g55
NtRp955
(dp956
g58
(dp957
g78
g79
ssg67
g951
sg60
(lp958
S'is_jython'
p959
asbag53
(g74
g55
NtRp960
(dp961
g58
(dp962
g85
g86
ssg67
g951
sg60
(lp963
S':'
asbag53
(g74
g55
NtRp964
(dp965
g58
(dp966
sg67
g951
sg60
(lp967
g53
(g54
g55
NtRp968
(dp969
g58
(dp970
g66
I4
ssg67
g964
sg60
(lp971
g96
asbasbasbag53
(g69
g55
NtRp972
(dp973
g58
(dp974
sg67
g592
sg60
(lp975
g53
(g74
g55
NtRp976
(dp977
g58
(dp978
g78
g79
ssg67
g972
sg60
(lp979
S'is_pypy'
p980
asbag53
(g74
g55
NtRp981
(dp982
g58
(dp983
g85
g86
ssg67
g972
sg60
(lp984
S':'
asbag53
(g74
g55
NtRp985
(dp986
g58
(dp987
sg67
g972
sg60
(lp988
g53
(g54
g55
NtRp989
(dp990
g58
(dp991
g66
I4
ssg67
g985
sg60
(lp992
g96
asbasbasbag53
(g69
g55
NtRp993
(dp994
g58
(dp995
sg67
g592
sg60
(lp996
g53
(g74
g55
NtRp997
(dp998
g58
(dp999
g78
g79
ssg67
g993
sg60
(lp1000
S'path_info'
p1001
asbag53
(g74
g55
NtRp1002
(dp1003
g58
(dp1004
g85
g86
ssg67
g993
sg60
(lp1005
S':'
asbag53
(g74
g55
NtRp1006
(dp1007
g58
(dp1008
sg67
g993
sg60
(lp1009
g53
(g54
g55
NtRp1010
(dp1011
g58
(dp1012
g66
I4
ssg67
g1006
sg60
(lp1013
S'/init/default/initdbjack'
p1014
asbasbasbag53
(g69
g55
NtRp1015
(dp1016
g58
(dp1017
sg67
g592
sg60
(lp1018
g53
(g74
g55
NtRp1019
(dp1020
g58
(dp1021
g78
g79
ssg67
g1015
sg60
(lp1022
S'query_string'
p1023
asbag53
(g74
g55
NtRp1024
(dp1025
g58
(dp1026
g85
g86
ssg67
g1015
sg60
(lp1027
S':'
asbag53
(g74
g55
NtRp1028
(dp1029
g58
(dp1030
sg67
g1015
sg60
(lp1031
g53
(g54
g55
NtRp1032
(dp1033
g58
(dp1034
g66
I4
ssg67
g1028
sg60
(lp1035
S''
asbasbasbag53
(g69
g55
NtRp1036
(dp1037
g58
(dp1038
sg67
g592
sg60
(lp1039
g53
(g74
g55
NtRp1040
(dp1041
g58
(dp1042
g78
g79
ssg67
g1036
sg60
(lp1043
S'remote_addr'
p1044
asbag53
(g74
g55
NtRp1045
(dp1046
g58
(dp1047
g85
g86
ssg67
g1036
sg60
(lp1048
S':'
asbag53
(g74
g55
NtRp1049
(dp1050
g58
(dp1051
sg67
g1036
sg60
(lp1052
g53
(g54
g55
NtRp1053
(dp1054
g58
(dp1055
g66
I4
ssg67
g1049
sg60
(lp1056
g186
asbasbasbag53
(g69
g55
NtRp1057
(dp1058
g58
(dp1059
sg67
g592
sg60
(lp1060
g53
(g74
g55
NtRp1061
(dp1062
g58
(dp1063
g78
g79
ssg67
g1057
sg60
(lp1064
S'remote_port'
p1065
asbag53
(g74
g55
NtRp1066
(dp1067
g58
(dp1068
g85
g86
ssg67
g1057
sg60
(lp1069
S':'
asbag53
(g74
g55
NtRp1070
(dp1071
g58
(dp1072
sg67
g1057
sg60
(lp1073
g53
(g54
g55
NtRp1074
(dp1075
g58
(dp1076
g66
I4
ssg67
g1070
sg60
(lp1077
S'56965'
p1078
asbasbasbag53
(g69
g55
NtRp1079
(dp1080
g58
(dp1081
sg67
g592
sg60
(lp1082
g53
(g74
g55
NtRp1083
(dp1084
g58
(dp1085
g78
g79
ssg67
g1079
sg60
(lp1086
S'request_method'
p1087
asbag53
(g74
g55
NtRp1088
(dp1089
g58
(dp1090
g85
g86
ssg67
g1079
sg60
(lp1091
S':'
asbag53
(g74
g55
NtRp1092
(dp1093
g58
(dp1094
sg67
g1079
sg60
(lp1095
g53
(g54
g55
NtRp1096
(dp1097
g58
(dp1098
g66
I4
ssg67
g1092
sg60
(lp1099
S'GET'
p1100
asbasbasbag53
(g69
g55
NtRp1101
(dp1102
g58
(dp1103
sg67
g592
sg60
(lp1104
g53
(g74
g55
NtRp1105
(dp1106
g58
(dp1107
g78
g79
ssg67
g1101
sg60
(lp1108
S'script_name'
p1109
asbag53
(g74
g55
NtRp1110
(dp1111
g58
(dp1112
g85
g86
ssg67
g1101
sg60
(lp1113
S':'
asbag53
(g74
g55
NtRp1114
(dp1115
g58
(dp1116
sg67
g1101
sg60
(lp1117
g53
(g54
g55
NtRp1118
(dp1119
g58
(dp1120
g66
I4
ssg67
g1114
sg60
(lp1121
S''
asbasbasbag53
(g69
g55
NtRp1122
(dp1123
g58
(dp1124
sg67
g592
sg60
(lp1125
g53
(g74
g55
NtRp1126
(dp1127
g58
(dp1128
g78
g79
ssg67
g1122
sg60
(lp1129
S'server_name'
p1130
asbag53
(g74
g55
NtRp1131
(dp1132
g58
(dp1133
g85
g86
ssg67
g1122
sg60
(lp1134
S':'
asbag53
(g74
g55
NtRp1135
(dp1136
g58
(dp1137
sg67
g1122
sg60
(lp1138
g53
(g54
g55
NtRp1139
(dp1140
g58
(dp1141
g66
I4
ssg67
g1135
sg60
(lp1142
S'Batou'
p1143
asbasbasbag53
(g69
g55
NtRp1144
(dp1145
g58
(dp1146
sg67
g592
sg60
(lp1147
g53
(g74
g55
NtRp1148
(dp1149
g58
(dp1150
g78
g79
ssg67
g1144
sg60
(lp1151
S'server_port'
p1152
asbag53
(g74
g55
NtRp1153
(dp1154
g58
(dp1155
g85
g86
ssg67
g1144
sg60
(lp1156
S':'
asbag53
(g74
g55
NtRp1157
(dp1158
g58
(dp1159
sg67
g1144
sg60
(lp1160
g53
(g54
g55
NtRp1161
(dp1162
g58
(dp1163
g66
I4
ssg67
g1157
sg60
(lp1164
S'8000'
p1165
asbasbasbag53
(g69
g55
NtRp1166
(dp1167
g58
(dp1168
sg67
g592
sg60
(lp1169
g53
(g74
g55
NtRp1170
(dp1171
g58
(dp1172
g78
g79
ssg67
g1166
sg60
(lp1173
S'server_protocol'
p1174
asbag53
(g74
g55
NtRp1175
(dp1176
g58
(dp1177
g85
g86
ssg67
g1166
sg60
(lp1178
S':'
asbag53
(g74
g55
NtRp1179
(dp1180
g58
(dp1181
sg67
g1166
sg60
(lp1182
g53
(g54
g55
NtRp1183
(dp1184
g58
(dp1185
g66
I4
ssg67
g1179
sg60
(lp1186
S'HTTP/1.1'
p1187
asbasbasbag53
(g69
g55
NtRp1188
(dp1189
g58
(dp1190
sg67
g592
sg60
(lp1191
g53
(g74
g55
NtRp1192
(dp1193
g58
(dp1194
g78
g79
ssg67
g1188
sg60
(lp1195
S'server_software'
p1196
asbag53
(g74
g55
NtRp1197
(dp1198
g58
(dp1199
g85
g86
ssg67
g1188
sg60
(lp1200
S':'
asbag53
(g74
g55
NtRp1201
(dp1202
g58
(dp1203
sg67
g1188
sg60
(lp1204
g53
(g54
g55
NtRp1205
(dp1206
g58
(dp1207
g66
I4
ssg67
g1201
sg60
(lp1208
S'Rocket 1.2.4'
p1209
asbasbasbag53
(g69
g55
NtRp1210
(dp1211
g58
(dp1212
sg67
g592
sg60
(lp1213
g53
(g74
g55
NtRp1214
(dp1215
g58
(dp1216
g78
g79
ssg67
g1210
sg60
(lp1217
S'web2py_crontype'
p1218
asbag53
(g74
g55
NtRp1219
(dp1220
g58
(dp1221
g85
g86
ssg67
g1210
sg60
(lp1222
S':'
asbag53
(g74
g55
NtRp1223
(dp1224
g58
(dp1225
sg67
g1210
sg60
(lp1226
g53
(g54
g55
NtRp1227
(dp1228
g58
(dp1229
g66
I4
ssg67
g1223
sg60
(lp1230
S'hard'
p1231
asbasbasbag53
(g69
g55
NtRp1232
(dp1233
g58
(dp1234
sg67
g592
sg60
(lp1235
g53
(g74
g55
NtRp1236
(dp1237
g58
(dp1238
g78
g79
ssg67
g1232
sg60
(lp1239
S'web2py_path'
p1240
asbag53
(g74
g55
NtRp1241
(dp1242
g58
(dp1243
g85
g86
ssg67
g1232
sg60
(lp1244
S':'
asbag53
(g74
g55
NtRp1245
(dp1246
g58
(dp1247
sg67
g1232
sg60
(lp1248
g53
(g54
g55
NtRp1249
(dp1250
g58
(dp1251
g66
I4
ssg67
g1245
sg60
(lp1252
g639
asbasbasbag53
(g69
g55
NtRp1253
(dp1254
g58
(dp1255
sg67
g592
sg60
(lp1256
g53
(g74
g55
NtRp1257
(dp1258
g58
(dp1259
g78
g79
ssg67
g1253
sg60
(lp1260
S'web2py_version'
p1261
asbag53
(g74
g55
NtRp1262
(dp1263
g58
(dp1264
g85
g86
ssg67
g1253
sg60
(lp1265
S':'
asbag53
(g74
g55
NtRp1266
(dp1267
g58
(dp1268
sg67
g1253
sg60
(lp1269
g53
(g54
g55
NtRp1270
(dp1271
g58
(dp1272
g66
I4
ssg67
g1266
sg60
(lp1273
g53
(g62
g55
NtRp1274
(dp1275
g58
(dp1276
g66
I3
ssg67
Nsg60
(lp1277
g53
(g69
g55
NtRp1278
(dp1279
g58
(dp1280
sg67
g1274
sg60
(lp1281
g53
(g74
g55
NtRp1282
(dp1283
g58
(dp1284
sg67
g1278
sg60
(lp1285
g53
(g54
g55
NtRp1286
(dp1287
g58
(dp1288
g66
I3
ssg67
g1282
sg60
(lp1289
S'1'
asbasbasbag53
(g69
g55
NtRp1290
(dp1291
g58
(dp1292
sg67
g1274
sg60
(lp1293
g53
(g74
g55
NtRp1294
(dp1295
g58
(dp1296
sg67
g1290
sg60
(lp1297
g53
(g54
g55
NtRp1298
(dp1299
g58
(dp1300
g66
I3
ssg67
g1294
sg60
(lp1301
S'99'
p1302
asbasbasbag53
(g69
g55
NtRp1303
(dp1304
g58
(dp1305
sg67
g1274
sg60
(lp1306
g53
(g74
g55
NtRp1307
(dp1308
g58
(dp1309
sg67
g1303
sg60
(lp1310
g53
(g54
g55
NtRp1311
(dp1312
g58
(dp1313
g66
I3
ssg67
g1307
sg60
(lp1314
S'7'
asbasbasbag53
(g69
g55
NtRp1315
(dp1316
g58
(dp1317
sg67
g1274
sg60
(lp1318
g53
(g74
g55
NtRp1319
(dp1320
g58
(dp1321
sg67
g1315
sg60
(lp1322
g53
(g54
g55
NtRp1323
(dp1324
g58
(dp1325
g66
I3
ssg67
g1319
sg60
(lp1326
S'datetime.datetime(2012, 3, 4, 22, 12, 8)'
p1327
asbasbasbag53
(g69
g55
NtRp1328
(dp1329
g58
(dp1330
sg67
g1274
sg60
(lp1331
g53
(g74
g55
NtRp1332
(dp1333
g58
(dp1334
sg67
g1328
sg60
(lp1335
g53
(g54
g55
NtRp1336
(dp1337
g58
(dp1338
g66
I3
ssg67
g1332
sg60
(lp1339
S'stable'
p1340
asbasbasbasbasbasbasbag53
(g69
g55
NtRp1341
(dp1342
g58
(dp1343
sg67
g592
sg60
(lp1344
g53
(g74
g55
NtRp1345
(dp1346
g58
(dp1347
g78
g79
ssg67
g1341
sg60
(lp1348
S'wsgi_errors'
p1349
asbag53
(g74
g55
NtRp1350
(dp1351
g58
(dp1352
g85
g86
ssg67
g1341
sg60
(lp1353
S':'
asbag53
(g74
g55
NtRp1354
(dp1355
g58
(dp1356
sg67
g1341
sg60
(lp1357
g53
(g54
g55
NtRp1358
(dp1359
g58
(dp1360
g66
I4
ssg67
g1354
sg60
(lp1361
S"<open file '<stderr>', mode 'w' at 0x004300B0>"
p1362
asbasbasbag53
(g69
g55
NtRp1363
(dp1364
g58
(dp1365
sg67
g592
sg60
(lp1366
g53
(g74
g55
NtRp1367
(dp1368
g58
(dp1369
g78
g79
ssg67
g1363
sg60
(lp1370
S'wsgi_file_wrapper'
p1371
asbag53
(g74
g55
NtRp1372
(dp1373
g58
(dp1374
g85
g86
ssg67
g1363
sg60
(lp1375
S':'
asbag53
(g74
g55
NtRp1376
(dp1377
g58
(dp1378
sg67
g1363
sg60
(lp1379
g53
(g54
g55
NtRp1380
(dp1381
g58
(dp1382
g66
I4
ssg67
g1376
sg60
(lp1383
S'<class wsgiref.util.FileWrapper at 0x02C44900>'
p1384
asbasbasbag53
(g69
g55
NtRp1385
(dp1386
g58
(dp1387
sg67
g592
sg60
(lp1388
g53
(g74
g55
NtRp1389
(dp1390
g58
(dp1391
g78
g79
ssg67
g1385
sg60
(lp1392
S'wsgi_input'
p1393
asbag53
(g74
g55
NtRp1394
(dp1395
g58
(dp1396
g85
g86
ssg67
g1385
sg60
(lp1397
S':'
asbag53
(g74
g55
NtRp1398
(dp1399
g58
(dp1400
sg67
g1385
sg60
(lp1401
g53
(g54
g55
NtRp1402
(dp1403
g58
(dp1404
g66
I4
ssg67
g1398
sg60
(lp1405
S'<socket._fileobject object at 0x0882F970>'
p1406
asbasbasbag53
(g69
g55
NtRp1407
(dp1408
g58
(dp1409
sg67
g592
sg60
(lp1410
g53
(g74
g55
NtRp1411
(dp1412
g58
(dp1413
g78
g79
ssg67
g1407
sg60
(lp1414
S'wsgi_multiprocess'
p1415
asbag53
(g74
g55
NtRp1416
(dp1417
g58
(dp1418
g85
g86
ssg67
g1407
sg60
(lp1419
S':'
asbag53
(g74
g55
NtRp1420
(dp1421
g58
(dp1422
sg67
g1407
sg60
(lp1423
g53
(g54
g55
NtRp1424
(dp1425
g58
(dp1426
g66
I4
ssg67
g1420
sg60
(lp1427
g96
asbasbasbag53
(g69
g55
NtRp1428
(dp1429
g58
(dp1430
sg67
g592
sg60
(lp1431
g53
(g74
g55
NtRp1432
(dp1433
g58
(dp1434
g78
g79
ssg67
g1428
sg60
(lp1435
S'wsgi_multithread'
p1436
asbag53
(g74
g55
NtRp1437
(dp1438
g58
(dp1439
g85
g86
ssg67
g1428
sg60
(lp1440
S':'
asbag53
(g74
g55
NtRp1441
(dp1442
g58
(dp1443
sg67
g1428
sg60
(lp1444
g53
(g54
g55
NtRp1445
(dp1446
g58
(dp1447
g66
I4
ssg67
g1441
sg60
(lp1448
g730
asbasbasbag53
(g69
g55
NtRp1449
(dp1450
g58
(dp1451
sg67
g592
sg60
(lp1452
g53
(g74
g55
NtRp1453
(dp1454
g58
(dp1455
g78
g79
ssg67
g1449
sg60
(lp1456
S'wsgi_run_once'
p1457
asbag53
(g74
g55
NtRp1458
(dp1459
g58
(dp1460
g85
g86
ssg67
g1449
sg60
(lp1461
S':'
asbag53
(g74
g55
NtRp1462
(dp1463
g58
(dp1464
sg67
g1449
sg60
(lp1465
g53
(g54
g55
NtRp1466
(dp1467
g58
(dp1468
g66
I4
ssg67
g1462
sg60
(lp1469
g96
asbasbasbag53
(g69
g55
NtRp1470
(dp1471
g58
(dp1472
sg67
g592
sg60
(lp1473
g53
(g74
g55
NtRp1474
(dp1475
g58
(dp1476
g78
g79
ssg67
g1470
sg60
(lp1477
S'wsgi_url_scheme'
p1478
asbag53
(g74
g55
NtRp1479
(dp1480
g58
(dp1481
g85
g86
ssg67
g1470
sg60
(lp1482
S':'
asbag53
(g74
g55
NtRp1483
(dp1484
g58
(dp1485
sg67
g1470
sg60
(lp1486
g53
(g54
g55
NtRp1487
(dp1488
g58
(dp1489
g66
I4
ssg67
g1483
sg60
(lp1490
S'http'
p1491
asbasbasbag53
(g69
g55
NtRp1492
(dp1493
g58
(dp1494
sg67
g592
sg60
(lp1495
g53
(g74
g55
NtRp1496
(dp1497
g58
(dp1498
g78
g79
ssg67
g1492
sg60
(lp1499
S'wsgi_version'
p1500
asbag53
(g74
g55
NtRp1501
(dp1502
g58
(dp1503
g85
g86
ssg67
g1492
sg60
(lp1504
S':'
asbag53
(g74
g55
NtRp1505
(dp1506
g58
(dp1507
sg67
g1492
sg60
(lp1508
g53
(g54
g55
NtRp1509
(dp1510
g58
(dp1511
g66
I4
ssg67
g1505
sg60
(lp1512
g53
(g62
g55
NtRp1513
(dp1514
g58
(dp1515
g66
I3
ssg67
Nsg60
(lp1516
g53
(g69
g55
NtRp1517
(dp1518
g58
(dp1519
sg67
g1513
sg60
(lp1520
g53
(g74
g55
NtRp1521
(dp1522
g58
(dp1523
sg67
g1517
sg60
(lp1524
g53
(g54
g55
NtRp1525
(dp1526
g58
(dp1527
g66
I3
ssg67
g1521
sg60
(lp1528
S'1'
asbasbasbag53
(g69
g55
NtRp1529
(dp1530
g58
(dp1531
sg67
g1513
sg60
(lp1532
g53
(g74
g55
NtRp1533
(dp1534
g58
(dp1535
sg67
g1529
sg60
(lp1536
g53
(g54
g55
NtRp1537
(dp1538
g58
(dp1539
g66
I3
ssg67
g1533
sg60
(lp1540
S'0'
asbasbasbasbasbasbasbasbasbasbasbag53
(g69
g55
NtRp1541
(dp1542
g58
(dp1543
sg67
g63
sg60
(lp1544
g53
(g74
g55
NtRp1545
(dp1546
g58
(dp1547
g78
g79
ssg67
g1541
sg60
(lp1548
S'extension'
p1549
asbag53
(g74
g55
NtRp1550
(dp1551
g58
(dp1552
g85
g86
ssg67
g1541
sg60
(lp1553
S':'
asbag53
(g74
g55
NtRp1554
(dp1555
g58
(dp1556
sg67
g1541
sg60
(lp1557
g53
(g54
g55
NtRp1558
(dp1559
g58
(dp1560
g66
I5
ssg67
g1554
sg60
(lp1561
S'html'
p1562
asbasbasbag53
(g69
g55
NtRp1563
(dp1564
g58
(dp1565
sg67
g63
sg60
(lp1566
g53
(g74
g55
NtRp1567
(dp1568
g58
(dp1569
g78
g79
ssg67
g1563
sg60
(lp1570
S'folder'
p1571
asbag53
(g74
g55
NtRp1572
(dp1573
g58
(dp1574
g85
g86
ssg67
g1563
sg60
(lp1575
S':'
asbag53
(g74
g55
NtRp1576
(dp1577
g58
(dp1578
sg67
g1563
sg60
(lp1579
g53
(g54
g55
NtRp1580
(dp1581
g58
(dp1582
g66
I5
ssg67
g1576
sg60
(lp1583
S'C:\\Users\\Bussiere\\Dropbox\\Projets\\jackpoint\\web2py\\applications\\init\\'
p1584
asbasbasbag53
(g69
g55
NtRp1585
(dp1586
g58
(dp1587
sg67
g63
sg60
(lp1588
g53
(g74
g55
NtRp1589
(dp1590
g58
(dp1591
g78
g79
ssg67
g1585
sg60
(lp1592
S'function'
p1593
asbag53
(g74
g55
NtRp1594
(dp1595
g58
(dp1596
g85
g86
ssg67
g1585
sg60
(lp1597
S':'
asbag53
(g74
g55
NtRp1598
(dp1599
g58
(dp1600
sg67
g1585
sg60
(lp1601
g53
(g54
g55
NtRp1602
(dp1603
g58
(dp1604
g66
I5
ssg67
g1598
sg60
(lp1605
S'initdbjack'
p1606
asbasbasbag53
(g69
g55
NtRp1607
(dp1608
g58
(dp1609
sg67
g63
sg60
(lp1610
g53
(g74
g55
NtRp1611
(dp1612
g58
(dp1613
g78
g79
ssg67
g1607
sg60
(lp1614
S'get_vars'
p1615
asbag53
(g74
g55
NtRp1616
(dp1617
g58
(dp1618
g85
g86
ssg67
g1607
sg60
(lp1619
S':'
asbag53
(g74
g55
NtRp1620
(dp1621
g58
(dp1622
sg67
g1607
sg60
(lp1623
g53
(g54
g55
NtRp1624
(dp1625
g58
(dp1626
g66
I5
ssg67
g1620
sg60
(lp1627
g53
(g62
g55
NtRp1628
(dp1629
g58
(dp1630
g66
I4
ssg67
Nsg60
(lp1631
sbasbasbasbag53
(g69
g55
NtRp1632
(dp1633
g58
(dp1634
sg67
g63
sg60
(lp1635
g53
(g74
g55
NtRp1636
(dp1637
g58
(dp1638
g78
g79
ssg67
g1632
sg60
(lp1639
S'global_settings'
p1640
asbag53
(g74
g55
NtRp1641
(dp1642
g58
(dp1643
g85
g86
ssg67
g1632
sg60
(lp1644
S':'
asbag53
(g74
g55
NtRp1645
(dp1646
g58
(dp1647
sg67
g1632
sg60
(lp1648
g53
(g54
g55
NtRp1649
(dp1650
g58
(dp1651
g66
I5
ssg67
g1645
sg60
(lp1652
g53
(g62
g55
NtRp1653
(dp1654
g58
(dp1655
g66
I4
ssg67
Nsg60
(lp1656
g53
(g69
g55
NtRp1657
(dp1658
g58
(dp1659
sg67
g1653
sg60
(lp1660
g53
(g74
g55
NtRp1661
(dp1662
g58
(dp1663
g78
g79
ssg67
g1657
sg60
(lp1664
g604
asbag53
(g74
g55
NtRp1665
(dp1666
g58
(dp1667
g85
g86
ssg67
g1657
sg60
(lp1668
S':'
asbag53
(g74
g55
NtRp1669
(dp1670
g58
(dp1671
sg67
g1657
sg60
(lp1672
g53
(g54
g55
NtRp1673
(dp1674
g58
(dp1675
g66
I4
ssg67
g1669
sg60
(lp1676
S"set(['C:\\\\Users\\\\Bussiere\\\\Dropbox\\\\Projets\\\\jackpoint\\\\web2py\\\\applications\\\\init\\\\', 'C:\\\\Users\\\\Bussiere\\\\Dropbox\\\\Projets\\\\jackpoint\\\\web2py\\\\applications\\\\admin\\\\'])"
p1677
asbasbasbag53
(g69
g55
NtRp1678
(dp1679
g58
(dp1680
sg67
g1653
sg60
(lp1681
g53
(g74
g55
NtRp1682
(dp1683
g58
(dp1684
g78
g79
ssg67
g1678
sg60
(lp1685
g626
asbag53
(g74
g55
NtRp1686
(dp1687
g58
(dp1688
g85
g86
ssg67
g1678
sg60
(lp1689
S':'
asbag53
(g74
g55
NtRp1690
(dp1691
g58
(dp1692
sg67
g1678
sg60
(lp1693
g53
(g54
g55
NtRp1694
(dp1695
g58
(dp1696
g66
I4
ssg67
g1690
sg60
(lp1697
g639
asbasbasbag53
(g69
g55
NtRp1698
(dp1699
g58
(dp1700
sg67
g1653
sg60
(lp1701
g53
(g74
g55
NtRp1702
(dp1703
g58
(dp1704
g78
g79
ssg67
g1698
sg60
(lp1705
g648
asbag53
(g74
g55
NtRp1706
(dp1707
g58
(dp1708
g85
g86
ssg67
g1698
sg60
(lp1709
S':'
asbag53
(g74
g55
NtRp1710
(dp1711
g58
(dp1712
sg67
g1698
sg60
(lp1713
g53
(g54
g55
NtRp1714
(dp1715
g58
(dp1716
g66
I4
ssg67
g1710
sg60
(lp1717
g53
(g62
g55
NtRp1718
(dp1719
g58
(dp1720
g66
I3
ssg67
Nsg60
(lp1721
sbasbasbasbag53
(g69
g55
NtRp1722
(dp1723
g58
(dp1724
sg67
g1653
sg60
(lp1725
g53
(g74
g55
NtRp1726
(dp1727
g58
(dp1728
g78
g79
ssg67
g1722
sg60
(lp1729
g673
asbag53
(g74
g55
NtRp1730
(dp1731
g58
(dp1732
g85
g86
ssg67
g1722
sg60
(lp1733
S':'
asbag53
(g74
g55
NtRp1734
(dp1735
g58
(dp1736
sg67
g1722
sg60
(lp1737
g53
(g54
g55
NtRp1738
(dp1739
g58
(dp1740
g66
I4
ssg67
g1734
sg60
(lp1741
S"<Values at 0x3ca5fa8: {'verbose': False, 'ip': '127.0.0.1', 'shutdown_timeout': 5, 'taskbar': False, 'nocron': False, 'pid_filename': 'httpserver.pid', 'maxthreads': None, 'softcron': False, 'server_name': 'Batou', 'bpython': False, 'nogui': False, 'port': 8000, 'extcron': False, 'debuglevel': 30, 'test': None, 'folder': 'C:\\\\Users\\\\Bussiere\\\\Dropbox\\\\Projets\\\\jackpoint\\\\web2py', 'config': '', 'import_models': False, 'winservice': '', 'shell': None, 'run': '', 'log_filename': 'httpserver.log', 'args': [''], 'socket_timeout': 5, 'ssl_ca_certificate': None, 'scheduler': None, 'profiler_filename': None, 'ssl_private_key': '', 'password': '<ask>', 'request_queue_size': 5, 'ssl_certificate': '', 'cronjob': False, 'numthreads': None, 'quiet': False, 'interfaces': None, 'minthreads': None, 'timeout': 10, 'plain': False, 'nobanner': False}>"
p1742
asbasbasbag53
(g69
g55
NtRp1743
(dp1744
g58
(dp1745
sg67
g1653
sg60
(lp1746
g53
(g74
g55
NtRp1747
(dp1748
g58
(dp1749
g78
g79
ssg67
g1743
sg60
(lp1750
g695
asbag53
(g74
g55
NtRp1751
(dp1752
g58
(dp1753
g85
g86
ssg67
g1743
sg60
(lp1754
S':'
asbag53
(g74
g55
NtRp1755
(dp1756
g58
(dp1757
sg67
g1743
sg60
(lp1758
g53
(g54
g55
NtRp1759
(dp1760
g58
(dp1761
g66
I4
ssg67
g1755
sg60
(lp1762
S"set(['init'])"
p1763
asbasbasbag53
(g69
g55
NtRp1764
(dp1765
g58
(dp1766
sg67
g1653
sg60
(lp1767
g53
(g74
g55
NtRp1768
(dp1769
g58
(dp1770
g78
g79
ssg67
g1764
sg60
(lp1771
g717
asbag53
(g74
g55
NtRp1772
(dp1773
g58
(dp1774
g85
g86
ssg67
g1764
sg60
(lp1775
S':'
asbag53
(g74
g55
NtRp1776
(dp1777
g58
(dp1778
sg67
g1764
sg60
(lp1779
g53
(g54
g55
NtRp1780
(dp1781
g58
(dp1782
g66
I4
ssg67
g1776
sg60
(lp1783
g730
asbasbasbag53
(g69
g55
NtRp1784
(dp1785
g58
(dp1786
sg67
g1653
sg60
(lp1787
g53
(g74
g55
NtRp1788
(dp1789
g58
(dp1790
g78
g79
ssg67
g1784
sg60
(lp1791
g739
asbag53
(g74
g55
NtRp1792
(dp1793
g58
(dp1794
g85
g86
ssg67
g1784
sg60
(lp1795
S':'
asbag53
(g74
g55
NtRp1796
(dp1797
g58
(dp1798
sg67
g1784
sg60
(lp1799
g53
(g54
g55
NtRp1800
(dp1801
g58
(dp1802
g66
I4
ssg67
g1796
sg60
(lp1803
g752
asbasbasbag53
(g69
g55
NtRp1804
(dp1805
g58
(dp1806
sg67
g1653
sg60
(lp1807
g53
(g74
g55
NtRp1808
(dp1809
g58
(dp1810
g78
g79
ssg67
g1804
sg60
(lp1811
g959
asbag53
(g74
g55
NtRp1812
(dp1813
g58
(dp1814
g85
g86
ssg67
g1804
sg60
(lp1815
S':'
asbag53
(g74
g55
NtRp1816
(dp1817
g58
(dp1818
sg67
g1804
sg60
(lp1819
g53
(g54
g55
NtRp1820
(dp1821
g58
(dp1822
g66
I4
ssg67
g1816
sg60
(lp1823
g96
asbasbasbag53
(g69
g55
NtRp1824
(dp1825
g58
(dp1826
sg67
g1653
sg60
(lp1827
g53
(g74
g55
NtRp1828
(dp1829
g58
(dp1830
g78
g79
ssg67
g1824
sg60
(lp1831
g980
asbag53
(g74
g55
NtRp1832
(dp1833
g58
(dp1834
g85
g86
ssg67
g1824
sg60
(lp1835
S':'
asbag53
(g74
g55
NtRp1836
(dp1837
g58
(dp1838
sg67
g1824
sg60
(lp1839
g53
(g54
g55
NtRp1840
(dp1841
g58
(dp1842
g66
I4
ssg67
g1836
sg60
(lp1843
g96
asbasbasbag53
(g69
g55
NtRp1844
(dp1845
g58
(dp1846
sg67
g1653
sg60
(lp1847
g53
(g74
g55
NtRp1848
(dp1849
g58
(dp1850
g78
g79
ssg67
g1844
sg60
(lp1851
g1218
asbag53
(g74
g55
NtRp1852
(dp1853
g58
(dp1854
g85
g86
ssg67
g1844
sg60
(lp1855
S':'
asbag53
(g74
g55
NtRp1856
(dp1857
g58
(dp1858
sg67
g1844
sg60
(lp1859
g53
(g54
g55
NtRp1860
(dp1861
g58
(dp1862
g66
I4
ssg67
g1856
sg60
(lp1863
g1231
asbasbasbag53
(g69
g55
NtRp1864
(dp1865
g58
(dp1866
sg67
g1653
sg60
(lp1867
g53
(g74
g55
NtRp1868
(dp1869
g58
(dp1870
g78
g79
ssg67
g1864
sg60
(lp1871
g1261
asbag53
(g74
g55
NtRp1872
(dp1873
g58
(dp1874
g85
g86
ssg67
g1864
sg60
(lp1875
S':'
asbag53
(g74
g55
NtRp1876
(dp1877
g58
(dp1878
sg67
g1864
sg60
(lp1879
g53
(g54
g55
NtRp1880
(dp1881
g58
(dp1882
g66
I4
ssg67
g1876
sg60
(lp1883
g53
(g62
g55
NtRp1884
(dp1885
g58
(dp1886
g66
I3
ssg67
Nsg60
(lp1887
g53
(g69
g55
NtRp1888
(dp1889
g58
(dp1890
sg67
g1884
sg60
(lp1891
g53
(g74
g55
NtRp1892
(dp1893
g58
(dp1894
sg67
g1888
sg60
(lp1895
g53
(g54
g55
NtRp1896
(dp1897
g58
(dp1898
g66
I3
ssg67
g1892
sg60
(lp1899
S'1'
asbasbasbag53
(g69
g55
NtRp1900
(dp1901
g58
(dp1902
sg67
g1884
sg60
(lp1903
g53
(g74
g55
NtRp1904
(dp1905
g58
(dp1906
sg67
g1900
sg60
(lp1907
g53
(g54
g55
NtRp1908
(dp1909
g58
(dp1910
g66
I3
ssg67
g1904
sg60
(lp1911
S'99'
p1912
asbasbasbag53
(g69
g55
NtRp1913
(dp1914
g58
(dp1915
sg67
g1884
sg60
(lp1916
g53
(g74
g55
NtRp1917
(dp1918
g58
(dp1919
sg67
g1913
sg60
(lp1920
g53
(g54
g55
NtRp1921
(dp1922
g58
(dp1923
g66
I3
ssg67
g1917
sg60
(lp1924
S'7'
asbasbasbag53
(g69
g55
NtRp1925
(dp1926
g58
(dp1927
sg67
g1884
sg60
(lp1928
g53
(g74
g55
NtRp1929
(dp1930
g58
(dp1931
sg67
g1925
sg60
(lp1932
g53
(g54
g55
NtRp1933
(dp1934
g58
(dp1935
g66
I3
ssg67
g1929
sg60
(lp1936
S'datetime.datetime(2012, 3, 4, 22, 12, 8)'
p1937
asbasbasbag53
(g69
g55
NtRp1938
(dp1939
g58
(dp1940
sg67
g1884
sg60
(lp1941
g53
(g74
g55
NtRp1942
(dp1943
g58
(dp1944
sg67
g1938
sg60
(lp1945
g53
(g54
g55
NtRp1946
(dp1947
g58
(dp1948
g66
I3
ssg67
g1942
sg60
(lp1949
g1340
asbasbasbasbasbasbasbasbasbasbasbag53
(g69
g55
NtRp1950
(dp1951
g58
(dp1952
sg67
g63
sg60
(lp1953
g53
(g74
g55
NtRp1954
(dp1955
g58
(dp1956
g78
g79
ssg67
g1950
sg60
(lp1957
S'is_https'
p1958
asbag53
(g74
g55
NtRp1959
(dp1960
g58
(dp1961
g85
g86
ssg67
g1950
sg60
(lp1962
S':'
asbag53
(g74
g55
NtRp1963
(dp1964
g58
(dp1965
sg67
g1950
sg60
(lp1966
g53
(g54
g55
NtRp1967
(dp1968
g58
(dp1969
g66
I5
ssg67
g1963
sg60
(lp1970
g96
asbasbasbag53
(g69
g55
NtRp1971
(dp1972
g58
(dp1973
sg67
g63
sg60
(lp1974
g53
(g74
g55
NtRp1975
(dp1976
g58
(dp1977
g78
g79
ssg67
g1971
sg60
(lp1978
S'is_local'
p1979
asbag53
(g74
g55
NtRp1980
(dp1981
g58
(dp1982
g85
g86
ssg67
g1971
sg60
(lp1983
S':'
asbag53
(g74
g55
NtRp1984
(dp1985
g58
(dp1986
sg67
g1971
sg60
(lp1987
g53
(g54
g55
NtRp1988
(dp1989
g58
(dp1990
g66
I5
ssg67
g1984
sg60
(lp1991
g730
asbasbasbag53
(g69
g55
NtRp1992
(dp1993
g58
(dp1994
sg67
g63
sg60
(lp1995
g53
(g74
g55
NtRp1996
(dp1997
g58
(dp1998
g78
g79
ssg67
g1992
sg60
(lp1999
S'is_restful'
p2000
asbag53
(g74
g55
NtRp2001
(dp2002
g58
(dp2003
g85
g86
ssg67
g1992
sg60
(lp2004
S':'
asbag53
(g74
g55
NtRp2005
(dp2006
g58
(dp2007
sg67
g1992
sg60
(lp2008
g53
(g54
g55
NtRp2009
(dp2010
g58
(dp2011
g66
I5
ssg67
g2005
sg60
(lp2012
g96
asbasbasbag53
(g69
g55
NtRp2013
(dp2014
g58
(dp2015
sg67
g63
sg60
(lp2016
g53
(g74
g55
NtRp2017
(dp2018
g58
(dp2019
g78
g79
ssg67
g2013
sg60
(lp2020
S'now'
p2021
asbag53
(g74
g55
NtRp2022
(dp2023
g58
(dp2024
g85
g86
ssg67
g2013
sg60
(lp2025
S':'
asbag53
(g74
g55
NtRp2026
(dp2027
g58
(dp2028
sg67
g2013
sg60
(lp2029
g53
(g54
g55
NtRp2030
(dp2031
g58
(dp2032
g66
I5
ssg67
g2026
sg60
(lp2033
S'datetime.datetime(2012, 3, 29, 23, 55, 18, 112000)'
p2034
asbasbasbag53
(g69
g55
NtRp2035
(dp2036
g58
(dp2037
sg67
g63
sg60
(lp2038
g53
(g74
g55
NtRp2039
(dp2040
g58
(dp2041
g78
g79
ssg67
g2035
sg60
(lp2042
S'post_vars'
p2043
asbag53
(g74
g55
NtRp2044
(dp2045
g58
(dp2046
g85
g86
ssg67
g2035
sg60
(lp2047
S':'
asbag53
(g74
g55
NtRp2048
(dp2049
g58
(dp2050
sg67
g2035
sg60
(lp2051
g53
(g54
g55
NtRp2052
(dp2053
g58
(dp2054
g66
I5
ssg67
g2048
sg60
(lp2055
g53
(g62
g55
NtRp2056
(dp2057
g58
(dp2058
g66
I4
ssg67
Nsg60
(lp2059
sbasbasbasbag53
(g69
g55
NtRp2060
(dp2061
g58
(dp2062
sg67
g63
sg60
(lp2063
g53
(g74
g55
NtRp2064
(dp2065
g58
(dp2066
g78
g79
ssg67
g2060
sg60
(lp2067
S'url'
p2068
asbag53
(g74
g55
NtRp2069
(dp2070
g58
(dp2071
g85
g86
ssg67
g2060
sg60
(lp2072
S':'
asbag53
(g74
g55
NtRp2073
(dp2074
g58
(dp2075
sg67
g2060
sg60
(lp2076
g53
(g54
g55
NtRp2077
(dp2078
g58
(dp2079
g66
I5
ssg67
g2073
sg60
(lp2080
S'/init/default/initdbjack'
p2081
asbasbasbag53
(g69
g55
NtRp2082
(dp2083
g58
(dp2084
sg67
g63
sg60
(lp2085
g53
(g74
g55
NtRp2086
(dp2087
g58
(dp2088
g78
g79
ssg67
g2082
sg60
(lp2089
S'utcnow'
p2090
asbag53
(g74
g55
NtRp2091
(dp2092
g58
(dp2093
g85
g86
ssg67
g2082
sg60
(lp2094
S':'
asbag53
(g74
g55
NtRp2095
(dp2096
g58
(dp2097
sg67
g2082
sg60
(lp2098
g53
(g54
g55
NtRp2099
(dp2100
g58
(dp2101
g66
I5
ssg67
g2095
sg60
(lp2102
S'datetime.datetime(2012, 3, 29, 21, 55, 18, 112000)'
p2103
asbasbasbag53
(g69
g55
NtRp2104
(dp2105
g58
(dp2106
sg67
g63
sg60
(lp2107
g53
(g74
g55
NtRp2108
(dp2109
g58
(dp2110
g78
g79
ssg67
g2104
sg60
(lp2111
S'uuid'
p2112
asbag53
(g74
g55
NtRp2113
(dp2114
g58
(dp2115
g85
g86
ssg67
g2104
sg60
(lp2116
S':'
asbag53
(g74
g55
NtRp2117
(dp2118
g58
(dp2119
sg67
g2104
sg60
(lp2120
g53
(g54
g55
NtRp2121
(dp2122
g58
(dp2123
g66
I5
ssg67
g2117
sg60
(lp2124
S'init/127.0.0.1.2012-03-29.23-55-18.08332a69-f231-43aa-a740-0f5b4b893139'
p2125
asbasbasbag53
(g69
g55
NtRp2126
(dp2127
g58
(dp2128
sg67
g63
sg60
(lp2129
g53
(g74
g55
NtRp2130
(dp2131
g58
(dp2132
g78
g79
ssg67
g2126
sg60
(lp2133
S'vars'
p2134
asbag53
(g74
g55
NtRp2135
(dp2136
g58
(dp2137
g85
g86
ssg67
g2126
sg60
(lp2138
S':'
asbag53
(g74
g55
NtRp2139
(dp2140
g58
(dp2141
sg67
g2126
sg60
(lp2142
g53
(g54
g55
NtRp2143
(dp2144
g58
(dp2145
g66
I5
ssg67
g2139
sg60
(lp2146
g53
(g62
g55
NtRp2147
(dp2148
g58
(dp2149
g66
I4
ssg67
Nsg60
(lp2150
sbasbasbasbag53
(g69
g55
NtRp2151
(dp2152
g58
(dp2153
sg67
g63
sg60
(lp2154
g53
(g74
g55
NtRp2155
(dp2156
g58
(dp2157
g78
g79
ssg67
g2151
sg60
(lp2158
S'wsgi'
p2159
asbag53
(g74
g55
NtRp2160
(dp2161
g58
(dp2162
g85
g86
ssg67
g2151
sg60
(lp2163
S':'
asbag53
(g74
g55
NtRp2164
(dp2165
g58
(dp2166
sg67
g2151
sg60
(lp2167
g53
(g54
g55
NtRp2168
(dp2169
g58
(dp2170
g66
I5
ssg67
g2164
sg60
(lp2171
g53
(g62
g55
NtRp2172
(dp2173
g58
(dp2174
g66
I4
ssg67
Nsg60
(lp2175
g53
(g69
g55
NtRp2176
(dp2177
g58
(dp2178
sg67
g2172
sg60
(lp2179
g53
(g74
g55
NtRp2180
(dp2181
g58
(dp2182
g78
g79
ssg67
g2176
sg60
(lp2183
S'environ'
p2184
asbag53
(g74
g55
NtRp2185
(dp2186
g58
(dp2187
g85
g86
ssg67
g2176
sg60
(lp2188
S':'
asbag53
(g74
g55
NtRp2189
(dp2190
g58
(dp2191
sg67
g2176
sg60
(lp2192
g53
(g54
g55
NtRp2193
(dp2194
g58
(dp2195
g66
I4
ssg67
g2189
sg60
(lp2196
g53
(g62
g55
NtRp2197
(dp2198
g58
(dp2199
g66
I3
ssg67
Nsg60
(lp2200
g53
(g69
g55
NtRp2201
(dp2202
g58
(dp2203
sg67
g2197
sg60
(lp2204
g53
(g74
g55
NtRp2205
(dp2206
g58
(dp2207
g78
g79
ssg67
g2201
sg60
(lp2208
S'HTTP_ACCEPT'
p2209
asbag53
(g74
g55
NtRp2210
(dp2211
g58
(dp2212
g85
g86
ssg67
g2201
sg60
(lp2213
S':'
asbag53
(g74
g55
NtRp2214
(dp2215
g58
(dp2216
sg67
g2201
sg60
(lp2217
g53
(g54
g55
NtRp2218
(dp2219
g58
(dp2220
g66
I3
ssg67
g2214
sg60
(lp2221
g774
asbasbasbag53
(g69
g55
NtRp2222
(dp2223
g58
(dp2224
sg67
g2197
sg60
(lp2225
g53
(g74
g55
NtRp2226
(dp2227
g58
(dp2228
g78
g79
ssg67
g2222
sg60
(lp2229
S'HTTP_ACCEPT_CHARSET'
p2230
asbag53
(g74
g55
NtRp2231
(dp2232
g58
(dp2233
g85
g86
ssg67
g2222
sg60
(lp2234
S':'
asbag53
(g74
g55
NtRp2235
(dp2236
g58
(dp2237
sg67
g2222
sg60
(lp2238
g53
(g54
g55
NtRp2239
(dp2240
g58
(dp2241
g66
I3
ssg67
g2235
sg60
(lp2242
g796
asbasbasbag53
(g69
g55
NtRp2243
(dp2244
g58
(dp2245
sg67
g2197
sg60
(lp2246
g53
(g74
g55
NtRp2247
(dp2248
g58
(dp2249
g78
g79
ssg67
g2243
sg60
(lp2250
S'HTTP_ACCEPT_ENCODING'
p2251
asbag53
(g74
g55
NtRp2252
(dp2253
g58
(dp2254
g85
g86
ssg67
g2243
sg60
(lp2255
S':'
asbag53
(g74
g55
NtRp2256
(dp2257
g58
(dp2258
sg67
g2243
sg60
(lp2259
g53
(g54
g55
NtRp2260
(dp2261
g58
(dp2262
g66
I3
ssg67
g2256
sg60
(lp2263
g818
asbasbasbag53
(g69
g55
NtRp2264
(dp2265
g58
(dp2266
sg67
g2197
sg60
(lp2267
g53
(g74
g55
NtRp2268
(dp2269
g58
(dp2270
g78
g79
ssg67
g2264
sg60
(lp2271
S'HTTP_ACCEPT_LANGUAGE'
p2272
asbag53
(g74
g55
NtRp2273
(dp2274
g58
(dp2275
g85
g86
ssg67
g2264
sg60
(lp2276
S':'
asbag53
(g74
g55
NtRp2277
(dp2278
g58
(dp2279
sg67
g2264
sg60
(lp2280
g53
(g54
g55
NtRp2281
(dp2282
g58
(dp2283
g66
I3
ssg67
g2277
sg60
(lp2284
g840
asbasbasbag53
(g69
g55
NtRp2285
(dp2286
g58
(dp2287
sg67
g2197
sg60
(lp2288
g53
(g74
g55
NtRp2289
(dp2290
g58
(dp2291
g78
g79
ssg67
g2285
sg60
(lp2292
S'HTTP_CACHE_CONTROL'
p2293
asbag53
(g74
g55
NtRp2294
(dp2295
g58
(dp2296
g85
g86
ssg67
g2285
sg60
(lp2297
S':'
asbag53
(g74
g55
NtRp2298
(dp2299
g58
(dp2300
sg67
g2285
sg60
(lp2301
g53
(g54
g55
NtRp2302
(dp2303
g58
(dp2304
g66
I3
ssg67
g2298
sg60
(lp2305
g862
asbasbasbag53
(g69
g55
NtRp2306
(dp2307
g58
(dp2308
sg67
g2197
sg60
(lp2309
g53
(g74
g55
NtRp2310
(dp2311
g58
(dp2312
g78
g79
ssg67
g2306
sg60
(lp2313
S'HTTP_CONNECTION'
p2314
asbag53
(g74
g55
NtRp2315
(dp2316
g58
(dp2317
g85
g86
ssg67
g2306
sg60
(lp2318
S':'
asbag53
(g74
g55
NtRp2319
(dp2320
g58
(dp2321
sg67
g2306
sg60
(lp2322
g53
(g54
g55
NtRp2323
(dp2324
g58
(dp2325
g66
I3
ssg67
g2319
sg60
(lp2326
g884
asbasbasbag53
(g69
g55
NtRp2327
(dp2328
g58
(dp2329
sg67
g2197
sg60
(lp2330
g53
(g74
g55
NtRp2331
(dp2332
g58
(dp2333
g78
g79
ssg67
g2327
sg60
(lp2334
S'HTTP_COOKIE'
p2335
asbag53
(g74
g55
NtRp2336
(dp2337
g58
(dp2338
g85
g86
ssg67
g2327
sg60
(lp2339
S':'
asbag53
(g74
g55
NtRp2340
(dp2341
g58
(dp2342
sg67
g2327
sg60
(lp2343
g53
(g54
g55
NtRp2344
(dp2345
g58
(dp2346
g66
I3
ssg67
g2340
sg60
(lp2347
g906
asbasbasbag53
(g69
g55
NtRp2348
(dp2349
g58
(dp2350
sg67
g2197
sg60
(lp2351
g53
(g74
g55
NtRp2352
(dp2353
g58
(dp2354
g78
g79
ssg67
g2348
sg60
(lp2355
S'HTTP_HOST'
p2356
asbag53
(g74
g55
NtRp2357
(dp2358
g58
(dp2359
g85
g86
ssg67
g2348
sg60
(lp2360
S':'
asbag53
(g74
g55
NtRp2361
(dp2362
g58
(dp2363
sg67
g2348
sg60
(lp2364
g53
(g54
g55
NtRp2365
(dp2366
g58
(dp2367
g66
I3
ssg67
g2361
sg60
(lp2368
g928
asbasbasbag53
(g69
g55
NtRp2369
(dp2370
g58
(dp2371
sg67
g2197
sg60
(lp2372
g53
(g74
g55
NtRp2373
(dp2374
g58
(dp2375
g78
g79
ssg67
g2369
sg60
(lp2376
S'HTTP_USER_AGENT'
p2377
asbag53
(g74
g55
NtRp2378
(dp2379
g58
(dp2380
g85
g86
ssg67
g2369
sg60
(lp2381
S':'
asbag53
(g74
g55
NtRp2382
(dp2383
g58
(dp2384
sg67
g2369
sg60
(lp2385
g53
(g54
g55
NtRp2386
(dp2387
g58
(dp2388
g66
I3
ssg67
g2382
sg60
(lp2389
g950
asbasbasbag53
(g69
g55
NtRp2390
(dp2391
g58
(dp2392
sg67
g2197
sg60
(lp2393
g53
(g74
g55
NtRp2394
(dp2395
g58
(dp2396
g78
g79
ssg67
g2390
sg60
(lp2397
S'PATH_INFO'
p2398
asbag53
(g74
g55
NtRp2399
(dp2400
g58
(dp2401
g85
g86
ssg67
g2390
sg60
(lp2402
S':'
asbag53
(g74
g55
NtRp2403
(dp2404
g58
(dp2405
sg67
g2390
sg60
(lp2406
g53
(g54
g55
NtRp2407
(dp2408
g58
(dp2409
g66
I3
ssg67
g2403
sg60
(lp2410
g1014
asbasbasbag53
(g69
g55
NtRp2411
(dp2412
g58
(dp2413
sg67
g2197
sg60
(lp2414
g53
(g74
g55
NtRp2415
(dp2416
g58
(dp2417
g78
g79
ssg67
g2411
sg60
(lp2418
S'QUERY_STRING'
p2419
asbag53
(g74
g55
NtRp2420
(dp2421
g58
(dp2422
g85
g86
ssg67
g2411
sg60
(lp2423
S':'
asbag53
(g74
g55
NtRp2424
(dp2425
g58
(dp2426
sg67
g2411
sg60
(lp2427
g53
(g54
g55
NtRp2428
(dp2429
g58
(dp2430
g66
I3
ssg67
g2424
sg60
(lp2431
S''
asbasbasbag53
(g69
g55
NtRp2432
(dp2433
g58
(dp2434
sg67
g2197
sg60
(lp2435
g53
(g74
g55
NtRp2436
(dp2437
g58
(dp2438
g78
g79
ssg67
g2432
sg60
(lp2439
S'REMOTE_ADDR'
p2440
asbag53
(g74
g55
NtRp2441
(dp2442
g58
(dp2443
g85
g86
ssg67
g2432
sg60
(lp2444
S':'
asbag53
(g74
g55
NtRp2445
(dp2446
g58
(dp2447
sg67
g2432
sg60
(lp2448
g53
(g54
g55
NtRp2449
(dp2450
g58
(dp2451
g66
I3
ssg67
g2445
sg60
(lp2452
g186
asbasbasbag53
(g69
g55
NtRp2453
(dp2454
g58
(dp2455
sg67
g2197
sg60
(lp2456
g53
(g74
g55
NtRp2457
(dp2458
g58
(dp2459
g78
g79
ssg67
g2453
sg60
(lp2460
S'REMOTE_PORT'
p2461
asbag53
(g74
g55
NtRp2462
(dp2463
g58
(dp2464
g85
g86
ssg67
g2453
sg60
(lp2465
S':'
asbag53
(g74
g55
NtRp2466
(dp2467
g58
(dp2468
sg67
g2453
sg60
(lp2469
g53
(g54
g55
NtRp2470
(dp2471
g58
(dp2472
g66
I3
ssg67
g2466
sg60
(lp2473
g1078
asbasbasbag53
(g69
g55
NtRp2474
(dp2475
g58
(dp2476
sg67
g2197
sg60
(lp2477
g53
(g74
g55
NtRp2478
(dp2479
g58
(dp2480
g78
g79
ssg67
g2474
sg60
(lp2481
S'REQUEST_METHOD'
p2482
asbag53
(g74
g55
NtRp2483
(dp2484
g58
(dp2485
g85
g86
ssg67
g2474
sg60
(lp2486
S':'
asbag53
(g74
g55
NtRp2487
(dp2488
g58
(dp2489
sg67
g2474
sg60
(lp2490
g53
(g54
g55
NtRp2491
(dp2492
g58
(dp2493
g66
I3
ssg67
g2487
sg60
(lp2494
g1100
asbasbasbag53
(g69
g55
NtRp2495
(dp2496
g58
(dp2497
sg67
g2197
sg60
(lp2498
g53
(g74
g55
NtRp2499
(dp2500
g58
(dp2501
g78
g79
ssg67
g2495
sg60
(lp2502
S'SCRIPT_NAME'
p2503
asbag53
(g74
g55
NtRp2504
(dp2505
g58
(dp2506
g85
g86
ssg67
g2495
sg60
(lp2507
S':'
asbag53
(g74
g55
NtRp2508
(dp2509
g58
(dp2510
sg67
g2495
sg60
(lp2511
g53
(g54
g55
NtRp2512
(dp2513
g58
(dp2514
g66
I3
ssg67
g2508
sg60
(lp2515
S''
asbasbasbag53
(g69
g55
NtRp2516
(dp2517
g58
(dp2518
sg67
g2197
sg60
(lp2519
g53
(g74
g55
NtRp2520
(dp2521
g58
(dp2522
g78
g79
ssg67
g2516
sg60
(lp2523
S'SERVER_NAME'
p2524
asbag53
(g74
g55
NtRp2525
(dp2526
g58
(dp2527
g85
g86
ssg67
g2516
sg60
(lp2528
S':'
asbag53
(g74
g55
NtRp2529
(dp2530
g58
(dp2531
sg67
g2516
sg60
(lp2532
g53
(g54
g55
NtRp2533
(dp2534
g58
(dp2535
g66
I3
ssg67
g2529
sg60
(lp2536
g1143
asbasbasbag53
(g69
g55
NtRp2537
(dp2538
g58
(dp2539
sg67
g2197
sg60
(lp2540
g53
(g74
g55
NtRp2541
(dp2542
g58
(dp2543
g78
g79
ssg67
g2537
sg60
(lp2544
S'SERVER_PORT'
p2545
asbag53
(g74
g55
NtRp2546
(dp2547
g58
(dp2548
g85
g86
ssg67
g2537
sg60
(lp2549
S':'
asbag53
(g74
g55
NtRp2550
(dp2551
g58
(dp2552
sg67
g2537
sg60
(lp2553
g53
(g54
g55
NtRp2554
(dp2555
g58
(dp2556
g66
I3
ssg67
g2550
sg60
(lp2557
g1165
asbasbasbag53
(g69
g55
NtRp2558
(dp2559
g58
(dp2560
sg67
g2197
sg60
(lp2561
g53
(g74
g55
NtRp2562
(dp2563
g58
(dp2564
g78
g79
ssg67
g2558
sg60
(lp2565
S'SERVER_PROTOCOL'
p2566
asbag53
(g74
g55
NtRp2567
(dp2568
g58
(dp2569
g85
g86
ssg67
g2558
sg60
(lp2570
S':'
asbag53
(g74
g55
NtRp2571
(dp2572
g58
(dp2573
sg67
g2558
sg60
(lp2574
g53
(g54
g55
NtRp2575
(dp2576
g58
(dp2577
g66
I3
ssg67
g2571
sg60
(lp2578
g1187
asbasbasbag53
(g69
g55
NtRp2579
(dp2580
g58
(dp2581
sg67
g2197
sg60
(lp2582
g53
(g74
g55
NtRp2583
(dp2584
g58
(dp2585
g78
g79
ssg67
g2579
sg60
(lp2586
S'SERVER_SOFTWARE'
p2587
asbag53
(g74
g55
NtRp2588
(dp2589
g58
(dp2590
g85
g86
ssg67
g2579
sg60
(lp2591
S':'
asbag53
(g74
g55
NtRp2592
(dp2593
g58
(dp2594
sg67
g2579
sg60
(lp2595
g53
(g54
g55
NtRp2596
(dp2597
g58
(dp2598
g66
I3
ssg67
g2592
sg60
(lp2599
g1209
asbasbasbag53
(g69
g55
NtRp2600
(dp2601
g58
(dp2602
sg67
g2197
sg60
(lp2603
g53
(g74
g55
NtRp2604
(dp2605
g58
(dp2606
g78
g79
ssg67
g2600
sg60
(lp2607
S'wsgi.errors'
p2608
asbag53
(g74
g55
NtRp2609
(dp2610
g58
(dp2611
g85
g86
ssg67
g2600
sg60
(lp2612
S':'
asbag53
(g74
g55
NtRp2613
(dp2614
g58
(dp2615
sg67
g2600
sg60
(lp2616
g53
(g54
g55
NtRp2617
(dp2618
g58
(dp2619
g66
I3
ssg67
g2613
sg60
(lp2620
S"<open file '<stderr>', mode 'w' at 0x004300B0>"
p2621
asbasbasbag53
(g69
g55
NtRp2622
(dp2623
g58
(dp2624
sg67
g2197
sg60
(lp2625
g53
(g74
g55
NtRp2626
(dp2627
g58
(dp2628
g78
g79
ssg67
g2622
sg60
(lp2629
S'wsgi.file_wrapper'
p2630
asbag53
(g74
g55
NtRp2631
(dp2632
g58
(dp2633
g85
g86
ssg67
g2622
sg60
(lp2634
S':'
asbag53
(g74
g55
NtRp2635
(dp2636
g58
(dp2637
sg67
g2622
sg60
(lp2638
g53
(g54
g55
NtRp2639
(dp2640
g58
(dp2641
g66
I3
ssg67
g2635
sg60
(lp2642
S'<class wsgiref.util.FileWrapper at 0x02C44900>'
p2643
asbasbasbag53
(g69
g55
NtRp2644
(dp2645
g58
(dp2646
sg67
g2197
sg60
(lp2647
g53
(g74
g55
NtRp2648
(dp2649
g58
(dp2650
g78
g79
ssg67
g2644
sg60
(lp2651
S'wsgi.input'
p2652
asbag53
(g74
g55
NtRp2653
(dp2654
g58
(dp2655
g85
g86
ssg67
g2644
sg60
(lp2656
S':'
asbag53
(g74
g55
NtRp2657
(dp2658
g58
(dp2659
sg67
g2644
sg60
(lp2660
g53
(g54
g55
NtRp2661
(dp2662
g58
(dp2663
g66
I3
ssg67
g2657
sg60
(lp2664
S'<cStringIO.StringO object at 0x08487340>'
p2665
asbasbasbag53
(g69
g55
NtRp2666
(dp2667
g58
(dp2668
sg67
g2197
sg60
(lp2669
g53
(g74
g55
NtRp2670
(dp2671
g58
(dp2672
g78
g79
ssg67
g2666
sg60
(lp2673
S'wsgi.multiprocess'
p2674
asbag53
(g74
g55
NtRp2675
(dp2676
g58
(dp2677
g85
g86
ssg67
g2666
sg60
(lp2678
S':'
asbag53
(g74
g55
NtRp2679
(dp2680
g58
(dp2681
sg67
g2666
sg60
(lp2682
g53
(g54
g55
NtRp2683
(dp2684
g58
(dp2685
g66
I3
ssg67
g2679
sg60
(lp2686
g96
asbasbasbag53
(g69
g55
NtRp2687
(dp2688
g58
(dp2689
sg67
g2197
sg60
(lp2690
g53
(g74
g55
NtRp2691
(dp2692
g58
(dp2693
g78
g79
ssg67
g2687
sg60
(lp2694
S'wsgi.multithread'
p2695
asbag53
(g74
g55
NtRp2696
(dp2697
g58
(dp2698
g85
g86
ssg67
g2687
sg60
(lp2699
S':'
asbag53
(g74
g55
NtRp2700
(dp2701
g58
(dp2702
sg67
g2687
sg60
(lp2703
g53
(g54
g55
NtRp2704
(dp2705
g58
(dp2706
g66
I3
ssg67
g2700
sg60
(lp2707
g730
asbasbasbag53
(g69
g55
NtRp2708
(dp2709
g58
(dp2710
sg67
g2197
sg60
(lp2711
g53
(g74
g55
NtRp2712
(dp2713
g58
(dp2714
g78
g79
ssg67
g2708
sg60
(lp2715
S'wsgi.run_once'
p2716
asbag53
(g74
g55
NtRp2717
(dp2718
g58
(dp2719
g85
g86
ssg67
g2708
sg60
(lp2720
S':'
asbag53
(g74
g55
NtRp2721
(dp2722
g58
(dp2723
sg67
g2708
sg60
(lp2724
g53
(g54
g55
NtRp2725
(dp2726
g58
(dp2727
g66
I3
ssg67
g2721
sg60
(lp2728
g96
asbasbasbag53
(g69
g55
NtRp2729
(dp2730
g58
(dp2731
sg67
g2197
sg60
(lp2732
g53
(g74
g55
NtRp2733
(dp2734
g58
(dp2735
g78
g79
ssg67
g2729
sg60
(lp2736
S'wsgi.url_scheme'
p2737
asbag53
(g74
g55
NtRp2738
(dp2739
g58
(dp2740
g85
g86
ssg67
g2729
sg60
(lp2741
S':'
asbag53
(g74
g55
NtRp2742
(dp2743
g58
(dp2744
sg67
g2729
sg60
(lp2745
g53
(g54
g55
NtRp2746
(dp2747
g58
(dp2748
g66
I3
ssg67
g2742
sg60
(lp2749
g1491
asbasbasbag53
(g69
g55
NtRp2750
(dp2751
g58
(dp2752
sg67
g2197
sg60
(lp2753
g53
(g74
g55
NtRp2754
(dp2755
g58
(dp2756
g78
g79
ssg67
g2750
sg60
(lp2757
S'wsgi.version'
p2758
asbag53
(g74
g55
NtRp2759
(dp2760
g58
(dp2761
g85
g86
ssg67
g2750
sg60
(lp2762
S':'
asbag53
(g74
g55
NtRp2763
(dp2764
g58
(dp2765
sg67
g2750
sg60
(lp2766
g53
(g54
g55
NtRp2767
(dp2768
g58
(dp2769
g66
I3
ssg67
g2763
sg60
(lp2770
S'1'
asbasbasbasbasbasbasbasbasbasbasbasbasbsS'frames'
p2771
(lp2772
(dp2773
S'file'
p2774
S'C:\\Users\\Bussiere\\Dropbox\\Projets\\jackpoint\\web2py\\gluon\\restricted.py'
p2775
sS'dump'
p2776
(dp2777
sS'lnum'
p2778
I205
sS'lines'
p2779
(dp2780
I200
S'    try:'
p2781
sI201
S'        if type(code) == types.CodeType:'
p2782
sI202
S'            ccode = code'
p2783
sI203
S'        else:'
p2784
sI204
S'            ccode = compile2(code,layer)'
p2785
sI205
S'        exec ccode in environment'
p2786
sI206
S'    except HTTP:'
p2787
sI207
S'        raise'
p2788
sI208
S'    except RestrictedError:'
p2789
sI209
S'        # do not encapsulate (obfuscate) the original RestrictedError'
p2790
ssS'call'
p2791
S"(code='\\xef\\xbb\\xbf# -*- coding: utf-8 -*-\\n# this file is releas...())\\n\\nresponse._vars=response._caller(initdbjack)\\n', environment={'A': <class 'gluon.html.A'>, 'Auth': <class 'gluon.tools.Auth'>, 'AutocompleteWidget': <class 'gluon.sqlhtml.AutocompleteWidget'>, 'B': <class 'gluon.html.B'>, 'BEAUTIFY': <class 'gluon.html.BEAUTIFY'>, 'BODY': <class 'gluon.html.BODY'>, 'BR': <class 'gluon.html.BR'>, 'BUTTON': <class 'gluon.html.BUTTON'>, 'BooleanWidget': <class 'gluon.sqlhtml.BooleanWidget'>, 'CALLABLETYPES': (<type 'function'>, <type 'function'>, <type 'builtin_function_or_method'>, <type 'instancemethod'>, <type 'builtin_function_or_method'>), ...}, layer=r'C:\\Users\\Bussiere\\Dropbox\\Projets\\jackpoint\\web2py\\applications\\init\\controllers/default.py')"
p2792
sS'func'
p2793
S'restricted'
p2794
sa(dp2795
g2774
S'C:\\Users\\Bussiere\\Dropbox\\Projets\\jackpoint\\web2py\\applications\\init\\controllers\\default.py'
p2796
sg2776
(dp2797
sg2778
I632
sg2779
(dp2798
I621
S'    http://..../[app]/default/data/update/[table]/[id]'
p2799
sI622
S'    http://..../[app]/default/data/delete/[table]/[id]'
p2800
sI623
S'    http://..../[app]/default/data/select/[table]'
p2801
sI624
S'    http://..../[app]/default/data/search/[table]'
p2802
sI625
S'    but URLs must be signed, i.e. linked with'
p2803
sI626
S"      A('table',_href=URL('data/tables',user_signature=True))"
p2804
sI627
S'    or with the signed load operator'
p2805
sI628
S"      LOAD('default','data.load',args='tables',ajax=True,user_signature=True)"
p2806
sI629
S'    """'
p2807
sI630
S'    return dict(form=crud())'
p2808
ssg2791
S'()'
p2809
sg2793
S'<module>'
p2810
sa(dp2811
g2774
S'C:\\Users\\Bussiere\\Dropbox\\Projets\\jackpoint\\web2py\\gluon\\globals.py'
p2812
sg2776
(dp2813
sg2778
I173
sg2779
(dp2814
I168
S'        self.menu = []             # used by the default view layout'
p2815
sI169
S'        self.files = []            # used by web2py_ajax.html'
p2816
sI170
S'        self.generic_patterns = [] # patterns to allow generic views'
p2817
sI171
S"        self.delimiters = ('{{','}}')"
p2818
sI172
S'        self._vars = None'
p2819
sI173
S'        self._caller = lambda f: f()'
p2820
sI174
S'        self._view_environment = None'
p2821
sI175
S'        self._custom_commit = None'
p2822
sI176
S'        self._custom_rollback = None'
p2823
sI177
S''
ssg2791
S'(f=<function initdbjack at 0x044AE4B0>)'
p2824
sg2793
S'<lambda>'
p2825
sa(dp2826
g2774
S'C:\\Users\\Bussiere\\Dropbox\\Projets\\jackpoint\\web2py\\applications\\init\\controllers\\default.py'
p2827
sg2776
(dp2828
sg2778
I518
sg2779
(dp2829
I513
S'    }'
p2830
sI514
S''
sI515
S''
sI516
S'    for row in Item.keys() :'
p2831
sI517
S'        if db(db.Item.Nom == Item[row]).count() == 0:'
p2832
sI518
S'            db.Item.insert(Nom=row,Skill=db.Skill(Nom=Item[row]))'
p2833
sI519
S'    db.commit()'
p2834
sI520
S''
sI521
S''
sI522
S''
ssg2791
S'()'
p2835
sg2793
S'initdbjack'
p2836
sa(dp2837
g2774
S'C:\\Users\\Bussiere\\Dropbox\\Projets\\jackpoint\\web2py\\gluon\\dal.py'
p2838
sg2776
(dp2839
sg2778
I6829
sg2779
(dp2840
I6824
S''
sI6825
S'    def _insert(self, **fields):'
p2841
sI6826
S'        return self._db._adapter._insert(self,self._listify(fields))'
p2842
sI6827
S''
sI6828
S'    def insert(self, **fields):'
p2843
sI6829
S'        return self._db._adapter.insert(self,self._listify(fields))'
p2844
sI6830
S''
sI6831
S'    def validate_and_insert(self,**fields):'
p2845
sI6832
S'        response = Row()'
p2846
sI6833
S'        response.errors = Row()'
p2847
ssg2791
S"(self=<Table {'Nom': <gluon.dal.Field object at 0x047C...>, 'id': <gluon.dal.Field object at 0x04689870>}>, **fields={'Nom': 'Decoupeuse a plasma', 'Skill': <Row {'Nom': 'Mettalerrie', 'update_record': <fu...lDemande': <gluon.dal.Set object at 0x043D2410>}>})"
p2848
sg2793
S'insert'
p2849
sa(dp2850
g2774
S'C:\\Users\\Bussiere\\Dropbox\\Projets\\jackpoint\\web2py\\gluon\\dal.py'
p2851
sg2776
(dp2852
sg2778
I928
sg2779
(dp2853
I928
S'            raise e'
p2854
sI929
S"        if hasattr(table,'_primarykey'):"
p2855
sI930
S'            return dict([(k[0].name, k[1]) for k in fields \\'
p2856
sI931
S'                             if k[0].name in table._primarykey])'
p2857
sI932
S'        id = self.lastrowid(table)'
p2858
sI923
S'        try:'
p2859
sI924
S'            self.execute(query)'
p2860
sI925
S'        except Exception, e:'
p2861
sI926
S'            if isinstance(e,self.integrity_error_class()):'
p2862
sI927
S'                return None'
p2863
ssg2791
S"(self=<gluon.dal.SQLiteAdapter object at 0x0424D370>, table=<Table {'Nom': <gluon.dal.Field object at 0x047C...>, 'id': <gluon.dal.Field object at 0x04689870>}>, fields=[(<gluon.dal.Field object at 0x047C3970>, 'Decoupeuse a plasma'), (<gluon.dal.Field object at 0x047C34B0>, <Row {'Nom': 'Mettalerrie', 'update_record': <fu...lDemande': <gluon.dal.Set object at 0x043D2410>}>)])"
p2864
sg2793
g2849
sasS'pyver'
p2865
S'Python 2.5.4: C:\\Users\\Bussiere\\Dropbox\\Projets\\jackpoint\\web2py\\web2py.exe'
p2866
sS'session'
p2867
g53
(g54
g55
NtRp2868
(dp2869
g58
(dp2870
sg60
(lp2871
g53
(g62
g55
NtRp2872
(dp2873
g58
(dp2874
g66
I5
ssg67
Nsg60
(lp2875
sbasbsS'etype'
p2876
S"<class 'sqlite3.IntegrityError'>"
p2877
sS'date'
p2878
S'Thu Mar 29 23:55:18 2012'
p2879
sS'response'
p2880
g53
(g54
g55
NtRp2881
(dp2882
g58
(dp2883
sg60
(lp2884
g53
(g62
g55
NtRp2885
(dp2886
g58
(dp2887
g66
I5
ssg67
Nsg60
(lp2888
g53
(g69
g55
NtRp2889
(dp2890
g58
(dp2891
sg67
g2885
sg60
(lp2892
g53
(g74
g55
NtRp2893
(dp2894
g58
(dp2895
g78
g79
ssg67
g2889
sg60
(lp2896
g151
asbag53
(g74
g55
NtRp2897
(dp2898
g58
(dp2899
g85
g86
ssg67
g2889
sg60
(lp2900
S':'
asbag53
(g74
g55
NtRp2901
(dp2902
g58
(dp2903
sg67
g2889
sg60
(lp2904
g53
(g54
g55
NtRp2905
(dp2906
g58
(dp2907
g66
I5
ssg67
g2901
sg60
(lp2908
S'<cStringIO.StringO object at 0x04277080>'
p2909
asbasbasbag53
(g69
g55
NtRp2910
(dp2911
g58
(dp2912
sg67
g2885
sg60
(lp2913
g53
(g74
g55
NtRp2914
(dp2915
g58
(dp2916
g78
g79
ssg67
g2910
sg60
(lp2917
g217
asbag53
(g74
g55
NtRp2918
(dp2919
g58
(dp2920
g85
g86
ssg67
g2910
sg60
(lp2921
S':'
asbag53
(g74
g55
NtRp2922
(dp2923
g58
(dp2924
sg67
g2910
sg60
(lp2925
g53
(g54
g55
NtRp2926
(dp2927
g58
(dp2928
g66
I5
ssg67
g2922
sg60
(lp2929
g53
(g62
g55
NtRp2930
(dp2931
g58
(dp2932
g66
I4
ssg67
Nsg60
(lp2933
g53
(g69
g55
NtRp2934
(dp2935
g58
(dp2936
sg67
g2930
sg60
(lp2937
g53
(g74
g55
NtRp2938
(dp2939
g58
(dp2940
g78
g79
ssg67
g2934
sg60
(lp2941
S'session_id_init'
p2942
asbag53
(g74
g55
NtRp2943
(dp2944
g58
(dp2945
g85
g86
ssg67
g2934
sg60
(lp2946
S':'
asbag53
(g74
g55
NtRp2947
(dp2948
g58
(dp2949
sg67
g2934
sg60
(lp2950
g53
(g54
g55
NtRp2951
(dp2952
g58
(dp2953
g66
I4
ssg67
g2947
sg60
(lp2954
g53
(g62
g55
NtRp2955
(dp2956
g58
(dp2957
g66
I3
ssg67
Nsg60
(lp2958
g53
(g69
g55
NtRp2959
(dp2960
g58
(dp2961
sg67
g2955
sg60
(lp2962
g53
(g74
g55
NtRp2963
(dp2964
g58
(dp2965
g78
g79
ssg67
g2959
sg60
(lp2966
g267
asbag53
(g74
g55
NtRp2967
(dp2968
g58
(dp2969
g85
g86
ssg67
g2959
sg60
(lp2970
S':'
asbag53
(g74
g55
NtRp2971
(dp2972
g58
(dp2973
sg67
g2959
sg60
(lp2974
g53
(g54
g55
NtRp2975
(dp2976
g58
(dp2977
g66
I3
ssg67
g2971
sg60
(lp2978
S''
asbasbasbag53
(g69
g55
NtRp2979
(dp2980
g58
(dp2981
sg67
g2955
sg60
(lp2982
g53
(g74
g55
NtRp2983
(dp2984
g58
(dp2985
g78
g79
ssg67
g2979
sg60
(lp2986
g288
asbag53
(g74
g55
NtRp2987
(dp2988
g58
(dp2989
g85
g86
ssg67
g2979
sg60
(lp2990
S':'
asbag53
(g74
g55
NtRp2991
(dp2992
g58
(dp2993
sg67
g2979
sg60
(lp2994
g53
(g54
g55
NtRp2995
(dp2996
g58
(dp2997
g66
I3
ssg67
g2991
sg60
(lp2998
S''
asbasbasbag53
(g69
g55
NtRp2999
(dp3000
g58
(dp3001
sg67
g2955
sg60
(lp3002
g53
(g74
g55
NtRp3003
(dp3004
g58
(dp3005
g78
g79
ssg67
g2999
sg60
(lp3006
g309
asbag53
(g74
g55
NtRp3007
(dp3008
g58
(dp3009
g85
g86
ssg67
g2999
sg60
(lp3010
S':'
asbag53
(g74
g55
NtRp3011
(dp3012
g58
(dp3013
sg67
g2999
sg60
(lp3014
g53
(g54
g55
NtRp3015
(dp3016
g58
(dp3017
g66
I3
ssg67
g3011
sg60
(lp3018
S''
asbasbasbag53
(g69
g55
NtRp3019
(dp3020
g58
(dp3021
sg67
g2955
sg60
(lp3022
g53
(g74
g55
NtRp3023
(dp3024
g58
(dp3025
g78
g79
ssg67
g3019
sg60
(lp3026
g330
asbag53
(g74
g55
NtRp3027
(dp3028
g58
(dp3029
g85
g86
ssg67
g3019
sg60
(lp3030
S':'
asbag53
(g74
g55
NtRp3031
(dp3032
g58
(dp3033
sg67
g3019
sg60
(lp3034
g53
(g54
g55
NtRp3035
(dp3036
g58
(dp3037
g66
I3
ssg67
g3031
sg60
(lp3038
S''
asbasbasbag53
(g69
g55
NtRp3039
(dp3040
g58
(dp3041
sg67
g2955
sg60
(lp3042
g53
(g74
g55
NtRp3043
(dp3044
g58
(dp3045
g78
g79
ssg67
g3039
sg60
(lp3046
g351
asbag53
(g74
g55
NtRp3047
(dp3048
g58
(dp3049
g85
g86
ssg67
g3039
sg60
(lp3050
S':'
asbag53
(g74
g55
NtRp3051
(dp3052
g58
(dp3053
sg67
g3039
sg60
(lp3054
g53
(g54
g55
NtRp3055
(dp3056
g58
(dp3057
g66
I3
ssg67
g3051
sg60
(lp3058
S'/'
asbasbasbag53
(g69
g55
NtRp3059
(dp3060
g58
(dp3061
sg67
g2955
sg60
(lp3062
g53
(g74
g55
NtRp3063
(dp3064
g58
(dp3065
g78
g79
ssg67
g3059
sg60
(lp3066
g372
asbag53
(g74
g55
NtRp3067
(dp3068
g58
(dp3069
g85
g86
ssg67
g3059
sg60
(lp3070
S':'
asbag53
(g74
g55
NtRp3071
(dp3072
g58
(dp3073
sg67
g3059
sg60
(lp3074
g53
(g54
g55
NtRp3075
(dp3076
g58
(dp3077
g66
I3
ssg67
g3071
sg60
(lp3078
S''
asbasbasbag53
(g69
g55
NtRp3079
(dp3080
g58
(dp3081
sg67
g2955
sg60
(lp3082
g53
(g74
g55
NtRp3083
(dp3084
g58
(dp3085
g78
g79
ssg67
g3079
sg60
(lp3086
g393
asbag53
(g74
g55
NtRp3087
(dp3088
g58
(dp3089
g85
g86
ssg67
g3079
sg60
(lp3090
S':'
asbag53
(g74
g55
NtRp3091
(dp3092
g58
(dp3093
sg67
g3079
sg60
(lp3094
g53
(g54
g55
NtRp3095
(dp3096
g58
(dp3097
g66
I3
ssg67
g3091
sg60
(lp3098
S''
asbasbasbasbasbasbasbasbasbasbasbag53
(g69
g55
NtRp3099
(dp3100
g58
(dp3101
sg67
g2885
sg60
(lp3102
g53
(g74
g55
NtRp3103
(dp3104
g58
(dp3105
g78
g79
ssg67
g3099
sg60
(lp3106
S'delimiters'
p3107
asbag53
(g74
g55
NtRp3108
(dp3109
g58
(dp3110
g85
g86
ssg67
g3099
sg60
(lp3111
S':'
asbag53
(g74
g55
NtRp3112
(dp3113
g58
(dp3114
sg67
g3099
sg60
(lp3115
g53
(g54
g55
NtRp3116
(dp3117
g58
(dp3118
g66
I5
ssg67
g3112
sg60
(lp3119
g53
(g62
g55
NtRp3120
(dp3121
g58
(dp3122
g66
I4
ssg67
Nsg60
(lp3123
g53
(g69
g55
NtRp3124
(dp3125
g58
(dp3126
sg67
g3120
sg60
(lp3127
g53
(g74
g55
NtRp3128
(dp3129
g58
(dp3130
sg67
g3124
sg60
(lp3131
g53
(g54
g55
NtRp3132
(dp3133
g58
(dp3134
g66
I4
ssg67
g3128
sg60
(lp3135
S'{{'
p3136
asbasbasbag53
(g69
g55
NtRp3137
(dp3138
g58
(dp3139
sg67
g3120
sg60
(lp3140
g53
(g74
g55
NtRp3141
(dp3142
g58
(dp3143
sg67
g3137
sg60
(lp3144
g53
(g54
g55
NtRp3145
(dp3146
g58
(dp3147
g66
I4
ssg67
g3141
sg60
(lp3148
S'}}'
p3149
asbasbasbasbasbasbasbag53
(g69
g55
NtRp3150
(dp3151
g58
(dp3152
sg67
g2885
sg60
(lp3153
g53
(g74
g55
NtRp3154
(dp3155
g58
(dp3156
g78
g79
ssg67
g3150
sg60
(lp3157
S'files'
p3158
asbag53
(g74
g55
NtRp3159
(dp3160
g58
(dp3161
g85
g86
ssg67
g3150
sg60
(lp3162
S':'
asbag53
(g74
g55
NtRp3163
(dp3164
g58
(dp3165
sg67
g3150
sg60
(lp3166
g53
(g54
g55
NtRp3167
(dp3168
g58
(dp3169
g66
I5
ssg67
g3163
sg60
(lp3170
g53
(g62
g55
NtRp3171
(dp3172
g58
(dp3173
g66
I4
ssg67
Nsg60
(lp3174
sbasbasbasbag53
(g69
g55
NtRp3175
(dp3176
g58
(dp3177
sg67
g2885
sg60
(lp3178
g53
(g74
g55
NtRp3179
(dp3180
g58
(dp3181
g78
g79
ssg67
g3175
sg60
(lp3182
S'flash'
p3183
asbag53
(g74
g55
NtRp3184
(dp3185
g58
(dp3186
g85
g86
ssg67
g3175
sg60
(lp3187
S':'
asbag53
(g74
g55
NtRp3188
(dp3189
g58
(dp3190
sg67
g3175
sg60
(lp3191
g53
(g54
g55
NtRp3192
(dp3193
g58
(dp3194
g66
I5
ssg67
g3188
sg60
(lp3195
S''
asbasbasbag53
(g69
g55
NtRp3196
(dp3197
g58
(dp3198
sg67
g2885
sg60
(lp3199
g53
(g74
g55
NtRp3200
(dp3201
g58
(dp3202
g78
g79
ssg67
g3196
sg60
(lp3203
S'generic_patterns'
p3204
asbag53
(g74
g55
NtRp3205
(dp3206
g58
(dp3207
g85
g86
ssg67
g3196
sg60
(lp3208
S':'
asbag53
(g74
g55
NtRp3209
(dp3210
g58
(dp3211
sg67
g3196
sg60
(lp3212
g53
(g54
g55
NtRp3213
(dp3214
g58
(dp3215
g66
I5
ssg67
g3209
sg60
(lp3216
g53
(g62
g55
NtRp3217
(dp3218
g58
(dp3219
g66
I4
ssg67
Nsg60
(lp3220
g53
(g69
g55
NtRp3221
(dp3222
g58
(dp3223
sg67
g3217
sg60
(lp3224
g53
(g74
g55
NtRp3225
(dp3226
g58
(dp3227
sg67
g3221
sg60
(lp3228
g53
(g54
g55
NtRp3229
(dp3230
g58
(dp3231
g66
I4
ssg67
g3225
sg60
(lp3232
S'*'
asbasbasbasbasbasbasbag53
(g69
g55
NtRp3233
(dp3234
g58
(dp3235
sg67
g2885
sg60
(lp3236
g53
(g74
g55
NtRp3237
(dp3238
g58
(dp3239
g78
g79
ssg67
g3233
sg60
(lp3240
S'headers'
p3241
asbag53
(g74
g55
NtRp3242
(dp3243
g58
(dp3244
g85
g86
ssg67
g3233
sg60
(lp3245
S':'
asbag53
(g74
g55
NtRp3246
(dp3247
g58
(dp3248
sg67
g3233
sg60
(lp3249
g53
(g54
g55
NtRp3250
(dp3251
g58
(dp3252
g66
I5
ssg67
g3246
sg60
(lp3253
g53
(g62
g55
NtRp3254
(dp3255
g58
(dp3256
g66
I4
ssg67
Nsg60
(lp3257
g53
(g69
g55
NtRp3258
(dp3259
g58
(dp3260
sg67
g3254
sg60
(lp3261
g53
(g74
g55
NtRp3262
(dp3263
g58
(dp3264
g78
g79
ssg67
g3258
sg60
(lp3265
S'Cache-Control'
p3266
asbag53
(g74
g55
NtRp3267
(dp3268
g58
(dp3269
g85
g86
ssg67
g3258
sg60
(lp3270
S':'
asbag53
(g74
g55
NtRp3271
(dp3272
g58
(dp3273
sg67
g3258
sg60
(lp3274
g53
(g54
g55
NtRp3275
(dp3276
g58
(dp3277
g66
I4
ssg67
g3271
sg60
(lp3278
S'no-store, no-cache, must-revalidate, post-check=0, pre-check=0'
p3279
asbasbasbag53
(g69
g55
NtRp3280
(dp3281
g58
(dp3282
sg67
g3254
sg60
(lp3283
g53
(g74
g55
NtRp3284
(dp3285
g58
(dp3286
g78
g79
ssg67
g3280
sg60
(lp3287
S'Content-Type'
p3288
asbag53
(g74
g55
NtRp3289
(dp3290
g58
(dp3291
g85
g86
ssg67
g3280
sg60
(lp3292
S':'
asbag53
(g74
g55
NtRp3293
(dp3294
g58
(dp3295
sg67
g3280
sg60
(lp3296
g53
(g54
g55
NtRp3297
(dp3298
g58
(dp3299
g66
I4
ssg67
g3293
sg60
(lp3300
S'text/html; charset=utf-8'
p3301
asbasbasbag53
(g69
g55
NtRp3302
(dp3303
g58
(dp3304
sg67
g3254
sg60
(lp3305
g53
(g74
g55
NtRp3306
(dp3307
g58
(dp3308
g78
g79
ssg67
g3302
sg60
(lp3309
S'Expires'
p3310
asbag53
(g74
g55
NtRp3311
(dp3312
g58
(dp3313
g85
g86
ssg67
g3302
sg60
(lp3314
S':'
asbag53
(g74
g55
NtRp3315
(dp3316
g58
(dp3317
sg67
g3302
sg60
(lp3318
g53
(g54
g55
NtRp3319
(dp3320
g58
(dp3321
g66
I4
ssg67
g3315
sg60
(lp3322
S'Thu, 29 Mar 2012 21:55:18 GMT'
p3323
asbasbasbag53
(g69
g55
NtRp3324
(dp3325
g58
(dp3326
sg67
g3254
sg60
(lp3327
g53
(g74
g55
NtRp3328
(dp3329
g58
(dp3330
g78
g79
ssg67
g3324
sg60
(lp3331
S'Pragma'
p3332
asbag53
(g74
g55
NtRp3333
(dp3334
g58
(dp3335
g85
g86
ssg67
g3324
sg60
(lp3336
S':'
asbag53
(g74
g55
NtRp3337
(dp3338
g58
(dp3339
sg67
g3324
sg60
(lp3340
g53
(g54
g55
NtRp3341
(dp3342
g58
(dp3343
g66
I4
ssg67
g3337
sg60
(lp3344
S'no-cache'
p3345
asbasbasbag53
(g69
g55
NtRp3346
(dp3347
g58
(dp3348
sg67
g3254
sg60
(lp3349
g53
(g74
g55
NtRp3350
(dp3351
g58
(dp3352
g78
g79
ssg67
g3346
sg60
(lp3353
S'X-Powered-By'
p3354
asbag53
(g74
g55
NtRp3355
(dp3356
g58
(dp3357
g85
g86
ssg67
g3346
sg60
(lp3358
S':'
asbag53
(g74
g55
NtRp3359
(dp3360
g58
(dp3361
sg67
g3346
sg60
(lp3362
g53
(g54
g55
NtRp3363
(dp3364
g58
(dp3365
g66
I4
ssg67
g3359
sg60
(lp3366
S'web2py'
p3367
asbasbasbasbasbasbasbag53
(g69
g55
NtRp3368
(dp3369
g58
(dp3370
sg67
g2885
sg60
(lp3371
g53
(g74
g55
NtRp3372
(dp3373
g58
(dp3374
g78
g79
ssg67
g3368
sg60
(lp3375
S'menu'
p3376
asbag53
(g74
g55
NtRp3377
(dp3378
g58
(dp3379
g85
g86
ssg67
g3368
sg60
(lp3380
S':'
asbag53
(g74
g55
NtRp3381
(dp3382
g58
(dp3383
sg67
g3368
sg60
(lp3384
g53
(g54
g55
NtRp3385
(dp3386
g58
(dp3387
g66
I5
ssg67
g3381
sg60
(lp3388
g53
(g62
g55
NtRp3389
(dp3390
g58
(dp3391
g66
I4
ssg67
Nsg60
(lp3392
g53
(g69
g55
NtRp3393
(dp3394
g58
(dp3395
sg67
g3389
sg60
(lp3396
g53
(g74
g55
NtRp3397
(dp3398
g58
(dp3399
sg67
g3393
sg60
(lp3400
g53
(g54
g55
NtRp3401
(dp3402
g58
(dp3403
g66
I4
ssg67
g3397
sg60
(lp3404
g53
(g62
g55
NtRp3405
(dp3406
g58
(dp3407
g66
I3
ssg67
Nsg60
(lp3408
g53
(g69
g55
NtRp3409
(dp3410
g58
(dp3411
sg67
g3405
sg60
(lp3412
g53
(g74
g55
NtRp3413
(dp3414
g58
(dp3415
sg67
g3409
sg60
(lp3416
g53
(g54
g55
NtRp3417
(dp3418
g58
(dp3419
g66
I3
ssg67
g3413
sg60
(lp3420
cgluon.languages
lazyT_unpickle
p3421
(S's\x04\x00\x00\x00Home'
tRp3422
asbasbasbag53
(g69
g55
NtRp3423
(dp3424
g58
(dp3425
sg67
g3405
sg60
(lp3426
g53
(g74
g55
NtRp3427
(dp3428
g58
(dp3429
sg67
g3423
sg60
(lp3430
g53
(g54
g55
NtRp3431
(dp3432
g58
(dp3433
g66
I3
ssg67
g3427
sg60
(lp3434
g96
asbasbasbag53
(g69
g55
NtRp3435
(dp3436
g58
(dp3437
sg67
g3405
sg60
(lp3438
g53
(g74
g55
NtRp3439
(dp3440
g58
(dp3441
sg67
g3435
sg60
(lp3442
g53
(g54
g55
NtRp3443
(dp3444
g58
(dp3445
g66
I3
ssg67
g3439
sg60
(lp3446
S'/init/default/index'
p3447
asbasbasbag53
(g69
g55
NtRp3448
(dp3449
g58
(dp3450
sg67
g3405
sg60
(lp3451
g53
(g74
g55
NtRp3452
(dp3453
g58
(dp3454
sg67
g3448
sg60
(lp3455
g53
(g54
g55
NtRp3456
(dp3457
g58
(dp3458
g66
I3
ssg67
g3452
sg60
(lp3459
g53
(g62
g55
NtRp3460
(dp3461
g58
(dp3462
g66
I2
ssg67
Nsg60
(lp3463
sbasbasbasbasbasbasbasbag53
(g69
g55
NtRp3464
(dp3465
g58
(dp3466
sg67
g3389
sg60
(lp3467
g53
(g74
g55
NtRp3468
(dp3469
g58
(dp3470
sg67
g3464
sg60
(lp3471
g53
(g54
g55
NtRp3472
(dp3473
g58
(dp3474
g66
I4
ssg67
g3468
sg60
(lp3475
g53
(g62
g55
NtRp3476
(dp3477
g58
(dp3478
g66
I3
ssg67
Nsg60
(lp3479
g53
(g69
g55
NtRp3480
(dp3481
g58
(dp3482
sg67
g3476
sg60
(lp3483
g53
(g74
g55
NtRp3484
(dp3485
g58
(dp3486
sg67
g3480
sg60
(lp3487
g53
(g54
g55
NtRp3488
(dp3489
g58
(dp3490
g66
I3
ssg67
g3484
sg60
(lp3491
g53
(cgluon.html
SPAN
p3492
g55
NtRp3493
(dp3494
g58
(dp3495
g78
S'color:yellow'
p3496
ssg67
Nsg60
(lp3497
g3367
asbasbasbasbag53
(g69
g55
NtRp3498
(dp3499
g58
(dp3500
sg67
g3476
sg60
(lp3501
g53
(g74
g55
NtRp3502
(dp3503
g58
(dp3504
sg67
g3498
sg60
(lp3505
g53
(g54
g55
NtRp3506
(dp3507
g58
(dp3508
g66
I3
ssg67
g3502
sg60
(lp3509
g96
asbasbasbag53
(g69
g55
NtRp3510
(dp3511
g58
(dp3512
sg67
g3476
sg60
(lp3513
g53
(g74
g55
NtRp3514
(dp3515
g58
(dp3516
sg67
g3510
sg60
(lp3517
g53
(g54
g55
NtRp3518
(dp3519
g58
(dp3520
g66
I3
ssg67
g3514
sg60
(lp3521
S'None'
p3522
asbasbasbag53
(g69
g55
NtRp3523
(dp3524
g58
(dp3525
sg67
g3476
sg60
(lp3526
g53
(g74
g55
NtRp3527
(dp3528
g58
(dp3529
sg67
g3523
sg60
(lp3530
g53
(g54
g55
NtRp3531
(dp3532
g58
(dp3533
g66
I3
ssg67
g3527
sg60
(lp3534
g53
(g62
g55
NtRp3535
(dp3536
g58
(dp3537
g66
I2
ssg67
Nsg60
(lp3538
g53
(g69
g55
NtRp3539
(dp3540
g58
(dp3541
sg67
g3535
sg60
(lp3542
g53
(g74
g55
NtRp3543
(dp3544
g58
(dp3545
sg67
g3539
sg60
(lp3546
g53
(g54
g55
NtRp3547
(dp3548
g58
(dp3549
g66
I2
ssg67
g3543
sg60
(lp3550
g53
(g62
g55
NtRp3551
(dp3552
g58
(dp3553
g66
I1
ssg67
Nsg60
(lp3554
g53
(g69
g55
NtRp3555
(dp3556
g58
(dp3557
sg67
g3551
sg60
(lp3558
g53
(g74
g55
NtRp3559
(dp3560
g58
(dp3561
sg67
g3555
sg60
(lp3562
g53
(g54
g55
NtRp3563
(dp3564
g58
(dp3565
g66
I1
ssg67
g3559
sg60
(lp3566
g3421
(S's\x08\x00\x00\x00My Sites'
tRp3567
asbasbasbag53
(g69
g55
NtRp3568
(dp3569
g58
(dp3570
sg67
g3551
sg60
(lp3571
g53
(g74
g55
NtRp3572
(dp3573
g58
(dp3574
sg67
g3568
sg60
(lp3575
g53
(g54
g55
NtRp3576
(dp3577
g58
(dp3578
g66
I1
ssg67
g3572
sg60
(lp3579
I00
asbasbasbag53
(g69
g55
NtRp3580
(dp3581
g58
(dp3582
sg67
g3551
sg60
(lp3583
g53
(g74
g55
NtRp3584
(dp3585
g58
(dp3586
sg67
g3580
sg60
(lp3587
g53
(g54
g55
NtRp3588
(dp3589
g58
(dp3590
g66
I1
ssg67
g3584
sg60
(lp3591
S'/admin/default/site'
p3592
asbasbasbasbasbasbasbag53
(g69
g55
NtRp3593
(dp3594
g58
(dp3595
sg67
g3535
sg60
(lp3596
g53
(g74
g55
NtRp3597
(dp3598
g58
(dp3599
sg67
g3593
sg60
(lp3600
g53
(g54
g55
NtRp3601
(dp3602
g58
(dp3603
g66
I2
ssg67
g3597
sg60
(lp3604
g53
(g62
g55
NtRp3605
(dp3606
g58
(dp3607
g66
I1
ssg67
Nsg60
(lp3608
g53
(g69
g55
NtRp3609
(dp3610
g58
(dp3611
sg67
g3605
sg60
(lp3612
g53
(g74
g55
NtRp3613
(dp3614
g58
(dp3615
sg67
g3609
sg60
(lp3616
g53
(g54
g55
NtRp3617
(dp3618
g58
(dp3619
g66
I1
ssg67
g3613
sg60
(lp3620
g3421
(S's\x08\x00\x00\x00This App'
tRp3621
asbasbasbag53
(g69
g55
NtRp3622
(dp3623
g58
(dp3624
sg67
g3605
sg60
(lp3625
g53
(g74
g55
NtRp3626
(dp3627
g58
(dp3628
sg67
g3622
sg60
(lp3629
g53
(g54
g55
NtRp3630
(dp3631
g58
(dp3632
g66
I1
ssg67
g3626
sg60
(lp3633
I00
asbasbasbag53
(g69
g55
NtRp3634
(dp3635
g58
(dp3636
sg67
g3605
sg60
(lp3637
g53
(g74
g55
NtRp3638
(dp3639
g58
(dp3640
sg67
g3634
sg60
(lp3641
g53
(g54
g55
NtRp3642
(dp3643
g58
(dp3644
g66
I1
ssg67
g3638
sg60
(lp3645
S'/admin/default/design/init'
p3646
asbasbasbag53
(g69
g55
NtRp3647
(dp3648
g58
(dp3649
sg67
g3605
sg60
(lp3650
g53
(g74
g55
NtRp3651
(dp3652
g58
(dp3653
sg67
g3647
sg60
(lp3654
g53
(g54
g55
NtRp3655
(dp3656
g58
(dp3657
g66
I1
ssg67
g3651
sg60
(lp3658
(lp3659
(g3421
(S's\n\x00\x00\x00Controller'
tRp3660
I00
S'/admin/default/edit/init/controllers/default.py'
tp3661
a(g3421
(S's\x04\x00\x00\x00View'
tRp3662
I00
S'/admin/default/edit/init/views/default/initdbjack.html'
tp3663
a(g3421
(S's\x06\x00\x00\x00Layout'
tRp3664
I00
S'/admin/default/edit/init/views/layout.html'
tp3665
a(g3421
(S's\n\x00\x00\x00Stylesheet'
tRp3666
I00
S'/admin/default/edit/init/static/css/web2py.css'
tp3667
a(g3421
(S's\x08\x00\x00\x00DB Model'
tRp3668
I00
S'/admin/default/edit/init/models/db.py'
tp3669
a(g3421
(S's\n\x00\x00\x00Menu Model'
tRp3670
I00
S'/admin/default/edit/init/models/menu.py'
tp3671
a(g3421
(S's\x08\x00\x00\x00Database'
tRp3672
I00
S'/init/appadmin/index'
tp3673
a(g3421
(S's\x06\x00\x00\x00Errors'
tRp3674
I00
S'/admin/default/errors/init'
tp3675
a(g3421
(S's\x05\x00\x00\x00About'
tRp3676
I00
S'/admin/default/about/init'
tp3677
aasbasbasbasbasbasbasbag53
(g69
g55
NtRp3678
(dp3679
g58
(dp3680
sg67
g3535
sg60
(lp3681
g53
(g74
g55
NtRp3682
(dp3683
g58
(dp3684
sg67
g3678
sg60
(lp3685
g53
(g54
g55
NtRp3686
(dp3687
g58
(dp3688
g66
I2
ssg67
g3682
sg60
(lp3689
g53
(g62
g55
NtRp3690
(dp3691
g58
(dp3692
g66
I1
ssg67
Nsg60
(lp3693
g53
(g69
g55
NtRp3694
(dp3695
g58
(dp3696
sg67
g3690
sg60
(lp3697
g53
(g74
g55
NtRp3698
(dp3699
g58
(dp3700
sg67
g3694
sg60
(lp3701
g53
(g54
g55
NtRp3702
(dp3703
g58
(dp3704
g66
I1
ssg67
g3698
sg60
(lp3705
S'web2py.com'
p3706
asbasbasbag53
(g69
g55
NtRp3707
(dp3708
g58
(dp3709
sg67
g3690
sg60
(lp3710
g53
(g74
g55
NtRp3711
(dp3712
g58
(dp3713
sg67
g3707
sg60
(lp3714
g53
(g54
g55
NtRp3715
(dp3716
g58
(dp3717
g66
I1
ssg67
g3711
sg60
(lp3718
I00
asbasbasbag53
(g69
g55
NtRp3719
(dp3720
g58
(dp3721
sg67
g3690
sg60
(lp3722
g53
(g74
g55
NtRp3723
(dp3724
g58
(dp3725
sg67
g3719
sg60
(lp3726
g53
(g54
g55
NtRp3727
(dp3728
g58
(dp3729
g66
I1
ssg67
g3723
sg60
(lp3730
S'http://www.web2py.com'
p3731
asbasbasbag53
(g69
g55
NtRp3732
(dp3733
g58
(dp3734
sg67
g3690
sg60
(lp3735
g53
(g74
g55
NtRp3736
(dp3737
g58
(dp3738
sg67
g3732
sg60
(lp3739
g53
(g54
g55
NtRp3740
(dp3741
g58
(dp3742
g66
I1
ssg67
g3736
sg60
(lp3743
(lp3744
(g3421
(S's\x08\x00\x00\x00Download'
tRp3745
I00
S'http://www.web2py.com/examples/default/download'
p3746
tp3747
a(g3421
(S's\x07\x00\x00\x00Support'
tRp3748
I00
S'http://www.web2py.com/examples/default/support'
p3749
tp3750
a(g3421
(S's\x04\x00\x00\x00Demo'
tRp3751
I00
S'http://web2py.com/demo_admin'
p3752
tp3753
a(g3421
(S's\x0e\x00\x00\x00Quick Examples'
tRp3754
I00
S'http://web2py.com/examples/default/examples'
p3755
tp3756
a(g3421
(S's\x03\x00\x00\x00FAQ'
tRp3757
I00
S'http://web2py.com/AlterEgo'
p3758
tp3759
a(g3421
(S's\x06\x00\x00\x00Videos'
tRp3760
I00
S'http://www.web2py.com/examples/default/videos/'
p3761
tp3762
a(g3421
(S's\x11\x00\x00\x00Free Applications'
tRp3763
I00
S'http://web2py.com/appliances'
p3764
tp3765
a(g3421
(S's\x07\x00\x00\x00Plugins'
tRp3766
I00
S'http://web2py.com/plugins'
p3767
tp3768
a(g3421
(S's\x07\x00\x00\x00Layouts'
tRp3769
I00
S'http://web2py.com/layouts'
p3770
tp3771
a(g3421
(S's\x07\x00\x00\x00Recipes'
tRp3772
I00
S'http://web2pyslices.com/'
p3773
tp3774
a(g3421
(S's\x08\x00\x00\x00Semantic'
tRp3775
I00
S'http://web2py.com/semantic'
p3776
tp3777
aasbasbasbasbasbasbasbag53
(g69
g55
NtRp3778
(dp3779
g58
(dp3780
sg67
g3535
sg60
(lp3781
g53
(g74
g55
NtRp3782
(dp3783
g58
(dp3784
sg67
g3778
sg60
(lp3785
g53
(g54
g55
NtRp3786
(dp3787
g58
(dp3788
g66
I2
ssg67
g3782
sg60
(lp3789
g53
(g62
g55
NtRp3790
(dp3791
g58
(dp3792
g66
I1
ssg67
Nsg60
(lp3793
g53
(g69
g55
NtRp3794
(dp3795
g58
(dp3796
sg67
g3790
sg60
(lp3797
g53
(g74
g55
NtRp3798
(dp3799
g58
(dp3800
sg67
g3794
sg60
(lp3801
g53
(g54
g55
NtRp3802
(dp3803
g58
(dp3804
g66
I1
ssg67
g3798
sg60
(lp3805
g3421
(S's\r\x00\x00\x00Documentation'
tRp3806
asbasbasbag53
(g69
g55
NtRp3807
(dp3808
g58
(dp3809
sg67
g3790
sg60
(lp3810
g53
(g74
g55
NtRp3811
(dp3812
g58
(dp3813
sg67
g3807
sg60
(lp3814
g53
(g54
g55
NtRp3815
(dp3816
g58
(dp3817
g66
I1
ssg67
g3811
sg60
(lp3818
I00
asbasbasbag53
(g69
g55
NtRp3819
(dp3820
g58
(dp3821
sg67
g3790
sg60
(lp3822
g53
(g74
g55
NtRp3823
(dp3824
g58
(dp3825
sg67
g3819
sg60
(lp3826
g53
(g54
g55
NtRp3827
(dp3828
g58
(dp3829
g66
I1
ssg67
g3823
sg60
(lp3830
S'http://www.web2py.com/book'
p3831
asbasbasbag53
(g69
g55
NtRp3832
(dp3833
g58
(dp3834
sg67
g3790
sg60
(lp3835
g53
(g74
g55
NtRp3836
(dp3837
g58
(dp3838
sg67
g3832
sg60
(lp3839
g53
(g54
g55
NtRp3840
(dp3841
g58
(dp3842
g66
I1
ssg67
g3836
sg60
(lp3843
(lp3844
(g3421
(S's\x07\x00\x00\x00Preface'
tRp3845
I00
S'http://www.web2py.com/book/default/chapter/00'
p3846
tp3847
a(g3421
(S's\x0c\x00\x00\x00Introduction'
tRp3848
I00
S'http://www.web2py.com/book/default/chapter/01'
p3849
tp3850
a(g3421
(S's\x06\x00\x00\x00Python'
tRp3851
I00
S'http://www.web2py.com/book/default/chapter/02'
p3852
tp3853
a(g3421
(S's\x08\x00\x00\x00Overview'
tRp3854
I00
S'http://www.web2py.com/book/default/chapter/03'
p3855
tp3856
a(g3421
(S's\x08\x00\x00\x00The Core'
tRp3857
I00
S'http://www.web2py.com/book/default/chapter/04'
p3858
tp3859
a(g3421
(S's\t\x00\x00\x00The Views'
tRp3860
I00
S'http://www.web2py.com/book/default/chapter/05'
p3861
tp3862
a(g3421
(S's\x08\x00\x00\x00Database'
tRp3863
I00
S'http://www.web2py.com/book/default/chapter/06'
p3864
tp3865
a(g3421
(S's\x14\x00\x00\x00Forms and Validators'
tRp3866
I00
S'http://www.web2py.com/book/default/chapter/07'
p3867
tp3868
a(g3421
(S's\r\x00\x00\x00Email and SMS'
tRp3869
I00
S'http://www.web2py.com/book/default/chapter/08'
p3870
tp3871
a(g3421
(S's\x0e\x00\x00\x00Access Control'
tRp3872
I00
S'http://www.web2py.com/book/default/chapter/09'
p3873
tp3874
a(g3421
(S's\x08\x00\x00\x00Services'
tRp3875
I00
S'http://www.web2py.com/book/default/chapter/10'
p3876
tp3877
a(g3421
(S's\x0c\x00\x00\x00Ajax Recipes'
tRp3878
I00
S'http://www.web2py.com/book/default/chapter/11'
p3879
tp3880
a(g3421
(S's\x16\x00\x00\x00Components and Plugins'
tRp3881
I00
S'http://www.web2py.com/book/default/chapter/12'
p3882
tp3883
a(g3421
(S's\x12\x00\x00\x00Deployment Recipes'
tRp3884
I00
S'http://www.web2py.com/book/default/chapter/13'
p3885
tp3886
a(g3421
(S's\r\x00\x00\x00Other Recipes'
tRp3887
I00
S'http://www.web2py.com/book/default/chapter/14'
p3888
tp3889
a(g3421
(S's\r\x00\x00\x00Buy this book'
tRp3890
I00
S'http://stores.lulu.com/web2py'
p3891
tp3892
aasbasbasbasbasbasbasbag53
(g69
g55
NtRp3893
(dp3894
g58
(dp3895
sg67
g3535
sg60
(lp3896
g53
(g74
g55
NtRp3897
(dp3898
g58
(dp3899
sg67
g3893
sg60
(lp3900
g53
(g54
g55
NtRp3901
(dp3902
g58
(dp3903
g66
I2
ssg67
g3897
sg60
(lp3904
g53
(g62
g55
NtRp3905
(dp3906
g58
(dp3907
g66
I1
ssg67
Nsg60
(lp3908
g53
(g69
g55
NtRp3909
(dp3910
g58
(dp3911
sg67
g3905
sg60
(lp3912
g53
(g74
g55
NtRp3913
(dp3914
g58
(dp3915
sg67
g3909
sg60
(lp3916
g53
(g54
g55
NtRp3917
(dp3918
g58
(dp3919
g66
I1
ssg67
g3913
sg60
(lp3920
g3421
(S's\t\x00\x00\x00Community'
tRp3921
asbasbasbag53
(g69
g55
NtRp3922
(dp3923
g58
(dp3924
sg67
g3905
sg60
(lp3925
g53
(g74
g55
NtRp3926
(dp3927
g58
(dp3928
sg67
g3922
sg60
(lp3929
g53
(g54
g55
NtRp3930
(dp3931
g58
(dp3932
g66
I1
ssg67
g3926
sg60
(lp3933
I00
asbasbasbag53
(g69
g55
NtRp3934
(dp3935
g58
(dp3936
sg67
g3905
sg60
(lp3937
g53
(g74
g55
NtRp3938
(dp3939
g58
(dp3940
sg67
g3934
sg60
(lp3941
g53
(g54
g55
NtRp3942
(dp3943
g58
(dp3944
g66
I1
ssg67
g3938
sg60
(lp3945
Nasbasbasbag53
(g69
g55
NtRp3946
(dp3947
g58
(dp3948
sg67
g3905
sg60
(lp3949
g53
(g74
g55
NtRp3950
(dp3951
g58
(dp3952
sg67
g3946
sg60
(lp3953
g53
(g54
g55
NtRp3954
(dp3955
g58
(dp3956
g66
I1
ssg67
g3950
sg60
(lp3957
(lp3958
(g3421
(S's\x06\x00\x00\x00Groups'
tRp3959
I00
S'http://www.web2py.com/examples/default/usergroups'
p3960
tp3961
a(g3421
(S's\x07\x00\x00\x00Twitter'
tRp3962
I00
S'http://twitter.com/web2py'
p3963
tp3964
a(g3421
(S's\t\x00\x00\x00Live Chat'
tRp3965
I00
S'http://webchat.freenode.net/?channels=web2py'
p3966
tp3967
aasbasbasbasbasbasbasbag53
(g69
g55
NtRp3968
(dp3969
g58
(dp3970
sg67
g3535
sg60
(lp3971
g53
(g74
g55
NtRp3972
(dp3973
g58
(dp3974
sg67
g3968
sg60
(lp3975
g53
(g54
g55
NtRp3976
(dp3977
g58
(dp3978
g66
I2
ssg67
g3972
sg60
(lp3979
g53
(g62
g55
NtRp3980
(dp3981
g58
(dp3982
g66
I1
ssg67
Nsg60
(lp3983
g53
(g69
g55
NtRp3984
(dp3985
g58
(dp3986
sg67
g3980
sg60
(lp3987
g53
(g74
g55
NtRp3988
(dp3989
g58
(dp3990
sg67
g3984
sg60
(lp3991
g53
(g54
g55
NtRp3992
(dp3993
g58
(dp3994
g66
I1
ssg67
g3988
sg60
(lp3995
g3421
(S's\x07\x00\x00\x00Plugins'
tRp3996
asbasbasbag53
(g69
g55
NtRp3997
(dp3998
g58
(dp3999
sg67
g3980
sg60
(lp4000
g53
(g74
g55
NtRp4001
(dp4002
g58
(dp4003
sg67
g3997
sg60
(lp4004
g53
(g54
g55
NtRp4005
(dp4006
g58
(dp4007
g66
I1
ssg67
g4001
sg60
(lp4008
I00
asbasbasbag53
(g69
g55
NtRp4009
(dp4010
g58
(dp4011
sg67
g3980
sg60
(lp4012
g53
(g74
g55
NtRp4013
(dp4014
g58
(dp4015
sg67
g4009
sg60
(lp4016
g53
(g54
g55
NtRp4017
(dp4018
g58
(dp4019
g66
I1
ssg67
g4013
sg60
(lp4020
Nasbasbasbag53
(g69
g55
NtRp4021
(dp4022
g58
(dp4023
sg67
g3980
sg60
(lp4024
g53
(g74
g55
NtRp4025
(dp4026
g58
(dp4027
sg67
g4021
sg60
(lp4028
g53
(g54
g55
NtRp4029
(dp4030
g58
(dp4031
g66
I1
ssg67
g4025
sg60
(lp4032
(lp4033
(S'plugin_wiki'
p4034
I00
S'http://web2py.com/examples/default/download'
p4035
tp4036
a(g3421
(S's\r\x00\x00\x00Other Plugins'
tRp4037
I00
g3767
tp4038
a(g3421
(S's\x0e\x00\x00\x00Layout Plugins'
tRp4039
I00
g3770
tp4040
aasbasbasbasbasbasbasbasbasbasbasbasbasbasbasbasbasbasbasbag53
(g69
g55
NtRp4041
(dp4042
g58
(dp4043
sg67
g2885
sg60
(lp4044
g53
(g74
g55
NtRp4045
(dp4046
g58
(dp4047
g78
g79
ssg67
g4041
sg60
(lp4048
S'meta'
p4049
asbag53
(g74
g55
NtRp4050
(dp4051
g58
(dp4052
g85
g86
ssg67
g4041
sg60
(lp4053
S':'
asbag53
(g74
g55
NtRp4054
(dp4055
g58
(dp4056
sg67
g4041
sg60
(lp4057
g53
(g54
g55
NtRp4058
(dp4059
g58
(dp4060
g66
I5
ssg67
g4054
sg60
(lp4061
g53
(g62
g55
NtRp4062
(dp4063
g58
(dp4064
g66
I4
ssg67
Nsg60
(lp4065
g53
(g69
g55
NtRp4066
(dp4067
g58
(dp4068
sg67
g4062
sg60
(lp4069
g53
(g74
g55
NtRp4070
(dp4071
g58
(dp4072
g78
g79
ssg67
g4066
sg60
(lp4073
S'author'
p4074
asbag53
(g74
g55
NtRp4075
(dp4076
g58
(dp4077
g85
g86
ssg67
g4066
sg60
(lp4078
S':'
asbag53
(g74
g55
NtRp4079
(dp4080
g58
(dp4081
sg67
g4066
sg60
(lp4082
g53
(g54
g55
NtRp4083
(dp4084
g58
(dp4085
g66
I4
ssg67
g4079
sg60
(lp4086
S'Your Name <you@example.com>'
p4087
asbasbasbag53
(g69
g55
NtRp4088
(dp4089
g58
(dp4090
sg67
g4062
sg60
(lp4091
g53
(g74
g55
NtRp4092
(dp4093
g58
(dp4094
g78
g79
ssg67
g4088
sg60
(lp4095
S'copyright'
p4096
asbag53
(g74
g55
NtRp4097
(dp4098
g58
(dp4099
g85
g86
ssg67
g4088
sg60
(lp4100
S':'
asbag53
(g74
g55
NtRp4101
(dp4102
g58
(dp4103
sg67
g4088
sg60
(lp4104
g53
(g54
g55
NtRp4105
(dp4106
g58
(dp4107
g66
I4
ssg67
g4101
sg60
(lp4108
S'Copyright 2011'
p4109
asbasbasbag53
(g69
g55
NtRp4110
(dp4111
g58
(dp4112
sg67
g4062
sg60
(lp4113
g53
(g74
g55
NtRp4114
(dp4115
g58
(dp4116
g78
g79
ssg67
g4110
sg60
(lp4117
S'description'
p4118
asbag53
(g74
g55
NtRp4119
(dp4120
g58
(dp4121
g85
g86
ssg67
g4110
sg60
(lp4122
S':'
asbag53
(g74
g55
NtRp4123
(dp4124
g58
(dp4125
sg67
g4110
sg60
(lp4126
g53
(g54
g55
NtRp4127
(dp4128
g58
(dp4129
g66
I4
ssg67
g4123
sg60
(lp4130
S'a cool new app'
p4131
asbasbasbag53
(g69
g55
NtRp4132
(dp4133
g58
(dp4134
sg67
g4062
sg60
(lp4135
g53
(g74
g55
NtRp4136
(dp4137
g58
(dp4138
g78
g79
ssg67
g4132
sg60
(lp4139
S'generator'
p4140
asbag53
(g74
g55
NtRp4141
(dp4142
g58
(dp4143
g85
g86
ssg67
g4132
sg60
(lp4144
S':'
asbag53
(g74
g55
NtRp4145
(dp4146
g58
(dp4147
sg67
g4132
sg60
(lp4148
g53
(g54
g55
NtRp4149
(dp4150
g58
(dp4151
g66
I4
ssg67
g4145
sg60
(lp4152
S'Web2py Web Framework'
p4153
asbasbasbag53
(g69
g55
NtRp4154
(dp4155
g58
(dp4156
sg67
g4062
sg60
(lp4157
g53
(g74
g55
NtRp4158
(dp4159
g58
(dp4160
g78
g79
ssg67
g4154
sg60
(lp4161
S'keywords'
p4162
asbag53
(g74
g55
NtRp4163
(dp4164
g58
(dp4165
g85
g86
ssg67
g4154
sg60
(lp4166
S':'
asbag53
(g74
g55
NtRp4167
(dp4168
g58
(dp4169
sg67
g4154
sg60
(lp4170
g53
(g54
g55
NtRp4171
(dp4172
g58
(dp4173
g66
I4
ssg67
g4167
sg60
(lp4174
S'web2py, python, framework'
p4175
asbasbasbasbasbasbasbag53
(g69
g55
NtRp4176
(dp4177
g58
(dp4178
sg67
g2885
sg60
(lp4179
g53
(g74
g55
NtRp4180
(dp4181
g58
(dp4182
g78
g79
ssg67
g4176
sg60
(lp4183
S'postprocessing'
p4184
asbag53
(g74
g55
NtRp4185
(dp4186
g58
(dp4187
g85
g86
ssg67
g4176
sg60
(lp4188
S':'
asbag53
(g74
g55
NtRp4189
(dp4190
g58
(dp4191
sg67
g4176
sg60
(lp4192
g53
(g54
g55
NtRp4193
(dp4194
g58
(dp4195
g66
I5
ssg67
g4189
sg60
(lp4196
g53
(g62
g55
NtRp4197
(dp4198
g58
(dp4199
g66
I4
ssg67
Nsg60
(lp4200
sbasbasbasbag53
(g69
g55
NtRp4201
(dp4202
g58
(dp4203
sg67
g2885
sg60
(lp4204
g53
(g74
g55
NtRp4205
(dp4206
g58
(dp4207
g78
g79
ssg67
g4201
sg60
(lp4208
S'session_db'
p4209
asbag53
(g74
g55
NtRp4210
(dp4211
g58
(dp4212
g85
g86
ssg67
g4201
sg60
(lp4213
S':'
asbag53
(g74
g55
NtRp4214
(dp4215
g58
(dp4216
sg67
g4201
sg60
(lp4217
g53
(g54
g55
NtRp4218
(dp4219
g58
(dp4220
g66
I5
ssg67
g4214
sg60
(lp4221
g730
asbasbasbag53
(g69
g55
NtRp4222
(dp4223
g58
(dp4224
sg67
g2885
sg60
(lp4225
g53
(g74
g55
NtRp4226
(dp4227
g58
(dp4228
g78
g79
ssg67
g4222
sg60
(lp4229
S'session_id'
p4230
asbag53
(g74
g55
NtRp4231
(dp4232
g58
(dp4233
g85
g86
ssg67
g4222
sg60
(lp4234
S':'
asbag53
(g74
g55
NtRp4235
(dp4236
g58
(dp4237
sg67
g4222
sg60
(lp4238
g53
(g54
g55
NtRp4239
(dp4240
g58
(dp4241
g66
I5
ssg67
g4235
sg60
(lp4242
S'22:916ef1c2-7902-46d9-bbc5-80f0afcec41d'
p4243
asbasbasbag53
(g69
g55
NtRp4244
(dp4245
g58
(dp4246
sg67
g2885
sg60
(lp4247
g53
(g74
g55
NtRp4248
(dp4249
g58
(dp4250
g78
g79
ssg67
g4244
sg60
(lp4251
S'session_id_name'
p4252
asbag53
(g74
g55
NtRp4253
(dp4254
g58
(dp4255
g85
g86
ssg67
g4244
sg60
(lp4256
S':'
asbag53
(g74
g55
NtRp4257
(dp4258
g58
(dp4259
sg67
g4244
sg60
(lp4260
g53
(g54
g55
NtRp4261
(dp4262
g58
(dp4263
g66
I5
ssg67
g4257
sg60
(lp4264
S'session_id_init'
p4265
asbasbasbag53
(g69
g55
NtRp4266
(dp4267
g58
(dp4268
sg67
g2885
sg60
(lp4269
g53
(g74
g55
NtRp4270
(dp4271
g58
(dp4272
g78
g79
ssg67
g4266
sg60
(lp4273
S'status'
p4274
asbag53
(g74
g55
NtRp4275
(dp4276
g58
(dp4277
g85
g86
ssg67
g4266
sg60
(lp4278
S':'
asbag53
(g74
g55
NtRp4279
(dp4280
g58
(dp4281
sg67
g4266
sg60
(lp4282
g53
(g54
g55
NtRp4283
(dp4284
g58
(dp4285
g66
I5
ssg67
g4279
sg60
(lp4286
S'200'
p4287
asbasbasbag53
(g69
g55
NtRp4288
(dp4289
g58
(dp4290
sg67
g2885
sg60
(lp4291
g53
(g74
g55
NtRp4292
(dp4293
g58
(dp4294
g78
g79
ssg67
g4288
sg60
(lp4295
S'subtitle'
p4296
asbag53
(g74
g55
NtRp4297
(dp4298
g58
(dp4299
g85
g86
ssg67
g4288
sg60
(lp4300
S':'
asbag53
(g74
g55
NtRp4301
(dp4302
g58
(dp4303
sg67
g4288
sg60
(lp4304
g53
(g54
g55
NtRp4305
(dp4306
g58
(dp4307
g66
I5
ssg67
g4301
sg60
(lp4308
g3421
(S's\r\x00\x00\x00customize me!'
tRp4309
asbasbasbag53
(g69
g55
NtRp4310
(dp4311
g58
(dp4312
sg67
g2885
sg60
(lp4313
g53
(g74
g55
NtRp4314
(dp4315
g58
(dp4316
g78
g79
ssg67
g4310
sg60
(lp4317
S'title'
p4318
asbag53
(g74
g55
NtRp4319
(dp4320
g58
(dp4321
g85
g86
ssg67
g4310
sg60
(lp4322
S':'
asbag53
(g74
g55
NtRp4323
(dp4324
g58
(dp4325
sg67
g4310
sg60
(lp4326
g53
(g54
g55
NtRp4327
(dp4328
g58
(dp4329
g66
I5
ssg67
g4323
sg60
(lp4330
S'Init'
p4331
asbasbasbag53
(g69
g55
NtRp4332
(dp4333
g58
(dp4334
sg67
g2885
sg60
(lp4335
g53
(g74
g55
NtRp4336
(dp4337
g58
(dp4338
g78
g79
ssg67
g4332
sg60
(lp4339
g2112
asbag53
(g74
g55
NtRp4340
(dp4341
g58
(dp4342
g85
g86
ssg67
g4332
sg60
(lp4343
S':'
asbag53
(g74
g55
NtRp4344
(dp4345
g58
(dp4346
sg67
g4332
sg60
(lp4347
g53
(g54
g55
NtRp4348
(dp4349
g58
(dp4350
g66
I5
ssg67
g4344
sg60
(lp4351
g2125
asbasbasbag53
(g69
g55
NtRp4352
(dp4353
g58
(dp4354
sg67
g2885
sg60
(lp4355
g53
(g74
g55
NtRp4356
(dp4357
g58
(dp4358
g78
g79
ssg67
g4352
sg60
(lp4359
S'view'
p4360
asbag53
(g74
g55
NtRp4361
(dp4362
g58
(dp4363
g85
g86
ssg67
g4352
sg60
(lp4364
S':'
asbag53
(g74
g55
NtRp4365
(dp4366
g58
(dp4367
sg67
g4352
sg60
(lp4368
g53
(g54
g55
NtRp4369
(dp4370
g58
(dp4371
g66
I5
ssg67
g4365
sg60
(lp4372
S'default/initdbjack.html'
p4373
asbasbasbasbasbsS'locals'
p4374
(dp4375
S'fields'
p4376
S"[(<gluon.dal.Field object at 0x047C3970>, 'Decoupeuse a plasma'), (<gluon.dal.Field object at 0x047C34B0>, <Row {'Nom': 'Mettalerrie', 'update_record': <fu...lDemande': <gluon.dal.Set object at 0x043D2410>}>)]"
p4377
sS'self'
p4378
S'<gluon.dal.SQLiteAdapter object at 0x0424D370>'
p4379
sS'e'
S"IntegrityError('column Nom is not unique',)"
p4380
sS'table'
p4381
S"<Table {'Nom': <gluon.dal.Field object at 0x047C...>, 'id': <gluon.dal.Field object at 0x04689870>}>"
p4382
sS'query'
p4383
S'"INSERT INTO Item(Nom,Skill) VALUES (\'Decoupeuse a plasma\',2);"'
p4384
sssS'traceback'
p4385
S'Traceback (most recent call last):\n  File "gluon/restricted.py", line 205, in restricted\n  File "C:\\Users\\Bussiere\\Dropbox\\Projets\\jackpoint\\web2py\\applications\\init\\controllers/default.py", line 632, in <module>\n  File "gluon/globals.py", line 173, in <lambda>\n  File "C:\\Users\\Bussiere\\Dropbox\\Projets\\jackpoint\\web2py\\applications\\init\\controllers/default.py", line 518, in initdbjack\n  File "gluon/dal.py", line 6829, in insert\n  File "gluon/dal.py", line 928, in insert\nIntegrityError: column Nom is not unique\n'
p4386
s.