(dp1
S'output'
p2
S"<type 'exceptions.SyntaxError'> invalid syntax (controllers/default.py, line 316)"
p3
sS'layer'
p4
S'C:\\Users\\Bussiere\\Dropbox\\Projets\\jackpoint\\web2py\\applications\\init\\controllers/default.py'
p5
sS'code'
p6
S'\xef\xbb\xbf# -*- coding: utf-8 -*-\n# this file is released under public domain and you can use without limitations\n\n#########################################################################\n## This is a samples controller\n## - index is the default action of any application\n## - user is required for authentication and authorization\n## - download is for downloading files uploaded in the db (does streaming)\n## - call exposes all registered services (none by default)\n#########################################################################\n# Static analyzer import helpers: (STATIC_IMPORT_MARK)\nif 0: \n    import gluon\n    global cache; cache = gluon.cache.Cache()\n    global LOAD; LOAD  = gluon.compileapp.LoadFactory()\n    import gluon.compileapp.local_import_aux as local_import #@UnusedImport\n    from gluon.contrib.gql import GQLDB #@UnusedImport\n    from gluon.dal import Field #@UnusedImport\n    global request; request = gluon.globals.Request()\n    global response; response = gluon.globals.Response()\n    global session; session = gluon.globals.Session()\n    from gluon.html import A #@UnusedImport\n    from gluon.html import B #@UnusedImport\n    from gluon.html import BEAUTIFY #@UnusedImport\n    from gluon.html import BODY #@UnusedImport\n    from gluon.html import BR #@UnusedImport\n    from gluon.html import CENTER #@UnusedImport\n    from gluon.html import CODE #@UnusedImport\n    from gluon.html import DIV #@UnusedImport\n    from gluon.html import EM #@UnusedImport\n    from gluon.html import EMBED #@UnusedImport\n    from gluon.html import embed64 #@UnusedImport\n    from gluon.html import FIELDSET #@UnusedImport\n    from gluon.html import FORM #@UnusedImport\n    from gluon.html import H1 #@UnusedImport\n    from gluon.html import H2 #@UnusedImport\n    from gluon.html import H3 #@UnusedImport\n    from gluon.html import H4 #@UnusedImport\n    from gluon.html import H5 #@UnusedImport\n    from gluon.html import H6 #@UnusedImport\n    from gluon.html import HEAD #@UnusedImport\n    from gluon.html import HR #@UnusedImport\n    from gluon.html import HTML #@UnusedImport\n    from gluon.html import I #@UnusedImport\n    from gluon.html import IFRAME #@UnusedImport\n    from gluon.html import IMG #@UnusedImport\n    from gluon.html import INPUT #@UnusedImport\n    from gluon.html import LABEL #@UnusedImport\n    from gluon.html import LEGEND #@UnusedImport\n    from gluon.html import LI #@UnusedImport\n    from gluon.html import LINK #@UnusedImport\n    from gluon.html import MARKMIN #@UnusedImport\n    from gluon.html import MENU #@UnusedImport\n    from gluon.html import META #@UnusedImport\n    from gluon.html import OBJECT #@UnusedImport\n    from gluon.html import OL #@UnusedImport\n    from gluon.html import ON #@UnusedImport\n    from gluon.html import OPTGROUP #@UnusedImport\n    from gluon.html import OPTION #@UnusedImport\n    from gluon.html import P #@UnusedImport\n    from gluon.html import PRE #@UnusedImport\n    from gluon.html import STYLE #@UnusedImport\n    from gluon.html import SCRIPT #@UnusedImport\n    from gluon.html import SELECT #@UnusedImport\n    from gluon.html import SPAN #@UnusedImport\n    from gluon.html import TABLE #@UnusedImport\n    from gluon.html import TAG #@UnusedImport\n    from gluon.html import TBODY #@UnusedImport\n    from gluon.html import TD #@UnusedImport\n    from gluon.html import TEXTAREA #@UnusedImport\n    from gluon.html import TFOOT #@UnusedImport\n    from gluon.html import TH  #@UnusedImport\n    from gluon.html import THEAD #@UnusedImport\n    from gluon.html import TITLE #@UnusedImport\n    from gluon.html import TR #@UnusedImport\n    from gluon.html import TT #@UnusedImport\n    from gluon.html import UL #@UnusedImport\n    from gluon.html import URL #@UnusedImport\n    from gluon.html import XHTML #@UnusedImport\n    from gluon.html import XML #@UnusedImport\n    from gluon.html import xmlescape #@UnusedImport\n    from gluon.http import HTTP #@UnusedImport\n    from gluon.http import redirect #@UnusedImport\n    import gluon.languages.translator as T #@UnusedImport\n    from gluon.sql import DAL\n    global db; db = DAL()\n    from gluon.sql import SQLDB #@UnusedImport\n    from gluon.sql import SQLField #@UnusedImport\n    from gluon.sqlhtml import SQLFORM #@UnusedImport\n    from gluon.sqlhtml import SQLTABLE #@UnusedImport\n    from gluon.tools import  Auth\n    global auth; auth = Auth()\n    from gluon.tools import Crud\n    global crud; crud = Crud()\n    from gluon.tools import fetch #@UnusedImport\n    from gluon.tools import geocode #@UnusedImport\n    from gluon.tools import Mail\n    global mail; mail = Mail()\n    from gluon.tools import PluginManager\n    global plugins; plugins = PluginManager()\n    from gluon.tools import prettydate #@UnusedImport\n    from gluon.tools import Recaptcha #@UnusedImport\n    from gluon.tools import Service\n    global service; service = Service()\n    from gluon.validators import CLEANUP  #@UnusedImport\n    from gluon.validators import CRYPT #@UnusedImport\n    from gluon.validators import IS_ALPHANUMERIC #@UnusedImport\n    from gluon.validators import IS_DATE #@UnusedImport\n    from gluon.validators import IS_DATE_IN_RANGE #@UnusedImport\n    from gluon.validators import IS_DATETIME #@UnusedImport\n    from gluon.validators import IS_DATETIME_IN_RANGE #@UnusedImport\n    from gluon.validators import IS_DECIMAL_IN_RANGE #@UnusedImport\n    from gluon.validators import IS_EMAIL #@UnusedImport\n    from gluon.validators import IS_EMPTY_OR #@UnusedImport\n    from gluon.validators import IS_EQUAL_TO #@UnusedImport\n    from gluon.validators import IS_EXPR #@UnusedImport\n    from gluon.validators import IS_FLOAT_IN_RANGE #@UnusedImport\n    from gluon.validators import IS_IMAGE #@UnusedImport\n    from gluon.validators import IS_IN_DB #@UnusedImport\n    from gluon.validators import IS_IN_SET #@UnusedImport\n    from gluon.validators import IS_INT_IN_RANGE #@UnusedImport\n    from gluon.validators import IS_IPV4 #@UnusedImport\n    from gluon.validators import IS_LENGTH #@UnusedImport\n    from gluon.validators import IS_LIST_OF #@UnusedImport\n    from gluon.validators import IS_LOWER #@UnusedImport\n    from gluon.validators import IS_MATCH #@UnusedImport\n    from gluon.validators import IS_NOT_EMPTY #@UnusedImport\n    from gluon.validators import IS_NOT_IN_DB #@UnusedImport\n    from gluon.validators import IS_NULL_OR #@UnusedImport\n    from gluon.validators import IS_SLUG #@UnusedImport\n    from gluon.validators import IS_STRONG  #@UnusedImport\n    from gluon.validators import IS_TIME #@UnusedImport\n    from gluon.validators import IS_UPLOAD_FILENAME #@UnusedImport\n    from gluon.validators import IS_UPPER #@UnusedImpor\n\n\nimport random\nfrom uuid import uuid4\nfrom gluon.storage import Storage\nsettings = Storage()\n\n\ndef logout():\n    return auth.logout()\n\n\ndef index():\n    if auth.is_logged_in() :\n        return "You get the blue pills"\n    else :\n        return dict(form=auth.login(),faq=URL(\'faq\'))\n\n\n\ndef ensurefirstuser(Surnom, email, password):\n  users = db(db.auth_user.email == email).select()\n  if users:\n    user_id = users[0].id\n    created = False\n    print (\'found user_id so created equals %s\') % created\n    if settings.debug_ensure_first_user == True:\n      print (\'found user_id so created equals %s\') % created\n    return (user_id, created)\n\n  else:\n    my_crypt = CRYPT(key=auth.settings.hmac_key)\n    crypt_pass = my_crypt(password)[0]    \n    id_user = db.auth_user.insert(\n                   Surnom=Surnom,\n                   email=email,\n                   username=email,\n                   Items = None,\n                   Skills = None,\n                   password=crypt_pass,\n                                   )\n    db.commit()\n    created = True\n    print (\'creating user_id\')\n    if settings.debug_ensure_first_user == True:\n      print (\'creating user_id\')\n    return (id_user, created)\n\n    \n\n\ndef ensure_users():\n  user_id, created = _ensure_user(\'first\', \'last\', \'email@address.com\', \'UserPassword12345\')\n  if settings.debug_ensure_users == True:\n    print (\'user id %i\') % user_id\n    print (\'created %s\') % created\n\ndef ensure_group_role(role, description):\n  if not auth.id_group(role=role):  \n    auth.add_group(role=role, description=description)  \n    if settings.debug_ensure_group_role == True:\n      print (\'created role %s\') % (role)\n\ndef ensure_membership(group_id, user_id):\n  return_group_id = auth.add_membership(role=role, user_id=user_id)\n  if settings.debug_ensure_membership == True:\n    print (\'made user_id member of %s\') % (role)\n  return return_group_id\n \ndef ensure_permissions(role, description, user_id):\n  ensure_group_role(role, description)\n  return_group_id = ensure_membership(group_id, user_id)\n  if settings.debug_ensure_permissions == True:\n    print return_group_id\n\ndef generate_invitation(number,word=4,num=1,numdigit=5):\n    code = [\n[\'BELCHER\', \'FIX\', \'EEL\', \'PANZERBOY\', \'DESK_JOCKEY\', \'CHILLED\', \'ENFORCER\', \'CHERRY_PICKING\', \'COUNTRY_CLUB\', \'BOMBSHELL\', \'PLUGGED_IN\', \'FINI\', \'LEGIT\', \'JAM\', \'BONED_OUT\', \'BLADE\', \'ROUST\', \'SAMURAI\', \'DISK\', \'INPUT\', \'POST_TIME\', \'SOUNDS\', \'SKIP\', \'FLATBACKER\', \'WILSON\', \'SHOEMAKER\', \'DELTA_SIERRA\', \'HEART\', \'CROAK\', \'HEAD_HUNTER\', \'HOSHO_KAISHA\', "DELTA\'D", "\'FACE_(also,_FACE,_EYE-FACE,_I-FACE)", \'WEEFLE\', \'DIRTGIRL\', \'KEYBOARD\', \'BRAIN_BUCKET\', \'DRYING_OUT\', \'OVERCOOK\', \'PIG\', \'COLD_TEA\', \'RECONFIG\', \'PAD\', \'LIT_UP\', \'WRAITH\', \'HANDLE\', \'L.P.\', \'PINCH\', \'TAKE_A_CAB\', \'SPILL\', \'ACE_KOOL\', \'DO\', \'BIZ\', \'BROWNIE\', \'CANDLE_AND_BLOOD\', \'BLUEBOY\', \'UP_ON_IT\', \'BURN\', \'USER_INTERFACE\', \'HOB\', \'GYRO\', \'STUFFIT\', \'THATCH\', \'ICEBREAKER\', \'ZIP_GUN\', \'PETERMAN\', \'PLAY_DOUGH\', \'TREY-EIGHT\', \'SETTLE\', "CHIPPIN\'_IN", \'MEATBALL\', \'RAFFLES\', \'YUBITSUME\', \'CROAKER\', \'SUCKER_POCKETS\', \'L.A.M.A.\', \'GEEK\', \'BUTTONHEAD\'],\n[\'TAKE\', \'TEKIYA\', \'KURUMAKU\', \'BLOC\', \'GAT\', \'JOHATSU\', \'CRYSTAL\', \'A.I.\', \'ZEROED\', \'OVER_THE_SHOULDER\', \'GRAB_GEE\', \'PANZER\', \'GO_LEO\', \'WASHED\', \'I.C.E.\', \'COPSHOP\', \'COLLATERAL_DAMAGE\', \'BIG_DARK\', \'DOUBLE-DEUCE\', \'ZONEDANCE\', \'MARK\', \'COBBERS\', \'CHIMPIRA\', \'TRIADS\', \'SHANK\', \'FRAG\', \'BREATH_VAC\', "CHARLIE\'S_ANGEL", \'MULE\', \'BURNER\', "PACKIN\'", \'HOTDOGGER\', \'BOSOZOKU\', \'RIPPERDOC\', \'THIRDMAN\', \'MAXIMUM,_MAX\', \'CHOOH2_("CHOO")\', \'CRYO_MAX\', \'HEATER\', \'SHARK\', \'JOYGIRL\', \'GURENTAI\', \'BANDIT\', \'VENICE\', \'MIZU_SHOBAI\', \'PASTA_BOYS\', \'SQUID\', \'CYBERED_UP\', \'DEAD_RECKONING\', \'POPSICLE\', \'FAUST\', \'COLLARBOY\', \'SHOES\', \'TORCH\', \'DELTAJOCK\', \'BUTTERFLY_MAN\', \'WISE_GUYS\', \'BOOST\', \'CAIN\', \'FOUR-FIVE\', \'BREAK-DOWN\', \'POLYMER_ONE-SHOT\', \'FLAG\', \'CALL_GIRL\', \'IN_THE_HUNT\', \'HYDRO\', \'DOCK\', \'FENCE\', \'SHAIKUJIN\', \'GOMI\', \'FILTER\', \'SAINT_NICK\', \'LINEFOOT\', \'CAVALRY\', \'PUKE\', \'CONVERSION\', \'FINGER\', \'CONTRACT\'],\n[\'PLASTIC\', \'CRYSTALJOCKEY,_CRYSTALJOCK\', \'SCREW\', \'TOYSTORE\', \'DREAM_TIME\', \'EXOTIC\', \'WALKABOUT\', \'DIAMOND_SEASON\', \'SARAKIN\', \'CHRISTMAS_BUNDLES\', \'SHADES\', \'BUTTON_MAN\', \'FOXTROT_UNIFORM\', \'KAI\', \'UNDER_THE_PAINT\', \'MINIMUM\', \'TRIPLE_A\', \'PIG_ON_A_WHEEL\', \'BAG_MAN\', \'DIP\', \'PIGEONS\', \'MAN\', \'ADAM_HENRY\', \'HIGH\', \'HEAT\', \'NINJO\', \'KNIFE_FIGHT\', \'MOUTHPIECE\', \'AGRIPLEX\', \'DATA_TERM\', \'LIZ\', \'CHROMER\', \'OUTPUT\', \'N.O.E.\', \'CLOSE_A_CONTRACT\', \'LASSIE\', \'FLATLINE\', \'CHIV\', \'SING\', \'AMMO\', \'RAT\', \'MATCHBOX\', \'PULL_AN_ASH\', \'BORYOKUDAN\', \'SQUEEZE\', \'RONIN\', \'HIT\', \'RAGS\', \'TAKE_OUT\', \'BEAT_THE_RAP\', \'GIRI\', \'RUNNING_THE_LINE\', \'HARNESS\', \'GRAVEROBBER\', \'DROP_A_DIME\', \'BADGE_ON_A_BEAVER\', \'FLETCHER\', \'AMPED-OUT\', \'NEUTRALIZE\', \'PETER\', \'CONFIG\', \'HARDFIRE\', \'B.A.M.A.\', \'CHROMATIC_ROCK\', \'MOLDED\', \'RAD\', \'CREASED\', \'CHATTER_BOX\', \'HAND_CANNON\', \'NIPPERS\', \'SIERRA_HOTEL\', \'HOOK_UP\', \'-JOCKEY,_-JOCK\', \'BUG\', \'BATMAN_AND_ROBIN\', \'BLACK_OPERATIONS\', "D.C.\'S", \'SO_KA\'],\n[\'_A.A.A.\', \'HOME_PLATE\', \'LITEJACK\', \'PINEAPPLE\', \'MAKE\', \'THE_STREET\', \'SITREP\', \'HANGING_PAPER\', \'PAINT_BOYS\', \'WETWORK\', \'NINER\', \'BOOKIE\', \'WHIPLASH\', \'TORPEDO\', \'HEATWAVE\', \'SOLAR_WIND\', \'QUIFF\', \'BIKE\', \'TRAFFIC\', \'WIRE_ROOM\', \'OYABUN\', \'COWBOY\', \'KOBUN\', \'MUDBOY\', \'COP_OUT\', \'SOKAIYA\', "\'DORPH", \'JOYBOY\', \'DIRTY\', \'BOAT\', \'DROP\', \'GRAV_or_GEE\', \'APOGEE\', \'BOOSTER\', \'BOOK\', \'FRY\', \'PULLING_TEETH\', \'ONE_LARGE\', \'COMBAT_DRUGS\', \'THRASH\', \'DO_A_GHOST\', \'DELTA\', \'RIN_TIN_TIN\', \'DROP_OUT\', \'GUMI\', \'ROCKERBOY/GIRL\', \'BULLET\', \'DEB\', \'THREADING_THE_NEEDLE\', \'MOTOR\', \'BLEEDER\', \'ARC\', \'BOPPER\', \'WASTE\', \'_DEMUKAI\', \'BREAK\', \'HOLDING_DOWN\', \'FEDS\', \'GAP\', \'RABBI\', \'BAKUTO\', \'CHOMBATTA_(CHOOMBA)\', \'BIG_HATS\', \'MR._JOHNSON\', \'EXEC\', \'BULL\', \'BULLSEYE\', \'POSERGANG\', \'CHAOL\', \'GEISHA\', \'SLAMMIT_ON\', \'POP_CAPS\', \'HARD_TIME\', \'BENJI\', \'MAKING_BANK\', \'PAPERHANGER\', \'NETRUN\', \'BOGEY\'],\n]     \n    i = 0\n    invits = []\n    print number\n    while (i < number):\n        invit = ""\n        j = 0\n        while (j < word):\n            debut = random.randint(0,len(code)-1)\n            codepick = code[debut][random.randint(0,len(code[debut])-1)]\n            j += 1\n            invit += codepick+"-"\n        j = 0\n        while (j < num):\n            invit += randomdig(numdigit)+"-"\n            j += 1\n        i+= 1\n        invit = invit[:-1]\n        if invit not in invits :\n            invits.append(invit[:-1])\n            print invit\n    return invits\n        \ndef randomdig(number):\n    max = "9"*number\n    max = int(max)\n    rand =  random.randint(0,max)\n    rand = str(rand)\n    rand = "0"*(number-len(rand))+rand\n    return rand\n\n@auth.requires_login()\ndef inscriptioninvit():\n    form = SQLFORM(db[auth.settings.table_user_name])\n    return dict(form=form)\n\n\ndef userstuff():\n    return dict(rows1 = db().select(db.Carac.ALL),rows2 = db().select(db.SkillLevel.ALL) )\n\ndef initdbjack():\n    if db(db.auth_user.username == "bussiere").count() == 0:\n            password= "titi" \n            my_crypt = CRYPT(key=auth.settings.hmac_key)\n            crypt_pass = my_crypt(password)[0]  \n            buss = db.auth_user.insert(\n               email= "bussiere2@gmail.com",\n               username="bussiere",\n               password=crypt_pass,\n            )\n            jack = auth.add_group(\'Jack\', \'Jack master of none\')\n            auth.add_membership(jack, buss)\n            db.commit()  \n    db.commit() \n    carac = ["Force","Logique","Volonte","Charisme","Apparence","Dexterite"]\n    skills = { \n    "Physique":{\n                "Sport":{\n                         "Capoeira" :{ \n                                      "bengale":{}\n                                      },\n                        "Karate":{\n                                  "Nord" : {},\n                                  "Sud" : {},\n                                 },\n                         },\n            },\n\n\n    "Technique":{\n                "Mettalerrie" : {\n                                 "Forge" : {},\n                                  \n                                  },\n                 \n    },\n\n    "Savoir":{\n              "Informatique" : {\n                                   "Programmation" :{\n                                                     "Python" :{\n                                                                 "Django" : {} ,\n                                                                  "Web2py" : {}\n                                                                },\n                                                     "Methode" :{\n                                                                 "Uml":{},\n                                                                  "Merise": {}\n                                                                },\n                                                     },\n                                   },\n\n            },\n    }\n\n    for c in carac :\n        if db(db.Carac.Nom == c).count() == 0:\n            db.Carac.insert(Nom=c)\n\n    for level1 in skills.keys() :\n        i = 0\n        if (db(db.Skill).select(join=db.SkillLevel.on(db.Skill.id==db.SkillLevel.Skill)).select(Nom == level1).count() == 0:\n            Skill1 = db.SkillLevel.insert(Skill = (db.Skill.insert(Nom=level1)),Level = i)\n            for level2 in level1.keys() :\n                i = 1\n                if db(db.SkillLevel.Skill.Nom == level2).count() == 0:\n                    Skill2 = db.SkillLevel.insert(Skill = (db.Skill.insert(Nom=level2)),Level = i,parent = Skill1)\n                    for level3 in level2.keys() :\n                        i = 2\n                        if db(db.SkillLevel.Skill.Nom == level3).count() == 0:\n                            Skill3 = db.SkillLevel.insert(Skill = (db.Skill.insert(Nom=level3)),Level = i,parent = Skill2)\n                            for level4 in level3.keys() :\n                                i = 3\n                            if db(db.SkillLevel.Skill.Nom == level4).count() == 0:\n                                Skill3 = db.SkillLevel.insert(Skill = (db.Skill.insert(Nom=level4)),Level = i,parent = Skill3)\n                                for level5 in level4.keys() :\n                                    i = 4\n                                    if db(db.SkillLevel.Skill.Nom == level5).count() == 0:\n                                        Skill3 = db.SkillLevel.insert(Skill = (db.Skill.insert(Nom=level4)),Level = i,parent = Skill4)\n    db.commit() \n\n\n\n\n\n\n\ndef liste_invitations():\n    return dict(rows = db().select(db.Invitation.ALL))\n\ndef liste_user():\n    return dict(rows = db().select(db.auth_user.ALL))\n\n#@auth.requires_membership(\'manager\')\ndef generate_invitationpage():\n   form=FORM("Nombre d\'invit a generer:", INPUT(_name=\'nmbreinvit\'), INPUT(_type=\'submit\'))\n   if form.process().accepted and form.vars.nmbreinvit != None :\n       i = form.vars.nmbreinvit\n       invitsgenere = generate_invitation(int(i))\n       for invit in invitsgenere :\n           db.Invitation.insert(Code=invit)\n           db.commit()\n       session.flash = \'invitation inserted\'\n       form=FORM("Nombre d\'invit a generer:", INPUT(_name=\'nmbreinvit\'), INPUT(_type=\'submit\'))\n       #db.Invitation.insert(Code="Toto-5542")\n       db.commit()\n   return dict(form=form)\n\ndef verif_invitation(form):\n    print form.vars.invitation\n    if db.Invitation(db.Invitation.Code==form.vars.invitation) == None :\n        form.errors.invitation = \'code invitation incorrect\'\n        print "mauvais"\n    else :\n        print "bon"\n\ndef invitation():\n    form=FORM("Code Invitation :", INPUT(_name=\'invitation\'),"<Email :",INPUT(_name=\'email\'),  INPUT(_type=\'submit\'))\n    if form.process(onvalidation=verif_invitation).accepted and  form.vars.invitation != None  :\n        email = form.vars.email\n        if db(db.auth_user.email == email).count() == 0:\n            password= form.vars.invitation  \n            my_crypt = CRYPT(key=auth.settings.hmac_key)\n            crypt_pass = my_crypt(password)[0]  \n            db.auth_user.insert(\n               email= email,\n               username="John_Doe",\n               password=crypt_pass,\n            )\n            db.commit()  \n            user = db(db.auth_user.email==email).select().first()\n            auth.user = Storage(auth.settings.table_user._filter_fields(user, id=True))\n            auth.environment.session.auth = Storage(user=user, last_visit=request.now,\n                                                expiration=auth.settings.expiration)\n            redirect(URL(\'inscriptioninvit\'))\n    return dict(form=form)\n\ndef faq():\n\n    return dict()\ndef user():\n    """\n    exposes:\n    http://..../[app]/default/user/login\n    http://..../[app]/default/user/logout\n    http://..../[app]/default/user/register\n    http://..../[app]/default/user/profile\n    http://..../[app]/default/user/retrieve_password\n    http://..../[app]/default/user/change_password\n    use @auth.requires_login()\n        @auth.requires_membership(\'group name\')\n        @auth.requires_permission(\'read\',\'table name\',record_id)\n    to decorate functions that need access control\n    """\n    return dict(form=auth())\n\n\ndef download():\n    """\n    allows downloading of uploaded files\n    http://..../[app]/default/download/[filename]\n    """\n    return response.download(request,db)\n\n\ndef call():\n    """\n    exposes services. for example:\n    http://..../[app]/default/call/jsonrpc\n    decorate with @services.jsonrpc the functions to expose\n    supports xml, json, xmlrpc, jsonrpc, amfrpc, rss, csv\n    """\n    return service()\n\n\n@auth.requires_signature()\ndef data():\n    """\n    http://..../[app]/default/data/tables\n    http://..../[app]/default/data/create/[table]\n    http://..../[app]/default/data/read/[table]/[id]\n    http://..../[app]/default/data/update/[table]/[id]\n    http://..../[app]/default/data/delete/[table]/[id]\n    http://..../[app]/default/data/select/[table]\n    http://..../[app]/default/data/search/[table]\n    but URLs must be signed, i.e. linked with\n      A(\'table\',_href=URL(\'data/tables\',user_signature=True))\n    or with the signed load operator\n      LOAD(\'default\',\'data.load\',args=\'tables\',ajax=True,user_signature=True)\n    """\n    return dict(form=crud())\n\nresponse._vars=response._caller(initdbjack)\n'
p7
sS'snapshot'
p8
(dp9
S'exception'
p10
(dp11
S'__getslice__'
p12
S"<method-wrapper '__getslice__' of exceptions.SyntaxError object at 0x085E1230>"
p13
sS'text'
p14
S"'        if (db(db.Skill).select(join=db.SkillLev...evel.Skill)).select(Nom == level1).count() == 0:\\n'"
p15
sS'__str__'
p16
S"<method-wrapper '__str__' of exceptions.SyntaxError object at 0x085E1230>"
p17
sS'__reduce__'
p18
S'<built-in method __reduce__ of exceptions.SyntaxError object at 0x085E1230>'
p19
sS'__dict__'
p20
S'{}'
p21
sS'__init__'
p22
S"<method-wrapper '__init__' of exceptions.SyntaxError object at 0x085E1230>"
p23
sS'__setattr__'
p24
S"<method-wrapper '__setattr__' of exceptions.SyntaxError object at 0x085E1230>"
p25
sS'__reduce_ex__'
p26
S'<built-in method __reduce_ex__ of exceptions.SyntaxError object at 0x085E1230>'
p27
sS'__new__'
p28
S'<built-in method __new__ of type object at 0x1E1CDBD0>'
p29
sS'__class__'
p30
S"<type 'exceptions.SyntaxError'>"
p31
sS'filename'
p32
S"r'C:\\Users\\Bussiere\\Dropbox\\Projets\\jackpoint\\web2py\\applications\\init\\controllers/default.py'"
p33
sS'lineno'
p34
S'316'
p35
sS'msg'
p36
S"'invalid syntax'"
p37
sS'__doc__'
p38
S"'Invalid syntax.'"
p39
sS'__getitem__'
p40
S"<method-wrapper '__getitem__' of exceptions.SyntaxError object at 0x085E1230>"
p41
sS'__setstate__'
p42
S'<built-in method __setstate__ of exceptions.SyntaxError object at 0x085E1230>'
p43
sS'__getattribute__'
p44
S"<method-wrapper '__getattribute__' of exceptions.SyntaxError object at 0x085E1230>"
p45
sS'print_file_and_line'
p46
S'None'
p47
sS'args'
p48
S"('invalid syntax', (r'C:\\Users\\Bussiere\\Dropbox\\Projets\\jackpoint\\web2py\\applications\\init\\controllers/default.py', 316, 124, '        if (db(db.Skill).select(join=db.SkillLev...evel.Skill)).select(Nom == level1).count() == 0:\\n'))"
p49
sS'offset'
p50
S'124'
p51
sS'__delattr__'
p52
S"<method-wrapper '__delattr__' of exceptions.SyntaxError object at 0x085E1230>"
p53
sS'__repr__'
p54
S"<method-wrapper '__repr__' of exceptions.SyntaxError object at 0x085E1230>"
p55
sS'__hash__'
p56
S"<method-wrapper '__hash__' of exceptions.SyntaxError object at 0x085E1230>"
p57
ssS'evalue'
p58
S'invalid syntax (controllers/default.py, line 316)'
p59
sS'request'
p60
ccopy_reg
_reconstructor
p61
(cgluon.html
BEAUTIFY
p62
c__builtin__
object
p63
NtRp64
(dp65
S'attributes'
p66
(dp67
sS'components'
p68
(lp69
g61
(cgluon.html
TABLE
p70
g63
NtRp71
(dp72
g66
(dp73
S'level'
p74
I5
ssS'parent'
p75
Nsg68
(lp76
g61
(cgluon.html
TR
p77
g63
NtRp78
(dp79
g66
(dp80
sg75
g71
sg68
(lp81
g61
(cgluon.html
TD
p82
g63
NtRp83
(dp84
g66
(dp85
S'_style'
p86
S'font-weight:bold;vertical-align:top'
p87
ssg75
g78
sg68
(lp88
S'ajax'
p89
asbag61
(g82
g63
NtRp90
(dp91
g66
(dp92
S'_valign'
p93
S'top'
p94
ssg75
g78
sg68
(lp95
S':'
asbag61
(g82
g63
NtRp96
(dp97
g66
(dp98
sg75
g78
sg68
(lp99
g61
(g62
g63
NtRp100
(dp101
g66
(dp102
g74
I5
ssg75
g96
sg68
(lp103
S'False'
p104
asbasbasbag61
(g77
g63
NtRp105
(dp106
g66
(dp107
sg75
g71
sg68
(lp108
g61
(g82
g63
NtRp109
(dp110
g66
(dp111
g86
g87
ssg75
g105
sg68
(lp112
S'application'
p113
asbag61
(g82
g63
NtRp114
(dp115
g66
(dp116
g93
g94
ssg75
g105
sg68
(lp117
S':'
asbag61
(g82
g63
NtRp118
(dp119
g66
(dp120
sg75
g105
sg68
(lp121
g61
(g62
g63
NtRp122
(dp123
g66
(dp124
g74
I5
ssg75
g118
sg68
(lp125
S'init'
p126
asbasbasbag61
(g77
g63
NtRp127
(dp128
g66
(dp129
sg75
g71
sg68
(lp130
g61
(g82
g63
NtRp131
(dp132
g66
(dp133
g86
g87
ssg75
g127
sg68
(lp134
g48
asbag61
(g82
g63
NtRp135
(dp136
g66
(dp137
g93
g94
ssg75
g127
sg68
(lp138
S':'
asbag61
(g82
g63
NtRp139
(dp140
g66
(dp141
sg75
g127
sg68
(lp142
g61
(g62
g63
NtRp143
(dp144
g66
(dp145
g74
I5
ssg75
g139
sg68
(lp146
g61
(g70
g63
NtRp147
(dp148
g66
(dp149
g74
I4
ssg75
Nsg68
(lp150
sbasbasbasbag61
(g77
g63
NtRp151
(dp152
g66
(dp153
sg75
g71
sg68
(lp154
g61
(g82
g63
NtRp155
(dp156
g66
(dp157
g86
g87
ssg75
g151
sg68
(lp158
S'body'
p159
asbag61
(g82
g63
NtRp160
(dp161
g66
(dp162
g93
g94
ssg75
g151
sg68
(lp163
S':'
asbag61
(g82
g63
NtRp164
(dp165
g66
(dp166
sg75
g151
sg68
(lp167
g61
(g62
g63
NtRp168
(dp169
g66
(dp170
g74
I5
ssg75
g164
sg68
(lp171
S'<cStringIO.StringO object at 0x083B8C00>'
p172
asbasbasbag61
(g77
g63
NtRp173
(dp174
g66
(dp175
sg75
g71
sg68
(lp176
g61
(g82
g63
NtRp177
(dp178
g66
(dp179
g86
g87
ssg75
g173
sg68
(lp180
S'client'
p181
asbag61
(g82
g63
NtRp182
(dp183
g66
(dp184
g93
g94
ssg75
g173
sg68
(lp185
S':'
asbag61
(g82
g63
NtRp186
(dp187
g66
(dp188
sg75
g173
sg68
(lp189
g61
(g62
g63
NtRp190
(dp191
g66
(dp192
g74
I5
ssg75
g186
sg68
(lp193
S'127.0.0.1'
p194
asbasbasbag61
(g77
g63
NtRp195
(dp196
g66
(dp197
sg75
g71
sg68
(lp198
g61
(g82
g63
NtRp199
(dp200
g66
(dp201
g86
g87
ssg75
g195
sg68
(lp202
S'controller'
p203
asbag61
(g82
g63
NtRp204
(dp205
g66
(dp206
g93
g94
ssg75
g195
sg68
(lp207
S':'
asbag61
(g82
g63
NtRp208
(dp209
g66
(dp210
sg75
g195
sg68
(lp211
g61
(g62
g63
NtRp212
(dp213
g66
(dp214
g74
I5
ssg75
g208
sg68
(lp215
S'default'
p216
asbasbasbag61
(g77
g63
NtRp217
(dp218
g66
(dp219
sg75
g71
sg68
(lp220
g61
(g82
g63
NtRp221
(dp222
g66
(dp223
g86
g87
ssg75
g217
sg68
(lp224
S'cookies'
p225
asbag61
(g82
g63
NtRp226
(dp227
g66
(dp228
g93
g94
ssg75
g217
sg68
(lp229
S':'
asbag61
(g82
g63
NtRp230
(dp231
g66
(dp232
sg75
g217
sg68
(lp233
g61
(g62
g63
NtRp234
(dp235
g66
(dp236
g74
I5
ssg75
g230
sg68
(lp237
g61
(g70
g63
NtRp238
(dp239
g66
(dp240
g74
I4
ssg75
Nsg68
(lp241
g61
(g77
g63
NtRp242
(dp243
g66
(dp244
sg75
g238
sg68
(lp245
g61
(g82
g63
NtRp246
(dp247
g66
(dp248
g86
g87
ssg75
g242
sg68
(lp249
S'session_id_admin'
p250
asbag61
(g82
g63
NtRp251
(dp252
g66
(dp253
g93
g94
ssg75
g242
sg68
(lp254
S':'
asbag61
(g82
g63
NtRp255
(dp256
g66
(dp257
sg75
g242
sg68
(lp258
g61
(g62
g63
NtRp259
(dp260
g66
(dp261
g74
I4
ssg75
g255
sg68
(lp262
g61
(g70
g63
NtRp263
(dp264
g66
(dp265
g74
I3
ssg75
Nsg68
(lp266
g61
(g77
g63
NtRp267
(dp268
g66
(dp269
sg75
g263
sg68
(lp270
g61
(g82
g63
NtRp271
(dp272
g66
(dp273
g86
g87
ssg75
g267
sg68
(lp274
S'comment'
p275
asbag61
(g82
g63
NtRp276
(dp277
g66
(dp278
g93
g94
ssg75
g267
sg68
(lp279
S':'
asbag61
(g82
g63
NtRp280
(dp281
g66
(dp282
sg75
g267
sg68
(lp283
g61
(g62
g63
NtRp284
(dp285
g66
(dp286
g74
I3
ssg75
g280
sg68
(lp287
S''
asbasbasbag61
(g77
g63
NtRp288
(dp289
g66
(dp290
sg75
g263
sg68
(lp291
g61
(g82
g63
NtRp292
(dp293
g66
(dp294
g86
g87
ssg75
g288
sg68
(lp295
S'domain'
p296
asbag61
(g82
g63
NtRp297
(dp298
g66
(dp299
g93
g94
ssg75
g288
sg68
(lp300
S':'
asbag61
(g82
g63
NtRp301
(dp302
g66
(dp303
sg75
g288
sg68
(lp304
g61
(g62
g63
NtRp305
(dp306
g66
(dp307
g74
I3
ssg75
g301
sg68
(lp308
S''
asbasbasbag61
(g77
g63
NtRp309
(dp310
g66
(dp311
sg75
g263
sg68
(lp312
g61
(g82
g63
NtRp313
(dp314
g66
(dp315
g86
g87
ssg75
g309
sg68
(lp316
S'expires'
p317
asbag61
(g82
g63
NtRp318
(dp319
g66
(dp320
g93
g94
ssg75
g309
sg68
(lp321
S':'
asbag61
(g82
g63
NtRp322
(dp323
g66
(dp324
sg75
g309
sg68
(lp325
g61
(g62
g63
NtRp326
(dp327
g66
(dp328
g74
I3
ssg75
g322
sg68
(lp329
S''
asbasbasbag61
(g77
g63
NtRp330
(dp331
g66
(dp332
sg75
g263
sg68
(lp333
g61
(g82
g63
NtRp334
(dp335
g66
(dp336
g86
g87
ssg75
g330
sg68
(lp337
S'max-age'
p338
asbag61
(g82
g63
NtRp339
(dp340
g66
(dp341
g93
g94
ssg75
g330
sg68
(lp342
S':'
asbag61
(g82
g63
NtRp343
(dp344
g66
(dp345
sg75
g330
sg68
(lp346
g61
(g62
g63
NtRp347
(dp348
g66
(dp349
g74
I3
ssg75
g343
sg68
(lp350
S''
asbasbasbag61
(g77
g63
NtRp351
(dp352
g66
(dp353
sg75
g263
sg68
(lp354
g61
(g82
g63
NtRp355
(dp356
g66
(dp357
g86
g87
ssg75
g351
sg68
(lp358
S'path'
p359
asbag61
(g82
g63
NtRp360
(dp361
g66
(dp362
g93
g94
ssg75
g351
sg68
(lp363
S':'
asbag61
(g82
g63
NtRp364
(dp365
g66
(dp366
sg75
g351
sg68
(lp367
g61
(g62
g63
NtRp368
(dp369
g66
(dp370
g74
I3
ssg75
g364
sg68
(lp371
S''
asbasbasbag61
(g77
g63
NtRp372
(dp373
g66
(dp374
sg75
g263
sg68
(lp375
g61
(g82
g63
NtRp376
(dp377
g66
(dp378
g86
g87
ssg75
g372
sg68
(lp379
S'secure'
p380
asbag61
(g82
g63
NtRp381
(dp382
g66
(dp383
g93
g94
ssg75
g372
sg68
(lp384
S':'
asbag61
(g82
g63
NtRp385
(dp386
g66
(dp387
sg75
g372
sg68
(lp388
g61
(g62
g63
NtRp389
(dp390
g66
(dp391
g74
I3
ssg75
g385
sg68
(lp392
S''
asbasbasbag61
(g77
g63
NtRp393
(dp394
g66
(dp395
sg75
g263
sg68
(lp396
g61
(g82
g63
NtRp397
(dp398
g66
(dp399
g86
g87
ssg75
g393
sg68
(lp400
S'version'
p401
asbag61
(g82
g63
NtRp402
(dp403
g66
(dp404
g93
g94
ssg75
g393
sg68
(lp405
S':'
asbag61
(g82
g63
NtRp406
(dp407
g66
(dp408
sg75
g393
sg68
(lp409
g61
(g62
g63
NtRp410
(dp411
g66
(dp412
g74
I3
ssg75
g406
sg68
(lp413
S''
asbasbasbasbasbasbasbag61
(g77
g63
NtRp414
(dp415
g66
(dp416
sg75
g238
sg68
(lp417
g61
(g82
g63
NtRp418
(dp419
g66
(dp420
g86
g87
ssg75
g414
sg68
(lp421
S'session_id_init'
p422
asbag61
(g82
g63
NtRp423
(dp424
g66
(dp425
g93
g94
ssg75
g414
sg68
(lp426
S':'
asbag61
(g82
g63
NtRp427
(dp428
g66
(dp429
sg75
g414
sg68
(lp430
g61
(g62
g63
NtRp431
(dp432
g66
(dp433
g74
I4
ssg75
g427
sg68
(lp434
g61
(g70
g63
NtRp435
(dp436
g66
(dp437
g74
I3
ssg75
Nsg68
(lp438
g61
(g77
g63
NtRp439
(dp440
g66
(dp441
sg75
g435
sg68
(lp442
g61
(g82
g63
NtRp443
(dp444
g66
(dp445
g86
g87
ssg75
g439
sg68
(lp446
g275
asbag61
(g82
g63
NtRp447
(dp448
g66
(dp449
g93
g94
ssg75
g439
sg68
(lp450
S':'
asbag61
(g82
g63
NtRp451
(dp452
g66
(dp453
sg75
g439
sg68
(lp454
g61
(g62
g63
NtRp455
(dp456
g66
(dp457
g74
I3
ssg75
g451
sg68
(lp458
S''
asbasbasbag61
(g77
g63
NtRp459
(dp460
g66
(dp461
sg75
g435
sg68
(lp462
g61
(g82
g63
NtRp463
(dp464
g66
(dp465
g86
g87
ssg75
g459
sg68
(lp466
g296
asbag61
(g82
g63
NtRp467
(dp468
g66
(dp469
g93
g94
ssg75
g459
sg68
(lp470
S':'
asbag61
(g82
g63
NtRp471
(dp472
g66
(dp473
sg75
g459
sg68
(lp474
g61
(g62
g63
NtRp475
(dp476
g66
(dp477
g74
I3
ssg75
g471
sg68
(lp478
S''
asbasbasbag61
(g77
g63
NtRp479
(dp480
g66
(dp481
sg75
g435
sg68
(lp482
g61
(g82
g63
NtRp483
(dp484
g66
(dp485
g86
g87
ssg75
g479
sg68
(lp486
g317
asbag61
(g82
g63
NtRp487
(dp488
g66
(dp489
g93
g94
ssg75
g479
sg68
(lp490
S':'
asbag61
(g82
g63
NtRp491
(dp492
g66
(dp493
sg75
g479
sg68
(lp494
g61
(g62
g63
NtRp495
(dp496
g66
(dp497
g74
I3
ssg75
g491
sg68
(lp498
S''
asbasbasbag61
(g77
g63
NtRp499
(dp500
g66
(dp501
sg75
g435
sg68
(lp502
g61
(g82
g63
NtRp503
(dp504
g66
(dp505
g86
g87
ssg75
g499
sg68
(lp506
g338
asbag61
(g82
g63
NtRp507
(dp508
g66
(dp509
g93
g94
ssg75
g499
sg68
(lp510
S':'
asbag61
(g82
g63
NtRp511
(dp512
g66
(dp513
sg75
g499
sg68
(lp514
g61
(g62
g63
NtRp515
(dp516
g66
(dp517
g74
I3
ssg75
g511
sg68
(lp518
S''
asbasbasbag61
(g77
g63
NtRp519
(dp520
g66
(dp521
sg75
g435
sg68
(lp522
g61
(g82
g63
NtRp523
(dp524
g66
(dp525
g86
g87
ssg75
g519
sg68
(lp526
g359
asbag61
(g82
g63
NtRp527
(dp528
g66
(dp529
g93
g94
ssg75
g519
sg68
(lp530
S':'
asbag61
(g82
g63
NtRp531
(dp532
g66
(dp533
sg75
g519
sg68
(lp534
g61
(g62
g63
NtRp535
(dp536
g66
(dp537
g74
I3
ssg75
g531
sg68
(lp538
S''
asbasbasbag61
(g77
g63
NtRp539
(dp540
g66
(dp541
sg75
g435
sg68
(lp542
g61
(g82
g63
NtRp543
(dp544
g66
(dp545
g86
g87
ssg75
g539
sg68
(lp546
g380
asbag61
(g82
g63
NtRp547
(dp548
g66
(dp549
g93
g94
ssg75
g539
sg68
(lp550
S':'
asbag61
(g82
g63
NtRp551
(dp552
g66
(dp553
sg75
g539
sg68
(lp554
g61
(g62
g63
NtRp555
(dp556
g66
(dp557
g74
I3
ssg75
g551
sg68
(lp558
S''
asbasbasbag61
(g77
g63
NtRp559
(dp560
g66
(dp561
sg75
g435
sg68
(lp562
g61
(g82
g63
NtRp563
(dp564
g66
(dp565
g86
g87
ssg75
g559
sg68
(lp566
g401
asbag61
(g82
g63
NtRp567
(dp568
g66
(dp569
g93
g94
ssg75
g559
sg68
(lp570
S':'
asbag61
(g82
g63
NtRp571
(dp572
g66
(dp573
sg75
g559
sg68
(lp574
g61
(g62
g63
NtRp575
(dp576
g66
(dp577
g74
I3
ssg75
g571
sg68
(lp578
S''
asbasbasbasbasbasbasbasbasbasbasbag61
(g77
g63
NtRp579
(dp580
g66
(dp581
sg75
g71
sg68
(lp582
g61
(g82
g63
NtRp583
(dp584
g66
(dp585
g86
g87
ssg75
g579
sg68
(lp586
S'env'
p587
asbag61
(g82
g63
NtRp588
(dp589
g66
(dp590
g93
g94
ssg75
g579
sg68
(lp591
S':'
asbag61
(g82
g63
NtRp592
(dp593
g66
(dp594
sg75
g579
sg68
(lp595
g61
(g62
g63
NtRp596
(dp597
g66
(dp598
g74
I5
ssg75
g592
sg68
(lp599
g61
(g70
g63
NtRp600
(dp601
g66
(dp602
g74
I4
ssg75
Nsg68
(lp603
g61
(g77
g63
NtRp604
(dp605
g66
(dp606
sg75
g600
sg68
(lp607
g61
(g82
g63
NtRp608
(dp609
g66
(dp610
g86
g87
ssg75
g604
sg68
(lp611
S'app_folders'
p612
asbag61
(g82
g63
NtRp613
(dp614
g66
(dp615
g93
g94
ssg75
g604
sg68
(lp616
S':'
asbag61
(g82
g63
NtRp617
(dp618
g66
(dp619
sg75
g604
sg68
(lp620
g61
(g62
g63
NtRp621
(dp622
g66
(dp623
g74
I4
ssg75
g617
sg68
(lp624
S"set(['C:\\\\Users\\\\Bussiere\\\\Dropbox\\\\Projets\\\\jackpoint\\\\web2py\\\\applications\\\\init\\\\', 'C:\\\\Users\\\\Bussiere\\\\Dropbox\\\\Projets\\\\jackpoint\\\\web2py\\\\applications\\\\admin\\\\'])"
p625
asbasbasbag61
(g77
g63
NtRp626
(dp627
g66
(dp628
sg75
g600
sg68
(lp629
g61
(g82
g63
NtRp630
(dp631
g66
(dp632
g86
g87
ssg75
g626
sg68
(lp633
S'applications_parent'
p634
asbag61
(g82
g63
NtRp635
(dp636
g66
(dp637
g93
g94
ssg75
g626
sg68
(lp638
S':'
asbag61
(g82
g63
NtRp639
(dp640
g66
(dp641
sg75
g626
sg68
(lp642
g61
(g62
g63
NtRp643
(dp644
g66
(dp645
g74
I4
ssg75
g639
sg68
(lp646
S'C:\\Users\\Bussiere\\Dropbox\\Projets\\jackpoint\\web2py'
p647
asbasbasbag61
(g77
g63
NtRp648
(dp649
g66
(dp650
sg75
g600
sg68
(lp651
g61
(g82
g63
NtRp652
(dp653
g66
(dp654
g86
g87
ssg75
g648
sg68
(lp655
S'cmd_args'
p656
asbag61
(g82
g63
NtRp657
(dp658
g66
(dp659
g93
g94
ssg75
g648
sg68
(lp660
S':'
asbag61
(g82
g63
NtRp661
(dp662
g66
(dp663
sg75
g648
sg68
(lp664
g61
(g62
g63
NtRp665
(dp666
g66
(dp667
g74
I4
ssg75
g661
sg68
(lp668
g61
(g70
g63
NtRp669
(dp670
g66
(dp671
g74
I3
ssg75
Nsg68
(lp672
sbasbasbasbag61
(g77
g63
NtRp673
(dp674
g66
(dp675
sg75
g600
sg68
(lp676
g61
(g82
g63
NtRp677
(dp678
g66
(dp679
g86
g87
ssg75
g673
sg68
(lp680
S'cmd_options'
p681
asbag61
(g82
g63
NtRp682
(dp683
g66
(dp684
g93
g94
ssg75
g673
sg68
(lp685
S':'
asbag61
(g82
g63
NtRp686
(dp687
g66
(dp688
sg75
g673
sg68
(lp689
g61
(g62
g63
NtRp690
(dp691
g66
(dp692
g74
I4
ssg75
g686
sg68
(lp693
S"<Values at 0x3d15fa8: {'verbose': False, 'ip': '127.0.0.1', 'shutdown_timeout': 5, 'taskbar': False, 'nocron': False, 'pid_filename': 'httpserver.pid', 'maxthreads': None, 'softcron': False, 'server_name': 'Batou', 'bpython': False, 'nogui': False, 'port': 8000, 'extcron': False, 'debuglevel': 30, 'test': None, 'folder': 'C:\\\\Users\\\\Bussiere\\\\Dropbox\\\\Projets\\\\jackpoint\\\\web2py', 'config': '', 'import_models': False, 'winservice': '', 'shell': None, 'run': '', 'log_filename': 'httpserver.log', 'args': [''], 'socket_timeout': 5, 'ssl_ca_certificate': None, 'scheduler': None, 'profiler_filename': None, 'ssl_private_key': '', 'password': '<ask>', 'request_queue_size': 5, 'ssl_certificate': '', 'cronjob': False, 'numthreads': None, 'quiet': False, 'interfaces': None, 'minthreads': None, 'timeout': 10, 'plain': False, 'nobanner': False}>"
p694
asbasbasbag61
(g77
g63
NtRp695
(dp696
g66
(dp697
sg75
g600
sg68
(lp698
g61
(g82
g63
NtRp699
(dp700
g66
(dp701
g86
g87
ssg75
g695
sg68
(lp702
S'db_sessions'
p703
asbag61
(g82
g63
NtRp704
(dp705
g66
(dp706
g93
g94
ssg75
g695
sg68
(lp707
S':'
asbag61
(g82
g63
NtRp708
(dp709
g66
(dp710
sg75
g695
sg68
(lp711
g61
(g62
g63
NtRp712
(dp713
g66
(dp714
g74
I4
ssg75
g708
sg68
(lp715
S"set(['init'])"
p716
asbasbasbag61
(g77
g63
NtRp717
(dp718
g66
(dp719
sg75
g600
sg68
(lp720
g61
(g82
g63
NtRp721
(dp722
g66
(dp723
g86
g87
ssg75
g717
sg68
(lp724
S'debugging'
p725
asbag61
(g82
g63
NtRp726
(dp727
g66
(dp728
g93
g94
ssg75
g717
sg68
(lp729
S':'
asbag61
(g82
g63
NtRp730
(dp731
g66
(dp732
sg75
g717
sg68
(lp733
g61
(g62
g63
NtRp734
(dp735
g66
(dp736
g74
I4
ssg75
g730
sg68
(lp737
S'True'
p738
asbasbasbag61
(g77
g63
NtRp739
(dp740
g66
(dp741
sg75
g600
sg68
(lp742
g61
(g82
g63
NtRp743
(dp744
g66
(dp745
g86
g87
ssg75
g739
sg68
(lp746
S'gluon_parent'
p747
asbag61
(g82
g63
NtRp748
(dp749
g66
(dp750
g93
g94
ssg75
g739
sg68
(lp751
S':'
asbag61
(g82
g63
NtRp752
(dp753
g66
(dp754
sg75
g739
sg68
(lp755
g61
(g62
g63
NtRp756
(dp757
g66
(dp758
g74
I4
ssg75
g752
sg68
(lp759
S'C:\\Users\\Bussiere\\Dropbox\\Projets\\jackpoint\\web2py'
p760
asbasbasbag61
(g77
g63
NtRp761
(dp762
g66
(dp763
sg75
g600
sg68
(lp764
g61
(g82
g63
NtRp765
(dp766
g66
(dp767
g86
g87
ssg75
g761
sg68
(lp768
S'http_accept'
p769
asbag61
(g82
g63
NtRp770
(dp771
g66
(dp772
g93
g94
ssg75
g761
sg68
(lp773
S':'
asbag61
(g82
g63
NtRp774
(dp775
g66
(dp776
sg75
g761
sg68
(lp777
g61
(g62
g63
NtRp778
(dp779
g66
(dp780
g74
I4
ssg75
g774
sg68
(lp781
S'text/html,application/xhtml+xml,application/xml;q=0.9,*/*;q=0.8'
p782
asbasbasbag61
(g77
g63
NtRp783
(dp784
g66
(dp785
sg75
g600
sg68
(lp786
g61
(g82
g63
NtRp787
(dp788
g66
(dp789
g86
g87
ssg75
g783
sg68
(lp790
S'http_accept_charset'
p791
asbag61
(g82
g63
NtRp792
(dp793
g66
(dp794
g93
g94
ssg75
g783
sg68
(lp795
S':'
asbag61
(g82
g63
NtRp796
(dp797
g66
(dp798
sg75
g783
sg68
(lp799
g61
(g62
g63
NtRp800
(dp801
g66
(dp802
g74
I4
ssg75
g796
sg68
(lp803
S'ISO-8859-1,utf-8;q=0.7,*;q=0.3'
p804
asbasbasbag61
(g77
g63
NtRp805
(dp806
g66
(dp807
sg75
g600
sg68
(lp808
g61
(g82
g63
NtRp809
(dp810
g66
(dp811
g86
g87
ssg75
g805
sg68
(lp812
S'http_accept_encoding'
p813
asbag61
(g82
g63
NtRp814
(dp815
g66
(dp816
g93
g94
ssg75
g805
sg68
(lp817
S':'
asbag61
(g82
g63
NtRp818
(dp819
g66
(dp820
sg75
g805
sg68
(lp821
g61
(g62
g63
NtRp822
(dp823
g66
(dp824
g74
I4
ssg75
g818
sg68
(lp825
S'gzip,deflate,sdch'
p826
asbasbasbag61
(g77
g63
NtRp827
(dp828
g66
(dp829
sg75
g600
sg68
(lp830
g61
(g82
g63
NtRp831
(dp832
g66
(dp833
g86
g87
ssg75
g827
sg68
(lp834
S'http_accept_language'
p835
asbag61
(g82
g63
NtRp836
(dp837
g66
(dp838
g93
g94
ssg75
g827
sg68
(lp839
S':'
asbag61
(g82
g63
NtRp840
(dp841
g66
(dp842
sg75
g827
sg68
(lp843
g61
(g62
g63
NtRp844
(dp845
g66
(dp846
g74
I4
ssg75
g840
sg68
(lp847
S'fr-FR,fr;q=0.8,en-US;q=0.6,en;q=0.4'
p848
asbasbasbag61
(g77
g63
NtRp849
(dp850
g66
(dp851
sg75
g600
sg68
(lp852
g61
(g82
g63
NtRp853
(dp854
g66
(dp855
g86
g87
ssg75
g849
sg68
(lp856
S'http_cache_control'
p857
asbag61
(g82
g63
NtRp858
(dp859
g66
(dp860
g93
g94
ssg75
g849
sg68
(lp861
S':'
asbag61
(g82
g63
NtRp862
(dp863
g66
(dp864
sg75
g849
sg68
(lp865
g61
(g62
g63
NtRp866
(dp867
g66
(dp868
g74
I4
ssg75
g862
sg68
(lp869
S'max-age=0'
p870
asbasbasbag61
(g77
g63
NtRp871
(dp872
g66
(dp873
sg75
g600
sg68
(lp874
g61
(g82
g63
NtRp875
(dp876
g66
(dp877
g86
g87
ssg75
g871
sg68
(lp878
S'http_connection'
p879
asbag61
(g82
g63
NtRp880
(dp881
g66
(dp882
g93
g94
ssg75
g871
sg68
(lp883
S':'
asbag61
(g82
g63
NtRp884
(dp885
g66
(dp886
sg75
g871
sg68
(lp887
g61
(g62
g63
NtRp888
(dp889
g66
(dp890
g74
I4
ssg75
g884
sg68
(lp891
S'keep-alive'
p892
asbasbasbag61
(g77
g63
NtRp893
(dp894
g66
(dp895
sg75
g600
sg68
(lp896
g61
(g82
g63
NtRp897
(dp898
g66
(dp899
g86
g87
ssg75
g893
sg68
(lp900
S'http_cookie'
p901
asbag61
(g82
g63
NtRp902
(dp903
g66
(dp904
g93
g94
ssg75
g893
sg68
(lp905
S':'
asbag61
(g82
g63
NtRp906
(dp907
g66
(dp908
sg75
g893
sg68
(lp909
g61
(g62
g63
NtRp910
(dp911
g66
(dp912
g74
I4
ssg75
g906
sg68
(lp913
S'session_id_init="19:a8687721-5787-4713-9329-1674aeb3f1bb"; session_id_admin=127.0.0.1-e7ba9533-971b-48d8-b9b4-ae4775a353f8'
p914
asbasbasbag61
(g77
g63
NtRp915
(dp916
g66
(dp917
sg75
g600
sg68
(lp918
g61
(g82
g63
NtRp919
(dp920
g66
(dp921
g86
g87
ssg75
g915
sg68
(lp922
S'http_host'
p923
asbag61
(g82
g63
NtRp924
(dp925
g66
(dp926
g93
g94
ssg75
g915
sg68
(lp927
S':'
asbag61
(g82
g63
NtRp928
(dp929
g66
(dp930
sg75
g915
sg68
(lp931
g61
(g62
g63
NtRp932
(dp933
g66
(dp934
g74
I4
ssg75
g928
sg68
(lp935
S'localhost:8000'
p936
asbasbasbag61
(g77
g63
NtRp937
(dp938
g66
(dp939
sg75
g600
sg68
(lp940
g61
(g82
g63
NtRp941
(dp942
g66
(dp943
g86
g87
ssg75
g937
sg68
(lp944
S'http_user_agent'
p945
asbag61
(g82
g63
NtRp946
(dp947
g66
(dp948
g93
g94
ssg75
g937
sg68
(lp949
S':'
asbag61
(g82
g63
NtRp950
(dp951
g66
(dp952
sg75
g937
sg68
(lp953
g61
(g62
g63
NtRp954
(dp955
g66
(dp956
g74
I4
ssg75
g950
sg68
(lp957
S'Mozilla/5.0 (Windows NT 6.1; WOW64) AppleWebKit/535.11 (KHTML, like Gecko) Chrome/17.0.963.83 Safari/535.11'
p958
asbasbasbag61
(g77
g63
NtRp959
(dp960
g66
(dp961
sg75
g600
sg68
(lp962
g61
(g82
g63
NtRp963
(dp964
g66
(dp965
g86
g87
ssg75
g959
sg68
(lp966
S'is_jython'
p967
asbag61
(g82
g63
NtRp968
(dp969
g66
(dp970
g93
g94
ssg75
g959
sg68
(lp971
S':'
asbag61
(g82
g63
NtRp972
(dp973
g66
(dp974
sg75
g959
sg68
(lp975
g61
(g62
g63
NtRp976
(dp977
g66
(dp978
g74
I4
ssg75
g972
sg68
(lp979
g104
asbasbasbag61
(g77
g63
NtRp980
(dp981
g66
(dp982
sg75
g600
sg68
(lp983
g61
(g82
g63
NtRp984
(dp985
g66
(dp986
g86
g87
ssg75
g980
sg68
(lp987
S'is_pypy'
p988
asbag61
(g82
g63
NtRp989
(dp990
g66
(dp991
g93
g94
ssg75
g980
sg68
(lp992
S':'
asbag61
(g82
g63
NtRp993
(dp994
g66
(dp995
sg75
g980
sg68
(lp996
g61
(g62
g63
NtRp997
(dp998
g66
(dp999
g74
I4
ssg75
g993
sg68
(lp1000
g104
asbasbasbag61
(g77
g63
NtRp1001
(dp1002
g66
(dp1003
sg75
g600
sg68
(lp1004
g61
(g82
g63
NtRp1005
(dp1006
g66
(dp1007
g86
g87
ssg75
g1001
sg68
(lp1008
S'path_info'
p1009
asbag61
(g82
g63
NtRp1010
(dp1011
g66
(dp1012
g93
g94
ssg75
g1001
sg68
(lp1013
S':'
asbag61
(g82
g63
NtRp1014
(dp1015
g66
(dp1016
sg75
g1001
sg68
(lp1017
g61
(g62
g63
NtRp1018
(dp1019
g66
(dp1020
g74
I4
ssg75
g1014
sg68
(lp1021
S'/init/default/initdbjack'
p1022
asbasbasbag61
(g77
g63
NtRp1023
(dp1024
g66
(dp1025
sg75
g600
sg68
(lp1026
g61
(g82
g63
NtRp1027
(dp1028
g66
(dp1029
g86
g87
ssg75
g1023
sg68
(lp1030
S'query_string'
p1031
asbag61
(g82
g63
NtRp1032
(dp1033
g66
(dp1034
g93
g94
ssg75
g1023
sg68
(lp1035
S':'
asbag61
(g82
g63
NtRp1036
(dp1037
g66
(dp1038
sg75
g1023
sg68
(lp1039
g61
(g62
g63
NtRp1040
(dp1041
g66
(dp1042
g74
I4
ssg75
g1036
sg68
(lp1043
S''
asbasbasbag61
(g77
g63
NtRp1044
(dp1045
g66
(dp1046
sg75
g600
sg68
(lp1047
g61
(g82
g63
NtRp1048
(dp1049
g66
(dp1050
g86
g87
ssg75
g1044
sg68
(lp1051
S'remote_addr'
p1052
asbag61
(g82
g63
NtRp1053
(dp1054
g66
(dp1055
g93
g94
ssg75
g1044
sg68
(lp1056
S':'
asbag61
(g82
g63
NtRp1057
(dp1058
g66
(dp1059
sg75
g1044
sg68
(lp1060
g61
(g62
g63
NtRp1061
(dp1062
g66
(dp1063
g74
I4
ssg75
g1057
sg68
(lp1064
g194
asbasbasbag61
(g77
g63
NtRp1065
(dp1066
g66
(dp1067
sg75
g600
sg68
(lp1068
g61
(g82
g63
NtRp1069
(dp1070
g66
(dp1071
g86
g87
ssg75
g1065
sg68
(lp1072
S'remote_port'
p1073
asbag61
(g82
g63
NtRp1074
(dp1075
g66
(dp1076
g93
g94
ssg75
g1065
sg68
(lp1077
S':'
asbag61
(g82
g63
NtRp1078
(dp1079
g66
(dp1080
sg75
g1065
sg68
(lp1081
g61
(g62
g63
NtRp1082
(dp1083
g66
(dp1084
g74
I4
ssg75
g1078
sg68
(lp1085
S'62349'
p1086
asbasbasbag61
(g77
g63
NtRp1087
(dp1088
g66
(dp1089
sg75
g600
sg68
(lp1090
g61
(g82
g63
NtRp1091
(dp1092
g66
(dp1093
g86
g87
ssg75
g1087
sg68
(lp1094
S'request_method'
p1095
asbag61
(g82
g63
NtRp1096
(dp1097
g66
(dp1098
g93
g94
ssg75
g1087
sg68
(lp1099
S':'
asbag61
(g82
g63
NtRp1100
(dp1101
g66
(dp1102
sg75
g1087
sg68
(lp1103
g61
(g62
g63
NtRp1104
(dp1105
g66
(dp1106
g74
I4
ssg75
g1100
sg68
(lp1107
S'GET'
p1108
asbasbasbag61
(g77
g63
NtRp1109
(dp1110
g66
(dp1111
sg75
g600
sg68
(lp1112
g61
(g82
g63
NtRp1113
(dp1114
g66
(dp1115
g86
g87
ssg75
g1109
sg68
(lp1116
S'script_name'
p1117
asbag61
(g82
g63
NtRp1118
(dp1119
g66
(dp1120
g93
g94
ssg75
g1109
sg68
(lp1121
S':'
asbag61
(g82
g63
NtRp1122
(dp1123
g66
(dp1124
sg75
g1109
sg68
(lp1125
g61
(g62
g63
NtRp1126
(dp1127
g66
(dp1128
g74
I4
ssg75
g1122
sg68
(lp1129
S''
asbasbasbag61
(g77
g63
NtRp1130
(dp1131
g66
(dp1132
sg75
g600
sg68
(lp1133
g61
(g82
g63
NtRp1134
(dp1135
g66
(dp1136
g86
g87
ssg75
g1130
sg68
(lp1137
S'server_name'
p1138
asbag61
(g82
g63
NtRp1139
(dp1140
g66
(dp1141
g93
g94
ssg75
g1130
sg68
(lp1142
S':'
asbag61
(g82
g63
NtRp1143
(dp1144
g66
(dp1145
sg75
g1130
sg68
(lp1146
g61
(g62
g63
NtRp1147
(dp1148
g66
(dp1149
g74
I4
ssg75
g1143
sg68
(lp1150
S'Batou'
p1151
asbasbasbag61
(g77
g63
NtRp1152
(dp1153
g66
(dp1154
sg75
g600
sg68
(lp1155
g61
(g82
g63
NtRp1156
(dp1157
g66
(dp1158
g86
g87
ssg75
g1152
sg68
(lp1159
S'server_port'
p1160
asbag61
(g82
g63
NtRp1161
(dp1162
g66
(dp1163
g93
g94
ssg75
g1152
sg68
(lp1164
S':'
asbag61
(g82
g63
NtRp1165
(dp1166
g66
(dp1167
sg75
g1152
sg68
(lp1168
g61
(g62
g63
NtRp1169
(dp1170
g66
(dp1171
g74
I4
ssg75
g1165
sg68
(lp1172
S'8000'
p1173
asbasbasbag61
(g77
g63
NtRp1174
(dp1175
g66
(dp1176
sg75
g600
sg68
(lp1177
g61
(g82
g63
NtRp1178
(dp1179
g66
(dp1180
g86
g87
ssg75
g1174
sg68
(lp1181
S'server_protocol'
p1182
asbag61
(g82
g63
NtRp1183
(dp1184
g66
(dp1185
g93
g94
ssg75
g1174
sg68
(lp1186
S':'
asbag61
(g82
g63
NtRp1187
(dp1188
g66
(dp1189
sg75
g1174
sg68
(lp1190
g61
(g62
g63
NtRp1191
(dp1192
g66
(dp1193
g74
I4
ssg75
g1187
sg68
(lp1194
S'HTTP/1.1'
p1195
asbasbasbag61
(g77
g63
NtRp1196
(dp1197
g66
(dp1198
sg75
g600
sg68
(lp1199
g61
(g82
g63
NtRp1200
(dp1201
g66
(dp1202
g86
g87
ssg75
g1196
sg68
(lp1203
S'server_software'
p1204
asbag61
(g82
g63
NtRp1205
(dp1206
g66
(dp1207
g93
g94
ssg75
g1196
sg68
(lp1208
S':'
asbag61
(g82
g63
NtRp1209
(dp1210
g66
(dp1211
sg75
g1196
sg68
(lp1212
g61
(g62
g63
NtRp1213
(dp1214
g66
(dp1215
g74
I4
ssg75
g1209
sg68
(lp1216
S'Rocket 1.2.4'
p1217
asbasbasbag61
(g77
g63
NtRp1218
(dp1219
g66
(dp1220
sg75
g600
sg68
(lp1221
g61
(g82
g63
NtRp1222
(dp1223
g66
(dp1224
g86
g87
ssg75
g1218
sg68
(lp1225
S'web2py_crontype'
p1226
asbag61
(g82
g63
NtRp1227
(dp1228
g66
(dp1229
g93
g94
ssg75
g1218
sg68
(lp1230
S':'
asbag61
(g82
g63
NtRp1231
(dp1232
g66
(dp1233
sg75
g1218
sg68
(lp1234
g61
(g62
g63
NtRp1235
(dp1236
g66
(dp1237
g74
I4
ssg75
g1231
sg68
(lp1238
S'hard'
p1239
asbasbasbag61
(g77
g63
NtRp1240
(dp1241
g66
(dp1242
sg75
g600
sg68
(lp1243
g61
(g82
g63
NtRp1244
(dp1245
g66
(dp1246
g86
g87
ssg75
g1240
sg68
(lp1247
S'web2py_path'
p1248
asbag61
(g82
g63
NtRp1249
(dp1250
g66
(dp1251
g93
g94
ssg75
g1240
sg68
(lp1252
S':'
asbag61
(g82
g63
NtRp1253
(dp1254
g66
(dp1255
sg75
g1240
sg68
(lp1256
g61
(g62
g63
NtRp1257
(dp1258
g66
(dp1259
g74
I4
ssg75
g1253
sg68
(lp1260
g647
asbasbasbag61
(g77
g63
NtRp1261
(dp1262
g66
(dp1263
sg75
g600
sg68
(lp1264
g61
(g82
g63
NtRp1265
(dp1266
g66
(dp1267
g86
g87
ssg75
g1261
sg68
(lp1268
S'web2py_version'
p1269
asbag61
(g82
g63
NtRp1270
(dp1271
g66
(dp1272
g93
g94
ssg75
g1261
sg68
(lp1273
S':'
asbag61
(g82
g63
NtRp1274
(dp1275
g66
(dp1276
sg75
g1261
sg68
(lp1277
g61
(g62
g63
NtRp1278
(dp1279
g66
(dp1280
g74
I4
ssg75
g1274
sg68
(lp1281
g61
(g70
g63
NtRp1282
(dp1283
g66
(dp1284
g74
I3
ssg75
Nsg68
(lp1285
g61
(g77
g63
NtRp1286
(dp1287
g66
(dp1288
sg75
g1282
sg68
(lp1289
g61
(g82
g63
NtRp1290
(dp1291
g66
(dp1292
sg75
g1286
sg68
(lp1293
g61
(g62
g63
NtRp1294
(dp1295
g66
(dp1296
g74
I3
ssg75
g1290
sg68
(lp1297
S'1'
asbasbasbag61
(g77
g63
NtRp1298
(dp1299
g66
(dp1300
sg75
g1282
sg68
(lp1301
g61
(g82
g63
NtRp1302
(dp1303
g66
(dp1304
sg75
g1298
sg68
(lp1305
g61
(g62
g63
NtRp1306
(dp1307
g66
(dp1308
g74
I3
ssg75
g1302
sg68
(lp1309
S'99'
p1310
asbasbasbag61
(g77
g63
NtRp1311
(dp1312
g66
(dp1313
sg75
g1282
sg68
(lp1314
g61
(g82
g63
NtRp1315
(dp1316
g66
(dp1317
sg75
g1311
sg68
(lp1318
g61
(g62
g63
NtRp1319
(dp1320
g66
(dp1321
g74
I3
ssg75
g1315
sg68
(lp1322
S'7'
asbasbasbag61
(g77
g63
NtRp1323
(dp1324
g66
(dp1325
sg75
g1282
sg68
(lp1326
g61
(g82
g63
NtRp1327
(dp1328
g66
(dp1329
sg75
g1323
sg68
(lp1330
g61
(g62
g63
NtRp1331
(dp1332
g66
(dp1333
g74
I3
ssg75
g1327
sg68
(lp1334
S'datetime.datetime(2012, 3, 4, 22, 12, 8)'
p1335
asbasbasbag61
(g77
g63
NtRp1336
(dp1337
g66
(dp1338
sg75
g1282
sg68
(lp1339
g61
(g82
g63
NtRp1340
(dp1341
g66
(dp1342
sg75
g1336
sg68
(lp1343
g61
(g62
g63
NtRp1344
(dp1345
g66
(dp1346
g74
I3
ssg75
g1340
sg68
(lp1347
S'stable'
p1348
asbasbasbasbasbasbasbag61
(g77
g63
NtRp1349
(dp1350
g66
(dp1351
sg75
g600
sg68
(lp1352
g61
(g82
g63
NtRp1353
(dp1354
g66
(dp1355
g86
g87
ssg75
g1349
sg68
(lp1356
S'wsgi_errors'
p1357
asbag61
(g82
g63
NtRp1358
(dp1359
g66
(dp1360
g93
g94
ssg75
g1349
sg68
(lp1361
S':'
asbag61
(g82
g63
NtRp1362
(dp1363
g66
(dp1364
sg75
g1349
sg68
(lp1365
g61
(g62
g63
NtRp1366
(dp1367
g66
(dp1368
g74
I4
ssg75
g1362
sg68
(lp1369
S"<open file '<stderr>', mode 'w' at 0x005300B0>"
p1370
asbasbasbag61
(g77
g63
NtRp1371
(dp1372
g66
(dp1373
sg75
g600
sg68
(lp1374
g61
(g82
g63
NtRp1375
(dp1376
g66
(dp1377
g86
g87
ssg75
g1371
sg68
(lp1378
S'wsgi_file_wrapper'
p1379
asbag61
(g82
g63
NtRp1380
(dp1381
g66
(dp1382
g93
g94
ssg75
g1371
sg68
(lp1383
S':'
asbag61
(g82
g63
NtRp1384
(dp1385
g66
(dp1386
sg75
g1371
sg68
(lp1387
g61
(g62
g63
NtRp1388
(dp1389
g66
(dp1390
g74
I4
ssg75
g1384
sg68
(lp1391
S'<class wsgiref.util.FileWrapper at 0x02C34900>'
p1392
asbasbasbag61
(g77
g63
NtRp1393
(dp1394
g66
(dp1395
sg75
g600
sg68
(lp1396
g61
(g82
g63
NtRp1397
(dp1398
g66
(dp1399
g86
g87
ssg75
g1393
sg68
(lp1400
S'wsgi_input'
p1401
asbag61
(g82
g63
NtRp1402
(dp1403
g66
(dp1404
g93
g94
ssg75
g1393
sg68
(lp1405
S':'
asbag61
(g82
g63
NtRp1406
(dp1407
g66
(dp1408
sg75
g1393
sg68
(lp1409
g61
(g62
g63
NtRp1410
(dp1411
g66
(dp1412
g74
I4
ssg75
g1406
sg68
(lp1413
S'<socket._fileobject object at 0x080D9730>'
p1414
asbasbasbag61
(g77
g63
NtRp1415
(dp1416
g66
(dp1417
sg75
g600
sg68
(lp1418
g61
(g82
g63
NtRp1419
(dp1420
g66
(dp1421
g86
g87
ssg75
g1415
sg68
(lp1422
S'wsgi_multiprocess'
p1423
asbag61
(g82
g63
NtRp1424
(dp1425
g66
(dp1426
g93
g94
ssg75
g1415
sg68
(lp1427
S':'
asbag61
(g82
g63
NtRp1428
(dp1429
g66
(dp1430
sg75
g1415
sg68
(lp1431
g61
(g62
g63
NtRp1432
(dp1433
g66
(dp1434
g74
I4
ssg75
g1428
sg68
(lp1435
g104
asbasbasbag61
(g77
g63
NtRp1436
(dp1437
g66
(dp1438
sg75
g600
sg68
(lp1439
g61
(g82
g63
NtRp1440
(dp1441
g66
(dp1442
g86
g87
ssg75
g1436
sg68
(lp1443
S'wsgi_multithread'
p1444
asbag61
(g82
g63
NtRp1445
(dp1446
g66
(dp1447
g93
g94
ssg75
g1436
sg68
(lp1448
S':'
asbag61
(g82
g63
NtRp1449
(dp1450
g66
(dp1451
sg75
g1436
sg68
(lp1452
g61
(g62
g63
NtRp1453
(dp1454
g66
(dp1455
g74
I4
ssg75
g1449
sg68
(lp1456
g738
asbasbasbag61
(g77
g63
NtRp1457
(dp1458
g66
(dp1459
sg75
g600
sg68
(lp1460
g61
(g82
g63
NtRp1461
(dp1462
g66
(dp1463
g86
g87
ssg75
g1457
sg68
(lp1464
S'wsgi_run_once'
p1465
asbag61
(g82
g63
NtRp1466
(dp1467
g66
(dp1468
g93
g94
ssg75
g1457
sg68
(lp1469
S':'
asbag61
(g82
g63
NtRp1470
(dp1471
g66
(dp1472
sg75
g1457
sg68
(lp1473
g61
(g62
g63
NtRp1474
(dp1475
g66
(dp1476
g74
I4
ssg75
g1470
sg68
(lp1477
g104
asbasbasbag61
(g77
g63
NtRp1478
(dp1479
g66
(dp1480
sg75
g600
sg68
(lp1481
g61
(g82
g63
NtRp1482
(dp1483
g66
(dp1484
g86
g87
ssg75
g1478
sg68
(lp1485
S'wsgi_url_scheme'
p1486
asbag61
(g82
g63
NtRp1487
(dp1488
g66
(dp1489
g93
g94
ssg75
g1478
sg68
(lp1490
S':'
asbag61
(g82
g63
NtRp1491
(dp1492
g66
(dp1493
sg75
g1478
sg68
(lp1494
g61
(g62
g63
NtRp1495
(dp1496
g66
(dp1497
g74
I4
ssg75
g1491
sg68
(lp1498
S'http'
p1499
asbasbasbag61
(g77
g63
NtRp1500
(dp1501
g66
(dp1502
sg75
g600
sg68
(lp1503
g61
(g82
g63
NtRp1504
(dp1505
g66
(dp1506
g86
g87
ssg75
g1500
sg68
(lp1507
S'wsgi_version'
p1508
asbag61
(g82
g63
NtRp1509
(dp1510
g66
(dp1511
g93
g94
ssg75
g1500
sg68
(lp1512
S':'
asbag61
(g82
g63
NtRp1513
(dp1514
g66
(dp1515
sg75
g1500
sg68
(lp1516
g61
(g62
g63
NtRp1517
(dp1518
g66
(dp1519
g74
I4
ssg75
g1513
sg68
(lp1520
g61
(g70
g63
NtRp1521
(dp1522
g66
(dp1523
g74
I3
ssg75
Nsg68
(lp1524
g61
(g77
g63
NtRp1525
(dp1526
g66
(dp1527
sg75
g1521
sg68
(lp1528
g61
(g82
g63
NtRp1529
(dp1530
g66
(dp1531
sg75
g1525
sg68
(lp1532
g61
(g62
g63
NtRp1533
(dp1534
g66
(dp1535
g74
I3
ssg75
g1529
sg68
(lp1536
S'1'
asbasbasbag61
(g77
g63
NtRp1537
(dp1538
g66
(dp1539
sg75
g1521
sg68
(lp1540
g61
(g82
g63
NtRp1541
(dp1542
g66
(dp1543
sg75
g1537
sg68
(lp1544
g61
(g62
g63
NtRp1545
(dp1546
g66
(dp1547
g74
I3
ssg75
g1541
sg68
(lp1548
S'0'
asbasbasbasbasbasbasbasbasbasbasbag61
(g77
g63
NtRp1549
(dp1550
g66
(dp1551
sg75
g71
sg68
(lp1552
g61
(g82
g63
NtRp1553
(dp1554
g66
(dp1555
g86
g87
ssg75
g1549
sg68
(lp1556
S'extension'
p1557
asbag61
(g82
g63
NtRp1558
(dp1559
g66
(dp1560
g93
g94
ssg75
g1549
sg68
(lp1561
S':'
asbag61
(g82
g63
NtRp1562
(dp1563
g66
(dp1564
sg75
g1549
sg68
(lp1565
g61
(g62
g63
NtRp1566
(dp1567
g66
(dp1568
g74
I5
ssg75
g1562
sg68
(lp1569
S'html'
p1570
asbasbasbag61
(g77
g63
NtRp1571
(dp1572
g66
(dp1573
sg75
g71
sg68
(lp1574
g61
(g82
g63
NtRp1575
(dp1576
g66
(dp1577
g86
g87
ssg75
g1571
sg68
(lp1578
S'folder'
p1579
asbag61
(g82
g63
NtRp1580
(dp1581
g66
(dp1582
g93
g94
ssg75
g1571
sg68
(lp1583
S':'
asbag61
(g82
g63
NtRp1584
(dp1585
g66
(dp1586
sg75
g1571
sg68
(lp1587
g61
(g62
g63
NtRp1588
(dp1589
g66
(dp1590
g74
I5
ssg75
g1584
sg68
(lp1591
S'C:\\Users\\Bussiere\\Dropbox\\Projets\\jackpoint\\web2py\\applications\\init\\'
p1592
asbasbasbag61
(g77
g63
NtRp1593
(dp1594
g66
(dp1595
sg75
g71
sg68
(lp1596
g61
(g82
g63
NtRp1597
(dp1598
g66
(dp1599
g86
g87
ssg75
g1593
sg68
(lp1600
S'function'
p1601
asbag61
(g82
g63
NtRp1602
(dp1603
g66
(dp1604
g93
g94
ssg75
g1593
sg68
(lp1605
S':'
asbag61
(g82
g63
NtRp1606
(dp1607
g66
(dp1608
sg75
g1593
sg68
(lp1609
g61
(g62
g63
NtRp1610
(dp1611
g66
(dp1612
g74
I5
ssg75
g1606
sg68
(lp1613
S'initdbjack'
p1614
asbasbasbag61
(g77
g63
NtRp1615
(dp1616
g66
(dp1617
sg75
g71
sg68
(lp1618
g61
(g82
g63
NtRp1619
(dp1620
g66
(dp1621
g86
g87
ssg75
g1615
sg68
(lp1622
S'get_vars'
p1623
asbag61
(g82
g63
NtRp1624
(dp1625
g66
(dp1626
g93
g94
ssg75
g1615
sg68
(lp1627
S':'
asbag61
(g82
g63
NtRp1628
(dp1629
g66
(dp1630
sg75
g1615
sg68
(lp1631
g61
(g62
g63
NtRp1632
(dp1633
g66
(dp1634
g74
I5
ssg75
g1628
sg68
(lp1635
g61
(g70
g63
NtRp1636
(dp1637
g66
(dp1638
g74
I4
ssg75
Nsg68
(lp1639
sbasbasbasbag61
(g77
g63
NtRp1640
(dp1641
g66
(dp1642
sg75
g71
sg68
(lp1643
g61
(g82
g63
NtRp1644
(dp1645
g66
(dp1646
g86
g87
ssg75
g1640
sg68
(lp1647
S'global_settings'
p1648
asbag61
(g82
g63
NtRp1649
(dp1650
g66
(dp1651
g93
g94
ssg75
g1640
sg68
(lp1652
S':'
asbag61
(g82
g63
NtRp1653
(dp1654
g66
(dp1655
sg75
g1640
sg68
(lp1656
g61
(g62
g63
NtRp1657
(dp1658
g66
(dp1659
g74
I5
ssg75
g1653
sg68
(lp1660
g61
(g70
g63
NtRp1661
(dp1662
g66
(dp1663
g74
I4
ssg75
Nsg68
(lp1664
g61
(g77
g63
NtRp1665
(dp1666
g66
(dp1667
sg75
g1661
sg68
(lp1668
g61
(g82
g63
NtRp1669
(dp1670
g66
(dp1671
g86
g87
ssg75
g1665
sg68
(lp1672
g612
asbag61
(g82
g63
NtRp1673
(dp1674
g66
(dp1675
g93
g94
ssg75
g1665
sg68
(lp1676
S':'
asbag61
(g82
g63
NtRp1677
(dp1678
g66
(dp1679
sg75
g1665
sg68
(lp1680
g61
(g62
g63
NtRp1681
(dp1682
g66
(dp1683
g74
I4
ssg75
g1677
sg68
(lp1684
S"set(['C:\\\\Users\\\\Bussiere\\\\Dropbox\\\\Projets\\\\jackpoint\\\\web2py\\\\applications\\\\init\\\\', 'C:\\\\Users\\\\Bussiere\\\\Dropbox\\\\Projets\\\\jackpoint\\\\web2py\\\\applications\\\\admin\\\\'])"
p1685
asbasbasbag61
(g77
g63
NtRp1686
(dp1687
g66
(dp1688
sg75
g1661
sg68
(lp1689
g61
(g82
g63
NtRp1690
(dp1691
g66
(dp1692
g86
g87
ssg75
g1686
sg68
(lp1693
g634
asbag61
(g82
g63
NtRp1694
(dp1695
g66
(dp1696
g93
g94
ssg75
g1686
sg68
(lp1697
S':'
asbag61
(g82
g63
NtRp1698
(dp1699
g66
(dp1700
sg75
g1686
sg68
(lp1701
g61
(g62
g63
NtRp1702
(dp1703
g66
(dp1704
g74
I4
ssg75
g1698
sg68
(lp1705
g647
asbasbasbag61
(g77
g63
NtRp1706
(dp1707
g66
(dp1708
sg75
g1661
sg68
(lp1709
g61
(g82
g63
NtRp1710
(dp1711
g66
(dp1712
g86
g87
ssg75
g1706
sg68
(lp1713
g656
asbag61
(g82
g63
NtRp1714
(dp1715
g66
(dp1716
g93
g94
ssg75
g1706
sg68
(lp1717
S':'
asbag61
(g82
g63
NtRp1718
(dp1719
g66
(dp1720
sg75
g1706
sg68
(lp1721
g61
(g62
g63
NtRp1722
(dp1723
g66
(dp1724
g74
I4
ssg75
g1718
sg68
(lp1725
g61
(g70
g63
NtRp1726
(dp1727
g66
(dp1728
g74
I3
ssg75
Nsg68
(lp1729
sbasbasbasbag61
(g77
g63
NtRp1730
(dp1731
g66
(dp1732
sg75
g1661
sg68
(lp1733
g61
(g82
g63
NtRp1734
(dp1735
g66
(dp1736
g86
g87
ssg75
g1730
sg68
(lp1737
g681
asbag61
(g82
g63
NtRp1738
(dp1739
g66
(dp1740
g93
g94
ssg75
g1730
sg68
(lp1741
S':'
asbag61
(g82
g63
NtRp1742
(dp1743
g66
(dp1744
sg75
g1730
sg68
(lp1745
g61
(g62
g63
NtRp1746
(dp1747
g66
(dp1748
g74
I4
ssg75
g1742
sg68
(lp1749
S"<Values at 0x3d15fa8: {'verbose': False, 'ip': '127.0.0.1', 'shutdown_timeout': 5, 'taskbar': False, 'nocron': False, 'pid_filename': 'httpserver.pid', 'maxthreads': None, 'softcron': False, 'server_name': 'Batou', 'bpython': False, 'nogui': False, 'port': 8000, 'extcron': False, 'debuglevel': 30, 'test': None, 'folder': 'C:\\\\Users\\\\Bussiere\\\\Dropbox\\\\Projets\\\\jackpoint\\\\web2py', 'config': '', 'import_models': False, 'winservice': '', 'shell': None, 'run': '', 'log_filename': 'httpserver.log', 'args': [''], 'socket_timeout': 5, 'ssl_ca_certificate': None, 'scheduler': None, 'profiler_filename': None, 'ssl_private_key': '', 'password': '<ask>', 'request_queue_size': 5, 'ssl_certificate': '', 'cronjob': False, 'numthreads': None, 'quiet': False, 'interfaces': None, 'minthreads': None, 'timeout': 10, 'plain': False, 'nobanner': False}>"
p1750
asbasbasbag61
(g77
g63
NtRp1751
(dp1752
g66
(dp1753
sg75
g1661
sg68
(lp1754
g61
(g82
g63
NtRp1755
(dp1756
g66
(dp1757
g86
g87
ssg75
g1751
sg68
(lp1758
g703
asbag61
(g82
g63
NtRp1759
(dp1760
g66
(dp1761
g93
g94
ssg75
g1751
sg68
(lp1762
S':'
asbag61
(g82
g63
NtRp1763
(dp1764
g66
(dp1765
sg75
g1751
sg68
(lp1766
g61
(g62
g63
NtRp1767
(dp1768
g66
(dp1769
g74
I4
ssg75
g1763
sg68
(lp1770
S"set(['init'])"
p1771
asbasbasbag61
(g77
g63
NtRp1772
(dp1773
g66
(dp1774
sg75
g1661
sg68
(lp1775
g61
(g82
g63
NtRp1776
(dp1777
g66
(dp1778
g86
g87
ssg75
g1772
sg68
(lp1779
g725
asbag61
(g82
g63
NtRp1780
(dp1781
g66
(dp1782
g93
g94
ssg75
g1772
sg68
(lp1783
S':'
asbag61
(g82
g63
NtRp1784
(dp1785
g66
(dp1786
sg75
g1772
sg68
(lp1787
g61
(g62
g63
NtRp1788
(dp1789
g66
(dp1790
g74
I4
ssg75
g1784
sg68
(lp1791
g738
asbasbasbag61
(g77
g63
NtRp1792
(dp1793
g66
(dp1794
sg75
g1661
sg68
(lp1795
g61
(g82
g63
NtRp1796
(dp1797
g66
(dp1798
g86
g87
ssg75
g1792
sg68
(lp1799
g747
asbag61
(g82
g63
NtRp1800
(dp1801
g66
(dp1802
g93
g94
ssg75
g1792
sg68
(lp1803
S':'
asbag61
(g82
g63
NtRp1804
(dp1805
g66
(dp1806
sg75
g1792
sg68
(lp1807
g61
(g62
g63
NtRp1808
(dp1809
g66
(dp1810
g74
I4
ssg75
g1804
sg68
(lp1811
g760
asbasbasbag61
(g77
g63
NtRp1812
(dp1813
g66
(dp1814
sg75
g1661
sg68
(lp1815
g61
(g82
g63
NtRp1816
(dp1817
g66
(dp1818
g86
g87
ssg75
g1812
sg68
(lp1819
g967
asbag61
(g82
g63
NtRp1820
(dp1821
g66
(dp1822
g93
g94
ssg75
g1812
sg68
(lp1823
S':'
asbag61
(g82
g63
NtRp1824
(dp1825
g66
(dp1826
sg75
g1812
sg68
(lp1827
g61
(g62
g63
NtRp1828
(dp1829
g66
(dp1830
g74
I4
ssg75
g1824
sg68
(lp1831
g104
asbasbasbag61
(g77
g63
NtRp1832
(dp1833
g66
(dp1834
sg75
g1661
sg68
(lp1835
g61
(g82
g63
NtRp1836
(dp1837
g66
(dp1838
g86
g87
ssg75
g1832
sg68
(lp1839
g988
asbag61
(g82
g63
NtRp1840
(dp1841
g66
(dp1842
g93
g94
ssg75
g1832
sg68
(lp1843
S':'
asbag61
(g82
g63
NtRp1844
(dp1845
g66
(dp1846
sg75
g1832
sg68
(lp1847
g61
(g62
g63
NtRp1848
(dp1849
g66
(dp1850
g74
I4
ssg75
g1844
sg68
(lp1851
g104
asbasbasbag61
(g77
g63
NtRp1852
(dp1853
g66
(dp1854
sg75
g1661
sg68
(lp1855
g61
(g82
g63
NtRp1856
(dp1857
g66
(dp1858
g86
g87
ssg75
g1852
sg68
(lp1859
g1226
asbag61
(g82
g63
NtRp1860
(dp1861
g66
(dp1862
g93
g94
ssg75
g1852
sg68
(lp1863
S':'
asbag61
(g82
g63
NtRp1864
(dp1865
g66
(dp1866
sg75
g1852
sg68
(lp1867
g61
(g62
g63
NtRp1868
(dp1869
g66
(dp1870
g74
I4
ssg75
g1864
sg68
(lp1871
g1239
asbasbasbag61
(g77
g63
NtRp1872
(dp1873
g66
(dp1874
sg75
g1661
sg68
(lp1875
g61
(g82
g63
NtRp1876
(dp1877
g66
(dp1878
g86
g87
ssg75
g1872
sg68
(lp1879
g1269
asbag61
(g82
g63
NtRp1880
(dp1881
g66
(dp1882
g93
g94
ssg75
g1872
sg68
(lp1883
S':'
asbag61
(g82
g63
NtRp1884
(dp1885
g66
(dp1886
sg75
g1872
sg68
(lp1887
g61
(g62
g63
NtRp1888
(dp1889
g66
(dp1890
g74
I4
ssg75
g1884
sg68
(lp1891
g61
(g70
g63
NtRp1892
(dp1893
g66
(dp1894
g74
I3
ssg75
Nsg68
(lp1895
g61
(g77
g63
NtRp1896
(dp1897
g66
(dp1898
sg75
g1892
sg68
(lp1899
g61
(g82
g63
NtRp1900
(dp1901
g66
(dp1902
sg75
g1896
sg68
(lp1903
g61
(g62
g63
NtRp1904
(dp1905
g66
(dp1906
g74
I3
ssg75
g1900
sg68
(lp1907
S'1'
asbasbasbag61
(g77
g63
NtRp1908
(dp1909
g66
(dp1910
sg75
g1892
sg68
(lp1911
g61
(g82
g63
NtRp1912
(dp1913
g66
(dp1914
sg75
g1908
sg68
(lp1915
g61
(g62
g63
NtRp1916
(dp1917
g66
(dp1918
g74
I3
ssg75
g1912
sg68
(lp1919
S'99'
p1920
asbasbasbag61
(g77
g63
NtRp1921
(dp1922
g66
(dp1923
sg75
g1892
sg68
(lp1924
g61
(g82
g63
NtRp1925
(dp1926
g66
(dp1927
sg75
g1921
sg68
(lp1928
g61
(g62
g63
NtRp1929
(dp1930
g66
(dp1931
g74
I3
ssg75
g1925
sg68
(lp1932
S'7'
asbasbasbag61
(g77
g63
NtRp1933
(dp1934
g66
(dp1935
sg75
g1892
sg68
(lp1936
g61
(g82
g63
NtRp1937
(dp1938
g66
(dp1939
sg75
g1933
sg68
(lp1940
g61
(g62
g63
NtRp1941
(dp1942
g66
(dp1943
g74
I3
ssg75
g1937
sg68
(lp1944
S'datetime.datetime(2012, 3, 4, 22, 12, 8)'
p1945
asbasbasbag61
(g77
g63
NtRp1946
(dp1947
g66
(dp1948
sg75
g1892
sg68
(lp1949
g61
(g82
g63
NtRp1950
(dp1951
g66
(dp1952
sg75
g1946
sg68
(lp1953
g61
(g62
g63
NtRp1954
(dp1955
g66
(dp1956
g74
I3
ssg75
g1950
sg68
(lp1957
g1348
asbasbasbasbasbasbasbasbasbasbasbag61
(g77
g63
NtRp1958
(dp1959
g66
(dp1960
sg75
g71
sg68
(lp1961
g61
(g82
g63
NtRp1962
(dp1963
g66
(dp1964
g86
g87
ssg75
g1958
sg68
(lp1965
S'is_https'
p1966
asbag61
(g82
g63
NtRp1967
(dp1968
g66
(dp1969
g93
g94
ssg75
g1958
sg68
(lp1970
S':'
asbag61
(g82
g63
NtRp1971
(dp1972
g66
(dp1973
sg75
g1958
sg68
(lp1974
g61
(g62
g63
NtRp1975
(dp1976
g66
(dp1977
g74
I5
ssg75
g1971
sg68
(lp1978
g104
asbasbasbag61
(g77
g63
NtRp1979
(dp1980
g66
(dp1981
sg75
g71
sg68
(lp1982
g61
(g82
g63
NtRp1983
(dp1984
g66
(dp1985
g86
g87
ssg75
g1979
sg68
(lp1986
S'is_local'
p1987
asbag61
(g82
g63
NtRp1988
(dp1989
g66
(dp1990
g93
g94
ssg75
g1979
sg68
(lp1991
S':'
asbag61
(g82
g63
NtRp1992
(dp1993
g66
(dp1994
sg75
g1979
sg68
(lp1995
g61
(g62
g63
NtRp1996
(dp1997
g66
(dp1998
g74
I5
ssg75
g1992
sg68
(lp1999
g738
asbasbasbag61
(g77
g63
NtRp2000
(dp2001
g66
(dp2002
sg75
g71
sg68
(lp2003
g61
(g82
g63
NtRp2004
(dp2005
g66
(dp2006
g86
g87
ssg75
g2000
sg68
(lp2007
S'is_restful'
p2008
asbag61
(g82
g63
NtRp2009
(dp2010
g66
(dp2011
g93
g94
ssg75
g2000
sg68
(lp2012
S':'
asbag61
(g82
g63
NtRp2013
(dp2014
g66
(dp2015
sg75
g2000
sg68
(lp2016
g61
(g62
g63
NtRp2017
(dp2018
g66
(dp2019
g74
I5
ssg75
g2013
sg68
(lp2020
g104
asbasbasbag61
(g77
g63
NtRp2021
(dp2022
g66
(dp2023
sg75
g71
sg68
(lp2024
g61
(g82
g63
NtRp2025
(dp2026
g66
(dp2027
g86
g87
ssg75
g2021
sg68
(lp2028
S'now'
p2029
asbag61
(g82
g63
NtRp2030
(dp2031
g66
(dp2032
g93
g94
ssg75
g2021
sg68
(lp2033
S':'
asbag61
(g82
g63
NtRp2034
(dp2035
g66
(dp2036
sg75
g2021
sg68
(lp2037
g61
(g62
g63
NtRp2038
(dp2039
g66
(dp2040
g74
I5
ssg75
g2034
sg68
(lp2041
S'datetime.datetime(2012, 3, 29, 12, 43, 44, 888000)'
p2042
asbasbasbag61
(g77
g63
NtRp2043
(dp2044
g66
(dp2045
sg75
g71
sg68
(lp2046
g61
(g82
g63
NtRp2047
(dp2048
g66
(dp2049
g86
g87
ssg75
g2043
sg68
(lp2050
S'post_vars'
p2051
asbag61
(g82
g63
NtRp2052
(dp2053
g66
(dp2054
g93
g94
ssg75
g2043
sg68
(lp2055
S':'
asbag61
(g82
g63
NtRp2056
(dp2057
g66
(dp2058
sg75
g2043
sg68
(lp2059
g61
(g62
g63
NtRp2060
(dp2061
g66
(dp2062
g74
I5
ssg75
g2056
sg68
(lp2063
g61
(g70
g63
NtRp2064
(dp2065
g66
(dp2066
g74
I4
ssg75
Nsg68
(lp2067
sbasbasbasbag61
(g77
g63
NtRp2068
(dp2069
g66
(dp2070
sg75
g71
sg68
(lp2071
g61
(g82
g63
NtRp2072
(dp2073
g66
(dp2074
g86
g87
ssg75
g2068
sg68
(lp2075
S'url'
p2076
asbag61
(g82
g63
NtRp2077
(dp2078
g66
(dp2079
g93
g94
ssg75
g2068
sg68
(lp2080
S':'
asbag61
(g82
g63
NtRp2081
(dp2082
g66
(dp2083
sg75
g2068
sg68
(lp2084
g61
(g62
g63
NtRp2085
(dp2086
g66
(dp2087
g74
I5
ssg75
g2081
sg68
(lp2088
S'/init/default/initdbjack'
p2089
asbasbasbag61
(g77
g63
NtRp2090
(dp2091
g66
(dp2092
sg75
g71
sg68
(lp2093
g61
(g82
g63
NtRp2094
(dp2095
g66
(dp2096
g86
g87
ssg75
g2090
sg68
(lp2097
S'utcnow'
p2098
asbag61
(g82
g63
NtRp2099
(dp2100
g66
(dp2101
g93
g94
ssg75
g2090
sg68
(lp2102
S':'
asbag61
(g82
g63
NtRp2103
(dp2104
g66
(dp2105
sg75
g2090
sg68
(lp2106
g61
(g62
g63
NtRp2107
(dp2108
g66
(dp2109
g74
I5
ssg75
g2103
sg68
(lp2110
S'datetime.datetime(2012, 3, 29, 10, 43, 44, 888000)'
p2111
asbasbasbag61
(g77
g63
NtRp2112
(dp2113
g66
(dp2114
sg75
g71
sg68
(lp2115
g61
(g82
g63
NtRp2116
(dp2117
g66
(dp2118
g86
g87
ssg75
g2112
sg68
(lp2119
S'uuid'
p2120
asbag61
(g82
g63
NtRp2121
(dp2122
g66
(dp2123
g93
g94
ssg75
g2112
sg68
(lp2124
S':'
asbag61
(g82
g63
NtRp2125
(dp2126
g66
(dp2127
sg75
g2112
sg68
(lp2128
g61
(g62
g63
NtRp2129
(dp2130
g66
(dp2131
g74
I5
ssg75
g2125
sg68
(lp2132
S'init/127.0.0.1.2012-03-29.12-43-44.b2f9559b-2470-48fe-b61a-3d529ec4a9a0'
p2133
asbasbasbag61
(g77
g63
NtRp2134
(dp2135
g66
(dp2136
sg75
g71
sg68
(lp2137
g61
(g82
g63
NtRp2138
(dp2139
g66
(dp2140
g86
g87
ssg75
g2134
sg68
(lp2141
S'vars'
p2142
asbag61
(g82
g63
NtRp2143
(dp2144
g66
(dp2145
g93
g94
ssg75
g2134
sg68
(lp2146
S':'
asbag61
(g82
g63
NtRp2147
(dp2148
g66
(dp2149
sg75
g2134
sg68
(lp2150
g61
(g62
g63
NtRp2151
(dp2152
g66
(dp2153
g74
I5
ssg75
g2147
sg68
(lp2154
g61
(g70
g63
NtRp2155
(dp2156
g66
(dp2157
g74
I4
ssg75
Nsg68
(lp2158
sbasbasbasbag61
(g77
g63
NtRp2159
(dp2160
g66
(dp2161
sg75
g71
sg68
(lp2162
g61
(g82
g63
NtRp2163
(dp2164
g66
(dp2165
g86
g87
ssg75
g2159
sg68
(lp2166
S'wsgi'
p2167
asbag61
(g82
g63
NtRp2168
(dp2169
g66
(dp2170
g93
g94
ssg75
g2159
sg68
(lp2171
S':'
asbag61
(g82
g63
NtRp2172
(dp2173
g66
(dp2174
sg75
g2159
sg68
(lp2175
g61
(g62
g63
NtRp2176
(dp2177
g66
(dp2178
g74
I5
ssg75
g2172
sg68
(lp2179
g61
(g70
g63
NtRp2180
(dp2181
g66
(dp2182
g74
I4
ssg75
Nsg68
(lp2183
g61
(g77
g63
NtRp2184
(dp2185
g66
(dp2186
sg75
g2180
sg68
(lp2187
g61
(g82
g63
NtRp2188
(dp2189
g66
(dp2190
g86
g87
ssg75
g2184
sg68
(lp2191
S'environ'
p2192
asbag61
(g82
g63
NtRp2193
(dp2194
g66
(dp2195
g93
g94
ssg75
g2184
sg68
(lp2196
S':'
asbag61
(g82
g63
NtRp2197
(dp2198
g66
(dp2199
sg75
g2184
sg68
(lp2200
g61
(g62
g63
NtRp2201
(dp2202
g66
(dp2203
g74
I4
ssg75
g2197
sg68
(lp2204
g61
(g70
g63
NtRp2205
(dp2206
g66
(dp2207
g74
I3
ssg75
Nsg68
(lp2208
g61
(g77
g63
NtRp2209
(dp2210
g66
(dp2211
sg75
g2205
sg68
(lp2212
g61
(g82
g63
NtRp2213
(dp2214
g66
(dp2215
g86
g87
ssg75
g2209
sg68
(lp2216
S'HTTP_ACCEPT'
p2217
asbag61
(g82
g63
NtRp2218
(dp2219
g66
(dp2220
g93
g94
ssg75
g2209
sg68
(lp2221
S':'
asbag61
(g82
g63
NtRp2222
(dp2223
g66
(dp2224
sg75
g2209
sg68
(lp2225
g61
(g62
g63
NtRp2226
(dp2227
g66
(dp2228
g74
I3
ssg75
g2222
sg68
(lp2229
g782
asbasbasbag61
(g77
g63
NtRp2230
(dp2231
g66
(dp2232
sg75
g2205
sg68
(lp2233
g61
(g82
g63
NtRp2234
(dp2235
g66
(dp2236
g86
g87
ssg75
g2230
sg68
(lp2237
S'HTTP_ACCEPT_CHARSET'
p2238
asbag61
(g82
g63
NtRp2239
(dp2240
g66
(dp2241
g93
g94
ssg75
g2230
sg68
(lp2242
S':'
asbag61
(g82
g63
NtRp2243
(dp2244
g66
(dp2245
sg75
g2230
sg68
(lp2246
g61
(g62
g63
NtRp2247
(dp2248
g66
(dp2249
g74
I3
ssg75
g2243
sg68
(lp2250
g804
asbasbasbag61
(g77
g63
NtRp2251
(dp2252
g66
(dp2253
sg75
g2205
sg68
(lp2254
g61
(g82
g63
NtRp2255
(dp2256
g66
(dp2257
g86
g87
ssg75
g2251
sg68
(lp2258
S'HTTP_ACCEPT_ENCODING'
p2259
asbag61
(g82
g63
NtRp2260
(dp2261
g66
(dp2262
g93
g94
ssg75
g2251
sg68
(lp2263
S':'
asbag61
(g82
g63
NtRp2264
(dp2265
g66
(dp2266
sg75
g2251
sg68
(lp2267
g61
(g62
g63
NtRp2268
(dp2269
g66
(dp2270
g74
I3
ssg75
g2264
sg68
(lp2271
g826
asbasbasbag61
(g77
g63
NtRp2272
(dp2273
g66
(dp2274
sg75
g2205
sg68
(lp2275
g61
(g82
g63
NtRp2276
(dp2277
g66
(dp2278
g86
g87
ssg75
g2272
sg68
(lp2279
S'HTTP_ACCEPT_LANGUAGE'
p2280
asbag61
(g82
g63
NtRp2281
(dp2282
g66
(dp2283
g93
g94
ssg75
g2272
sg68
(lp2284
S':'
asbag61
(g82
g63
NtRp2285
(dp2286
g66
(dp2287
sg75
g2272
sg68
(lp2288
g61
(g62
g63
NtRp2289
(dp2290
g66
(dp2291
g74
I3
ssg75
g2285
sg68
(lp2292
g848
asbasbasbag61
(g77
g63
NtRp2293
(dp2294
g66
(dp2295
sg75
g2205
sg68
(lp2296
g61
(g82
g63
NtRp2297
(dp2298
g66
(dp2299
g86
g87
ssg75
g2293
sg68
(lp2300
S'HTTP_CACHE_CONTROL'
p2301
asbag61
(g82
g63
NtRp2302
(dp2303
g66
(dp2304
g93
g94
ssg75
g2293
sg68
(lp2305
S':'
asbag61
(g82
g63
NtRp2306
(dp2307
g66
(dp2308
sg75
g2293
sg68
(lp2309
g61
(g62
g63
NtRp2310
(dp2311
g66
(dp2312
g74
I3
ssg75
g2306
sg68
(lp2313
g870
asbasbasbag61
(g77
g63
NtRp2314
(dp2315
g66
(dp2316
sg75
g2205
sg68
(lp2317
g61
(g82
g63
NtRp2318
(dp2319
g66
(dp2320
g86
g87
ssg75
g2314
sg68
(lp2321
S'HTTP_CONNECTION'
p2322
asbag61
(g82
g63
NtRp2323
(dp2324
g66
(dp2325
g93
g94
ssg75
g2314
sg68
(lp2326
S':'
asbag61
(g82
g63
NtRp2327
(dp2328
g66
(dp2329
sg75
g2314
sg68
(lp2330
g61
(g62
g63
NtRp2331
(dp2332
g66
(dp2333
g74
I3
ssg75
g2327
sg68
(lp2334
g892
asbasbasbag61
(g77
g63
NtRp2335
(dp2336
g66
(dp2337
sg75
g2205
sg68
(lp2338
g61
(g82
g63
NtRp2339
(dp2340
g66
(dp2341
g86
g87
ssg75
g2335
sg68
(lp2342
S'HTTP_COOKIE'
p2343
asbag61
(g82
g63
NtRp2344
(dp2345
g66
(dp2346
g93
g94
ssg75
g2335
sg68
(lp2347
S':'
asbag61
(g82
g63
NtRp2348
(dp2349
g66
(dp2350
sg75
g2335
sg68
(lp2351
g61
(g62
g63
NtRp2352
(dp2353
g66
(dp2354
g74
I3
ssg75
g2348
sg68
(lp2355
g914
asbasbasbag61
(g77
g63
NtRp2356
(dp2357
g66
(dp2358
sg75
g2205
sg68
(lp2359
g61
(g82
g63
NtRp2360
(dp2361
g66
(dp2362
g86
g87
ssg75
g2356
sg68
(lp2363
S'HTTP_HOST'
p2364
asbag61
(g82
g63
NtRp2365
(dp2366
g66
(dp2367
g93
g94
ssg75
g2356
sg68
(lp2368
S':'
asbag61
(g82
g63
NtRp2369
(dp2370
g66
(dp2371
sg75
g2356
sg68
(lp2372
g61
(g62
g63
NtRp2373
(dp2374
g66
(dp2375
g74
I3
ssg75
g2369
sg68
(lp2376
g936
asbasbasbag61
(g77
g63
NtRp2377
(dp2378
g66
(dp2379
sg75
g2205
sg68
(lp2380
g61
(g82
g63
NtRp2381
(dp2382
g66
(dp2383
g86
g87
ssg75
g2377
sg68
(lp2384
S'HTTP_USER_AGENT'
p2385
asbag61
(g82
g63
NtRp2386
(dp2387
g66
(dp2388
g93
g94
ssg75
g2377
sg68
(lp2389
S':'
asbag61
(g82
g63
NtRp2390
(dp2391
g66
(dp2392
sg75
g2377
sg68
(lp2393
g61
(g62
g63
NtRp2394
(dp2395
g66
(dp2396
g74
I3
ssg75
g2390
sg68
(lp2397
g958
asbasbasbag61
(g77
g63
NtRp2398
(dp2399
g66
(dp2400
sg75
g2205
sg68
(lp2401
g61
(g82
g63
NtRp2402
(dp2403
g66
(dp2404
g86
g87
ssg75
g2398
sg68
(lp2405
S'PATH_INFO'
p2406
asbag61
(g82
g63
NtRp2407
(dp2408
g66
(dp2409
g93
g94
ssg75
g2398
sg68
(lp2410
S':'
asbag61
(g82
g63
NtRp2411
(dp2412
g66
(dp2413
sg75
g2398
sg68
(lp2414
g61
(g62
g63
NtRp2415
(dp2416
g66
(dp2417
g74
I3
ssg75
g2411
sg68
(lp2418
g1022
asbasbasbag61
(g77
g63
NtRp2419
(dp2420
g66
(dp2421
sg75
g2205
sg68
(lp2422
g61
(g82
g63
NtRp2423
(dp2424
g66
(dp2425
g86
g87
ssg75
g2419
sg68
(lp2426
S'QUERY_STRING'
p2427
asbag61
(g82
g63
NtRp2428
(dp2429
g66
(dp2430
g93
g94
ssg75
g2419
sg68
(lp2431
S':'
asbag61
(g82
g63
NtRp2432
(dp2433
g66
(dp2434
sg75
g2419
sg68
(lp2435
g61
(g62
g63
NtRp2436
(dp2437
g66
(dp2438
g74
I3
ssg75
g2432
sg68
(lp2439
S''
asbasbasbag61
(g77
g63
NtRp2440
(dp2441
g66
(dp2442
sg75
g2205
sg68
(lp2443
g61
(g82
g63
NtRp2444
(dp2445
g66
(dp2446
g86
g87
ssg75
g2440
sg68
(lp2447
S'REMOTE_ADDR'
p2448
asbag61
(g82
g63
NtRp2449
(dp2450
g66
(dp2451
g93
g94
ssg75
g2440
sg68
(lp2452
S':'
asbag61
(g82
g63
NtRp2453
(dp2454
g66
(dp2455
sg75
g2440
sg68
(lp2456
g61
(g62
g63
NtRp2457
(dp2458
g66
(dp2459
g74
I3
ssg75
g2453
sg68
(lp2460
g194
asbasbasbag61
(g77
g63
NtRp2461
(dp2462
g66
(dp2463
sg75
g2205
sg68
(lp2464
g61
(g82
g63
NtRp2465
(dp2466
g66
(dp2467
g86
g87
ssg75
g2461
sg68
(lp2468
S'REMOTE_PORT'
p2469
asbag61
(g82
g63
NtRp2470
(dp2471
g66
(dp2472
g93
g94
ssg75
g2461
sg68
(lp2473
S':'
asbag61
(g82
g63
NtRp2474
(dp2475
g66
(dp2476
sg75
g2461
sg68
(lp2477
g61
(g62
g63
NtRp2478
(dp2479
g66
(dp2480
g74
I3
ssg75
g2474
sg68
(lp2481
g1086
asbasbasbag61
(g77
g63
NtRp2482
(dp2483
g66
(dp2484
sg75
g2205
sg68
(lp2485
g61
(g82
g63
NtRp2486
(dp2487
g66
(dp2488
g86
g87
ssg75
g2482
sg68
(lp2489
S'REQUEST_METHOD'
p2490
asbag61
(g82
g63
NtRp2491
(dp2492
g66
(dp2493
g93
g94
ssg75
g2482
sg68
(lp2494
S':'
asbag61
(g82
g63
NtRp2495
(dp2496
g66
(dp2497
sg75
g2482
sg68
(lp2498
g61
(g62
g63
NtRp2499
(dp2500
g66
(dp2501
g74
I3
ssg75
g2495
sg68
(lp2502
g1108
asbasbasbag61
(g77
g63
NtRp2503
(dp2504
g66
(dp2505
sg75
g2205
sg68
(lp2506
g61
(g82
g63
NtRp2507
(dp2508
g66
(dp2509
g86
g87
ssg75
g2503
sg68
(lp2510
S'SCRIPT_NAME'
p2511
asbag61
(g82
g63
NtRp2512
(dp2513
g66
(dp2514
g93
g94
ssg75
g2503
sg68
(lp2515
S':'
asbag61
(g82
g63
NtRp2516
(dp2517
g66
(dp2518
sg75
g2503
sg68
(lp2519
g61
(g62
g63
NtRp2520
(dp2521
g66
(dp2522
g74
I3
ssg75
g2516
sg68
(lp2523
S''
asbasbasbag61
(g77
g63
NtRp2524
(dp2525
g66
(dp2526
sg75
g2205
sg68
(lp2527
g61
(g82
g63
NtRp2528
(dp2529
g66
(dp2530
g86
g87
ssg75
g2524
sg68
(lp2531
S'SERVER_NAME'
p2532
asbag61
(g82
g63
NtRp2533
(dp2534
g66
(dp2535
g93
g94
ssg75
g2524
sg68
(lp2536
S':'
asbag61
(g82
g63
NtRp2537
(dp2538
g66
(dp2539
sg75
g2524
sg68
(lp2540
g61
(g62
g63
NtRp2541
(dp2542
g66
(dp2543
g74
I3
ssg75
g2537
sg68
(lp2544
g1151
asbasbasbag61
(g77
g63
NtRp2545
(dp2546
g66
(dp2547
sg75
g2205
sg68
(lp2548
g61
(g82
g63
NtRp2549
(dp2550
g66
(dp2551
g86
g87
ssg75
g2545
sg68
(lp2552
S'SERVER_PORT'
p2553
asbag61
(g82
g63
NtRp2554
(dp2555
g66
(dp2556
g93
g94
ssg75
g2545
sg68
(lp2557
S':'
asbag61
(g82
g63
NtRp2558
(dp2559
g66
(dp2560
sg75
g2545
sg68
(lp2561
g61
(g62
g63
NtRp2562
(dp2563
g66
(dp2564
g74
I3
ssg75
g2558
sg68
(lp2565
g1173
asbasbasbag61
(g77
g63
NtRp2566
(dp2567
g66
(dp2568
sg75
g2205
sg68
(lp2569
g61
(g82
g63
NtRp2570
(dp2571
g66
(dp2572
g86
g87
ssg75
g2566
sg68
(lp2573
S'SERVER_PROTOCOL'
p2574
asbag61
(g82
g63
NtRp2575
(dp2576
g66
(dp2577
g93
g94
ssg75
g2566
sg68
(lp2578
S':'
asbag61
(g82
g63
NtRp2579
(dp2580
g66
(dp2581
sg75
g2566
sg68
(lp2582
g61
(g62
g63
NtRp2583
(dp2584
g66
(dp2585
g74
I3
ssg75
g2579
sg68
(lp2586
g1195
asbasbasbag61
(g77
g63
NtRp2587
(dp2588
g66
(dp2589
sg75
g2205
sg68
(lp2590
g61
(g82
g63
NtRp2591
(dp2592
g66
(dp2593
g86
g87
ssg75
g2587
sg68
(lp2594
S'SERVER_SOFTWARE'
p2595
asbag61
(g82
g63
NtRp2596
(dp2597
g66
(dp2598
g93
g94
ssg75
g2587
sg68
(lp2599
S':'
asbag61
(g82
g63
NtRp2600
(dp2601
g66
(dp2602
sg75
g2587
sg68
(lp2603
g61
(g62
g63
NtRp2604
(dp2605
g66
(dp2606
g74
I3
ssg75
g2600
sg68
(lp2607
g1217
asbasbasbag61
(g77
g63
NtRp2608
(dp2609
g66
(dp2610
sg75
g2205
sg68
(lp2611
g61
(g82
g63
NtRp2612
(dp2613
g66
(dp2614
g86
g87
ssg75
g2608
sg68
(lp2615
S'wsgi.errors'
p2616
asbag61
(g82
g63
NtRp2617
(dp2618
g66
(dp2619
g93
g94
ssg75
g2608
sg68
(lp2620
S':'
asbag61
(g82
g63
NtRp2621
(dp2622
g66
(dp2623
sg75
g2608
sg68
(lp2624
g61
(g62
g63
NtRp2625
(dp2626
g66
(dp2627
g74
I3
ssg75
g2621
sg68
(lp2628
S"<open file '<stderr>', mode 'w' at 0x005300B0>"
p2629
asbasbasbag61
(g77
g63
NtRp2630
(dp2631
g66
(dp2632
sg75
g2205
sg68
(lp2633
g61
(g82
g63
NtRp2634
(dp2635
g66
(dp2636
g86
g87
ssg75
g2630
sg68
(lp2637
S'wsgi.file_wrapper'
p2638
asbag61
(g82
g63
NtRp2639
(dp2640
g66
(dp2641
g93
g94
ssg75
g2630
sg68
(lp2642
S':'
asbag61
(g82
g63
NtRp2643
(dp2644
g66
(dp2645
sg75
g2630
sg68
(lp2646
g61
(g62
g63
NtRp2647
(dp2648
g66
(dp2649
g74
I3
ssg75
g2643
sg68
(lp2650
S'<class wsgiref.util.FileWrapper at 0x02C34900>'
p2651
asbasbasbag61
(g77
g63
NtRp2652
(dp2653
g66
(dp2654
sg75
g2205
sg68
(lp2655
g61
(g82
g63
NtRp2656
(dp2657
g66
(dp2658
g86
g87
ssg75
g2652
sg68
(lp2659
S'wsgi.input'
p2660
asbag61
(g82
g63
NtRp2661
(dp2662
g66
(dp2663
g93
g94
ssg75
g2652
sg68
(lp2664
S':'
asbag61
(g82
g63
NtRp2665
(dp2666
g66
(dp2667
sg75
g2652
sg68
(lp2668
g61
(g62
g63
NtRp2669
(dp2670
g66
(dp2671
g74
I3
ssg75
g2665
sg68
(lp2672
S'<cStringIO.StringO object at 0x083B8C00>'
p2673
asbasbasbag61
(g77
g63
NtRp2674
(dp2675
g66
(dp2676
sg75
g2205
sg68
(lp2677
g61
(g82
g63
NtRp2678
(dp2679
g66
(dp2680
g86
g87
ssg75
g2674
sg68
(lp2681
S'wsgi.multiprocess'
p2682
asbag61
(g82
g63
NtRp2683
(dp2684
g66
(dp2685
g93
g94
ssg75
g2674
sg68
(lp2686
S':'
asbag61
(g82
g63
NtRp2687
(dp2688
g66
(dp2689
sg75
g2674
sg68
(lp2690
g61
(g62
g63
NtRp2691
(dp2692
g66
(dp2693
g74
I3
ssg75
g2687
sg68
(lp2694
g104
asbasbasbag61
(g77
g63
NtRp2695
(dp2696
g66
(dp2697
sg75
g2205
sg68
(lp2698
g61
(g82
g63
NtRp2699
(dp2700
g66
(dp2701
g86
g87
ssg75
g2695
sg68
(lp2702
S'wsgi.multithread'
p2703
asbag61
(g82
g63
NtRp2704
(dp2705
g66
(dp2706
g93
g94
ssg75
g2695
sg68
(lp2707
S':'
asbag61
(g82
g63
NtRp2708
(dp2709
g66
(dp2710
sg75
g2695
sg68
(lp2711
g61
(g62
g63
NtRp2712
(dp2713
g66
(dp2714
g74
I3
ssg75
g2708
sg68
(lp2715
g738
asbasbasbag61
(g77
g63
NtRp2716
(dp2717
g66
(dp2718
sg75
g2205
sg68
(lp2719
g61
(g82
g63
NtRp2720
(dp2721
g66
(dp2722
g86
g87
ssg75
g2716
sg68
(lp2723
S'wsgi.run_once'
p2724
asbag61
(g82
g63
NtRp2725
(dp2726
g66
(dp2727
g93
g94
ssg75
g2716
sg68
(lp2728
S':'
asbag61
(g82
g63
NtRp2729
(dp2730
g66
(dp2731
sg75
g2716
sg68
(lp2732
g61
(g62
g63
NtRp2733
(dp2734
g66
(dp2735
g74
I3
ssg75
g2729
sg68
(lp2736
g104
asbasbasbag61
(g77
g63
NtRp2737
(dp2738
g66
(dp2739
sg75
g2205
sg68
(lp2740
g61
(g82
g63
NtRp2741
(dp2742
g66
(dp2743
g86
g87
ssg75
g2737
sg68
(lp2744
S'wsgi.url_scheme'
p2745
asbag61
(g82
g63
NtRp2746
(dp2747
g66
(dp2748
g93
g94
ssg75
g2737
sg68
(lp2749
S':'
asbag61
(g82
g63
NtRp2750
(dp2751
g66
(dp2752
sg75
g2737
sg68
(lp2753
g61
(g62
g63
NtRp2754
(dp2755
g66
(dp2756
g74
I3
ssg75
g2750
sg68
(lp2757
g1499
asbasbasbag61
(g77
g63
NtRp2758
(dp2759
g66
(dp2760
sg75
g2205
sg68
(lp2761
g61
(g82
g63
NtRp2762
(dp2763
g66
(dp2764
g86
g87
ssg75
g2758
sg68
(lp2765
S'wsgi.version'
p2766
asbag61
(g82
g63
NtRp2767
(dp2768
g66
(dp2769
g93
g94
ssg75
g2758
sg68
(lp2770
S':'
asbag61
(g82
g63
NtRp2771
(dp2772
g66
(dp2773
sg75
g2758
sg68
(lp2774
g61
(g62
g63
NtRp2775
(dp2776
g66
(dp2777
g74
I3
ssg75
g2771
sg68
(lp2778
S'1'
asbasbasbasbasbasbasbasbasbasbasbasbasbsS'frames'
p2779
(lp2780
(dp2781
S'file'
p2782
S'C:\\Users\\Bussiere\\Dropbox\\Projets\\jackpoint\\web2py\\gluon\\restricted.py'
p2783
sS'dump'
p2784
(dp2785
sS'lnum'
p2786
I204
sS'lines'
p2787
(dp2788
I199
S"    environment['__name__'] = '__restricted__'"
p2789
sI200
S'    try:'
p2790
sI201
S'        if type(code) == types.CodeType:'
p2791
sI202
S'            ccode = code'
p2792
sI203
S'        else:'
p2793
sI204
S'            ccode = compile2(code,layer)'
p2794
sI205
S'        exec ccode in environment'
p2795
sI206
S'    except HTTP:'
p2796
sI207
S'        raise'
p2797
sI208
S'    except RestrictedError:'
p2798
ssS'call'
p2799
S"(code='\\xef\\xbb\\xbf# -*- coding: utf-8 -*-\\n# this file is releas...())\\n\\nresponse._vars=response._caller(initdbjack)\\n', environment={'A': <class 'gluon.html.A'>, 'Auth': <class 'gluon.tools.Auth'>, 'AutocompleteWidget': <class 'gluon.sqlhtml.AutocompleteWidget'>, 'B': <class 'gluon.html.B'>, 'BEAUTIFY': <class 'gluon.html.BEAUTIFY'>, 'BODY': <class 'gluon.html.BODY'>, 'BR': <class 'gluon.html.BR'>, 'BUTTON': <class 'gluon.html.BUTTON'>, 'BooleanWidget': <class 'gluon.sqlhtml.BooleanWidget'>, 'CALLABLETYPES': (<type 'function'>, <type 'function'>, <type 'builtin_function_or_method'>, <type 'instancemethod'>, <type 'builtin_function_or_method'>), ...}, layer=r'C:\\Users\\Bussiere\\Dropbox\\Projets\\jackpoint\\web2py\\applications\\init\\controllers/default.py')"
p2800
sS'func'
p2801
S'restricted'
p2802
sa(dp2803
g2782
S'C:\\Users\\Bussiere\\Dropbox\\Projets\\jackpoint\\web2py\\gluon\\restricted.py'
p2804
sg2784
(dp2805
sg2786
I189
sg2787
(dp2806
I192
S'    """'
p2807
sI193
S'    runs code in environment and returns the output. if an exception occurs'
p2808
sI184
S''
sI185
S'def compile2(code,layer):'
p2809
sI186
S'    """'
p2810
sI187
S"    The +'\\n' is necessary else compile fails when code ends in a comment."
p2811
sI188
S'    """'
p2812
sI189
S"    return compile(code.rstrip().replace('\\r\\n','\\n')+'\\n', layer, 'exec')"
p2813
sI190
S''
sI191
S"def restricted(code, environment=None, layer='Unknown'):"
p2814
ssg2799
S"(code='\\xef\\xbb\\xbf# -*- coding: utf-8 -*-\\n# this file is releas...())\\n\\nresponse._vars=response._caller(initdbjack)\\n', layer=r'C:\\Users\\Bussiere\\Dropbox\\Projets\\jackpoint\\web2py\\applications\\init\\controllers/default.py')"
p2815
sg2801
S'compile2'
p2816
sasS'pyver'
p2817
S'Python 2.5.4: C:\\Users\\Bussiere\\Dropbox\\Projets\\jackpoint\\web2py\\web2py.exe'
p2818
sS'session'
p2819
g61
(g62
g63
NtRp2820
(dp2821
g66
(dp2822
sg68
(lp2823
g61
(g70
g63
NtRp2824
(dp2825
g66
(dp2826
g74
I5
ssg75
Nsg68
(lp2827
sbasbsS'etype'
p2828
S"<type 'exceptions.SyntaxError'>"
p2829
sS'date'
p2830
S'Thu Mar 29 12:43:45 2012'
p2831
sS'response'
p2832
g61
(g62
g63
NtRp2833
(dp2834
g66
(dp2835
sg68
(lp2836
g61
(g70
g63
NtRp2837
(dp2838
g66
(dp2839
g74
I5
ssg75
Nsg68
(lp2840
g61
(g77
g63
NtRp2841
(dp2842
g66
(dp2843
sg75
g2837
sg68
(lp2844
g61
(g82
g63
NtRp2845
(dp2846
g66
(dp2847
g86
g87
ssg75
g2841
sg68
(lp2848
g159
asbag61
(g82
g63
NtRp2849
(dp2850
g66
(dp2851
g93
g94
ssg75
g2841
sg68
(lp2852
S':'
asbag61
(g82
g63
NtRp2853
(dp2854
g66
(dp2855
sg75
g2841
sg68
(lp2856
g61
(g62
g63
NtRp2857
(dp2858
g66
(dp2859
g74
I5
ssg75
g2853
sg68
(lp2860
S'<cStringIO.StringO object at 0x07FA4880>'
p2861
asbasbasbag61
(g77
g63
NtRp2862
(dp2863
g66
(dp2864
sg75
g2837
sg68
(lp2865
g61
(g82
g63
NtRp2866
(dp2867
g66
(dp2868
g86
g87
ssg75
g2862
sg68
(lp2869
g225
asbag61
(g82
g63
NtRp2870
(dp2871
g66
(dp2872
g93
g94
ssg75
g2862
sg68
(lp2873
S':'
asbag61
(g82
g63
NtRp2874
(dp2875
g66
(dp2876
sg75
g2862
sg68
(lp2877
g61
(g62
g63
NtRp2878
(dp2879
g66
(dp2880
g74
I5
ssg75
g2874
sg68
(lp2881
g61
(g70
g63
NtRp2882
(dp2883
g66
(dp2884
g74
I4
ssg75
Nsg68
(lp2885
g61
(g77
g63
NtRp2886
(dp2887
g66
(dp2888
sg75
g2882
sg68
(lp2889
g61
(g82
g63
NtRp2890
(dp2891
g66
(dp2892
g86
g87
ssg75
g2886
sg68
(lp2893
S'session_id_init'
p2894
asbag61
(g82
g63
NtRp2895
(dp2896
g66
(dp2897
g93
g94
ssg75
g2886
sg68
(lp2898
S':'
asbag61
(g82
g63
NtRp2899
(dp2900
g66
(dp2901
sg75
g2886
sg68
(lp2902
g61
(g62
g63
NtRp2903
(dp2904
g66
(dp2905
g74
I4
ssg75
g2899
sg68
(lp2906
g61
(g70
g63
NtRp2907
(dp2908
g66
(dp2909
g74
I3
ssg75
Nsg68
(lp2910
g61
(g77
g63
NtRp2911
(dp2912
g66
(dp2913
sg75
g2907
sg68
(lp2914
g61
(g82
g63
NtRp2915
(dp2916
g66
(dp2917
g86
g87
ssg75
g2911
sg68
(lp2918
g275
asbag61
(g82
g63
NtRp2919
(dp2920
g66
(dp2921
g93
g94
ssg75
g2911
sg68
(lp2922
S':'
asbag61
(g82
g63
NtRp2923
(dp2924
g66
(dp2925
sg75
g2911
sg68
(lp2926
g61
(g62
g63
NtRp2927
(dp2928
g66
(dp2929
g74
I3
ssg75
g2923
sg68
(lp2930
S''
asbasbasbag61
(g77
g63
NtRp2931
(dp2932
g66
(dp2933
sg75
g2907
sg68
(lp2934
g61
(g82
g63
NtRp2935
(dp2936
g66
(dp2937
g86
g87
ssg75
g2931
sg68
(lp2938
g296
asbag61
(g82
g63
NtRp2939
(dp2940
g66
(dp2941
g93
g94
ssg75
g2931
sg68
(lp2942
S':'
asbag61
(g82
g63
NtRp2943
(dp2944
g66
(dp2945
sg75
g2931
sg68
(lp2946
g61
(g62
g63
NtRp2947
(dp2948
g66
(dp2949
g74
I3
ssg75
g2943
sg68
(lp2950
S''
asbasbasbag61
(g77
g63
NtRp2951
(dp2952
g66
(dp2953
sg75
g2907
sg68
(lp2954
g61
(g82
g63
NtRp2955
(dp2956
g66
(dp2957
g86
g87
ssg75
g2951
sg68
(lp2958
g317
asbag61
(g82
g63
NtRp2959
(dp2960
g66
(dp2961
g93
g94
ssg75
g2951
sg68
(lp2962
S':'
asbag61
(g82
g63
NtRp2963
(dp2964
g66
(dp2965
sg75
g2951
sg68
(lp2966
g61
(g62
g63
NtRp2967
(dp2968
g66
(dp2969
g74
I3
ssg75
g2963
sg68
(lp2970
S''
asbasbasbag61
(g77
g63
NtRp2971
(dp2972
g66
(dp2973
sg75
g2907
sg68
(lp2974
g61
(g82
g63
NtRp2975
(dp2976
g66
(dp2977
g86
g87
ssg75
g2971
sg68
(lp2978
g338
asbag61
(g82
g63
NtRp2979
(dp2980
g66
(dp2981
g93
g94
ssg75
g2971
sg68
(lp2982
S':'
asbag61
(g82
g63
NtRp2983
(dp2984
g66
(dp2985
sg75
g2971
sg68
(lp2986
g61
(g62
g63
NtRp2987
(dp2988
g66
(dp2989
g74
I3
ssg75
g2983
sg68
(lp2990
S''
asbasbasbag61
(g77
g63
NtRp2991
(dp2992
g66
(dp2993
sg75
g2907
sg68
(lp2994
g61
(g82
g63
NtRp2995
(dp2996
g66
(dp2997
g86
g87
ssg75
g2991
sg68
(lp2998
g359
asbag61
(g82
g63
NtRp2999
(dp3000
g66
(dp3001
g93
g94
ssg75
g2991
sg68
(lp3002
S':'
asbag61
(g82
g63
NtRp3003
(dp3004
g66
(dp3005
sg75
g2991
sg68
(lp3006
g61
(g62
g63
NtRp3007
(dp3008
g66
(dp3009
g74
I3
ssg75
g3003
sg68
(lp3010
S'/'
asbasbasbag61
(g77
g63
NtRp3011
(dp3012
g66
(dp3013
sg75
g2907
sg68
(lp3014
g61
(g82
g63
NtRp3015
(dp3016
g66
(dp3017
g86
g87
ssg75
g3011
sg68
(lp3018
g380
asbag61
(g82
g63
NtRp3019
(dp3020
g66
(dp3021
g93
g94
ssg75
g3011
sg68
(lp3022
S':'
asbag61
(g82
g63
NtRp3023
(dp3024
g66
(dp3025
sg75
g3011
sg68
(lp3026
g61
(g62
g63
NtRp3027
(dp3028
g66
(dp3029
g74
I3
ssg75
g3023
sg68
(lp3030
S''
asbasbasbag61
(g77
g63
NtRp3031
(dp3032
g66
(dp3033
sg75
g2907
sg68
(lp3034
g61
(g82
g63
NtRp3035
(dp3036
g66
(dp3037
g86
g87
ssg75
g3031
sg68
(lp3038
g401
asbag61
(g82
g63
NtRp3039
(dp3040
g66
(dp3041
g93
g94
ssg75
g3031
sg68
(lp3042
S':'
asbag61
(g82
g63
NtRp3043
(dp3044
g66
(dp3045
sg75
g3031
sg68
(lp3046
g61
(g62
g63
NtRp3047
(dp3048
g66
(dp3049
g74
I3
ssg75
g3043
sg68
(lp3050
S''
asbasbasbasbasbasbasbasbasbasbasbag61
(g77
g63
NtRp3051
(dp3052
g66
(dp3053
sg75
g2837
sg68
(lp3054
g61
(g82
g63
NtRp3055
(dp3056
g66
(dp3057
g86
g87
ssg75
g3051
sg68
(lp3058
S'delimiters'
p3059
asbag61
(g82
g63
NtRp3060
(dp3061
g66
(dp3062
g93
g94
ssg75
g3051
sg68
(lp3063
S':'
asbag61
(g82
g63
NtRp3064
(dp3065
g66
(dp3066
sg75
g3051
sg68
(lp3067
g61
(g62
g63
NtRp3068
(dp3069
g66
(dp3070
g74
I5
ssg75
g3064
sg68
(lp3071
g61
(g70
g63
NtRp3072
(dp3073
g66
(dp3074
g74
I4
ssg75
Nsg68
(lp3075
g61
(g77
g63
NtRp3076
(dp3077
g66
(dp3078
sg75
g3072
sg68
(lp3079
g61
(g82
g63
NtRp3080
(dp3081
g66
(dp3082
sg75
g3076
sg68
(lp3083
g61
(g62
g63
NtRp3084
(dp3085
g66
(dp3086
g74
I4
ssg75
g3080
sg68
(lp3087
S'{{'
p3088
asbasbasbag61
(g77
g63
NtRp3089
(dp3090
g66
(dp3091
sg75
g3072
sg68
(lp3092
g61
(g82
g63
NtRp3093
(dp3094
g66
(dp3095
sg75
g3089
sg68
(lp3096
g61
(g62
g63
NtRp3097
(dp3098
g66
(dp3099
g74
I4
ssg75
g3093
sg68
(lp3100
S'}}'
p3101
asbasbasbasbasbasbasbag61
(g77
g63
NtRp3102
(dp3103
g66
(dp3104
sg75
g2837
sg68
(lp3105
g61
(g82
g63
NtRp3106
(dp3107
g66
(dp3108
g86
g87
ssg75
g3102
sg68
(lp3109
S'files'
p3110
asbag61
(g82
g63
NtRp3111
(dp3112
g66
(dp3113
g93
g94
ssg75
g3102
sg68
(lp3114
S':'
asbag61
(g82
g63
NtRp3115
(dp3116
g66
(dp3117
sg75
g3102
sg68
(lp3118
g61
(g62
g63
NtRp3119
(dp3120
g66
(dp3121
g74
I5
ssg75
g3115
sg68
(lp3122
g61
(g70
g63
NtRp3123
(dp3124
g66
(dp3125
g74
I4
ssg75
Nsg68
(lp3126
sbasbasbasbag61
(g77
g63
NtRp3127
(dp3128
g66
(dp3129
sg75
g2837
sg68
(lp3130
g61
(g82
g63
NtRp3131
(dp3132
g66
(dp3133
g86
g87
ssg75
g3127
sg68
(lp3134
S'flash'
p3135
asbag61
(g82
g63
NtRp3136
(dp3137
g66
(dp3138
g93
g94
ssg75
g3127
sg68
(lp3139
S':'
asbag61
(g82
g63
NtRp3140
(dp3141
g66
(dp3142
sg75
g3127
sg68
(lp3143
g61
(g62
g63
NtRp3144
(dp3145
g66
(dp3146
g74
I5
ssg75
g3140
sg68
(lp3147
S''
asbasbasbag61
(g77
g63
NtRp3148
(dp3149
g66
(dp3150
sg75
g2837
sg68
(lp3151
g61
(g82
g63
NtRp3152
(dp3153
g66
(dp3154
g86
g87
ssg75
g3148
sg68
(lp3155
S'generic_patterns'
p3156
asbag61
(g82
g63
NtRp3157
(dp3158
g66
(dp3159
g93
g94
ssg75
g3148
sg68
(lp3160
S':'
asbag61
(g82
g63
NtRp3161
(dp3162
g66
(dp3163
sg75
g3148
sg68
(lp3164
g61
(g62
g63
NtRp3165
(dp3166
g66
(dp3167
g74
I5
ssg75
g3161
sg68
(lp3168
g61
(g70
g63
NtRp3169
(dp3170
g66
(dp3171
g74
I4
ssg75
Nsg68
(lp3172
g61
(g77
g63
NtRp3173
(dp3174
g66
(dp3175
sg75
g3169
sg68
(lp3176
g61
(g82
g63
NtRp3177
(dp3178
g66
(dp3179
sg75
g3173
sg68
(lp3180
g61
(g62
g63
NtRp3181
(dp3182
g66
(dp3183
g74
I4
ssg75
g3177
sg68
(lp3184
S'*'
asbasbasbasbasbasbasbag61
(g77
g63
NtRp3185
(dp3186
g66
(dp3187
sg75
g2837
sg68
(lp3188
g61
(g82
g63
NtRp3189
(dp3190
g66
(dp3191
g86
g87
ssg75
g3185
sg68
(lp3192
S'headers'
p3193
asbag61
(g82
g63
NtRp3194
(dp3195
g66
(dp3196
g93
g94
ssg75
g3185
sg68
(lp3197
S':'
asbag61
(g82
g63
NtRp3198
(dp3199
g66
(dp3200
sg75
g3185
sg68
(lp3201
g61
(g62
g63
NtRp3202
(dp3203
g66
(dp3204
g74
I5
ssg75
g3198
sg68
(lp3205
g61
(g70
g63
NtRp3206
(dp3207
g66
(dp3208
g74
I4
ssg75
Nsg68
(lp3209
g61
(g77
g63
NtRp3210
(dp3211
g66
(dp3212
sg75
g3206
sg68
(lp3213
g61
(g82
g63
NtRp3214
(dp3215
g66
(dp3216
g86
g87
ssg75
g3210
sg68
(lp3217
S'Cache-Control'
p3218
asbag61
(g82
g63
NtRp3219
(dp3220
g66
(dp3221
g93
g94
ssg75
g3210
sg68
(lp3222
S':'
asbag61
(g82
g63
NtRp3223
(dp3224
g66
(dp3225
sg75
g3210
sg68
(lp3226
g61
(g62
g63
NtRp3227
(dp3228
g66
(dp3229
g74
I4
ssg75
g3223
sg68
(lp3230
S'no-store, no-cache, must-revalidate, post-check=0, pre-check=0'
p3231
asbasbasbag61
(g77
g63
NtRp3232
(dp3233
g66
(dp3234
sg75
g3206
sg68
(lp3235
g61
(g82
g63
NtRp3236
(dp3237
g66
(dp3238
g86
g87
ssg75
g3232
sg68
(lp3239
S'Content-Type'
p3240
asbag61
(g82
g63
NtRp3241
(dp3242
g66
(dp3243
g93
g94
ssg75
g3232
sg68
(lp3244
S':'
asbag61
(g82
g63
NtRp3245
(dp3246
g66
(dp3247
sg75
g3232
sg68
(lp3248
g61
(g62
g63
NtRp3249
(dp3250
g66
(dp3251
g74
I4
ssg75
g3245
sg68
(lp3252
S'text/html; charset=utf-8'
p3253
asbasbasbag61
(g77
g63
NtRp3254
(dp3255
g66
(dp3256
sg75
g3206
sg68
(lp3257
g61
(g82
g63
NtRp3258
(dp3259
g66
(dp3260
g86
g87
ssg75
g3254
sg68
(lp3261
S'Expires'
p3262
asbag61
(g82
g63
NtRp3263
(dp3264
g66
(dp3265
g93
g94
ssg75
g3254
sg68
(lp3266
S':'
asbag61
(g82
g63
NtRp3267
(dp3268
g66
(dp3269
sg75
g3254
sg68
(lp3270
g61
(g62
g63
NtRp3271
(dp3272
g66
(dp3273
g74
I4
ssg75
g3267
sg68
(lp3274
S'Thu, 29 Mar 2012 10:43:44 GMT'
p3275
asbasbasbag61
(g77
g63
NtRp3276
(dp3277
g66
(dp3278
sg75
g3206
sg68
(lp3279
g61
(g82
g63
NtRp3280
(dp3281
g66
(dp3282
g86
g87
ssg75
g3276
sg68
(lp3283
S'Pragma'
p3284
asbag61
(g82
g63
NtRp3285
(dp3286
g66
(dp3287
g93
g94
ssg75
g3276
sg68
(lp3288
S':'
asbag61
(g82
g63
NtRp3289
(dp3290
g66
(dp3291
sg75
g3276
sg68
(lp3292
g61
(g62
g63
NtRp3293
(dp3294
g66
(dp3295
g74
I4
ssg75
g3289
sg68
(lp3296
S'no-cache'
p3297
asbasbasbag61
(g77
g63
NtRp3298
(dp3299
g66
(dp3300
sg75
g3206
sg68
(lp3301
g61
(g82
g63
NtRp3302
(dp3303
g66
(dp3304
g86
g87
ssg75
g3298
sg68
(lp3305
S'X-Powered-By'
p3306
asbag61
(g82
g63
NtRp3307
(dp3308
g66
(dp3309
g93
g94
ssg75
g3298
sg68
(lp3310
S':'
asbag61
(g82
g63
NtRp3311
(dp3312
g66
(dp3313
sg75
g3298
sg68
(lp3314
g61
(g62
g63
NtRp3315
(dp3316
g66
(dp3317
g74
I4
ssg75
g3311
sg68
(lp3318
S'web2py'
p3319
asbasbasbasbasbasbasbag61
(g77
g63
NtRp3320
(dp3321
g66
(dp3322
sg75
g2837
sg68
(lp3323
g61
(g82
g63
NtRp3324
(dp3325
g66
(dp3326
g86
g87
ssg75
g3320
sg68
(lp3327
S'menu'
p3328
asbag61
(g82
g63
NtRp3329
(dp3330
g66
(dp3331
g93
g94
ssg75
g3320
sg68
(lp3332
S':'
asbag61
(g82
g63
NtRp3333
(dp3334
g66
(dp3335
sg75
g3320
sg68
(lp3336
g61
(g62
g63
NtRp3337
(dp3338
g66
(dp3339
g74
I5
ssg75
g3333
sg68
(lp3340
g61
(g70
g63
NtRp3341
(dp3342
g66
(dp3343
g74
I4
ssg75
Nsg68
(lp3344
g61
(g77
g63
NtRp3345
(dp3346
g66
(dp3347
sg75
g3341
sg68
(lp3348
g61
(g82
g63
NtRp3349
(dp3350
g66
(dp3351
sg75
g3345
sg68
(lp3352
g61
(g62
g63
NtRp3353
(dp3354
g66
(dp3355
g74
I4
ssg75
g3349
sg68
(lp3356
g61
(g70
g63
NtRp3357
(dp3358
g66
(dp3359
g74
I3
ssg75
Nsg68
(lp3360
g61
(g77
g63
NtRp3361
(dp3362
g66
(dp3363
sg75
g3357
sg68
(lp3364
g61
(g82
g63
NtRp3365
(dp3366
g66
(dp3367
sg75
g3361
sg68
(lp3368
g61
(g62
g63
NtRp3369
(dp3370
g66
(dp3371
g74
I3
ssg75
g3365
sg68
(lp3372
cgluon.languages
lazyT_unpickle
p3373
(S't\x07\x00\x00\x00Accueil'
tRp3374
asbasbasbag61
(g77
g63
NtRp3375
(dp3376
g66
(dp3377
sg75
g3357
sg68
(lp3378
g61
(g82
g63
NtRp3379
(dp3380
g66
(dp3381
sg75
g3375
sg68
(lp3382
g61
(g62
g63
NtRp3383
(dp3384
g66
(dp3385
g74
I3
ssg75
g3379
sg68
(lp3386
g104
asbasbasbag61
(g77
g63
NtRp3387
(dp3388
g66
(dp3389
sg75
g3357
sg68
(lp3390
g61
(g82
g63
NtRp3391
(dp3392
g66
(dp3393
sg75
g3387
sg68
(lp3394
g61
(g62
g63
NtRp3395
(dp3396
g66
(dp3397
g74
I3
ssg75
g3391
sg68
(lp3398
S'/init/default/index'
p3399
asbasbasbag61
(g77
g63
NtRp3400
(dp3401
g66
(dp3402
sg75
g3357
sg68
(lp3403
g61
(g82
g63
NtRp3404
(dp3405
g66
(dp3406
sg75
g3400
sg68
(lp3407
g61
(g62
g63
NtRp3408
(dp3409
g66
(dp3410
g74
I3
ssg75
g3404
sg68
(lp3411
g61
(g70
g63
NtRp3412
(dp3413
g66
(dp3414
g74
I2
ssg75
Nsg68
(lp3415
sbasbasbasbasbasbasbasbag61
(g77
g63
NtRp3416
(dp3417
g66
(dp3418
sg75
g3341
sg68
(lp3419
g61
(g82
g63
NtRp3420
(dp3421
g66
(dp3422
sg75
g3416
sg68
(lp3423
g61
(g62
g63
NtRp3424
(dp3425
g66
(dp3426
g74
I4
ssg75
g3420
sg68
(lp3427
g61
(g70
g63
NtRp3428
(dp3429
g66
(dp3430
g74
I3
ssg75
Nsg68
(lp3431
g61
(g77
g63
NtRp3432
(dp3433
g66
(dp3434
sg75
g3428
sg68
(lp3435
g61
(g82
g63
NtRp3436
(dp3437
g66
(dp3438
sg75
g3432
sg68
(lp3439
g61
(g62
g63
NtRp3440
(dp3441
g66
(dp3442
g74
I3
ssg75
g3436
sg68
(lp3443
g61
(cgluon.html
SPAN
p3444
g63
NtRp3445
(dp3446
g66
(dp3447
g86
S'color:yellow'
p3448
ssg75
Nsg68
(lp3449
g3319
asbasbasbasbag61
(g77
g63
NtRp3450
(dp3451
g66
(dp3452
sg75
g3428
sg68
(lp3453
g61
(g82
g63
NtRp3454
(dp3455
g66
(dp3456
sg75
g3450
sg68
(lp3457
g61
(g62
g63
NtRp3458
(dp3459
g66
(dp3460
g74
I3
ssg75
g3454
sg68
(lp3461
g104
asbasbasbag61
(g77
g63
NtRp3462
(dp3463
g66
(dp3464
sg75
g3428
sg68
(lp3465
g61
(g82
g63
NtRp3466
(dp3467
g66
(dp3468
sg75
g3462
sg68
(lp3469
g61
(g62
g63
NtRp3470
(dp3471
g66
(dp3472
g74
I3
ssg75
g3466
sg68
(lp3473
S'None'
p3474
asbasbasbag61
(g77
g63
NtRp3475
(dp3476
g66
(dp3477
sg75
g3428
sg68
(lp3478
g61
(g82
g63
NtRp3479
(dp3480
g66
(dp3481
sg75
g3475
sg68
(lp3482
g61
(g62
g63
NtRp3483
(dp3484
g66
(dp3485
g74
I3
ssg75
g3479
sg68
(lp3486
g61
(g70
g63
NtRp3487
(dp3488
g66
(dp3489
g74
I2
ssg75
Nsg68
(lp3490
g61
(g77
g63
NtRp3491
(dp3492
g66
(dp3493
sg75
g3487
sg68
(lp3494
g61
(g82
g63
NtRp3495
(dp3496
g66
(dp3497
sg75
g3491
sg68
(lp3498
g61
(g62
g63
NtRp3499
(dp3500
g66
(dp3501
g74
I2
ssg75
g3495
sg68
(lp3502
g61
(g70
g63
NtRp3503
(dp3504
g66
(dp3505
g74
I1
ssg75
Nsg68
(lp3506
g61
(g77
g63
NtRp3507
(dp3508
g66
(dp3509
sg75
g3503
sg68
(lp3510
g61
(g82
g63
NtRp3511
(dp3512
g66
(dp3513
sg75
g3507
sg68
(lp3514
g61
(g62
g63
NtRp3515
(dp3516
g66
(dp3517
g74
I1
ssg75
g3511
sg68
(lp3518
g3373
(S's\x08\x00\x00\x00My Sites'
tRp3519
asbasbasbag61
(g77
g63
NtRp3520
(dp3521
g66
(dp3522
sg75
g3503
sg68
(lp3523
g61
(g82
g63
NtRp3524
(dp3525
g66
(dp3526
sg75
g3520
sg68
(lp3527
g61
(g62
g63
NtRp3528
(dp3529
g66
(dp3530
g74
I1
ssg75
g3524
sg68
(lp3531
I00
asbasbasbag61
(g77
g63
NtRp3532
(dp3533
g66
(dp3534
sg75
g3503
sg68
(lp3535
g61
(g82
g63
NtRp3536
(dp3537
g66
(dp3538
sg75
g3532
sg68
(lp3539
g61
(g62
g63
NtRp3540
(dp3541
g66
(dp3542
g74
I1
ssg75
g3536
sg68
(lp3543
S'/admin/default/site'
p3544
asbasbasbasbasbasbasbag61
(g77
g63
NtRp3545
(dp3546
g66
(dp3547
sg75
g3487
sg68
(lp3548
g61
(g82
g63
NtRp3549
(dp3550
g66
(dp3551
sg75
g3545
sg68
(lp3552
g61
(g62
g63
NtRp3553
(dp3554
g66
(dp3555
g74
I2
ssg75
g3549
sg68
(lp3556
g61
(g70
g63
NtRp3557
(dp3558
g66
(dp3559
g74
I1
ssg75
Nsg68
(lp3560
g61
(g77
g63
NtRp3561
(dp3562
g66
(dp3563
sg75
g3557
sg68
(lp3564
g61
(g82
g63
NtRp3565
(dp3566
g66
(dp3567
sg75
g3561
sg68
(lp3568
g61
(g62
g63
NtRp3569
(dp3570
g66
(dp3571
g74
I1
ssg75
g3565
sg68
(lp3572
g3373
(S's\x0b\x00\x00\x00Cette Appli'
tRp3573
asbasbasbag61
(g77
g63
NtRp3574
(dp3575
g66
(dp3576
sg75
g3557
sg68
(lp3577
g61
(g82
g63
NtRp3578
(dp3579
g66
(dp3580
sg75
g3574
sg68
(lp3581
g61
(g62
g63
NtRp3582
(dp3583
g66
(dp3584
g74
I1
ssg75
g3578
sg68
(lp3585
I00
asbasbasbag61
(g77
g63
NtRp3586
(dp3587
g66
(dp3588
sg75
g3557
sg68
(lp3589
g61
(g82
g63
NtRp3590
(dp3591
g66
(dp3592
sg75
g3586
sg68
(lp3593
g61
(g62
g63
NtRp3594
(dp3595
g66
(dp3596
g74
I1
ssg75
g3590
sg68
(lp3597
S'/admin/default/design/init'
p3598
asbasbasbag61
(g77
g63
NtRp3599
(dp3600
g66
(dp3601
sg75
g3557
sg68
(lp3602
g61
(g82
g63
NtRp3603
(dp3604
g66
(dp3605
sg75
g3599
sg68
(lp3606
g61
(g62
g63
NtRp3607
(dp3608
g66
(dp3609
g74
I1
ssg75
g3603
sg68
(lp3610
(lp3611
(g3373
(S's\x0b\x00\x00\x00Contr\xc3\xb4leur'
tRp3612
I00
S'/admin/default/edit/init/controllers/default.py'
tp3613
a(g3373
(S's\r\x00\x00\x00Pr\xc3\xa9sentation'
tRp3614
I00
S'/admin/default/edit/init/views/default/initdbjack.html'
tp3615
a(g3373
(S's\x0c\x00\x00\x00Mise en page'
tRp3616
I00
S'/admin/default/edit/init/views/layout.html'
tp3617
a(g3373
(S's\x10\x00\x00\x00Feuille de style'
tRp3618
I00
S'/admin/default/edit/init/static/css/web2py.css'
tp3619
a(g3373
(S's\n\x00\x00\x00Mod\xc3\xa8le DB'
tRp3620
I00
S'/admin/default/edit/init/models/db.py'
tp3621
a(g3373
(S's\x0c\x00\x00\x00Menu mod\xc3\xa8le'
tRp3622
I00
S'/admin/default/edit/init/models/menu.py'
tp3623
a(g3373
(S's\x10\x00\x00\x00Base de donn\xc3\xa9es'
tRp3624
I00
S'/init/appadmin/index'
tp3625
a(g3373
(S't\x07\x00\x00\x00Erreurs'
tRp3626
I00
S'/admin/default/errors/init'
tp3627
a(g3373
(S's\t\x00\x00\x00\xc3\x80 propos'
tRp3628
I00
S'/admin/default/about/init'
tp3629
aasbasbasbasbasbasbasbag61
(g77
g63
NtRp3630
(dp3631
g66
(dp3632
sg75
g3487
sg68
(lp3633
g61
(g82
g63
NtRp3634
(dp3635
g66
(dp3636
sg75
g3630
sg68
(lp3637
g61
(g62
g63
NtRp3638
(dp3639
g66
(dp3640
g74
I2
ssg75
g3634
sg68
(lp3641
g61
(g70
g63
NtRp3642
(dp3643
g66
(dp3644
g74
I1
ssg75
Nsg68
(lp3645
g61
(g77
g63
NtRp3646
(dp3647
g66
(dp3648
sg75
g3642
sg68
(lp3649
g61
(g82
g63
NtRp3650
(dp3651
g66
(dp3652
sg75
g3646
sg68
(lp3653
g61
(g62
g63
NtRp3654
(dp3655
g66
(dp3656
g74
I1
ssg75
g3650
sg68
(lp3657
S'web2py.com'
p3658
asbasbasbag61
(g77
g63
NtRp3659
(dp3660
g66
(dp3661
sg75
g3642
sg68
(lp3662
g61
(g82
g63
NtRp3663
(dp3664
g66
(dp3665
sg75
g3659
sg68
(lp3666
g61
(g62
g63
NtRp3667
(dp3668
g66
(dp3669
g74
I1
ssg75
g3663
sg68
(lp3670
I00
asbasbasbag61
(g77
g63
NtRp3671
(dp3672
g66
(dp3673
sg75
g3642
sg68
(lp3674
g61
(g82
g63
NtRp3675
(dp3676
g66
(dp3677
sg75
g3671
sg68
(lp3678
g61
(g62
g63
NtRp3679
(dp3680
g66
(dp3681
g74
I1
ssg75
g3675
sg68
(lp3682
S'http://www.web2py.com'
p3683
asbasbasbag61
(g77
g63
NtRp3684
(dp3685
g66
(dp3686
sg75
g3642
sg68
(lp3687
g61
(g82
g63
NtRp3688
(dp3689
g66
(dp3690
sg75
g3684
sg68
(lp3691
g61
(g62
g63
NtRp3692
(dp3693
g66
(dp3694
g74
I1
ssg75
g3688
sg68
(lp3695
(lp3696
(g3373
(S's\x10\x00\x00\x00T\xc3\xa9l\xc3\xa9chargement'
tRp3697
I00
S'http://www.web2py.com/examples/default/download'
p3698
tp3699
a(g3373
(S't\x07\x00\x00\x00Support'
tRp3700
I00
S'http://www.web2py.com/examples/default/support'
p3701
tp3702
a(g3373
(S's\x05\x00\x00\x00D\xc3\xa9mo'
tRp3703
I00
S'http://web2py.com/demo_admin'
p3704
tp3705
a(g3373
(S's\x10\x00\x00\x00Examples Rapides'
tRp3706
I00
S'http://web2py.com/examples/default/examples'
p3707
tp3708
a(g3373
(S't\x03\x00\x00\x00FAQ'
tRp3709
I00
S'http://web2py.com/AlterEgo'
p3710
tp3711
a(g3373
(S's\x07\x00\x00\x00Vid\xc3\xa9os'
tRp3712
I00
S'http://www.web2py.com/examples/default/videos/'
p3713
tp3714
a(g3373
(S's\x16\x00\x00\x00Applications gratuites'
tRp3715
I00
S'http://web2py.com/appliances'
p3716
tp3717
a(g3373
(S't\n\x00\x00\x00Plugiciels'
tRp3718
I00
S'http://web2py.com/plugins'
p3719
tp3720
a(g3373
(S't\x07\x00\x00\x00Layouts'
tRp3721
I00
S'http://web2py.com/layouts'
p3722
tp3723
a(g3373
(S't\x08\x00\x00\x00Recettes'
tRp3724
I00
S'http://web2pyslices.com/'
p3725
tp3726
a(g3373
(S's\x0b\x00\x00\x00S\xc3\xa9mantique'
tRp3727
I00
S'http://web2py.com/semantic'
p3728
tp3729
aasbasbasbasbasbasbasbag61
(g77
g63
NtRp3730
(dp3731
g66
(dp3732
sg75
g3487
sg68
(lp3733
g61
(g82
g63
NtRp3734
(dp3735
g66
(dp3736
sg75
g3730
sg68
(lp3737
g61
(g62
g63
NtRp3738
(dp3739
g66
(dp3740
g74
I2
ssg75
g3734
sg68
(lp3741
g61
(g70
g63
NtRp3742
(dp3743
g66
(dp3744
g74
I1
ssg75
Nsg68
(lp3745
g61
(g77
g63
NtRp3746
(dp3747
g66
(dp3748
sg75
g3742
sg68
(lp3749
g61
(g82
g63
NtRp3750
(dp3751
g66
(dp3752
sg75
g3746
sg68
(lp3753
g61
(g62
g63
NtRp3754
(dp3755
g66
(dp3756
g74
I1
ssg75
g3750
sg68
(lp3757
g3373
(S't\r\x00\x00\x00Documentation'
tRp3758
asbasbasbag61
(g77
g63
NtRp3759
(dp3760
g66
(dp3761
sg75
g3742
sg68
(lp3762
g61
(g82
g63
NtRp3763
(dp3764
g66
(dp3765
sg75
g3759
sg68
(lp3766
g61
(g62
g63
NtRp3767
(dp3768
g66
(dp3769
g74
I1
ssg75
g3763
sg68
(lp3770
I00
asbasbasbag61
(g77
g63
NtRp3771
(dp3772
g66
(dp3773
sg75
g3742
sg68
(lp3774
g61
(g82
g63
NtRp3775
(dp3776
g66
(dp3777
sg75
g3771
sg68
(lp3778
g61
(g62
g63
NtRp3779
(dp3780
g66
(dp3781
g74
I1
ssg75
g3775
sg68
(lp3782
S'http://www.web2py.com/book'
p3783
asbasbasbag61
(g77
g63
NtRp3784
(dp3785
g66
(dp3786
sg75
g3742
sg68
(lp3787
g61
(g82
g63
NtRp3788
(dp3789
g66
(dp3790
sg75
g3784
sg68
(lp3791
g61
(g62
g63
NtRp3792
(dp3793
g66
(dp3794
g74
I1
ssg75
g3788
sg68
(lp3795
(lp3796
(g3373
(S's\x08\x00\x00\x00Pr\xc3\xa9face'
tRp3797
I00
S'http://www.web2py.com/book/default/chapter/00'
p3798
tp3799
a(g3373
(S't\x0c\x00\x00\x00Introduction'
tRp3800
I00
S'http://www.web2py.com/book/default/chapter/01'
p3801
tp3802
a(g3373
(S't\x06\x00\x00\x00Python'
tRp3803
I00
S'http://www.web2py.com/book/default/chapter/02'
p3804
tp3805
a(g3373
(S's\r\x00\x00\x00Pr\xc3\xa9sentation'
tRp3806
I00
S'http://www.web2py.com/book/default/chapter/03'
p3807
tp3808
a(g3373
(S's\x08\x00\x00\x00Le noyau'
tRp3809
I00
S'http://www.web2py.com/book/default/chapter/04'
p3810
tp3811
a(g3373
(S's\x08\x00\x00\x00Les Vues'
tRp3812
I00
S'http://www.web2py.com/book/default/chapter/05'
p3813
tp3814
a(g3373
(S's\x10\x00\x00\x00Base de donn\xc3\xa9es'
tRp3815
I00
S'http://www.web2py.com/book/default/chapter/06'
p3816
tp3817
a(g3373
(S's\x1a\x00\x00\x00Formulaires et Validateurs'
tRp3818
I00
S'http://www.web2py.com/book/default/chapter/07'
p3819
tp3820
a(g3373
(S's\r\x00\x00\x00Email and SMS'
tRp3821
I00
S'http://www.web2py.com/book/default/chapter/08'
p3822
tp3823
a(g3373
(S"s\x12\x00\x00\x00Contr\xc3\xb4le d'acc\xc3\xa8s"
tRp3824
I00
S'http://www.web2py.com/book/default/chapter/09'
p3825
tp3826
a(g3373
(S't\x08\x00\x00\x00Services'
tRp3827
I00
S'http://www.web2py.com/book/default/chapter/10'
p3828
tp3829
a(g3373
(S's\r\x00\x00\x00Recettes Ajax'
tRp3830
I00
S'http://www.web2py.com/book/default/chapter/11'
p3831
tp3832
a(g3373
(S's\x16\x00\x00\x00Components and Plugins'
tRp3833
I00
S'http://www.web2py.com/book/default/chapter/12'
p3834
tp3835
a(g3373
(S's\x18\x00\x00\x00Recettes de d\xc3\xa9ploiement'
tRp3836
I00
S'http://www.web2py.com/book/default/chapter/13'
p3837
tp3838
a(g3373
(S's\x0f\x00\x00\x00Autres recettes'
tRp3839
I00
S'http://www.web2py.com/book/default/chapter/14'
p3840
tp3841
a(g3373
(S's\x10\x00\x00\x00Acheter ce livre'
tRp3842
I00
S'http://stores.lulu.com/web2py'
p3843
tp3844
aasbasbasbasbasbasbasbag61
(g77
g63
NtRp3845
(dp3846
g66
(dp3847
sg75
g3487
sg68
(lp3848
g61
(g82
g63
NtRp3849
(dp3850
g66
(dp3851
sg75
g3845
sg68
(lp3852
g61
(g62
g63
NtRp3853
(dp3854
g66
(dp3855
g74
I2
ssg75
g3849
sg68
(lp3856
g61
(g70
g63
NtRp3857
(dp3858
g66
(dp3859
g74
I1
ssg75
Nsg68
(lp3860
g61
(g77
g63
NtRp3861
(dp3862
g66
(dp3863
sg75
g3857
sg68
(lp3864
g61
(g82
g63
NtRp3865
(dp3866
g66
(dp3867
sg75
g3861
sg68
(lp3868
g61
(g62
g63
NtRp3869
(dp3870
g66
(dp3871
g74
I1
ssg75
g3865
sg68
(lp3872
g3373
(S's\x0b\x00\x00\x00Communaut\xc3\xa9'
tRp3873
asbasbasbag61
(g77
g63
NtRp3874
(dp3875
g66
(dp3876
sg75
g3857
sg68
(lp3877
g61
(g82
g63
NtRp3878
(dp3879
g66
(dp3880
sg75
g3874
sg68
(lp3881
g61
(g62
g63
NtRp3882
(dp3883
g66
(dp3884
g74
I1
ssg75
g3878
sg68
(lp3885
I00
asbasbasbag61
(g77
g63
NtRp3886
(dp3887
g66
(dp3888
sg75
g3857
sg68
(lp3889
g61
(g82
g63
NtRp3890
(dp3891
g66
(dp3892
sg75
g3886
sg68
(lp3893
g61
(g62
g63
NtRp3894
(dp3895
g66
(dp3896
g74
I1
ssg75
g3890
sg68
(lp3897
Nasbasbasbag61
(g77
g63
NtRp3898
(dp3899
g66
(dp3900
sg75
g3857
sg68
(lp3901
g61
(g82
g63
NtRp3902
(dp3903
g66
(dp3904
sg75
g3898
sg68
(lp3905
g61
(g62
g63
NtRp3906
(dp3907
g66
(dp3908
g74
I1
ssg75
g3902
sg68
(lp3909
(lp3910
(g3373
(S't\x06\x00\x00\x00Groups'
tRp3911
I00
S'http://www.web2py.com/examples/default/usergroups'
p3912
tp3913
a(g3373
(S't\x07\x00\x00\x00Twitter'
tRp3914
I00
S'http://twitter.com/web2py'
p3915
tp3916
a(g3373
(S's\t\x00\x00\x00Live Chat'
tRp3917
I00
S'http://webchat.freenode.net/?channels=web2py'
p3918
tp3919
aasbasbasbasbasbasbasbag61
(g77
g63
NtRp3920
(dp3921
g66
(dp3922
sg75
g3487
sg68
(lp3923
g61
(g82
g63
NtRp3924
(dp3925
g66
(dp3926
sg75
g3920
sg68
(lp3927
g61
(g62
g63
NtRp3928
(dp3929
g66
(dp3930
g74
I2
ssg75
g3924
sg68
(lp3931
g61
(g70
g63
NtRp3932
(dp3933
g66
(dp3934
g74
I1
ssg75
Nsg68
(lp3935
g61
(g77
g63
NtRp3936
(dp3937
g66
(dp3938
sg75
g3932
sg68
(lp3939
g61
(g82
g63
NtRp3940
(dp3941
g66
(dp3942
sg75
g3936
sg68
(lp3943
g61
(g62
g63
NtRp3944
(dp3945
g66
(dp3946
g74
I1
ssg75
g3940
sg68
(lp3947
g3373
(S't\n\x00\x00\x00Plugiciels'
tRp3948
asbasbasbag61
(g77
g63
NtRp3949
(dp3950
g66
(dp3951
sg75
g3932
sg68
(lp3952
g61
(g82
g63
NtRp3953
(dp3954
g66
(dp3955
sg75
g3949
sg68
(lp3956
g61
(g62
g63
NtRp3957
(dp3958
g66
(dp3959
g74
I1
ssg75
g3953
sg68
(lp3960
I00
asbasbasbag61
(g77
g63
NtRp3961
(dp3962
g66
(dp3963
sg75
g3932
sg68
(lp3964
g61
(g82
g63
NtRp3965
(dp3966
g66
(dp3967
sg75
g3961
sg68
(lp3968
g61
(g62
g63
NtRp3969
(dp3970
g66
(dp3971
g74
I1
ssg75
g3965
sg68
(lp3972
Nasbasbasbag61
(g77
g63
NtRp3973
(dp3974
g66
(dp3975
sg75
g3932
sg68
(lp3976
g61
(g82
g63
NtRp3977
(dp3978
g66
(dp3979
sg75
g3973
sg68
(lp3980
g61
(g62
g63
NtRp3981
(dp3982
g66
(dp3983
g74
I1
ssg75
g3977
sg68
(lp3984
(lp3985
(S'plugin_wiki'
p3986
I00
S'http://web2py.com/examples/default/download'
p3987
tp3988
a(g3373
(S's\r\x00\x00\x00Other Plugins'
tRp3989
I00
g3719
tp3990
a(g3373
(S's\x0e\x00\x00\x00Layout Plugins'
tRp3991
I00
g3722
tp3992
aasbasbasbasbasbasbasbasbasbasbasbasbasbasbasbasbasbasbasbag61
(g77
g63
NtRp3993
(dp3994
g66
(dp3995
sg75
g2837
sg68
(lp3996
g61
(g82
g63
NtRp3997
(dp3998
g66
(dp3999
g86
g87
ssg75
g3993
sg68
(lp4000
S'meta'
p4001
asbag61
(g82
g63
NtRp4002
(dp4003
g66
(dp4004
g93
g94
ssg75
g3993
sg68
(lp4005
S':'
asbag61
(g82
g63
NtRp4006
(dp4007
g66
(dp4008
sg75
g3993
sg68
(lp4009
g61
(g62
g63
NtRp4010
(dp4011
g66
(dp4012
g74
I5
ssg75
g4006
sg68
(lp4013
g61
(g70
g63
NtRp4014
(dp4015
g66
(dp4016
g74
I4
ssg75
Nsg68
(lp4017
g61
(g77
g63
NtRp4018
(dp4019
g66
(dp4020
sg75
g4014
sg68
(lp4021
g61
(g82
g63
NtRp4022
(dp4023
g66
(dp4024
g86
g87
ssg75
g4018
sg68
(lp4025
S'author'
p4026
asbag61
(g82
g63
NtRp4027
(dp4028
g66
(dp4029
g93
g94
ssg75
g4018
sg68
(lp4030
S':'
asbag61
(g82
g63
NtRp4031
(dp4032
g66
(dp4033
sg75
g4018
sg68
(lp4034
g61
(g62
g63
NtRp4035
(dp4036
g66
(dp4037
g74
I4
ssg75
g4031
sg68
(lp4038
S'Your Name <you@example.com>'
p4039
asbasbasbag61
(g77
g63
NtRp4040
(dp4041
g66
(dp4042
sg75
g4014
sg68
(lp4043
g61
(g82
g63
NtRp4044
(dp4045
g66
(dp4046
g86
g87
ssg75
g4040
sg68
(lp4047
S'copyright'
p4048
asbag61
(g82
g63
NtRp4049
(dp4050
g66
(dp4051
g93
g94
ssg75
g4040
sg68
(lp4052
S':'
asbag61
(g82
g63
NtRp4053
(dp4054
g66
(dp4055
sg75
g4040
sg68
(lp4056
g61
(g62
g63
NtRp4057
(dp4058
g66
(dp4059
g74
I4
ssg75
g4053
sg68
(lp4060
S'Copyright 2011'
p4061
asbasbasbag61
(g77
g63
NtRp4062
(dp4063
g66
(dp4064
sg75
g4014
sg68
(lp4065
g61
(g82
g63
NtRp4066
(dp4067
g66
(dp4068
g86
g87
ssg75
g4062
sg68
(lp4069
S'description'
p4070
asbag61
(g82
g63
NtRp4071
(dp4072
g66
(dp4073
g93
g94
ssg75
g4062
sg68
(lp4074
S':'
asbag61
(g82
g63
NtRp4075
(dp4076
g66
(dp4077
sg75
g4062
sg68
(lp4078
g61
(g62
g63
NtRp4079
(dp4080
g66
(dp4081
g74
I4
ssg75
g4075
sg68
(lp4082
S'a cool new app'
p4083
asbasbasbag61
(g77
g63
NtRp4084
(dp4085
g66
(dp4086
sg75
g4014
sg68
(lp4087
g61
(g82
g63
NtRp4088
(dp4089
g66
(dp4090
g86
g87
ssg75
g4084
sg68
(lp4091
S'generator'
p4092
asbag61
(g82
g63
NtRp4093
(dp4094
g66
(dp4095
g93
g94
ssg75
g4084
sg68
(lp4096
S':'
asbag61
(g82
g63
NtRp4097
(dp4098
g66
(dp4099
sg75
g4084
sg68
(lp4100
g61
(g62
g63
NtRp4101
(dp4102
g66
(dp4103
g74
I4
ssg75
g4097
sg68
(lp4104
S'Web2py Web Framework'
p4105
asbasbasbag61
(g77
g63
NtRp4106
(dp4107
g66
(dp4108
sg75
g4014
sg68
(lp4109
g61
(g82
g63
NtRp4110
(dp4111
g66
(dp4112
g86
g87
ssg75
g4106
sg68
(lp4113
S'keywords'
p4114
asbag61
(g82
g63
NtRp4115
(dp4116
g66
(dp4117
g93
g94
ssg75
g4106
sg68
(lp4118
S':'
asbag61
(g82
g63
NtRp4119
(dp4120
g66
(dp4121
sg75
g4106
sg68
(lp4122
g61
(g62
g63
NtRp4123
(dp4124
g66
(dp4125
g74
I4
ssg75
g4119
sg68
(lp4126
S'web2py, python, framework'
p4127
asbasbasbasbasbasbasbag61
(g77
g63
NtRp4128
(dp4129
g66
(dp4130
sg75
g2837
sg68
(lp4131
g61
(g82
g63
NtRp4132
(dp4133
g66
(dp4134
g86
g87
ssg75
g4128
sg68
(lp4135
S'postprocessing'
p4136
asbag61
(g82
g63
NtRp4137
(dp4138
g66
(dp4139
g93
g94
ssg75
g4128
sg68
(lp4140
S':'
asbag61
(g82
g63
NtRp4141
(dp4142
g66
(dp4143
sg75
g4128
sg68
(lp4144
g61
(g62
g63
NtRp4145
(dp4146
g66
(dp4147
g74
I5
ssg75
g4141
sg68
(lp4148
g61
(g70
g63
NtRp4149
(dp4150
g66
(dp4151
g74
I4
ssg75
Nsg68
(lp4152
sbasbasbasbag61
(g77
g63
NtRp4153
(dp4154
g66
(dp4155
sg75
g2837
sg68
(lp4156
g61
(g82
g63
NtRp4157
(dp4158
g66
(dp4159
g86
g87
ssg75
g4153
sg68
(lp4160
S'session_db'
p4161
asbag61
(g82
g63
NtRp4162
(dp4163
g66
(dp4164
g93
g94
ssg75
g4153
sg68
(lp4165
S':'
asbag61
(g82
g63
NtRp4166
(dp4167
g66
(dp4168
sg75
g4153
sg68
(lp4169
g61
(g62
g63
NtRp4170
(dp4171
g66
(dp4172
g74
I5
ssg75
g4166
sg68
(lp4173
g738
asbasbasbag61
(g77
g63
NtRp4174
(dp4175
g66
(dp4176
sg75
g2837
sg68
(lp4177
g61
(g82
g63
NtRp4178
(dp4179
g66
(dp4180
g86
g87
ssg75
g4174
sg68
(lp4181
S'session_id'
p4182
asbag61
(g82
g63
NtRp4183
(dp4184
g66
(dp4185
g93
g94
ssg75
g4174
sg68
(lp4186
S':'
asbag61
(g82
g63
NtRp4187
(dp4188
g66
(dp4189
sg75
g4174
sg68
(lp4190
g61
(g62
g63
NtRp4191
(dp4192
g66
(dp4193
g74
I5
ssg75
g4187
sg68
(lp4194
S'19:a8687721-5787-4713-9329-1674aeb3f1bb'
p4195
asbasbasbag61
(g77
g63
NtRp4196
(dp4197
g66
(dp4198
sg75
g2837
sg68
(lp4199
g61
(g82
g63
NtRp4200
(dp4201
g66
(dp4202
g86
g87
ssg75
g4196
sg68
(lp4203
S'session_id_name'
p4204
asbag61
(g82
g63
NtRp4205
(dp4206
g66
(dp4207
g93
g94
ssg75
g4196
sg68
(lp4208
S':'
asbag61
(g82
g63
NtRp4209
(dp4210
g66
(dp4211
sg75
g4196
sg68
(lp4212
g61
(g62
g63
NtRp4213
(dp4214
g66
(dp4215
g74
I5
ssg75
g4209
sg68
(lp4216
S'session_id_init'
p4217
asbasbasbag61
(g77
g63
NtRp4218
(dp4219
g66
(dp4220
sg75
g2837
sg68
(lp4221
g61
(g82
g63
NtRp4222
(dp4223
g66
(dp4224
g86
g87
ssg75
g4218
sg68
(lp4225
S'status'
p4226
asbag61
(g82
g63
NtRp4227
(dp4228
g66
(dp4229
g93
g94
ssg75
g4218
sg68
(lp4230
S':'
asbag61
(g82
g63
NtRp4231
(dp4232
g66
(dp4233
sg75
g4218
sg68
(lp4234
g61
(g62
g63
NtRp4235
(dp4236
g66
(dp4237
g74
I5
ssg75
g4231
sg68
(lp4238
S'200'
p4239
asbasbasbag61
(g77
g63
NtRp4240
(dp4241
g66
(dp4242
sg75
g2837
sg68
(lp4243
g61
(g82
g63
NtRp4244
(dp4245
g66
(dp4246
g86
g87
ssg75
g4240
sg68
(lp4247
S'subtitle'
p4248
asbag61
(g82
g63
NtRp4249
(dp4250
g66
(dp4251
g93
g94
ssg75
g4240
sg68
(lp4252
S':'
asbag61
(g82
g63
NtRp4253
(dp4254
g66
(dp4255
sg75
g4240
sg68
(lp4256
g61
(g62
g63
NtRp4257
(dp4258
g66
(dp4259
g74
I5
ssg75
g4253
sg68
(lp4260
g3373
(S's\x12\x00\x00\x00personnalisez-moi!'
tRp4261
asbasbasbag61
(g77
g63
NtRp4262
(dp4263
g66
(dp4264
sg75
g2837
sg68
(lp4265
g61
(g82
g63
NtRp4266
(dp4267
g66
(dp4268
g86
g87
ssg75
g4262
sg68
(lp4269
S'title'
p4270
asbag61
(g82
g63
NtRp4271
(dp4272
g66
(dp4273
g93
g94
ssg75
g4262
sg68
(lp4274
S':'
asbag61
(g82
g63
NtRp4275
(dp4276
g66
(dp4277
sg75
g4262
sg68
(lp4278
g61
(g62
g63
NtRp4279
(dp4280
g66
(dp4281
g74
I5
ssg75
g4275
sg68
(lp4282
S'Init'
p4283
asbasbasbag61
(g77
g63
NtRp4284
(dp4285
g66
(dp4286
sg75
g2837
sg68
(lp4287
g61
(g82
g63
NtRp4288
(dp4289
g66
(dp4290
g86
g87
ssg75
g4284
sg68
(lp4291
g2120
asbag61
(g82
g63
NtRp4292
(dp4293
g66
(dp4294
g93
g94
ssg75
g4284
sg68
(lp4295
S':'
asbag61
(g82
g63
NtRp4296
(dp4297
g66
(dp4298
sg75
g4284
sg68
(lp4299
g61
(g62
g63
NtRp4300
(dp4301
g66
(dp4302
g74
I5
ssg75
g4296
sg68
(lp4303
g2133
asbasbasbag61
(g77
g63
NtRp4304
(dp4305
g66
(dp4306
sg75
g2837
sg68
(lp4307
g61
(g82
g63
NtRp4308
(dp4309
g66
(dp4310
g86
g87
ssg75
g4304
sg68
(lp4311
S'view'
p4312
asbag61
(g82
g63
NtRp4313
(dp4314
g66
(dp4315
g93
g94
ssg75
g4304
sg68
(lp4316
S':'
asbag61
(g82
g63
NtRp4317
(dp4318
g66
(dp4319
sg75
g4304
sg68
(lp4320
g61
(g62
g63
NtRp4321
(dp4322
g66
(dp4323
g74
I5
ssg75
g4317
sg68
(lp4324
S'default/initdbjack.html'
p4325
asbasbasbasbasbsS'locals'
p4326
(dp4327
g4
S"r'C:\\Users\\Bussiere\\Dropbox\\Projets\\jackpoint\\web2py\\applications\\init\\controllers/default.py'"
p4328
sg6
S"'\\xef\\xbb\\xbf# -*- coding: utf-8 -*-\\n# this file is releas...())\\n\\nresponse._vars=response._caller(initdbjack)\\n'"
p4329
sssS'traceback'
p4330
S'Traceback (most recent call last):\n  File "gluon/restricted.py", line 204, in restricted\n  File "gluon/restricted.py", line 189, in compile2\n  File "C:\\Users\\Bussiere\\Dropbox\\Projets\\jackpoint\\web2py\\applications\\init\\controllers/default.py", line 316\n    if (db(db.Skill).select(join=db.SkillLevel.on(db.Skill.id==db.SkillLevel.Skill)).select(Nom == level1).count() == 0:\n                                                                                                                       ^\nSyntaxError: invalid syntax\n'
p4331
s.