(dp1
S'output'
p2
S"<type 'exceptions.SyntaxError'> invalid syntax (controllers/default.py, line 253)"
p3
sS'layer'
p4
S'C:\\Users\\Bussiere\\Dropbox\\Projets\\jackpoint\\web2py\\applications\\init\\controllers/default.py'
p5
sS'code'
p6
S'\xef\xbb\xbf# -*- coding: utf-8 -*-\n# this file is released under public domain and you can use without limitations\n\n#########################################################################\n## This is a samples controller\n## - index is the default action of any application\n## - user is required for authentication and authorization\n## - download is for downloading files uploaded in the db (does streaming)\n## - call exposes all registered services (none by default)\n#########################################################################\n# Static analyzer import helpers: (STATIC_IMPORT_MARK)\nif 0: \n    import gluon\n    global cache; cache = gluon.cache.Cache()\n    global LOAD; LOAD  = gluon.compileapp.LoadFactory()\n    import gluon.compileapp.local_import_aux as local_import #@UnusedImport\n    from gluon.contrib.gql import GQLDB #@UnusedImport\n    from gluon.dal import Field #@UnusedImport\n    global request; request = gluon.globals.Request()\n    global response; response = gluon.globals.Response()\n    global session; session = gluon.globals.Session()\n    from gluon.html import A #@UnusedImport\n    from gluon.html import B #@UnusedImport\n    from gluon.html import BEAUTIFY #@UnusedImport\n    from gluon.html import BODY #@UnusedImport\n    from gluon.html import BR #@UnusedImport\n    from gluon.html import CENTER #@UnusedImport\n    from gluon.html import CODE #@UnusedImport\n    from gluon.html import DIV #@UnusedImport\n    from gluon.html import EM #@UnusedImport\n    from gluon.html import EMBED #@UnusedImport\n    from gluon.html import embed64 #@UnusedImport\n    from gluon.html import FIELDSET #@UnusedImport\n    from gluon.html import FORM #@UnusedImport\n    from gluon.html import H1 #@UnusedImport\n    from gluon.html import H2 #@UnusedImport\n    from gluon.html import H3 #@UnusedImport\n    from gluon.html import H4 #@UnusedImport\n    from gluon.html import H5 #@UnusedImport\n    from gluon.html import H6 #@UnusedImport\n    from gluon.html import HEAD #@UnusedImport\n    from gluon.html import HR #@UnusedImport\n    from gluon.html import HTML #@UnusedImport\n    from gluon.html import I #@UnusedImport\n    from gluon.html import IFRAME #@UnusedImport\n    from gluon.html import IMG #@UnusedImport\n    from gluon.html import INPUT #@UnusedImport\n    from gluon.html import LABEL #@UnusedImport\n    from gluon.html import LEGEND #@UnusedImport\n    from gluon.html import LI #@UnusedImport\n    from gluon.html import LINK #@UnusedImport\n    from gluon.html import MARKMIN #@UnusedImport\n    from gluon.html import MENU #@UnusedImport\n    from gluon.html import META #@UnusedImport\n    from gluon.html import OBJECT #@UnusedImport\n    from gluon.html import OL #@UnusedImport\n    from gluon.html import ON #@UnusedImport\n    from gluon.html import OPTGROUP #@UnusedImport\n    from gluon.html import OPTION #@UnusedImport\n    from gluon.html import P #@UnusedImport\n    from gluon.html import PRE #@UnusedImport\n    from gluon.html import STYLE #@UnusedImport\n    from gluon.html import SCRIPT #@UnusedImport\n    from gluon.html import SELECT #@UnusedImport\n    from gluon.html import SPAN #@UnusedImport\n    from gluon.html import TABLE #@UnusedImport\n    from gluon.html import TAG #@UnusedImport\n    from gluon.html import TBODY #@UnusedImport\n    from gluon.html import TD #@UnusedImport\n    from gluon.html import TEXTAREA #@UnusedImport\n    from gluon.html import TFOOT #@UnusedImport\n    from gluon.html import TH  #@UnusedImport\n    from gluon.html import THEAD #@UnusedImport\n    from gluon.html import TITLE #@UnusedImport\n    from gluon.html import TR #@UnusedImport\n    from gluon.html import TT #@UnusedImport\n    from gluon.html import UL #@UnusedImport\n    from gluon.html import URL #@UnusedImport\n    from gluon.html import XHTML #@UnusedImport\n    from gluon.html import XML #@UnusedImport\n    from gluon.html import xmlescape #@UnusedImport\n    from gluon.http import HTTP #@UnusedImport\n    from gluon.http import redirect #@UnusedImport\n    import gluon.languages.translator as T #@UnusedImport\n    from gluon.sql import DAL\n    global db; db = DAL()\n    from gluon.sql import SQLDB #@UnusedImport\n    from gluon.sql import SQLField #@UnusedImport\n    from gluon.sqlhtml import SQLFORM #@UnusedImport\n    from gluon.sqlhtml import SQLTABLE #@UnusedImport\n    from gluon.tools import  Auth\n    global auth; auth = Auth()\n    from gluon.tools import Crud\n    global crud; crud = Crud()\n    from gluon.tools import fetch #@UnusedImport\n    from gluon.tools import geocode #@UnusedImport\n    from gluon.tools import Mail\n    global mail; mail = Mail()\n    from gluon.tools import PluginManager\n    global plugins; plugins = PluginManager()\n    from gluon.tools import prettydate #@UnusedImport\n    from gluon.tools import Recaptcha #@UnusedImport\n    from gluon.tools import Service\n    global service; service = Service()\n    from gluon.validators import CLEANUP  #@UnusedImport\n    from gluon.validators import CRYPT #@UnusedImport\n    from gluon.validators import IS_ALPHANUMERIC #@UnusedImport\n    from gluon.validators import IS_DATE #@UnusedImport\n    from gluon.validators import IS_DATE_IN_RANGE #@UnusedImport\n    from gluon.validators import IS_DATETIME #@UnusedImport\n    from gluon.validators import IS_DATETIME_IN_RANGE #@UnusedImport\n    from gluon.validators import IS_DECIMAL_IN_RANGE #@UnusedImport\n    from gluon.validators import IS_EMAIL #@UnusedImport\n    from gluon.validators import IS_EMPTY_OR #@UnusedImport\n    from gluon.validators import IS_EQUAL_TO #@UnusedImport\n    from gluon.validators import IS_EXPR #@UnusedImport\n    from gluon.validators import IS_FLOAT_IN_RANGE #@UnusedImport\n    from gluon.validators import IS_IMAGE #@UnusedImport\n    from gluon.validators import IS_IN_DB #@UnusedImport\n    from gluon.validators import IS_IN_SET #@UnusedImport\n    from gluon.validators import IS_INT_IN_RANGE #@UnusedImport\n    from gluon.validators import IS_IPV4 #@UnusedImport\n    from gluon.validators import IS_LENGTH #@UnusedImport\n    from gluon.validators import IS_LIST_OF #@UnusedImport\n    from gluon.validators import IS_LOWER #@UnusedImport\n    from gluon.validators import IS_MATCH #@UnusedImport\n    from gluon.validators import IS_NOT_EMPTY #@UnusedImport\n    from gluon.validators import IS_NOT_IN_DB #@UnusedImport\n    from gluon.validators import IS_NULL_OR #@UnusedImport\n    from gluon.validators import IS_SLUG #@UnusedImport\n    from gluon.validators import IS_STRONG  #@UnusedImport\n    from gluon.validators import IS_TIME #@UnusedImport\n    from gluon.validators import IS_UPLOAD_FILENAME #@UnusedImport\n    from gluon.validators import IS_UPPER #@UnusedImpor\n\n\nimport random\nfrom uuid import uuid4\nfrom gluon.storage import Storage\nsettings = Storage()\n\n\ndef logout():\n    return auth.logout()\n\n\ndef index():\n    if auth.is_logged_in() :\n        return "You get the blue pills"\n    else :\n        return dict(form=auth.login(),faq=URL(\'faq\'))\n\n\n\ndef ensurefirstuser(Surnom, email, password):\n  users = db(db.auth_user.email == email).select()\n  if users:\n    user_id = users[0].id\n    created = False\n    print (\'found user_id so created equals %s\') % created\n    if settings.debug_ensure_first_user == True:\n      print (\'found user_id so created equals %s\') % created\n    return (user_id, created)\n\n  else:\n    my_crypt = CRYPT(key=auth.settings.hmac_key)\n    crypt_pass = my_crypt(password)[0]    \n    id_user = db.auth_user.insert(\n                   Surnom=Surnom,\n                   email=email,\n                   username=email,\n                   Items = None,\n                   Skills = None,\n                   password=crypt_pass,\n                                   )\n    db.commit()\n    created = True\n    print (\'creating user_id\')\n    if settings.debug_ensure_first_user == True:\n      print (\'creating user_id\')\n    return (id_user, created)\n\n    \n\n\ndef ensure_users():\n  user_id, created = _ensure_user(\'first\', \'last\', \'email@address.com\', \'UserPassword12345\')\n  if settings.debug_ensure_users == True:\n    print (\'user id %i\') % user_id\n    print (\'created %s\') % created\n\ndef ensure_group_role(role, description):\n  if not auth.id_group(role=role):  \n    auth.add_group(role=role, description=description)  \n    if settings.debug_ensure_group_role == True:\n      print (\'created role %s\') % (role)\n\ndef ensure_membership(group_id, user_id):\n  return_group_id = auth.add_membership(role=role, user_id=user_id)\n  if settings.debug_ensure_membership == True:\n    print (\'made user_id member of %s\') % (role)\n  return return_group_id\n \ndef ensure_permissions(role, description, user_id):\n  ensure_group_role(role, description)\n  return_group_id = ensure_membership(group_id, user_id)\n  if settings.debug_ensure_permissions == True:\n    print return_group_id\n\ndef generate_invitation(number,word=4,num=1,numdigit=5):\n    code = [\n[\'BELCHER\', \'FIX\', \'EEL\', \'PANZERBOY\', \'DESK_JOCKEY\', \'CHILLED\', \'ENFORCER\', \'CHERRY_PICKING\', \'COUNTRY_CLUB\', \'BOMBSHELL\', \'PLUGGED_IN\', \'FINI\', \'LEGIT\', \'JAM\', \'BONED_OUT\', \'BLADE\', \'ROUST\', \'SAMURAI\', \'DISK\', \'INPUT\', \'POST_TIME\', \'SOUNDS\', \'SKIP\', \'FLATBACKER\', \'WILSON\', \'SHOEMAKER\', \'DELTA_SIERRA\', \'HEART\', \'CROAK\', \'HEAD_HUNTER\', \'HOSHO_KAISHA\', "DELTA\'D", "\'FACE_(also,_FACE,_EYE-FACE,_I-FACE)", \'WEEFLE\', \'DIRTGIRL\', \'KEYBOARD\', \'BRAIN_BUCKET\', \'DRYING_OUT\', \'OVERCOOK\', \'PIG\', \'COLD_TEA\', \'RECONFIG\', \'PAD\', \'LIT_UP\', \'WRAITH\', \'HANDLE\', \'L.P.\', \'PINCH\', \'TAKE_A_CAB\', \'SPILL\', \'ACE_KOOL\', \'DO\', \'BIZ\', \'BROWNIE\', \'CANDLE_AND_BLOOD\', \'BLUEBOY\', \'UP_ON_IT\', \'BURN\', \'USER_INTERFACE\', \'HOB\', \'GYRO\', \'STUFFIT\', \'THATCH\', \'ICEBREAKER\', \'ZIP_GUN\', \'PETERMAN\', \'PLAY_DOUGH\', \'TREY-EIGHT\', \'SETTLE\', "CHIPPIN\'_IN", \'MEATBALL\', \'RAFFLES\', \'YUBITSUME\', \'CROAKER\', \'SUCKER_POCKETS\', \'L.A.M.A.\', \'GEEK\', \'BUTTONHEAD\'],\n[\'TAKE\', \'TEKIYA\', \'KURUMAKU\', \'BLOC\', \'GAT\', \'JOHATSU\', \'CRYSTAL\', \'A.I.\', \'ZEROED\', \'OVER_THE_SHOULDER\', \'GRAB_GEE\', \'PANZER\', \'GO_LEO\', \'WASHED\', \'I.C.E.\', \'COPSHOP\', \'COLLATERAL_DAMAGE\', \'BIG_DARK\', \'DOUBLE-DEUCE\', \'ZONEDANCE\', \'MARK\', \'COBBERS\', \'CHIMPIRA\', \'TRIADS\', \'SHANK\', \'FRAG\', \'BREATH_VAC\', "CHARLIE\'S_ANGEL", \'MULE\', \'BURNER\', "PACKIN\'", \'HOTDOGGER\', \'BOSOZOKU\', \'RIPPERDOC\', \'THIRDMAN\', \'MAXIMUM,_MAX\', \'CHOOH2_("CHOO")\', \'CRYO_MAX\', \'HEATER\', \'SHARK\', \'JOYGIRL\', \'GURENTAI\', \'BANDIT\', \'VENICE\', \'MIZU_SHOBAI\', \'PASTA_BOYS\', \'SQUID\', \'CYBERED_UP\', \'DEAD_RECKONING\', \'POPSICLE\', \'FAUST\', \'COLLARBOY\', \'SHOES\', \'TORCH\', \'DELTAJOCK\', \'BUTTERFLY_MAN\', \'WISE_GUYS\', \'BOOST\', \'CAIN\', \'FOUR-FIVE\', \'BREAK-DOWN\', \'POLYMER_ONE-SHOT\', \'FLAG\', \'CALL_GIRL\', \'IN_THE_HUNT\', \'HYDRO\', \'DOCK\', \'FENCE\', \'SHAIKUJIN\', \'GOMI\', \'FILTER\', \'SAINT_NICK\', \'LINEFOOT\', \'CAVALRY\', \'PUKE\', \'CONVERSION\', \'FINGER\', \'CONTRACT\'],\n[\'PLASTIC\', \'CRYSTALJOCKEY,_CRYSTALJOCK\', \'SCREW\', \'TOYSTORE\', \'DREAM_TIME\', \'EXOTIC\', \'WALKABOUT\', \'DIAMOND_SEASON\', \'SARAKIN\', \'CHRISTMAS_BUNDLES\', \'SHADES\', \'BUTTON_MAN\', \'FOXTROT_UNIFORM\', \'KAI\', \'UNDER_THE_PAINT\', \'MINIMUM\', \'TRIPLE_A\', \'PIG_ON_A_WHEEL\', \'BAG_MAN\', \'DIP\', \'PIGEONS\', \'MAN\', \'ADAM_HENRY\', \'HIGH\', \'HEAT\', \'NINJO\', \'KNIFE_FIGHT\', \'MOUTHPIECE\', \'AGRIPLEX\', \'DATA_TERM\', \'LIZ\', \'CHROMER\', \'OUTPUT\', \'N.O.E.\', \'CLOSE_A_CONTRACT\', \'LASSIE\', \'FLATLINE\', \'CHIV\', \'SING\', \'AMMO\', \'RAT\', \'MATCHBOX\', \'PULL_AN_ASH\', \'BORYOKUDAN\', \'SQUEEZE\', \'RONIN\', \'HIT\', \'RAGS\', \'TAKE_OUT\', \'BEAT_THE_RAP\', \'GIRI\', \'RUNNING_THE_LINE\', \'HARNESS\', \'GRAVEROBBER\', \'DROP_A_DIME\', \'BADGE_ON_A_BEAVER\', \'FLETCHER\', \'AMPED-OUT\', \'NEUTRALIZE\', \'PETER\', \'CONFIG\', \'HARDFIRE\', \'B.A.M.A.\', \'CHROMATIC_ROCK\', \'MOLDED\', \'RAD\', \'CREASED\', \'CHATTER_BOX\', \'HAND_CANNON\', \'NIPPERS\', \'SIERRA_HOTEL\', \'HOOK_UP\', \'-JOCKEY,_-JOCK\', \'BUG\', \'BATMAN_AND_ROBIN\', \'BLACK_OPERATIONS\', "D.C.\'S", \'SO_KA\'],\n[\'_A.A.A.\', \'HOME_PLATE\', \'LITEJACK\', \'PINEAPPLE\', \'MAKE\', \'THE_STREET\', \'SITREP\', \'HANGING_PAPER\', \'PAINT_BOYS\', \'WETWORK\', \'NINER\', \'BOOKIE\', \'WHIPLASH\', \'TORPEDO\', \'HEATWAVE\', \'SOLAR_WIND\', \'QUIFF\', \'BIKE\', \'TRAFFIC\', \'WIRE_ROOM\', \'OYABUN\', \'COWBOY\', \'KOBUN\', \'MUDBOY\', \'COP_OUT\', \'SOKAIYA\', "\'DORPH", \'JOYBOY\', \'DIRTY\', \'BOAT\', \'DROP\', \'GRAV_or_GEE\', \'APOGEE\', \'BOOSTER\', \'BOOK\', \'FRY\', \'PULLING_TEETH\', \'ONE_LARGE\', \'COMBAT_DRUGS\', \'THRASH\', \'DO_A_GHOST\', \'DELTA\', \'RIN_TIN_TIN\', \'DROP_OUT\', \'GUMI\', \'ROCKERBOY/GIRL\', \'BULLET\', \'DEB\', \'THREADING_THE_NEEDLE\', \'MOTOR\', \'BLEEDER\', \'ARC\', \'BOPPER\', \'WASTE\', \'_DEMUKAI\', \'BREAK\', \'HOLDING_DOWN\', \'FEDS\', \'GAP\', \'RABBI\', \'BAKUTO\', \'CHOMBATTA_(CHOOMBA)\', \'BIG_HATS\', \'MR._JOHNSON\', \'EXEC\', \'BULL\', \'BULLSEYE\', \'POSERGANG\', \'CHAOL\', \'GEISHA\', \'SLAMMIT_ON\', \'POP_CAPS\', \'HARD_TIME\', \'BENJI\', \'MAKING_BANK\', \'PAPERHANGER\', \'NETRUN\', \'BOGEY\'],\n]     \n    i = 0\n    invits = []\n    print number\n    while (i < number):\n        invit = ""\n        j = 0\n        while (j < word):\n            debut = random.randint(0,len(code)-1)\n            codepick = code[debut][random.randint(0,len(code[debut])-1)]\n            j += 1\n            invit += codepick+"-"\n        j = 0\n        while (j < num):\n            invit += randomdig(numdigit)+"-"\n            j += 1\n        i+= 1\n        invit = invit[:-1]\n        if invit not in invits :\n            invits.append(invit[:-1])\n            print invit\n    return invits\n        \ndef randomdig(number):\n    max = "9"*number\n    max = int(max)\n    rand =  random.randint(0,max)\n    rand = str(rand)\n    rand = "0"*(number-len(rand))+rand\n    return rand\n\n@auth.requires_login()\ndef inscriptioninvit():\n    user = auth.environment.session.auth.user\n    form=FORM( TR(LABEL(\'Username : \'), INPUT(_name=\'Username\'),\n     TR(LABEL(\'Email: \'), INPUT(_name=\'email\',_value=user.email),\n      INPUT(_type=\'submit\'))\n    form.insert(-1,INPUT(_name=\'titi\',_value=\'titi\'))\n    form.insert(-1,INPUT(_name=\'toto\',_value=\'toto\'))\n    return dict(form=form)\n\n\ndef userstuff():\n    return dict(rows1 = db().select(db.Carac.ALL),rows2 = db().select(db.SkillLevel.ALL) )\n\ndef initdbjack():\n    if db(db.auth_user.username == "bussiere").count() == 0:\n            password= "titi" \n            my_crypt = CRYPT(key=auth.settings.hmac_key)\n            crypt_pass = my_crypt(password)[0]  \n            buss = db.auth_user.insert(\n               email= "bussiere2@gmail.com",\n               username="bussiere",\n               password=crypt_pass,\n            )\n            jack = auth.add_group(\'Jack\', \'Jack master of none\')\n            auth.add_membership(jack, buss)\n            db.commit()  \n    db.commit() \n    carac = ["Force","Logique","Volonte","Charisme","Apparence","Dexterite"]\n    skills = { \n    "Physique":{\n                "Sport":{\n                         "Capoeira" :{ \n                                      "bengale":{}\n                                      },\n                        "Karate":{\n                                  "Nord" : {},\n                                  "Sud" : {},\n                                 },\n                         },\n            },\n\n\n    "Technique":{\n                "Mettalerrie" : {\n                                 "Forge" : {},\n                                  \n                                  },\n                 \n    },\n\n    "Savoir":{\n              "Informatique" : {\n                                   "Programmation" :{\n                                                     "Python" :{\n                                                                 "Django" : {} ,\n                                                                  "Web2py" : {}\n                                                                },\n                                                     "Methode" :{\n                                                                 "Uml":{},\n                                                                  "Merise": {}\n                                                                },\n                                                     },\n                                   },\n\n            },\n    }\n\n    for c in carac :\n        if db(db.Carac.Nom == c).count() == 0:\n            db.Carac.insert(Nom=c)\n\n    for level1 in skills.keys() :\n        i = 0\n        if db(db.Skill.Nom == level1).count() == 0:\n            Skill1 = db.SkillLevel.insert(Skill = (db.Skill.insert(Nom=level1)),Level = i)\n\n            for level2 in skills[level1].keys() :\n                i = 1\n                if db(db.Skill.Nom == level2).count() == 0:\n                    #Todo\n                    # c\'est crade a revoir :\n                    for row in db((db.Skill.Nom==level1) & (db.Skill.id)).select() :\n                        parent = row.id\n                    #fin du truc a revoir\n                    Skill2 = db.SkillLevel.insert(Skill = (db.Skill.insert(Nom=level2)),Level = i,Parent = parent )\n                    for level3 in skills[level1][level2].keys() :\n                        i = 2\n                        if db(db.Skill.Nom == level3).count() == 0:\n                            #Todo\n                            # c\'est crade a revoir :\n                            for row in db((db.Skill.Nom==level2) & (db.Skill.id)).select() :\n                                parent = row.id\n                            #fin du truc a revoir\n                            Skill3 = db.SkillLevel.insert(Skill = (db.Skill.insert(Nom=level3)),Level = i,Parent = parent)\n                            for level4 in skills[level1][level2][level3].keys() :\n                                i = 3\n                                if db(db.Skill.Nom == level4).count() == 0:\n                                #Todo\n                                # c\'est crade a revoir :\n                                    for row in db((db.Skill.Nom==level3) & (db.Skill.id)).select() :\n                                        parent = row.id\n                                #fin du truc a revoir\n                                    Skill3 = db.SkillLevel.insert(Skill = (db.Skill.insert(Nom=level4)),Level = i,Parent = parent)\n                                    for level5 in skills[level1][level2][level3][level4].keys() :\n                                        i = 4\n                                        if db(db.Skill.Nom == level5).count() == 0:\n                                        #Todo\n                                        # c\'est crade a revoir :\n                                            for row in db((db.Skill.Nom==level4) & (db.Skill.id)).select() :\n                                                parent = row.id\n                                        #fin du truc a revoir\n                                            Skill4 = db.SkillLevel.insert(Skill = (db.Skill.insert(Nom=level5)),Level = i,Parent = parent)\n    db.commit() \n\n\n\n\n\n\n\ndef liste_invitations():\n    return dict(rows = db().select(db.Invitation.ALL))\n\ndef liste_user():\n    return dict(rows = db().select(db.auth_user.ALL))\n\n#@auth.requires_membership(\'manager\')\ndef generate_invitationpage():\n   form=FORM("Nombre d\'invit a generer:", INPUT(_name=\'nmbreinvit\'), INPUT(_type=\'submit\'))\n   if form.process().accepted and form.vars.nmbreinvit != None :\n       i = form.vars.nmbreinvit\n       invitsgenere = generate_invitation(int(i))\n       for invit in invitsgenere :\n           db.Invitation.insert(Code=invit)\n           db.commit()\n       session.flash = \'invitation inserted\'\n       form=FORM("Nombre d\'invit a generer:", INPUT(_name=\'nmbreinvit\'), INPUT(_type=\'submit\'))\n       #db.Invitation.insert(Code="Toto-5542")\n       db.commit()\n   return dict(form=form)\n\ndef verif_invitation(form):\n    print form.vars.invitation\n    if db.Invitation(db.Invitation.Code==form.vars.invitation) == None :\n        form.errors.invitation = \'code invitation incorrect\'\n        print "mauvais"\n    else :\n        print "bon"\n\ndef invitation():\n    form=FORM("Code Invitation :", INPUT(_name=\'invitation\'),"<Email :",INPUT(_name=\'email\'),  INPUT(_type=\'submit\'))\n    if form.process(onvalidation=verif_invitation).accepted and  form.vars.invitation != None  :\n        email = form.vars.email\n        if db(db.auth_user.email == email).count() == 0:\n            password= form.vars.invitation  \n            my_crypt = CRYPT(key=auth.settings.hmac_key)\n            crypt_pass = my_crypt(password)[0]  \n            db.auth_user.insert(\n               email= email,\n               username="John_Doe",\n               password=crypt_pass,\n            )\n            db.commit()  \n            user = db(db.auth_user.email==email).select().first()\n            auth.user = Storage(auth.settings.table_user._filter_fields(user, id=True))\n            auth.environment.session.auth = Storage(user=user, last_visit=request.now,\n                                                expiration=auth.settings.expiration)\n            redirect(URL(\'inscriptioninvit\'))\n    return dict(form=form)\n\ndef faq():\n\n    return dict()\ndef user():\n    """\n    exposes:\n    http://..../[app]/default/user/login\n    http://..../[app]/default/user/logout\n    http://..../[app]/default/user/register\n    http://..../[app]/default/user/profile\n    http://..../[app]/default/user/retrieve_password\n    http://..../[app]/default/user/change_password\n    use @auth.requires_login()\n        @auth.requires_membership(\'group name\')\n        @auth.requires_permission(\'read\',\'table name\',record_id)\n    to decorate functions that need access control\n    """\n    return dict(form=auth())\n\n\ndef download():\n    """\n    allows downloading of uploaded files\n    http://..../[app]/default/download/[filename]\n    """\n    return response.download(request,db)\n\n\ndef call():\n    """\n    exposes services. for example:\n    http://..../[app]/default/call/jsonrpc\n    decorate with @services.jsonrpc the functions to expose\n    supports xml, json, xmlrpc, jsonrpc, amfrpc, rss, csv\n    """\n    return service()\n\n\n@auth.requires_signature()\ndef data():\n    """\n    http://..../[app]/default/data/tables\n    http://..../[app]/default/data/create/[table]\n    http://..../[app]/default/data/read/[table]/[id]\n    http://..../[app]/default/data/update/[table]/[id]\n    http://..../[app]/default/data/delete/[table]/[id]\n    http://..../[app]/default/data/select/[table]\n    http://..../[app]/default/data/search/[table]\n    but URLs must be signed, i.e. linked with\n      A(\'table\',_href=URL(\'data/tables\',user_signature=True))\n    or with the signed load operator\n      LOAD(\'default\',\'data.load\',args=\'tables\',ajax=True,user_signature=True)\n    """\n    return dict(form=crud())\n\nresponse._vars=response._caller(index)\n'
p7
sS'snapshot'
p8
(dp9
S'exception'
p10
(dp11
S'__getslice__'
p12
S"<method-wrapper '__getslice__' of exceptions.SyntaxError object at 0x042480F0>"
p13
sS'text'
p14
S'"    form.insert(-1,INPUT(_name=\'titi\',_value=\'titi\'))\\n"'
p15
sS'__str__'
p16
S"<method-wrapper '__str__' of exceptions.SyntaxError object at 0x042480F0>"
p17
sS'__reduce__'
p18
S'<built-in method __reduce__ of exceptions.SyntaxError object at 0x042480F0>'
p19
sS'__dict__'
p20
S'{}'
p21
sS'__init__'
p22
S"<method-wrapper '__init__' of exceptions.SyntaxError object at 0x042480F0>"
p23
sS'__setattr__'
p24
S"<method-wrapper '__setattr__' of exceptions.SyntaxError object at 0x042480F0>"
p25
sS'__reduce_ex__'
p26
S'<built-in method __reduce_ex__ of exceptions.SyntaxError object at 0x042480F0>'
p27
sS'__new__'
p28
S'<built-in method __new__ of type object at 0x1E1CDBD0>'
p29
sS'__class__'
p30
S"<type 'exceptions.SyntaxError'>"
p31
sS'filename'
p32
S"r'C:\\Users\\Bussiere\\Dropbox\\Projets\\jackpoint\\web2py\\applications\\init\\controllers/default.py'"
p33
sS'lineno'
p34
S'253'
p35
sS'msg'
p36
S"'invalid syntax'"
p37
sS'__doc__'
p38
S"'Invalid syntax.'"
p39
sS'__getitem__'
p40
S"<method-wrapper '__getitem__' of exceptions.SyntaxError object at 0x042480F0>"
p41
sS'__setstate__'
p42
S'<built-in method __setstate__ of exceptions.SyntaxError object at 0x042480F0>'
p43
sS'__getattribute__'
p44
S"<method-wrapper '__getattribute__' of exceptions.SyntaxError object at 0x042480F0>"
p45
sS'print_file_and_line'
p46
S'None'
p47
sS'args'
p48
S'(\'invalid syntax\', (r\'C:\\Users\\Bussiere\\Dropbox\\Projets\\jackpoint\\web2py\\applications\\init\\controllers/default.py\', 253, 8, "    form.insert(-1,INPUT(_name=\'titi\',_value=\'titi\'))\\n"))'
p49
sS'offset'
p50
S'8'
sS'__delattr__'
p51
S"<method-wrapper '__delattr__' of exceptions.SyntaxError object at 0x042480F0>"
p52
sS'__repr__'
p53
S"<method-wrapper '__repr__' of exceptions.SyntaxError object at 0x042480F0>"
p54
sS'__hash__'
p55
S"<method-wrapper '__hash__' of exceptions.SyntaxError object at 0x042480F0>"
p56
ssS'evalue'
p57
S'invalid syntax (controllers/default.py, line 253)'
p58
sS'request'
p59
ccopy_reg
_reconstructor
p60
(cgluon.html
BEAUTIFY
p61
c__builtin__
object
p62
NtRp63
(dp64
S'attributes'
p65
(dp66
sS'components'
p67
(lp68
g60
(cgluon.html
TABLE
p69
g62
NtRp70
(dp71
g65
(dp72
S'level'
p73
I5
ssS'parent'
p74
Nsg67
(lp75
g60
(cgluon.html
TR
p76
g62
NtRp77
(dp78
g65
(dp79
sg74
g70
sg67
(lp80
g60
(cgluon.html
TD
p81
g62
NtRp82
(dp83
g65
(dp84
S'_style'
p85
S'font-weight:bold;vertical-align:top'
p86
ssg74
g77
sg67
(lp87
S'ajax'
p88
asbag60
(g81
g62
NtRp89
(dp90
g65
(dp91
S'_valign'
p92
S'top'
p93
ssg74
g77
sg67
(lp94
S':'
asbag60
(g81
g62
NtRp95
(dp96
g65
(dp97
sg74
g77
sg67
(lp98
g60
(g61
g62
NtRp99
(dp100
g65
(dp101
g73
I5
ssg74
g95
sg67
(lp102
S'False'
p103
asbasbasbag60
(g76
g62
NtRp104
(dp105
g65
(dp106
sg74
g70
sg67
(lp107
g60
(g81
g62
NtRp108
(dp109
g65
(dp110
g85
g86
ssg74
g104
sg67
(lp111
S'application'
p112
asbag60
(g81
g62
NtRp113
(dp114
g65
(dp115
g92
g93
ssg74
g104
sg67
(lp116
S':'
asbag60
(g81
g62
NtRp117
(dp118
g65
(dp119
sg74
g104
sg67
(lp120
g60
(g61
g62
NtRp121
(dp122
g65
(dp123
g73
I5
ssg74
g117
sg67
(lp124
S'init'
p125
asbasbasbag60
(g76
g62
NtRp126
(dp127
g65
(dp128
sg74
g70
sg67
(lp129
g60
(g81
g62
NtRp130
(dp131
g65
(dp132
g85
g86
ssg74
g126
sg67
(lp133
g48
asbag60
(g81
g62
NtRp134
(dp135
g65
(dp136
g92
g93
ssg74
g126
sg67
(lp137
S':'
asbag60
(g81
g62
NtRp138
(dp139
g65
(dp140
sg74
g126
sg67
(lp141
g60
(g61
g62
NtRp142
(dp143
g65
(dp144
g73
I5
ssg74
g138
sg67
(lp145
g60
(g69
g62
NtRp146
(dp147
g65
(dp148
g73
I4
ssg74
Nsg67
(lp149
sbasbasbasbag60
(g76
g62
NtRp150
(dp151
g65
(dp152
sg74
g70
sg67
(lp153
g60
(g81
g62
NtRp154
(dp155
g65
(dp156
g85
g86
ssg74
g150
sg67
(lp157
S'body'
p158
asbag60
(g81
g62
NtRp159
(dp160
g65
(dp161
g92
g93
ssg74
g150
sg67
(lp162
S':'
asbag60
(g81
g62
NtRp163
(dp164
g65
(dp165
sg74
g150
sg67
(lp166
g60
(g61
g62
NtRp167
(dp168
g65
(dp169
g73
I5
ssg74
g163
sg67
(lp170
S'<cStringIO.StringO object at 0x0426B5C0>'
p171
asbasbasbag60
(g76
g62
NtRp172
(dp173
g65
(dp174
sg74
g70
sg67
(lp175
g60
(g81
g62
NtRp176
(dp177
g65
(dp178
g85
g86
ssg74
g172
sg67
(lp179
S'client'
p180
asbag60
(g81
g62
NtRp181
(dp182
g65
(dp183
g92
g93
ssg74
g172
sg67
(lp184
S':'
asbag60
(g81
g62
NtRp185
(dp186
g65
(dp187
sg74
g172
sg67
(lp188
g60
(g61
g62
NtRp189
(dp190
g65
(dp191
g73
I5
ssg74
g185
sg67
(lp192
S'127.0.0.1'
p193
asbasbasbag60
(g76
g62
NtRp194
(dp195
g65
(dp196
sg74
g70
sg67
(lp197
g60
(g81
g62
NtRp198
(dp199
g65
(dp200
g85
g86
ssg74
g194
sg67
(lp201
S'controller'
p202
asbag60
(g81
g62
NtRp203
(dp204
g65
(dp205
g92
g93
ssg74
g194
sg67
(lp206
S':'
asbag60
(g81
g62
NtRp207
(dp208
g65
(dp209
sg74
g194
sg67
(lp210
g60
(g61
g62
NtRp211
(dp212
g65
(dp213
g73
I5
ssg74
g207
sg67
(lp214
S'default'
p215
asbasbasbag60
(g76
g62
NtRp216
(dp217
g65
(dp218
sg74
g70
sg67
(lp219
g60
(g81
g62
NtRp220
(dp221
g65
(dp222
g85
g86
ssg74
g216
sg67
(lp223
S'cookies'
p224
asbag60
(g81
g62
NtRp225
(dp226
g65
(dp227
g92
g93
ssg74
g216
sg67
(lp228
S':'
asbag60
(g81
g62
NtRp229
(dp230
g65
(dp231
sg74
g216
sg67
(lp232
g60
(g61
g62
NtRp233
(dp234
g65
(dp235
g73
I5
ssg74
g229
sg67
(lp236
g60
(g69
g62
NtRp237
(dp238
g65
(dp239
g73
I4
ssg74
Nsg67
(lp240
sbasbasbasbag60
(g76
g62
NtRp241
(dp242
g65
(dp243
sg74
g70
sg67
(lp244
g60
(g81
g62
NtRp245
(dp246
g65
(dp247
g85
g86
ssg74
g241
sg67
(lp248
S'env'
p249
asbag60
(g81
g62
NtRp250
(dp251
g65
(dp252
g92
g93
ssg74
g241
sg67
(lp253
S':'
asbag60
(g81
g62
NtRp254
(dp255
g65
(dp256
sg74
g241
sg67
(lp257
g60
(g61
g62
NtRp258
(dp259
g65
(dp260
g73
I5
ssg74
g254
sg67
(lp261
g60
(g69
g62
NtRp262
(dp263
g65
(dp264
g73
I4
ssg74
Nsg67
(lp265
g60
(g76
g62
NtRp266
(dp267
g65
(dp268
sg74
g262
sg67
(lp269
g60
(g81
g62
NtRp270
(dp271
g65
(dp272
g85
g86
ssg74
g266
sg67
(lp273
S'app_folders'
p274
asbag60
(g81
g62
NtRp275
(dp276
g65
(dp277
g92
g93
ssg74
g266
sg67
(lp278
S':'
asbag60
(g81
g62
NtRp279
(dp280
g65
(dp281
sg74
g266
sg67
(lp282
g60
(g61
g62
NtRp283
(dp284
g65
(dp285
g73
I4
ssg74
g279
sg67
(lp286
S"set(['C:\\\\Users\\\\Bussiere\\\\Dropbox\\\\Projets\\\\jackpoint\\\\web2py\\\\applications\\\\init\\\\', 'C:\\\\Users\\\\Bussiere\\\\Dropbox\\\\Projets\\\\jackpoint\\\\web2py\\\\applications\\\\admin\\\\'])"
p287
asbasbasbag60
(g76
g62
NtRp288
(dp289
g65
(dp290
sg74
g262
sg67
(lp291
g60
(g81
g62
NtRp292
(dp293
g65
(dp294
g85
g86
ssg74
g288
sg67
(lp295
S'applications_parent'
p296
asbag60
(g81
g62
NtRp297
(dp298
g65
(dp299
g92
g93
ssg74
g288
sg67
(lp300
S':'
asbag60
(g81
g62
NtRp301
(dp302
g65
(dp303
sg74
g288
sg67
(lp304
g60
(g61
g62
NtRp305
(dp306
g65
(dp307
g73
I4
ssg74
g301
sg67
(lp308
S'C:\\Users\\Bussiere\\Dropbox\\Projets\\jackpoint\\web2py'
p309
asbasbasbag60
(g76
g62
NtRp310
(dp311
g65
(dp312
sg74
g262
sg67
(lp313
g60
(g81
g62
NtRp314
(dp315
g65
(dp316
g85
g86
ssg74
g310
sg67
(lp317
S'cmd_args'
p318
asbag60
(g81
g62
NtRp319
(dp320
g65
(dp321
g92
g93
ssg74
g310
sg67
(lp322
S':'
asbag60
(g81
g62
NtRp323
(dp324
g65
(dp325
sg74
g310
sg67
(lp326
g60
(g61
g62
NtRp327
(dp328
g65
(dp329
g73
I4
ssg74
g323
sg67
(lp330
g60
(g69
g62
NtRp331
(dp332
g65
(dp333
g73
I3
ssg74
Nsg67
(lp334
sbasbasbasbag60
(g76
g62
NtRp335
(dp336
g65
(dp337
sg74
g262
sg67
(lp338
g60
(g81
g62
NtRp339
(dp340
g65
(dp341
g85
g86
ssg74
g335
sg67
(lp342
S'cmd_options'
p343
asbag60
(g81
g62
NtRp344
(dp345
g65
(dp346
g92
g93
ssg74
g335
sg67
(lp347
S':'
asbag60
(g81
g62
NtRp348
(dp349
g65
(dp350
sg74
g335
sg67
(lp351
g60
(g61
g62
NtRp352
(dp353
g65
(dp354
g73
I4
ssg74
g348
sg67
(lp355
S"<Values at 0x3ca5fa8: {'verbose': False, 'ip': '127.0.0.1', 'shutdown_timeout': 5, 'taskbar': False, 'nocron': False, 'pid_filename': 'httpserver.pid', 'maxthreads': None, 'softcron': False, 'server_name': 'Batou', 'bpython': False, 'nogui': False, 'port': 8000, 'extcron': False, 'debuglevel': 30, 'test': None, 'folder': 'C:\\\\Users\\\\Bussiere\\\\Dropbox\\\\Projets\\\\jackpoint\\\\web2py', 'config': '', 'import_models': False, 'winservice': '', 'shell': None, 'run': '', 'log_filename': 'httpserver.log', 'args': [''], 'socket_timeout': 5, 'ssl_ca_certificate': None, 'scheduler': None, 'profiler_filename': None, 'ssl_private_key': '', 'password': '<ask>', 'request_queue_size': 5, 'ssl_certificate': '', 'cronjob': False, 'numthreads': None, 'quiet': False, 'interfaces': None, 'minthreads': None, 'timeout': 10, 'plain': False, 'nobanner': False}>"
p356
asbasbasbag60
(g76
g62
NtRp357
(dp358
g65
(dp359
sg74
g262
sg67
(lp360
g60
(g81
g62
NtRp361
(dp362
g65
(dp363
g85
g86
ssg74
g357
sg67
(lp364
S'db_sessions'
p365
asbag60
(g81
g62
NtRp366
(dp367
g65
(dp368
g92
g93
ssg74
g357
sg67
(lp369
S':'
asbag60
(g81
g62
NtRp370
(dp371
g65
(dp372
sg74
g357
sg67
(lp373
g60
(g61
g62
NtRp374
(dp375
g65
(dp376
g73
I4
ssg74
g370
sg67
(lp377
S"set(['init'])"
p378
asbasbasbag60
(g76
g62
NtRp379
(dp380
g65
(dp381
sg74
g262
sg67
(lp382
g60
(g81
g62
NtRp383
(dp384
g65
(dp385
g85
g86
ssg74
g379
sg67
(lp386
S'debugging'
p387
asbag60
(g81
g62
NtRp388
(dp389
g65
(dp390
g92
g93
ssg74
g379
sg67
(lp391
S':'
asbag60
(g81
g62
NtRp392
(dp393
g65
(dp394
sg74
g379
sg67
(lp395
g60
(g61
g62
NtRp396
(dp397
g65
(dp398
g73
I4
ssg74
g392
sg67
(lp399
S'True'
p400
asbasbasbag60
(g76
g62
NtRp401
(dp402
g65
(dp403
sg74
g262
sg67
(lp404
g60
(g81
g62
NtRp405
(dp406
g65
(dp407
g85
g86
ssg74
g401
sg67
(lp408
S'gluon_parent'
p409
asbag60
(g81
g62
NtRp410
(dp411
g65
(dp412
g92
g93
ssg74
g401
sg67
(lp413
S':'
asbag60
(g81
g62
NtRp414
(dp415
g65
(dp416
sg74
g401
sg67
(lp417
g60
(g61
g62
NtRp418
(dp419
g65
(dp420
g73
I4
ssg74
g414
sg67
(lp421
S'C:\\Users\\Bussiere\\Dropbox\\Projets\\jackpoint\\web2py'
p422
asbasbasbag60
(g76
g62
NtRp423
(dp424
g65
(dp425
sg74
g262
sg67
(lp426
g60
(g81
g62
NtRp427
(dp428
g65
(dp429
g85
g86
ssg74
g423
sg67
(lp430
S'http_accept'
p431
asbag60
(g81
g62
NtRp432
(dp433
g65
(dp434
g92
g93
ssg74
g423
sg67
(lp435
S':'
asbag60
(g81
g62
NtRp436
(dp437
g65
(dp438
sg74
g423
sg67
(lp439
g60
(g61
g62
NtRp440
(dp441
g65
(dp442
g73
I4
ssg74
g436
sg67
(lp443
S'text/html,application/xhtml+xml,application/xml;q=0.9,*/*;q=0.8'
p444
asbasbasbag60
(g76
g62
NtRp445
(dp446
g65
(dp447
sg74
g262
sg67
(lp448
g60
(g81
g62
NtRp449
(dp450
g65
(dp451
g85
g86
ssg74
g445
sg67
(lp452
S'http_accept_charset'
p453
asbag60
(g81
g62
NtRp454
(dp455
g65
(dp456
g92
g93
ssg74
g445
sg67
(lp457
S':'
asbag60
(g81
g62
NtRp458
(dp459
g65
(dp460
sg74
g445
sg67
(lp461
g60
(g61
g62
NtRp462
(dp463
g65
(dp464
g73
I4
ssg74
g458
sg67
(lp465
S'ISO-8859-1,utf-8;q=0.7,*;q=0.3'
p466
asbasbasbag60
(g76
g62
NtRp467
(dp468
g65
(dp469
sg74
g262
sg67
(lp470
g60
(g81
g62
NtRp471
(dp472
g65
(dp473
g85
g86
ssg74
g467
sg67
(lp474
S'http_accept_encoding'
p475
asbag60
(g81
g62
NtRp476
(dp477
g65
(dp478
g92
g93
ssg74
g467
sg67
(lp479
S':'
asbag60
(g81
g62
NtRp480
(dp481
g65
(dp482
sg74
g467
sg67
(lp483
g60
(g61
g62
NtRp484
(dp485
g65
(dp486
g73
I4
ssg74
g480
sg67
(lp487
S'gzip,deflate,sdch'
p488
asbasbasbag60
(g76
g62
NtRp489
(dp490
g65
(dp491
sg74
g262
sg67
(lp492
g60
(g81
g62
NtRp493
(dp494
g65
(dp495
g85
g86
ssg74
g489
sg67
(lp496
S'http_accept_language'
p497
asbag60
(g81
g62
NtRp498
(dp499
g65
(dp500
g92
g93
ssg74
g489
sg67
(lp501
S':'
asbag60
(g81
g62
NtRp502
(dp503
g65
(dp504
sg74
g489
sg67
(lp505
g60
(g61
g62
NtRp506
(dp507
g65
(dp508
g73
I4
ssg74
g502
sg67
(lp509
S'fr-FR,fr;q=0.8,en-US;q=0.6,en;q=0.4'
p510
asbasbasbag60
(g76
g62
NtRp511
(dp512
g65
(dp513
sg74
g262
sg67
(lp514
g60
(g81
g62
NtRp515
(dp516
g65
(dp517
g85
g86
ssg74
g511
sg67
(lp518
S'http_cache_control'
p519
asbag60
(g81
g62
NtRp520
(dp521
g65
(dp522
g92
g93
ssg74
g511
sg67
(lp523
S':'
asbag60
(g81
g62
NtRp524
(dp525
g65
(dp526
sg74
g511
sg67
(lp527
g60
(g61
g62
NtRp528
(dp529
g65
(dp530
g73
I4
ssg74
g524
sg67
(lp531
S'max-age=0'
p532
asbasbasbag60
(g76
g62
NtRp533
(dp534
g65
(dp535
sg74
g262
sg67
(lp536
g60
(g81
g62
NtRp537
(dp538
g65
(dp539
g85
g86
ssg74
g533
sg67
(lp540
S'http_connection'
p541
asbag60
(g81
g62
NtRp542
(dp543
g65
(dp544
g92
g93
ssg74
g533
sg67
(lp545
S':'
asbag60
(g81
g62
NtRp546
(dp547
g65
(dp548
sg74
g533
sg67
(lp549
g60
(g61
g62
NtRp550
(dp551
g65
(dp552
g73
I4
ssg74
g546
sg67
(lp553
S'keep-alive'
p554
asbasbasbag60
(g76
g62
NtRp555
(dp556
g65
(dp557
sg74
g262
sg67
(lp558
g60
(g81
g62
NtRp559
(dp560
g65
(dp561
g85
g86
ssg74
g555
sg67
(lp562
S'http_host'
p563
asbag60
(g81
g62
NtRp564
(dp565
g65
(dp566
g92
g93
ssg74
g555
sg67
(lp567
S':'
asbag60
(g81
g62
NtRp568
(dp569
g65
(dp570
sg74
g555
sg67
(lp571
g60
(g61
g62
NtRp572
(dp573
g65
(dp574
g73
I4
ssg74
g568
sg67
(lp575
S'localhost:8000'
p576
asbasbasbag60
(g76
g62
NtRp577
(dp578
g65
(dp579
sg74
g262
sg67
(lp580
g60
(g81
g62
NtRp581
(dp582
g65
(dp583
g85
g86
ssg74
g577
sg67
(lp584
S'http_user_agent'
p585
asbag60
(g81
g62
NtRp586
(dp587
g65
(dp588
g92
g93
ssg74
g577
sg67
(lp589
S':'
asbag60
(g81
g62
NtRp590
(dp591
g65
(dp592
sg74
g577
sg67
(lp593
g60
(g61
g62
NtRp594
(dp595
g65
(dp596
g73
I4
ssg74
g590
sg67
(lp597
S'Mozilla/5.0 (Windows NT 6.1; WOW64) AppleWebKit/535.11 (KHTML, like Gecko) Chrome/17.0.963.83 Safari/535.11'
p598
asbasbasbag60
(g76
g62
NtRp599
(dp600
g65
(dp601
sg74
g262
sg67
(lp602
g60
(g81
g62
NtRp603
(dp604
g65
(dp605
g85
g86
ssg74
g599
sg67
(lp606
S'is_jython'
p607
asbag60
(g81
g62
NtRp608
(dp609
g65
(dp610
g92
g93
ssg74
g599
sg67
(lp611
S':'
asbag60
(g81
g62
NtRp612
(dp613
g65
(dp614
sg74
g599
sg67
(lp615
g60
(g61
g62
NtRp616
(dp617
g65
(dp618
g73
I4
ssg74
g612
sg67
(lp619
g103
asbasbasbag60
(g76
g62
NtRp620
(dp621
g65
(dp622
sg74
g262
sg67
(lp623
g60
(g81
g62
NtRp624
(dp625
g65
(dp626
g85
g86
ssg74
g620
sg67
(lp627
S'is_pypy'
p628
asbag60
(g81
g62
NtRp629
(dp630
g65
(dp631
g92
g93
ssg74
g620
sg67
(lp632
S':'
asbag60
(g81
g62
NtRp633
(dp634
g65
(dp635
sg74
g620
sg67
(lp636
g60
(g61
g62
NtRp637
(dp638
g65
(dp639
g73
I4
ssg74
g633
sg67
(lp640
g103
asbasbasbag60
(g76
g62
NtRp641
(dp642
g65
(dp643
sg74
g262
sg67
(lp644
g60
(g81
g62
NtRp645
(dp646
g65
(dp647
g85
g86
ssg74
g641
sg67
(lp648
S'path_info'
p649
asbag60
(g81
g62
NtRp650
(dp651
g65
(dp652
g92
g93
ssg74
g641
sg67
(lp653
S':'
asbag60
(g81
g62
NtRp654
(dp655
g65
(dp656
sg74
g641
sg67
(lp657
g60
(g61
g62
NtRp658
(dp659
g65
(dp660
g73
I4
ssg74
g654
sg67
(lp661
S'/'
asbasbasbag60
(g76
g62
NtRp662
(dp663
g65
(dp664
sg74
g262
sg67
(lp665
g60
(g81
g62
NtRp666
(dp667
g65
(dp668
g85
g86
ssg74
g662
sg67
(lp669
S'query_string'
p670
asbag60
(g81
g62
NtRp671
(dp672
g65
(dp673
g92
g93
ssg74
g662
sg67
(lp674
S':'
asbag60
(g81
g62
NtRp675
(dp676
g65
(dp677
sg74
g662
sg67
(lp678
g60
(g61
g62
NtRp679
(dp680
g65
(dp681
g73
I4
ssg74
g675
sg67
(lp682
S''
asbasbasbag60
(g76
g62
NtRp683
(dp684
g65
(dp685
sg74
g262
sg67
(lp686
g60
(g81
g62
NtRp687
(dp688
g65
(dp689
g85
g86
ssg74
g683
sg67
(lp690
S'remote_addr'
p691
asbag60
(g81
g62
NtRp692
(dp693
g65
(dp694
g92
g93
ssg74
g683
sg67
(lp695
S':'
asbag60
(g81
g62
NtRp696
(dp697
g65
(dp698
sg74
g683
sg67
(lp699
g60
(g61
g62
NtRp700
(dp701
g65
(dp702
g73
I4
ssg74
g696
sg67
(lp703
g193
asbasbasbag60
(g76
g62
NtRp704
(dp705
g65
(dp706
sg74
g262
sg67
(lp707
g60
(g81
g62
NtRp708
(dp709
g65
(dp710
g85
g86
ssg74
g704
sg67
(lp711
S'remote_port'
p712
asbag60
(g81
g62
NtRp713
(dp714
g65
(dp715
g92
g93
ssg74
g704
sg67
(lp716
S':'
asbag60
(g81
g62
NtRp717
(dp718
g65
(dp719
sg74
g704
sg67
(lp720
g60
(g61
g62
NtRp721
(dp722
g65
(dp723
g73
I4
ssg74
g717
sg67
(lp724
S'50018'
p725
asbasbasbag60
(g76
g62
NtRp726
(dp727
g65
(dp728
sg74
g262
sg67
(lp729
g60
(g81
g62
NtRp730
(dp731
g65
(dp732
g85
g86
ssg74
g726
sg67
(lp733
S'request_method'
p734
asbag60
(g81
g62
NtRp735
(dp736
g65
(dp737
g92
g93
ssg74
g726
sg67
(lp738
S':'
asbag60
(g81
g62
NtRp739
(dp740
g65
(dp741
sg74
g726
sg67
(lp742
g60
(g61
g62
NtRp743
(dp744
g65
(dp745
g73
I4
ssg74
g739
sg67
(lp746
S'GET'
p747
asbasbasbag60
(g76
g62
NtRp748
(dp749
g65
(dp750
sg74
g262
sg67
(lp751
g60
(g81
g62
NtRp752
(dp753
g65
(dp754
g85
g86
ssg74
g748
sg67
(lp755
S'script_name'
p756
asbag60
(g81
g62
NtRp757
(dp758
g65
(dp759
g92
g93
ssg74
g748
sg67
(lp760
S':'
asbag60
(g81
g62
NtRp761
(dp762
g65
(dp763
sg74
g748
sg67
(lp764
g60
(g61
g62
NtRp765
(dp766
g65
(dp767
g73
I4
ssg74
g761
sg67
(lp768
S''
asbasbasbag60
(g76
g62
NtRp769
(dp770
g65
(dp771
sg74
g262
sg67
(lp772
g60
(g81
g62
NtRp773
(dp774
g65
(dp775
g85
g86
ssg74
g769
sg67
(lp776
S'server_name'
p777
asbag60
(g81
g62
NtRp778
(dp779
g65
(dp780
g92
g93
ssg74
g769
sg67
(lp781
S':'
asbag60
(g81
g62
NtRp782
(dp783
g65
(dp784
sg74
g769
sg67
(lp785
g60
(g61
g62
NtRp786
(dp787
g65
(dp788
g73
I4
ssg74
g782
sg67
(lp789
S'Batou'
p790
asbasbasbag60
(g76
g62
NtRp791
(dp792
g65
(dp793
sg74
g262
sg67
(lp794
g60
(g81
g62
NtRp795
(dp796
g65
(dp797
g85
g86
ssg74
g791
sg67
(lp798
S'server_port'
p799
asbag60
(g81
g62
NtRp800
(dp801
g65
(dp802
g92
g93
ssg74
g791
sg67
(lp803
S':'
asbag60
(g81
g62
NtRp804
(dp805
g65
(dp806
sg74
g791
sg67
(lp807
g60
(g61
g62
NtRp808
(dp809
g65
(dp810
g73
I4
ssg74
g804
sg67
(lp811
S'8000'
p812
asbasbasbag60
(g76
g62
NtRp813
(dp814
g65
(dp815
sg74
g262
sg67
(lp816
g60
(g81
g62
NtRp817
(dp818
g65
(dp819
g85
g86
ssg74
g813
sg67
(lp820
S'server_protocol'
p821
asbag60
(g81
g62
NtRp822
(dp823
g65
(dp824
g92
g93
ssg74
g813
sg67
(lp825
S':'
asbag60
(g81
g62
NtRp826
(dp827
g65
(dp828
sg74
g813
sg67
(lp829
g60
(g61
g62
NtRp830
(dp831
g65
(dp832
g73
I4
ssg74
g826
sg67
(lp833
S'HTTP/1.1'
p834
asbasbasbag60
(g76
g62
NtRp835
(dp836
g65
(dp837
sg74
g262
sg67
(lp838
g60
(g81
g62
NtRp839
(dp840
g65
(dp841
g85
g86
ssg74
g835
sg67
(lp842
S'server_software'
p843
asbag60
(g81
g62
NtRp844
(dp845
g65
(dp846
g92
g93
ssg74
g835
sg67
(lp847
S':'
asbag60
(g81
g62
NtRp848
(dp849
g65
(dp850
sg74
g835
sg67
(lp851
g60
(g61
g62
NtRp852
(dp853
g65
(dp854
g73
I4
ssg74
g848
sg67
(lp855
S'Rocket 1.2.4'
p856
asbasbasbag60
(g76
g62
NtRp857
(dp858
g65
(dp859
sg74
g262
sg67
(lp860
g60
(g81
g62
NtRp861
(dp862
g65
(dp863
g85
g86
ssg74
g857
sg67
(lp864
S'web2py_crontype'
p865
asbag60
(g81
g62
NtRp866
(dp867
g65
(dp868
g92
g93
ssg74
g857
sg67
(lp869
S':'
asbag60
(g81
g62
NtRp870
(dp871
g65
(dp872
sg74
g857
sg67
(lp873
g60
(g61
g62
NtRp874
(dp875
g65
(dp876
g73
I4
ssg74
g870
sg67
(lp877
S'hard'
p878
asbasbasbag60
(g76
g62
NtRp879
(dp880
g65
(dp881
sg74
g262
sg67
(lp882
g60
(g81
g62
NtRp883
(dp884
g65
(dp885
g85
g86
ssg74
g879
sg67
(lp886
S'web2py_path'
p887
asbag60
(g81
g62
NtRp888
(dp889
g65
(dp890
g92
g93
ssg74
g879
sg67
(lp891
S':'
asbag60
(g81
g62
NtRp892
(dp893
g65
(dp894
sg74
g879
sg67
(lp895
g60
(g61
g62
NtRp896
(dp897
g65
(dp898
g73
I4
ssg74
g892
sg67
(lp899
g309
asbasbasbag60
(g76
g62
NtRp900
(dp901
g65
(dp902
sg74
g262
sg67
(lp903
g60
(g81
g62
NtRp904
(dp905
g65
(dp906
g85
g86
ssg74
g900
sg67
(lp907
S'web2py_version'
p908
asbag60
(g81
g62
NtRp909
(dp910
g65
(dp911
g92
g93
ssg74
g900
sg67
(lp912
S':'
asbag60
(g81
g62
NtRp913
(dp914
g65
(dp915
sg74
g900
sg67
(lp916
g60
(g61
g62
NtRp917
(dp918
g65
(dp919
g73
I4
ssg74
g913
sg67
(lp920
g60
(g69
g62
NtRp921
(dp922
g65
(dp923
g73
I3
ssg74
Nsg67
(lp924
g60
(g76
g62
NtRp925
(dp926
g65
(dp927
sg74
g921
sg67
(lp928
g60
(g81
g62
NtRp929
(dp930
g65
(dp931
sg74
g925
sg67
(lp932
g60
(g61
g62
NtRp933
(dp934
g65
(dp935
g73
I3
ssg74
g929
sg67
(lp936
S'1'
asbasbasbag60
(g76
g62
NtRp937
(dp938
g65
(dp939
sg74
g921
sg67
(lp940
g60
(g81
g62
NtRp941
(dp942
g65
(dp943
sg74
g937
sg67
(lp944
g60
(g61
g62
NtRp945
(dp946
g65
(dp947
g73
I3
ssg74
g941
sg67
(lp948
S'99'
p949
asbasbasbag60
(g76
g62
NtRp950
(dp951
g65
(dp952
sg74
g921
sg67
(lp953
g60
(g81
g62
NtRp954
(dp955
g65
(dp956
sg74
g950
sg67
(lp957
g60
(g61
g62
NtRp958
(dp959
g65
(dp960
g73
I3
ssg74
g954
sg67
(lp961
S'7'
asbasbasbag60
(g76
g62
NtRp962
(dp963
g65
(dp964
sg74
g921
sg67
(lp965
g60
(g81
g62
NtRp966
(dp967
g65
(dp968
sg74
g962
sg67
(lp969
g60
(g61
g62
NtRp970
(dp971
g65
(dp972
g73
I3
ssg74
g966
sg67
(lp973
S'datetime.datetime(2012, 3, 4, 22, 12, 8)'
p974
asbasbasbag60
(g76
g62
NtRp975
(dp976
g65
(dp977
sg74
g921
sg67
(lp978
g60
(g81
g62
NtRp979
(dp980
g65
(dp981
sg74
g975
sg67
(lp982
g60
(g61
g62
NtRp983
(dp984
g65
(dp985
g73
I3
ssg74
g979
sg67
(lp986
S'stable'
p987
asbasbasbasbasbasbasbag60
(g76
g62
NtRp988
(dp989
g65
(dp990
sg74
g262
sg67
(lp991
g60
(g81
g62
NtRp992
(dp993
g65
(dp994
g85
g86
ssg74
g988
sg67
(lp995
S'wsgi_errors'
p996
asbag60
(g81
g62
NtRp997
(dp998
g65
(dp999
g92
g93
ssg74
g988
sg67
(lp1000
S':'
asbag60
(g81
g62
NtRp1001
(dp1002
g65
(dp1003
sg74
g988
sg67
(lp1004
g60
(g61
g62
NtRp1005
(dp1006
g65
(dp1007
g73
I4
ssg74
g1001
sg67
(lp1008
S"<open file '<stderr>', mode 'w' at 0x004300B0>"
p1009
asbasbasbag60
(g76
g62
NtRp1010
(dp1011
g65
(dp1012
sg74
g262
sg67
(lp1013
g60
(g81
g62
NtRp1014
(dp1015
g65
(dp1016
g85
g86
ssg74
g1010
sg67
(lp1017
S'wsgi_file_wrapper'
p1018
asbag60
(g81
g62
NtRp1019
(dp1020
g65
(dp1021
g92
g93
ssg74
g1010
sg67
(lp1022
S':'
asbag60
(g81
g62
NtRp1023
(dp1024
g65
(dp1025
sg74
g1010
sg67
(lp1026
g60
(g61
g62
NtRp1027
(dp1028
g65
(dp1029
g73
I4
ssg74
g1023
sg67
(lp1030
S'<class wsgiref.util.FileWrapper at 0x02C44900>'
p1031
asbasbasbag60
(g76
g62
NtRp1032
(dp1033
g65
(dp1034
sg74
g262
sg67
(lp1035
g60
(g81
g62
NtRp1036
(dp1037
g65
(dp1038
g85
g86
ssg74
g1032
sg67
(lp1039
S'wsgi_input'
p1040
asbag60
(g81
g62
NtRp1041
(dp1042
g65
(dp1043
g92
g93
ssg74
g1032
sg67
(lp1044
S':'
asbag60
(g81
g62
NtRp1045
(dp1046
g65
(dp1047
sg74
g1032
sg67
(lp1048
g60
(g61
g62
NtRp1049
(dp1050
g65
(dp1051
g73
I4
ssg74
g1045
sg67
(lp1052
S'<socket._fileobject object at 0x03F2CB30>'
p1053
asbasbasbag60
(g76
g62
NtRp1054
(dp1055
g65
(dp1056
sg74
g262
sg67
(lp1057
g60
(g81
g62
NtRp1058
(dp1059
g65
(dp1060
g85
g86
ssg74
g1054
sg67
(lp1061
S'wsgi_multiprocess'
p1062
asbag60
(g81
g62
NtRp1063
(dp1064
g65
(dp1065
g92
g93
ssg74
g1054
sg67
(lp1066
S':'
asbag60
(g81
g62
NtRp1067
(dp1068
g65
(dp1069
sg74
g1054
sg67
(lp1070
g60
(g61
g62
NtRp1071
(dp1072
g65
(dp1073
g73
I4
ssg74
g1067
sg67
(lp1074
g103
asbasbasbag60
(g76
g62
NtRp1075
(dp1076
g65
(dp1077
sg74
g262
sg67
(lp1078
g60
(g81
g62
NtRp1079
(dp1080
g65
(dp1081
g85
g86
ssg74
g1075
sg67
(lp1082
S'wsgi_multithread'
p1083
asbag60
(g81
g62
NtRp1084
(dp1085
g65
(dp1086
g92
g93
ssg74
g1075
sg67
(lp1087
S':'
asbag60
(g81
g62
NtRp1088
(dp1089
g65
(dp1090
sg74
g1075
sg67
(lp1091
g60
(g61
g62
NtRp1092
(dp1093
g65
(dp1094
g73
I4
ssg74
g1088
sg67
(lp1095
g400
asbasbasbag60
(g76
g62
NtRp1096
(dp1097
g65
(dp1098
sg74
g262
sg67
(lp1099
g60
(g81
g62
NtRp1100
(dp1101
g65
(dp1102
g85
g86
ssg74
g1096
sg67
(lp1103
S'wsgi_run_once'
p1104
asbag60
(g81
g62
NtRp1105
(dp1106
g65
(dp1107
g92
g93
ssg74
g1096
sg67
(lp1108
S':'
asbag60
(g81
g62
NtRp1109
(dp1110
g65
(dp1111
sg74
g1096
sg67
(lp1112
g60
(g61
g62
NtRp1113
(dp1114
g65
(dp1115
g73
I4
ssg74
g1109
sg67
(lp1116
g103
asbasbasbag60
(g76
g62
NtRp1117
(dp1118
g65
(dp1119
sg74
g262
sg67
(lp1120
g60
(g81
g62
NtRp1121
(dp1122
g65
(dp1123
g85
g86
ssg74
g1117
sg67
(lp1124
S'wsgi_url_scheme'
p1125
asbag60
(g81
g62
NtRp1126
(dp1127
g65
(dp1128
g92
g93
ssg74
g1117
sg67
(lp1129
S':'
asbag60
(g81
g62
NtRp1130
(dp1131
g65
(dp1132
sg74
g1117
sg67
(lp1133
g60
(g61
g62
NtRp1134
(dp1135
g65
(dp1136
g73
I4
ssg74
g1130
sg67
(lp1137
S'http'
p1138
asbasbasbag60
(g76
g62
NtRp1139
(dp1140
g65
(dp1141
sg74
g262
sg67
(lp1142
g60
(g81
g62
NtRp1143
(dp1144
g65
(dp1145
g85
g86
ssg74
g1139
sg67
(lp1146
S'wsgi_version'
p1147
asbag60
(g81
g62
NtRp1148
(dp1149
g65
(dp1150
g92
g93
ssg74
g1139
sg67
(lp1151
S':'
asbag60
(g81
g62
NtRp1152
(dp1153
g65
(dp1154
sg74
g1139
sg67
(lp1155
g60
(g61
g62
NtRp1156
(dp1157
g65
(dp1158
g73
I4
ssg74
g1152
sg67
(lp1159
g60
(g69
g62
NtRp1160
(dp1161
g65
(dp1162
g73
I3
ssg74
Nsg67
(lp1163
g60
(g76
g62
NtRp1164
(dp1165
g65
(dp1166
sg74
g1160
sg67
(lp1167
g60
(g81
g62
NtRp1168
(dp1169
g65
(dp1170
sg74
g1164
sg67
(lp1171
g60
(g61
g62
NtRp1172
(dp1173
g65
(dp1174
g73
I3
ssg74
g1168
sg67
(lp1175
S'1'
asbasbasbag60
(g76
g62
NtRp1176
(dp1177
g65
(dp1178
sg74
g1160
sg67
(lp1179
g60
(g81
g62
NtRp1180
(dp1181
g65
(dp1182
sg74
g1176
sg67
(lp1183
g60
(g61
g62
NtRp1184
(dp1185
g65
(dp1186
g73
I3
ssg74
g1180
sg67
(lp1187
S'0'
asbasbasbasbasbasbasbasbasbasbasbag60
(g76
g62
NtRp1188
(dp1189
g65
(dp1190
sg74
g70
sg67
(lp1191
g60
(g81
g62
NtRp1192
(dp1193
g65
(dp1194
g85
g86
ssg74
g1188
sg67
(lp1195
S'extension'
p1196
asbag60
(g81
g62
NtRp1197
(dp1198
g65
(dp1199
g92
g93
ssg74
g1188
sg67
(lp1200
S':'
asbag60
(g81
g62
NtRp1201
(dp1202
g65
(dp1203
sg74
g1188
sg67
(lp1204
g60
(g61
g62
NtRp1205
(dp1206
g65
(dp1207
g73
I5
ssg74
g1201
sg67
(lp1208
S'html'
p1209
asbasbasbag60
(g76
g62
NtRp1210
(dp1211
g65
(dp1212
sg74
g70
sg67
(lp1213
g60
(g81
g62
NtRp1214
(dp1215
g65
(dp1216
g85
g86
ssg74
g1210
sg67
(lp1217
S'folder'
p1218
asbag60
(g81
g62
NtRp1219
(dp1220
g65
(dp1221
g92
g93
ssg74
g1210
sg67
(lp1222
S':'
asbag60
(g81
g62
NtRp1223
(dp1224
g65
(dp1225
sg74
g1210
sg67
(lp1226
g60
(g61
g62
NtRp1227
(dp1228
g65
(dp1229
g73
I5
ssg74
g1223
sg67
(lp1230
S'C:\\Users\\Bussiere\\Dropbox\\Projets\\jackpoint\\web2py\\applications\\init\\'
p1231
asbasbasbag60
(g76
g62
NtRp1232
(dp1233
g65
(dp1234
sg74
g70
sg67
(lp1235
g60
(g81
g62
NtRp1236
(dp1237
g65
(dp1238
g85
g86
ssg74
g1232
sg67
(lp1239
S'function'
p1240
asbag60
(g81
g62
NtRp1241
(dp1242
g65
(dp1243
g92
g93
ssg74
g1232
sg67
(lp1244
S':'
asbag60
(g81
g62
NtRp1245
(dp1246
g65
(dp1247
sg74
g1232
sg67
(lp1248
g60
(g61
g62
NtRp1249
(dp1250
g65
(dp1251
g73
I5
ssg74
g1245
sg67
(lp1252
S'index'
p1253
asbasbasbag60
(g76
g62
NtRp1254
(dp1255
g65
(dp1256
sg74
g70
sg67
(lp1257
g60
(g81
g62
NtRp1258
(dp1259
g65
(dp1260
g85
g86
ssg74
g1254
sg67
(lp1261
S'get_vars'
p1262
asbag60
(g81
g62
NtRp1263
(dp1264
g65
(dp1265
g92
g93
ssg74
g1254
sg67
(lp1266
S':'
asbag60
(g81
g62
NtRp1267
(dp1268
g65
(dp1269
sg74
g1254
sg67
(lp1270
g60
(g61
g62
NtRp1271
(dp1272
g65
(dp1273
g73
I5
ssg74
g1267
sg67
(lp1274
g60
(g69
g62
NtRp1275
(dp1276
g65
(dp1277
g73
I4
ssg74
Nsg67
(lp1278
sbasbasbasbag60
(g76
g62
NtRp1279
(dp1280
g65
(dp1281
sg74
g70
sg67
(lp1282
g60
(g81
g62
NtRp1283
(dp1284
g65
(dp1285
g85
g86
ssg74
g1279
sg67
(lp1286
S'global_settings'
p1287
asbag60
(g81
g62
NtRp1288
(dp1289
g65
(dp1290
g92
g93
ssg74
g1279
sg67
(lp1291
S':'
asbag60
(g81
g62
NtRp1292
(dp1293
g65
(dp1294
sg74
g1279
sg67
(lp1295
g60
(g61
g62
NtRp1296
(dp1297
g65
(dp1298
g73
I5
ssg74
g1292
sg67
(lp1299
g60
(g69
g62
NtRp1300
(dp1301
g65
(dp1302
g73
I4
ssg74
Nsg67
(lp1303
g60
(g76
g62
NtRp1304
(dp1305
g65
(dp1306
sg74
g1300
sg67
(lp1307
g60
(g81
g62
NtRp1308
(dp1309
g65
(dp1310
g85
g86
ssg74
g1304
sg67
(lp1311
g274
asbag60
(g81
g62
NtRp1312
(dp1313
g65
(dp1314
g92
g93
ssg74
g1304
sg67
(lp1315
S':'
asbag60
(g81
g62
NtRp1316
(dp1317
g65
(dp1318
sg74
g1304
sg67
(lp1319
g60
(g61
g62
NtRp1320
(dp1321
g65
(dp1322
g73
I4
ssg74
g1316
sg67
(lp1323
S"set(['C:\\\\Users\\\\Bussiere\\\\Dropbox\\\\Projets\\\\jackpoint\\\\web2py\\\\applications\\\\init\\\\', 'C:\\\\Users\\\\Bussiere\\\\Dropbox\\\\Projets\\\\jackpoint\\\\web2py\\\\applications\\\\admin\\\\'])"
p1324
asbasbasbag60
(g76
g62
NtRp1325
(dp1326
g65
(dp1327
sg74
g1300
sg67
(lp1328
g60
(g81
g62
NtRp1329
(dp1330
g65
(dp1331
g85
g86
ssg74
g1325
sg67
(lp1332
g296
asbag60
(g81
g62
NtRp1333
(dp1334
g65
(dp1335
g92
g93
ssg74
g1325
sg67
(lp1336
S':'
asbag60
(g81
g62
NtRp1337
(dp1338
g65
(dp1339
sg74
g1325
sg67
(lp1340
g60
(g61
g62
NtRp1341
(dp1342
g65
(dp1343
g73
I4
ssg74
g1337
sg67
(lp1344
g309
asbasbasbag60
(g76
g62
NtRp1345
(dp1346
g65
(dp1347
sg74
g1300
sg67
(lp1348
g60
(g81
g62
NtRp1349
(dp1350
g65
(dp1351
g85
g86
ssg74
g1345
sg67
(lp1352
g318
asbag60
(g81
g62
NtRp1353
(dp1354
g65
(dp1355
g92
g93
ssg74
g1345
sg67
(lp1356
S':'
asbag60
(g81
g62
NtRp1357
(dp1358
g65
(dp1359
sg74
g1345
sg67
(lp1360
g60
(g61
g62
NtRp1361
(dp1362
g65
(dp1363
g73
I4
ssg74
g1357
sg67
(lp1364
g60
(g69
g62
NtRp1365
(dp1366
g65
(dp1367
g73
I3
ssg74
Nsg67
(lp1368
sbasbasbasbag60
(g76
g62
NtRp1369
(dp1370
g65
(dp1371
sg74
g1300
sg67
(lp1372
g60
(g81
g62
NtRp1373
(dp1374
g65
(dp1375
g85
g86
ssg74
g1369
sg67
(lp1376
g343
asbag60
(g81
g62
NtRp1377
(dp1378
g65
(dp1379
g92
g93
ssg74
g1369
sg67
(lp1380
S':'
asbag60
(g81
g62
NtRp1381
(dp1382
g65
(dp1383
sg74
g1369
sg67
(lp1384
g60
(g61
g62
NtRp1385
(dp1386
g65
(dp1387
g73
I4
ssg74
g1381
sg67
(lp1388
S"<Values at 0x3ca5fa8: {'verbose': False, 'ip': '127.0.0.1', 'shutdown_timeout': 5, 'taskbar': False, 'nocron': False, 'pid_filename': 'httpserver.pid', 'maxthreads': None, 'softcron': False, 'server_name': 'Batou', 'bpython': False, 'nogui': False, 'port': 8000, 'extcron': False, 'debuglevel': 30, 'test': None, 'folder': 'C:\\\\Users\\\\Bussiere\\\\Dropbox\\\\Projets\\\\jackpoint\\\\web2py', 'config': '', 'import_models': False, 'winservice': '', 'shell': None, 'run': '', 'log_filename': 'httpserver.log', 'args': [''], 'socket_timeout': 5, 'ssl_ca_certificate': None, 'scheduler': None, 'profiler_filename': None, 'ssl_private_key': '', 'password': '<ask>', 'request_queue_size': 5, 'ssl_certificate': '', 'cronjob': False, 'numthreads': None, 'quiet': False, 'interfaces': None, 'minthreads': None, 'timeout': 10, 'plain': False, 'nobanner': False}>"
p1389
asbasbasbag60
(g76
g62
NtRp1390
(dp1391
g65
(dp1392
sg74
g1300
sg67
(lp1393
g60
(g81
g62
NtRp1394
(dp1395
g65
(dp1396
g85
g86
ssg74
g1390
sg67
(lp1397
g365
asbag60
(g81
g62
NtRp1398
(dp1399
g65
(dp1400
g92
g93
ssg74
g1390
sg67
(lp1401
S':'
asbag60
(g81
g62
NtRp1402
(dp1403
g65
(dp1404
sg74
g1390
sg67
(lp1405
g60
(g61
g62
NtRp1406
(dp1407
g65
(dp1408
g73
I4
ssg74
g1402
sg67
(lp1409
S"set(['init'])"
p1410
asbasbasbag60
(g76
g62
NtRp1411
(dp1412
g65
(dp1413
sg74
g1300
sg67
(lp1414
g60
(g81
g62
NtRp1415
(dp1416
g65
(dp1417
g85
g86
ssg74
g1411
sg67
(lp1418
g387
asbag60
(g81
g62
NtRp1419
(dp1420
g65
(dp1421
g92
g93
ssg74
g1411
sg67
(lp1422
S':'
asbag60
(g81
g62
NtRp1423
(dp1424
g65
(dp1425
sg74
g1411
sg67
(lp1426
g60
(g61
g62
NtRp1427
(dp1428
g65
(dp1429
g73
I4
ssg74
g1423
sg67
(lp1430
g400
asbasbasbag60
(g76
g62
NtRp1431
(dp1432
g65
(dp1433
sg74
g1300
sg67
(lp1434
g60
(g81
g62
NtRp1435
(dp1436
g65
(dp1437
g85
g86
ssg74
g1431
sg67
(lp1438
g409
asbag60
(g81
g62
NtRp1439
(dp1440
g65
(dp1441
g92
g93
ssg74
g1431
sg67
(lp1442
S':'
asbag60
(g81
g62
NtRp1443
(dp1444
g65
(dp1445
sg74
g1431
sg67
(lp1446
g60
(g61
g62
NtRp1447
(dp1448
g65
(dp1449
g73
I4
ssg74
g1443
sg67
(lp1450
g422
asbasbasbag60
(g76
g62
NtRp1451
(dp1452
g65
(dp1453
sg74
g1300
sg67
(lp1454
g60
(g81
g62
NtRp1455
(dp1456
g65
(dp1457
g85
g86
ssg74
g1451
sg67
(lp1458
g607
asbag60
(g81
g62
NtRp1459
(dp1460
g65
(dp1461
g92
g93
ssg74
g1451
sg67
(lp1462
S':'
asbag60
(g81
g62
NtRp1463
(dp1464
g65
(dp1465
sg74
g1451
sg67
(lp1466
g60
(g61
g62
NtRp1467
(dp1468
g65
(dp1469
g73
I4
ssg74
g1463
sg67
(lp1470
g103
asbasbasbag60
(g76
g62
NtRp1471
(dp1472
g65
(dp1473
sg74
g1300
sg67
(lp1474
g60
(g81
g62
NtRp1475
(dp1476
g65
(dp1477
g85
g86
ssg74
g1471
sg67
(lp1478
g628
asbag60
(g81
g62
NtRp1479
(dp1480
g65
(dp1481
g92
g93
ssg74
g1471
sg67
(lp1482
S':'
asbag60
(g81
g62
NtRp1483
(dp1484
g65
(dp1485
sg74
g1471
sg67
(lp1486
g60
(g61
g62
NtRp1487
(dp1488
g65
(dp1489
g73
I4
ssg74
g1483
sg67
(lp1490
g103
asbasbasbag60
(g76
g62
NtRp1491
(dp1492
g65
(dp1493
sg74
g1300
sg67
(lp1494
g60
(g81
g62
NtRp1495
(dp1496
g65
(dp1497
g85
g86
ssg74
g1491
sg67
(lp1498
g865
asbag60
(g81
g62
NtRp1499
(dp1500
g65
(dp1501
g92
g93
ssg74
g1491
sg67
(lp1502
S':'
asbag60
(g81
g62
NtRp1503
(dp1504
g65
(dp1505
sg74
g1491
sg67
(lp1506
g60
(g61
g62
NtRp1507
(dp1508
g65
(dp1509
g73
I4
ssg74
g1503
sg67
(lp1510
g878
asbasbasbag60
(g76
g62
NtRp1511
(dp1512
g65
(dp1513
sg74
g1300
sg67
(lp1514
g60
(g81
g62
NtRp1515
(dp1516
g65
(dp1517
g85
g86
ssg74
g1511
sg67
(lp1518
g908
asbag60
(g81
g62
NtRp1519
(dp1520
g65
(dp1521
g92
g93
ssg74
g1511
sg67
(lp1522
S':'
asbag60
(g81
g62
NtRp1523
(dp1524
g65
(dp1525
sg74
g1511
sg67
(lp1526
g60
(g61
g62
NtRp1527
(dp1528
g65
(dp1529
g73
I4
ssg74
g1523
sg67
(lp1530
g60
(g69
g62
NtRp1531
(dp1532
g65
(dp1533
g73
I3
ssg74
Nsg67
(lp1534
g60
(g76
g62
NtRp1535
(dp1536
g65
(dp1537
sg74
g1531
sg67
(lp1538
g60
(g81
g62
NtRp1539
(dp1540
g65
(dp1541
sg74
g1535
sg67
(lp1542
g60
(g61
g62
NtRp1543
(dp1544
g65
(dp1545
g73
I3
ssg74
g1539
sg67
(lp1546
S'1'
asbasbasbag60
(g76
g62
NtRp1547
(dp1548
g65
(dp1549
sg74
g1531
sg67
(lp1550
g60
(g81
g62
NtRp1551
(dp1552
g65
(dp1553
sg74
g1547
sg67
(lp1554
g60
(g61
g62
NtRp1555
(dp1556
g65
(dp1557
g73
I3
ssg74
g1551
sg67
(lp1558
S'99'
p1559
asbasbasbag60
(g76
g62
NtRp1560
(dp1561
g65
(dp1562
sg74
g1531
sg67
(lp1563
g60
(g81
g62
NtRp1564
(dp1565
g65
(dp1566
sg74
g1560
sg67
(lp1567
g60
(g61
g62
NtRp1568
(dp1569
g65
(dp1570
g73
I3
ssg74
g1564
sg67
(lp1571
S'7'
asbasbasbag60
(g76
g62
NtRp1572
(dp1573
g65
(dp1574
sg74
g1531
sg67
(lp1575
g60
(g81
g62
NtRp1576
(dp1577
g65
(dp1578
sg74
g1572
sg67
(lp1579
g60
(g61
g62
NtRp1580
(dp1581
g65
(dp1582
g73
I3
ssg74
g1576
sg67
(lp1583
S'datetime.datetime(2012, 3, 4, 22, 12, 8)'
p1584
asbasbasbag60
(g76
g62
NtRp1585
(dp1586
g65
(dp1587
sg74
g1531
sg67
(lp1588
g60
(g81
g62
NtRp1589
(dp1590
g65
(dp1591
sg74
g1585
sg67
(lp1592
g60
(g61
g62
NtRp1593
(dp1594
g65
(dp1595
g73
I3
ssg74
g1589
sg67
(lp1596
g987
asbasbasbasbasbasbasbasbasbasbasbag60
(g76
g62
NtRp1597
(dp1598
g65
(dp1599
sg74
g70
sg67
(lp1600
g60
(g81
g62
NtRp1601
(dp1602
g65
(dp1603
g85
g86
ssg74
g1597
sg67
(lp1604
S'is_https'
p1605
asbag60
(g81
g62
NtRp1606
(dp1607
g65
(dp1608
g92
g93
ssg74
g1597
sg67
(lp1609
S':'
asbag60
(g81
g62
NtRp1610
(dp1611
g65
(dp1612
sg74
g1597
sg67
(lp1613
g60
(g61
g62
NtRp1614
(dp1615
g65
(dp1616
g73
I5
ssg74
g1610
sg67
(lp1617
g103
asbasbasbag60
(g76
g62
NtRp1618
(dp1619
g65
(dp1620
sg74
g70
sg67
(lp1621
g60
(g81
g62
NtRp1622
(dp1623
g65
(dp1624
g85
g86
ssg74
g1618
sg67
(lp1625
S'is_local'
p1626
asbag60
(g81
g62
NtRp1627
(dp1628
g65
(dp1629
g92
g93
ssg74
g1618
sg67
(lp1630
S':'
asbag60
(g81
g62
NtRp1631
(dp1632
g65
(dp1633
sg74
g1618
sg67
(lp1634
g60
(g61
g62
NtRp1635
(dp1636
g65
(dp1637
g73
I5
ssg74
g1631
sg67
(lp1638
g400
asbasbasbag60
(g76
g62
NtRp1639
(dp1640
g65
(dp1641
sg74
g70
sg67
(lp1642
g60
(g81
g62
NtRp1643
(dp1644
g65
(dp1645
g85
g86
ssg74
g1639
sg67
(lp1646
S'is_restful'
p1647
asbag60
(g81
g62
NtRp1648
(dp1649
g65
(dp1650
g92
g93
ssg74
g1639
sg67
(lp1651
S':'
asbag60
(g81
g62
NtRp1652
(dp1653
g65
(dp1654
sg74
g1639
sg67
(lp1655
g60
(g61
g62
NtRp1656
(dp1657
g65
(dp1658
g73
I5
ssg74
g1652
sg67
(lp1659
g103
asbasbasbag60
(g76
g62
NtRp1660
(dp1661
g65
(dp1662
sg74
g70
sg67
(lp1663
g60
(g81
g62
NtRp1664
(dp1665
g65
(dp1666
g85
g86
ssg74
g1660
sg67
(lp1667
S'now'
p1668
asbag60
(g81
g62
NtRp1669
(dp1670
g65
(dp1671
g92
g93
ssg74
g1660
sg67
(lp1672
S':'
asbag60
(g81
g62
NtRp1673
(dp1674
g65
(dp1675
sg74
g1660
sg67
(lp1676
g60
(g61
g62
NtRp1677
(dp1678
g65
(dp1679
g73
I5
ssg74
g1673
sg67
(lp1680
S'datetime.datetime(2012, 3, 29, 15, 8, 4, 255000)'
p1681
asbasbasbag60
(g76
g62
NtRp1682
(dp1683
g65
(dp1684
sg74
g70
sg67
(lp1685
g60
(g81
g62
NtRp1686
(dp1687
g65
(dp1688
g85
g86
ssg74
g1682
sg67
(lp1689
S'post_vars'
p1690
asbag60
(g81
g62
NtRp1691
(dp1692
g65
(dp1693
g92
g93
ssg74
g1682
sg67
(lp1694
S':'
asbag60
(g81
g62
NtRp1695
(dp1696
g65
(dp1697
sg74
g1682
sg67
(lp1698
g60
(g61
g62
NtRp1699
(dp1700
g65
(dp1701
g73
I5
ssg74
g1695
sg67
(lp1702
g60
(g69
g62
NtRp1703
(dp1704
g65
(dp1705
g73
I4
ssg74
Nsg67
(lp1706
sbasbasbasbag60
(g76
g62
NtRp1707
(dp1708
g65
(dp1709
sg74
g70
sg67
(lp1710
g60
(g81
g62
NtRp1711
(dp1712
g65
(dp1713
g85
g86
ssg74
g1707
sg67
(lp1714
S'url'
p1715
asbag60
(g81
g62
NtRp1716
(dp1717
g65
(dp1718
g92
g93
ssg74
g1707
sg67
(lp1719
S':'
asbag60
(g81
g62
NtRp1720
(dp1721
g65
(dp1722
sg74
g1707
sg67
(lp1723
g60
(g61
g62
NtRp1724
(dp1725
g65
(dp1726
g73
I5
ssg74
g1720
sg67
(lp1727
S'/init/default/index'
p1728
asbasbasbag60
(g76
g62
NtRp1729
(dp1730
g65
(dp1731
sg74
g70
sg67
(lp1732
g60
(g81
g62
NtRp1733
(dp1734
g65
(dp1735
g85
g86
ssg74
g1729
sg67
(lp1736
S'utcnow'
p1737
asbag60
(g81
g62
NtRp1738
(dp1739
g65
(dp1740
g92
g93
ssg74
g1729
sg67
(lp1741
S':'
asbag60
(g81
g62
NtRp1742
(dp1743
g65
(dp1744
sg74
g1729
sg67
(lp1745
g60
(g61
g62
NtRp1746
(dp1747
g65
(dp1748
g73
I5
ssg74
g1742
sg67
(lp1749
S'datetime.datetime(2012, 3, 29, 13, 8, 4, 255000)'
p1750
asbasbasbag60
(g76
g62
NtRp1751
(dp1752
g65
(dp1753
sg74
g70
sg67
(lp1754
g60
(g81
g62
NtRp1755
(dp1756
g65
(dp1757
g85
g86
ssg74
g1751
sg67
(lp1758
S'uuid'
p1759
asbag60
(g81
g62
NtRp1760
(dp1761
g65
(dp1762
g92
g93
ssg74
g1751
sg67
(lp1763
S':'
asbag60
(g81
g62
NtRp1764
(dp1765
g65
(dp1766
sg74
g1751
sg67
(lp1767
g60
(g61
g62
NtRp1768
(dp1769
g65
(dp1770
g73
I5
ssg74
g1764
sg67
(lp1771
S'init/127.0.0.1.2012-03-29.15-08-04.8f81a93a-e10f-41c1-981f-3df073c70816'
p1772
asbasbasbag60
(g76
g62
NtRp1773
(dp1774
g65
(dp1775
sg74
g70
sg67
(lp1776
g60
(g81
g62
NtRp1777
(dp1778
g65
(dp1779
g85
g86
ssg74
g1773
sg67
(lp1780
S'vars'
p1781
asbag60
(g81
g62
NtRp1782
(dp1783
g65
(dp1784
g92
g93
ssg74
g1773
sg67
(lp1785
S':'
asbag60
(g81
g62
NtRp1786
(dp1787
g65
(dp1788
sg74
g1773
sg67
(lp1789
g60
(g61
g62
NtRp1790
(dp1791
g65
(dp1792
g73
I5
ssg74
g1786
sg67
(lp1793
g60
(g69
g62
NtRp1794
(dp1795
g65
(dp1796
g73
I4
ssg74
Nsg67
(lp1797
sbasbasbasbag60
(g76
g62
NtRp1798
(dp1799
g65
(dp1800
sg74
g70
sg67
(lp1801
g60
(g81
g62
NtRp1802
(dp1803
g65
(dp1804
g85
g86
ssg74
g1798
sg67
(lp1805
S'wsgi'
p1806
asbag60
(g81
g62
NtRp1807
(dp1808
g65
(dp1809
g92
g93
ssg74
g1798
sg67
(lp1810
S':'
asbag60
(g81
g62
NtRp1811
(dp1812
g65
(dp1813
sg74
g1798
sg67
(lp1814
g60
(g61
g62
NtRp1815
(dp1816
g65
(dp1817
g73
I5
ssg74
g1811
sg67
(lp1818
g60
(g69
g62
NtRp1819
(dp1820
g65
(dp1821
g73
I4
ssg74
Nsg67
(lp1822
g60
(g76
g62
NtRp1823
(dp1824
g65
(dp1825
sg74
g1819
sg67
(lp1826
g60
(g81
g62
NtRp1827
(dp1828
g65
(dp1829
g85
g86
ssg74
g1823
sg67
(lp1830
S'environ'
p1831
asbag60
(g81
g62
NtRp1832
(dp1833
g65
(dp1834
g92
g93
ssg74
g1823
sg67
(lp1835
S':'
asbag60
(g81
g62
NtRp1836
(dp1837
g65
(dp1838
sg74
g1823
sg67
(lp1839
g60
(g61
g62
NtRp1840
(dp1841
g65
(dp1842
g73
I4
ssg74
g1836
sg67
(lp1843
g60
(g69
g62
NtRp1844
(dp1845
g65
(dp1846
g73
I3
ssg74
Nsg67
(lp1847
g60
(g76
g62
NtRp1848
(dp1849
g65
(dp1850
sg74
g1844
sg67
(lp1851
g60
(g81
g62
NtRp1852
(dp1853
g65
(dp1854
g85
g86
ssg74
g1848
sg67
(lp1855
S'HTTP_ACCEPT'
p1856
asbag60
(g81
g62
NtRp1857
(dp1858
g65
(dp1859
g92
g93
ssg74
g1848
sg67
(lp1860
S':'
asbag60
(g81
g62
NtRp1861
(dp1862
g65
(dp1863
sg74
g1848
sg67
(lp1864
g60
(g61
g62
NtRp1865
(dp1866
g65
(dp1867
g73
I3
ssg74
g1861
sg67
(lp1868
g444
asbasbasbag60
(g76
g62
NtRp1869
(dp1870
g65
(dp1871
sg74
g1844
sg67
(lp1872
g60
(g81
g62
NtRp1873
(dp1874
g65
(dp1875
g85
g86
ssg74
g1869
sg67
(lp1876
S'HTTP_ACCEPT_CHARSET'
p1877
asbag60
(g81
g62
NtRp1878
(dp1879
g65
(dp1880
g92
g93
ssg74
g1869
sg67
(lp1881
S':'
asbag60
(g81
g62
NtRp1882
(dp1883
g65
(dp1884
sg74
g1869
sg67
(lp1885
g60
(g61
g62
NtRp1886
(dp1887
g65
(dp1888
g73
I3
ssg74
g1882
sg67
(lp1889
g466
asbasbasbag60
(g76
g62
NtRp1890
(dp1891
g65
(dp1892
sg74
g1844
sg67
(lp1893
g60
(g81
g62
NtRp1894
(dp1895
g65
(dp1896
g85
g86
ssg74
g1890
sg67
(lp1897
S'HTTP_ACCEPT_ENCODING'
p1898
asbag60
(g81
g62
NtRp1899
(dp1900
g65
(dp1901
g92
g93
ssg74
g1890
sg67
(lp1902
S':'
asbag60
(g81
g62
NtRp1903
(dp1904
g65
(dp1905
sg74
g1890
sg67
(lp1906
g60
(g61
g62
NtRp1907
(dp1908
g65
(dp1909
g73
I3
ssg74
g1903
sg67
(lp1910
g488
asbasbasbag60
(g76
g62
NtRp1911
(dp1912
g65
(dp1913
sg74
g1844
sg67
(lp1914
g60
(g81
g62
NtRp1915
(dp1916
g65
(dp1917
g85
g86
ssg74
g1911
sg67
(lp1918
S'HTTP_ACCEPT_LANGUAGE'
p1919
asbag60
(g81
g62
NtRp1920
(dp1921
g65
(dp1922
g92
g93
ssg74
g1911
sg67
(lp1923
S':'
asbag60
(g81
g62
NtRp1924
(dp1925
g65
(dp1926
sg74
g1911
sg67
(lp1927
g60
(g61
g62
NtRp1928
(dp1929
g65
(dp1930
g73
I3
ssg74
g1924
sg67
(lp1931
g510
asbasbasbag60
(g76
g62
NtRp1932
(dp1933
g65
(dp1934
sg74
g1844
sg67
(lp1935
g60
(g81
g62
NtRp1936
(dp1937
g65
(dp1938
g85
g86
ssg74
g1932
sg67
(lp1939
S'HTTP_CACHE_CONTROL'
p1940
asbag60
(g81
g62
NtRp1941
(dp1942
g65
(dp1943
g92
g93
ssg74
g1932
sg67
(lp1944
S':'
asbag60
(g81
g62
NtRp1945
(dp1946
g65
(dp1947
sg74
g1932
sg67
(lp1948
g60
(g61
g62
NtRp1949
(dp1950
g65
(dp1951
g73
I3
ssg74
g1945
sg67
(lp1952
g532
asbasbasbag60
(g76
g62
NtRp1953
(dp1954
g65
(dp1955
sg74
g1844
sg67
(lp1956
g60
(g81
g62
NtRp1957
(dp1958
g65
(dp1959
g85
g86
ssg74
g1953
sg67
(lp1960
S'HTTP_CONNECTION'
p1961
asbag60
(g81
g62
NtRp1962
(dp1963
g65
(dp1964
g92
g93
ssg74
g1953
sg67
(lp1965
S':'
asbag60
(g81
g62
NtRp1966
(dp1967
g65
(dp1968
sg74
g1953
sg67
(lp1969
g60
(g61
g62
NtRp1970
(dp1971
g65
(dp1972
g73
I3
ssg74
g1966
sg67
(lp1973
g554
asbasbasbag60
(g76
g62
NtRp1974
(dp1975
g65
(dp1976
sg74
g1844
sg67
(lp1977
g60
(g81
g62
NtRp1978
(dp1979
g65
(dp1980
g85
g86
ssg74
g1974
sg67
(lp1981
S'HTTP_HOST'
p1982
asbag60
(g81
g62
NtRp1983
(dp1984
g65
(dp1985
g92
g93
ssg74
g1974
sg67
(lp1986
S':'
asbag60
(g81
g62
NtRp1987
(dp1988
g65
(dp1989
sg74
g1974
sg67
(lp1990
g60
(g61
g62
NtRp1991
(dp1992
g65
(dp1993
g73
I3
ssg74
g1987
sg67
(lp1994
g576
asbasbasbag60
(g76
g62
NtRp1995
(dp1996
g65
(dp1997
sg74
g1844
sg67
(lp1998
g60
(g81
g62
NtRp1999
(dp2000
g65
(dp2001
g85
g86
ssg74
g1995
sg67
(lp2002
S'HTTP_USER_AGENT'
p2003
asbag60
(g81
g62
NtRp2004
(dp2005
g65
(dp2006
g92
g93
ssg74
g1995
sg67
(lp2007
S':'
asbag60
(g81
g62
NtRp2008
(dp2009
g65
(dp2010
sg74
g1995
sg67
(lp2011
g60
(g61
g62
NtRp2012
(dp2013
g65
(dp2014
g73
I3
ssg74
g2008
sg67
(lp2015
g598
asbasbasbag60
(g76
g62
NtRp2016
(dp2017
g65
(dp2018
sg74
g1844
sg67
(lp2019
g60
(g81
g62
NtRp2020
(dp2021
g65
(dp2022
g85
g86
ssg74
g2016
sg67
(lp2023
S'PATH_INFO'
p2024
asbag60
(g81
g62
NtRp2025
(dp2026
g65
(dp2027
g92
g93
ssg74
g2016
sg67
(lp2028
S':'
asbag60
(g81
g62
NtRp2029
(dp2030
g65
(dp2031
sg74
g2016
sg67
(lp2032
g60
(g61
g62
NtRp2033
(dp2034
g65
(dp2035
g73
I3
ssg74
g2029
sg67
(lp2036
S'/'
asbasbasbag60
(g76
g62
NtRp2037
(dp2038
g65
(dp2039
sg74
g1844
sg67
(lp2040
g60
(g81
g62
NtRp2041
(dp2042
g65
(dp2043
g85
g86
ssg74
g2037
sg67
(lp2044
S'QUERY_STRING'
p2045
asbag60
(g81
g62
NtRp2046
(dp2047
g65
(dp2048
g92
g93
ssg74
g2037
sg67
(lp2049
S':'
asbag60
(g81
g62
NtRp2050
(dp2051
g65
(dp2052
sg74
g2037
sg67
(lp2053
g60
(g61
g62
NtRp2054
(dp2055
g65
(dp2056
g73
I3
ssg74
g2050
sg67
(lp2057
S''
asbasbasbag60
(g76
g62
NtRp2058
(dp2059
g65
(dp2060
sg74
g1844
sg67
(lp2061
g60
(g81
g62
NtRp2062
(dp2063
g65
(dp2064
g85
g86
ssg74
g2058
sg67
(lp2065
S'REMOTE_ADDR'
p2066
asbag60
(g81
g62
NtRp2067
(dp2068
g65
(dp2069
g92
g93
ssg74
g2058
sg67
(lp2070
S':'
asbag60
(g81
g62
NtRp2071
(dp2072
g65
(dp2073
sg74
g2058
sg67
(lp2074
g60
(g61
g62
NtRp2075
(dp2076
g65
(dp2077
g73
I3
ssg74
g2071
sg67
(lp2078
g193
asbasbasbag60
(g76
g62
NtRp2079
(dp2080
g65
(dp2081
sg74
g1844
sg67
(lp2082
g60
(g81
g62
NtRp2083
(dp2084
g65
(dp2085
g85
g86
ssg74
g2079
sg67
(lp2086
S'REMOTE_PORT'
p2087
asbag60
(g81
g62
NtRp2088
(dp2089
g65
(dp2090
g92
g93
ssg74
g2079
sg67
(lp2091
S':'
asbag60
(g81
g62
NtRp2092
(dp2093
g65
(dp2094
sg74
g2079
sg67
(lp2095
g60
(g61
g62
NtRp2096
(dp2097
g65
(dp2098
g73
I3
ssg74
g2092
sg67
(lp2099
g725
asbasbasbag60
(g76
g62
NtRp2100
(dp2101
g65
(dp2102
sg74
g1844
sg67
(lp2103
g60
(g81
g62
NtRp2104
(dp2105
g65
(dp2106
g85
g86
ssg74
g2100
sg67
(lp2107
S'REQUEST_METHOD'
p2108
asbag60
(g81
g62
NtRp2109
(dp2110
g65
(dp2111
g92
g93
ssg74
g2100
sg67
(lp2112
S':'
asbag60
(g81
g62
NtRp2113
(dp2114
g65
(dp2115
sg74
g2100
sg67
(lp2116
g60
(g61
g62
NtRp2117
(dp2118
g65
(dp2119
g73
I3
ssg74
g2113
sg67
(lp2120
g747
asbasbasbag60
(g76
g62
NtRp2121
(dp2122
g65
(dp2123
sg74
g1844
sg67
(lp2124
g60
(g81
g62
NtRp2125
(dp2126
g65
(dp2127
g85
g86
ssg74
g2121
sg67
(lp2128
S'SCRIPT_NAME'
p2129
asbag60
(g81
g62
NtRp2130
(dp2131
g65
(dp2132
g92
g93
ssg74
g2121
sg67
(lp2133
S':'
asbag60
(g81
g62
NtRp2134
(dp2135
g65
(dp2136
sg74
g2121
sg67
(lp2137
g60
(g61
g62
NtRp2138
(dp2139
g65
(dp2140
g73
I3
ssg74
g2134
sg67
(lp2141
S''
asbasbasbag60
(g76
g62
NtRp2142
(dp2143
g65
(dp2144
sg74
g1844
sg67
(lp2145
g60
(g81
g62
NtRp2146
(dp2147
g65
(dp2148
g85
g86
ssg74
g2142
sg67
(lp2149
S'SERVER_NAME'
p2150
asbag60
(g81
g62
NtRp2151
(dp2152
g65
(dp2153
g92
g93
ssg74
g2142
sg67
(lp2154
S':'
asbag60
(g81
g62
NtRp2155
(dp2156
g65
(dp2157
sg74
g2142
sg67
(lp2158
g60
(g61
g62
NtRp2159
(dp2160
g65
(dp2161
g73
I3
ssg74
g2155
sg67
(lp2162
g790
asbasbasbag60
(g76
g62
NtRp2163
(dp2164
g65
(dp2165
sg74
g1844
sg67
(lp2166
g60
(g81
g62
NtRp2167
(dp2168
g65
(dp2169
g85
g86
ssg74
g2163
sg67
(lp2170
S'SERVER_PORT'
p2171
asbag60
(g81
g62
NtRp2172
(dp2173
g65
(dp2174
g92
g93
ssg74
g2163
sg67
(lp2175
S':'
asbag60
(g81
g62
NtRp2176
(dp2177
g65
(dp2178
sg74
g2163
sg67
(lp2179
g60
(g61
g62
NtRp2180
(dp2181
g65
(dp2182
g73
I3
ssg74
g2176
sg67
(lp2183
g812
asbasbasbag60
(g76
g62
NtRp2184
(dp2185
g65
(dp2186
sg74
g1844
sg67
(lp2187
g60
(g81
g62
NtRp2188
(dp2189
g65
(dp2190
g85
g86
ssg74
g2184
sg67
(lp2191
S'SERVER_PROTOCOL'
p2192
asbag60
(g81
g62
NtRp2193
(dp2194
g65
(dp2195
g92
g93
ssg74
g2184
sg67
(lp2196
S':'
asbag60
(g81
g62
NtRp2197
(dp2198
g65
(dp2199
sg74
g2184
sg67
(lp2200
g60
(g61
g62
NtRp2201
(dp2202
g65
(dp2203
g73
I3
ssg74
g2197
sg67
(lp2204
g834
asbasbasbag60
(g76
g62
NtRp2205
(dp2206
g65
(dp2207
sg74
g1844
sg67
(lp2208
g60
(g81
g62
NtRp2209
(dp2210
g65
(dp2211
g85
g86
ssg74
g2205
sg67
(lp2212
S'SERVER_SOFTWARE'
p2213
asbag60
(g81
g62
NtRp2214
(dp2215
g65
(dp2216
g92
g93
ssg74
g2205
sg67
(lp2217
S':'
asbag60
(g81
g62
NtRp2218
(dp2219
g65
(dp2220
sg74
g2205
sg67
(lp2221
g60
(g61
g62
NtRp2222
(dp2223
g65
(dp2224
g73
I3
ssg74
g2218
sg67
(lp2225
g856
asbasbasbag60
(g76
g62
NtRp2226
(dp2227
g65
(dp2228
sg74
g1844
sg67
(lp2229
g60
(g81
g62
NtRp2230
(dp2231
g65
(dp2232
g85
g86
ssg74
g2226
sg67
(lp2233
S'wsgi.errors'
p2234
asbag60
(g81
g62
NtRp2235
(dp2236
g65
(dp2237
g92
g93
ssg74
g2226
sg67
(lp2238
S':'
asbag60
(g81
g62
NtRp2239
(dp2240
g65
(dp2241
sg74
g2226
sg67
(lp2242
g60
(g61
g62
NtRp2243
(dp2244
g65
(dp2245
g73
I3
ssg74
g2239
sg67
(lp2246
S"<open file '<stderr>', mode 'w' at 0x004300B0>"
p2247
asbasbasbag60
(g76
g62
NtRp2248
(dp2249
g65
(dp2250
sg74
g1844
sg67
(lp2251
g60
(g81
g62
NtRp2252
(dp2253
g65
(dp2254
g85
g86
ssg74
g2248
sg67
(lp2255
S'wsgi.file_wrapper'
p2256
asbag60
(g81
g62
NtRp2257
(dp2258
g65
(dp2259
g92
g93
ssg74
g2248
sg67
(lp2260
S':'
asbag60
(g81
g62
NtRp2261
(dp2262
g65
(dp2263
sg74
g2248
sg67
(lp2264
g60
(g61
g62
NtRp2265
(dp2266
g65
(dp2267
g73
I3
ssg74
g2261
sg67
(lp2268
S'<class wsgiref.util.FileWrapper at 0x02C44900>'
p2269
asbasbasbag60
(g76
g62
NtRp2270
(dp2271
g65
(dp2272
sg74
g1844
sg67
(lp2273
g60
(g81
g62
NtRp2274
(dp2275
g65
(dp2276
g85
g86
ssg74
g2270
sg67
(lp2277
S'wsgi.input'
p2278
asbag60
(g81
g62
NtRp2279
(dp2280
g65
(dp2281
g92
g93
ssg74
g2270
sg67
(lp2282
S':'
asbag60
(g81
g62
NtRp2283
(dp2284
g65
(dp2285
sg74
g2270
sg67
(lp2286
g60
(g61
g62
NtRp2287
(dp2288
g65
(dp2289
g73
I3
ssg74
g2283
sg67
(lp2290
S'<cStringIO.StringO object at 0x0426B5C0>'
p2291
asbasbasbag60
(g76
g62
NtRp2292
(dp2293
g65
(dp2294
sg74
g1844
sg67
(lp2295
g60
(g81
g62
NtRp2296
(dp2297
g65
(dp2298
g85
g86
ssg74
g2292
sg67
(lp2299
S'wsgi.multiprocess'
p2300
asbag60
(g81
g62
NtRp2301
(dp2302
g65
(dp2303
g92
g93
ssg74
g2292
sg67
(lp2304
S':'
asbag60
(g81
g62
NtRp2305
(dp2306
g65
(dp2307
sg74
g2292
sg67
(lp2308
g60
(g61
g62
NtRp2309
(dp2310
g65
(dp2311
g73
I3
ssg74
g2305
sg67
(lp2312
g103
asbasbasbag60
(g76
g62
NtRp2313
(dp2314
g65
(dp2315
sg74
g1844
sg67
(lp2316
g60
(g81
g62
NtRp2317
(dp2318
g65
(dp2319
g85
g86
ssg74
g2313
sg67
(lp2320
S'wsgi.multithread'
p2321
asbag60
(g81
g62
NtRp2322
(dp2323
g65
(dp2324
g92
g93
ssg74
g2313
sg67
(lp2325
S':'
asbag60
(g81
g62
NtRp2326
(dp2327
g65
(dp2328
sg74
g2313
sg67
(lp2329
g60
(g61
g62
NtRp2330
(dp2331
g65
(dp2332
g73
I3
ssg74
g2326
sg67
(lp2333
g400
asbasbasbag60
(g76
g62
NtRp2334
(dp2335
g65
(dp2336
sg74
g1844
sg67
(lp2337
g60
(g81
g62
NtRp2338
(dp2339
g65
(dp2340
g85
g86
ssg74
g2334
sg67
(lp2341
S'wsgi.run_once'
p2342
asbag60
(g81
g62
NtRp2343
(dp2344
g65
(dp2345
g92
g93
ssg74
g2334
sg67
(lp2346
S':'
asbag60
(g81
g62
NtRp2347
(dp2348
g65
(dp2349
sg74
g2334
sg67
(lp2350
g60
(g61
g62
NtRp2351
(dp2352
g65
(dp2353
g73
I3
ssg74
g2347
sg67
(lp2354
g103
asbasbasbag60
(g76
g62
NtRp2355
(dp2356
g65
(dp2357
sg74
g1844
sg67
(lp2358
g60
(g81
g62
NtRp2359
(dp2360
g65
(dp2361
g85
g86
ssg74
g2355
sg67
(lp2362
S'wsgi.url_scheme'
p2363
asbag60
(g81
g62
NtRp2364
(dp2365
g65
(dp2366
g92
g93
ssg74
g2355
sg67
(lp2367
S':'
asbag60
(g81
g62
NtRp2368
(dp2369
g65
(dp2370
sg74
g2355
sg67
(lp2371
g60
(g61
g62
NtRp2372
(dp2373
g65
(dp2374
g73
I3
ssg74
g2368
sg67
(lp2375
g1138
asbasbasbag60
(g76
g62
NtRp2376
(dp2377
g65
(dp2378
sg74
g1844
sg67
(lp2379
g60
(g81
g62
NtRp2380
(dp2381
g65
(dp2382
g85
g86
ssg74
g2376
sg67
(lp2383
S'wsgi.version'
p2384
asbag60
(g81
g62
NtRp2385
(dp2386
g65
(dp2387
g92
g93
ssg74
g2376
sg67
(lp2388
S':'
asbag60
(g81
g62
NtRp2389
(dp2390
g65
(dp2391
sg74
g2376
sg67
(lp2392
g60
(g61
g62
NtRp2393
(dp2394
g65
(dp2395
g73
I3
ssg74
g2389
sg67
(lp2396
S'1'
asbasbasbasbasbasbasbasbasbasbasbasbasbsS'frames'
p2397
(lp2398
(dp2399
S'file'
p2400
S'C:\\Users\\Bussiere\\Dropbox\\Projets\\jackpoint\\web2py\\gluon\\restricted.py'
p2401
sS'dump'
p2402
(dp2403
sS'lnum'
p2404
I204
sS'lines'
p2405
(dp2406
I199
S"    environment['__name__'] = '__restricted__'"
p2407
sI200
S'    try:'
p2408
sI201
S'        if type(code) == types.CodeType:'
p2409
sI202
S'            ccode = code'
p2410
sI203
S'        else:'
p2411
sI204
S'            ccode = compile2(code,layer)'
p2412
sI205
S'        exec ccode in environment'
p2413
sI206
S'    except HTTP:'
p2414
sI207
S'        raise'
p2415
sI208
S'    except RestrictedError:'
p2416
ssS'call'
p2417
S"(code='\\xef\\xbb\\xbf# -*- coding: utf-8 -*-\\n# this file is releas...=crud())\\n\\nresponse._vars=response._caller(index)\\n', environment={'A': <class 'gluon.html.A'>, 'Auth': <class 'gluon.tools.Auth'>, 'AutocompleteWidget': <class 'gluon.sqlhtml.AutocompleteWidget'>, 'B': <class 'gluon.html.B'>, 'BEAUTIFY': <class 'gluon.html.BEAUTIFY'>, 'BODY': <class 'gluon.html.BODY'>, 'BR': <class 'gluon.html.BR'>, 'BUTTON': <class 'gluon.html.BUTTON'>, 'BooleanWidget': <class 'gluon.sqlhtml.BooleanWidget'>, 'CALLABLETYPES': (<type 'function'>, <type 'function'>, <type 'builtin_function_or_method'>, <type 'instancemethod'>, <type 'builtin_function_or_method'>), ...}, layer=r'C:\\Users\\Bussiere\\Dropbox\\Projets\\jackpoint\\web2py\\applications\\init\\controllers/default.py')"
p2418
sS'func'
p2419
S'restricted'
p2420
sa(dp2421
g2400
S'C:\\Users\\Bussiere\\Dropbox\\Projets\\jackpoint\\web2py\\gluon\\restricted.py'
p2422
sg2402
(dp2423
sg2404
I189
sg2405
(dp2424
I192
S'    """'
p2425
sI193
S'    runs code in environment and returns the output. if an exception occurs'
p2426
sI184
S''
sI185
S'def compile2(code,layer):'
p2427
sI186
S'    """'
p2428
sI187
S"    The +'\\n' is necessary else compile fails when code ends in a comment."
p2429
sI188
S'    """'
p2430
sI189
S"    return compile(code.rstrip().replace('\\r\\n','\\n')+'\\n', layer, 'exec')"
p2431
sI190
S''
sI191
S"def restricted(code, environment=None, layer='Unknown'):"
p2432
ssg2417
S"(code='\\xef\\xbb\\xbf# -*- coding: utf-8 -*-\\n# this file is releas...=crud())\\n\\nresponse._vars=response._caller(index)\\n', layer=r'C:\\Users\\Bussiere\\Dropbox\\Projets\\jackpoint\\web2py\\applications\\init\\controllers/default.py')"
p2433
sg2419
S'compile2'
p2434
sasS'pyver'
p2435
S'Python 2.5.4: C:\\Users\\Bussiere\\Dropbox\\Projets\\jackpoint\\web2py\\web2py.exe'
p2436
sS'session'
p2437
g60
(g61
g62
NtRp2438
(dp2439
g65
(dp2440
sg67
(lp2441
g60
(g69
g62
NtRp2442
(dp2443
g65
(dp2444
g73
I5
ssg74
Nsg67
(lp2445
sbasbsS'etype'
p2446
S"<type 'exceptions.SyntaxError'>"
p2447
sS'date'
p2448
S'Thu Mar 29 15:08:04 2012'
p2449
sS'response'
p2450
g60
(g61
g62
NtRp2451
(dp2452
g65
(dp2453
sg67
(lp2454
g60
(g69
g62
NtRp2455
(dp2456
g65
(dp2457
g73
I5
ssg74
Nsg67
(lp2458
g60
(g76
g62
NtRp2459
(dp2460
g65
(dp2461
sg74
g2455
sg67
(lp2462
g60
(g81
g62
NtRp2463
(dp2464
g65
(dp2465
g85
g86
ssg74
g2459
sg67
(lp2466
g158
asbag60
(g81
g62
NtRp2467
(dp2468
g65
(dp2469
g92
g93
ssg74
g2459
sg67
(lp2470
S':'
asbag60
(g81
g62
NtRp2471
(dp2472
g65
(dp2473
sg74
g2459
sg67
(lp2474
g60
(g61
g62
NtRp2475
(dp2476
g65
(dp2477
g73
I5
ssg74
g2471
sg67
(lp2478
S'<cStringIO.StringO object at 0x03E25DC0>'
p2479
asbasbasbag60
(g76
g62
NtRp2480
(dp2481
g65
(dp2482
sg74
g2455
sg67
(lp2483
g60
(g81
g62
NtRp2484
(dp2485
g65
(dp2486
g85
g86
ssg74
g2480
sg67
(lp2487
g224
asbag60
(g81
g62
NtRp2488
(dp2489
g65
(dp2490
g92
g93
ssg74
g2480
sg67
(lp2491
S':'
asbag60
(g81
g62
NtRp2492
(dp2493
g65
(dp2494
sg74
g2480
sg67
(lp2495
g60
(g61
g62
NtRp2496
(dp2497
g65
(dp2498
g73
I5
ssg74
g2492
sg67
(lp2499
g60
(g69
g62
NtRp2500
(dp2501
g65
(dp2502
g73
I4
ssg74
Nsg67
(lp2503
g60
(g76
g62
NtRp2504
(dp2505
g65
(dp2506
sg74
g2500
sg67
(lp2507
g60
(g81
g62
NtRp2508
(dp2509
g65
(dp2510
g85
g86
ssg74
g2504
sg67
(lp2511
S'session_id_init'
p2512
asbag60
(g81
g62
NtRp2513
(dp2514
g65
(dp2515
g92
g93
ssg74
g2504
sg67
(lp2516
S':'
asbag60
(g81
g62
NtRp2517
(dp2518
g65
(dp2519
sg74
g2504
sg67
(lp2520
g60
(g61
g62
NtRp2521
(dp2522
g65
(dp2523
g73
I4
ssg74
g2517
sg67
(lp2524
g60
(g69
g62
NtRp2525
(dp2526
g65
(dp2527
g73
I3
ssg74
Nsg67
(lp2528
g60
(g76
g62
NtRp2529
(dp2530
g65
(dp2531
sg74
g2525
sg67
(lp2532
g60
(g81
g62
NtRp2533
(dp2534
g65
(dp2535
g85
g86
ssg74
g2529
sg67
(lp2536
S'comment'
p2537
asbag60
(g81
g62
NtRp2538
(dp2539
g65
(dp2540
g92
g93
ssg74
g2529
sg67
(lp2541
S':'
asbag60
(g81
g62
NtRp2542
(dp2543
g65
(dp2544
sg74
g2529
sg67
(lp2545
g60
(g61
g62
NtRp2546
(dp2547
g65
(dp2548
g73
I3
ssg74
g2542
sg67
(lp2549
S''
asbasbasbag60
(g76
g62
NtRp2550
(dp2551
g65
(dp2552
sg74
g2525
sg67
(lp2553
g60
(g81
g62
NtRp2554
(dp2555
g65
(dp2556
g85
g86
ssg74
g2550
sg67
(lp2557
S'domain'
p2558
asbag60
(g81
g62
NtRp2559
(dp2560
g65
(dp2561
g92
g93
ssg74
g2550
sg67
(lp2562
S':'
asbag60
(g81
g62
NtRp2563
(dp2564
g65
(dp2565
sg74
g2550
sg67
(lp2566
g60
(g61
g62
NtRp2567
(dp2568
g65
(dp2569
g73
I3
ssg74
g2563
sg67
(lp2570
S''
asbasbasbag60
(g76
g62
NtRp2571
(dp2572
g65
(dp2573
sg74
g2525
sg67
(lp2574
g60
(g81
g62
NtRp2575
(dp2576
g65
(dp2577
g85
g86
ssg74
g2571
sg67
(lp2578
S'expires'
p2579
asbag60
(g81
g62
NtRp2580
(dp2581
g65
(dp2582
g92
g93
ssg74
g2571
sg67
(lp2583
S':'
asbag60
(g81
g62
NtRp2584
(dp2585
g65
(dp2586
sg74
g2571
sg67
(lp2587
g60
(g61
g62
NtRp2588
(dp2589
g65
(dp2590
g73
I3
ssg74
g2584
sg67
(lp2591
S''
asbasbasbag60
(g76
g62
NtRp2592
(dp2593
g65
(dp2594
sg74
g2525
sg67
(lp2595
g60
(g81
g62
NtRp2596
(dp2597
g65
(dp2598
g85
g86
ssg74
g2592
sg67
(lp2599
S'max-age'
p2600
asbag60
(g81
g62
NtRp2601
(dp2602
g65
(dp2603
g92
g93
ssg74
g2592
sg67
(lp2604
S':'
asbag60
(g81
g62
NtRp2605
(dp2606
g65
(dp2607
sg74
g2592
sg67
(lp2608
g60
(g61
g62
NtRp2609
(dp2610
g65
(dp2611
g73
I3
ssg74
g2605
sg67
(lp2612
S''
asbasbasbag60
(g76
g62
NtRp2613
(dp2614
g65
(dp2615
sg74
g2525
sg67
(lp2616
g60
(g81
g62
NtRp2617
(dp2618
g65
(dp2619
g85
g86
ssg74
g2613
sg67
(lp2620
S'path'
p2621
asbag60
(g81
g62
NtRp2622
(dp2623
g65
(dp2624
g92
g93
ssg74
g2613
sg67
(lp2625
S':'
asbag60
(g81
g62
NtRp2626
(dp2627
g65
(dp2628
sg74
g2613
sg67
(lp2629
g60
(g61
g62
NtRp2630
(dp2631
g65
(dp2632
g73
I3
ssg74
g2626
sg67
(lp2633
S'/'
asbasbasbag60
(g76
g62
NtRp2634
(dp2635
g65
(dp2636
sg74
g2525
sg67
(lp2637
g60
(g81
g62
NtRp2638
(dp2639
g65
(dp2640
g85
g86
ssg74
g2634
sg67
(lp2641
S'secure'
p2642
asbag60
(g81
g62
NtRp2643
(dp2644
g65
(dp2645
g92
g93
ssg74
g2634
sg67
(lp2646
S':'
asbag60
(g81
g62
NtRp2647
(dp2648
g65
(dp2649
sg74
g2634
sg67
(lp2650
g60
(g61
g62
NtRp2651
(dp2652
g65
(dp2653
g73
I3
ssg74
g2647
sg67
(lp2654
S''
asbasbasbag60
(g76
g62
NtRp2655
(dp2656
g65
(dp2657
sg74
g2525
sg67
(lp2658
g60
(g81
g62
NtRp2659
(dp2660
g65
(dp2661
g85
g86
ssg74
g2655
sg67
(lp2662
S'version'
p2663
asbag60
(g81
g62
NtRp2664
(dp2665
g65
(dp2666
g92
g93
ssg74
g2655
sg67
(lp2667
S':'
asbag60
(g81
g62
NtRp2668
(dp2669
g65
(dp2670
sg74
g2655
sg67
(lp2671
g60
(g61
g62
NtRp2672
(dp2673
g65
(dp2674
g73
I3
ssg74
g2668
sg67
(lp2675
S''
asbasbasbasbasbasbasbasbasbasbasbag60
(g76
g62
NtRp2676
(dp2677
g65
(dp2678
sg74
g2455
sg67
(lp2679
g60
(g81
g62
NtRp2680
(dp2681
g65
(dp2682
g85
g86
ssg74
g2676
sg67
(lp2683
S'delimiters'
p2684
asbag60
(g81
g62
NtRp2685
(dp2686
g65
(dp2687
g92
g93
ssg74
g2676
sg67
(lp2688
S':'
asbag60
(g81
g62
NtRp2689
(dp2690
g65
(dp2691
sg74
g2676
sg67
(lp2692
g60
(g61
g62
NtRp2693
(dp2694
g65
(dp2695
g73
I5
ssg74
g2689
sg67
(lp2696
g60
(g69
g62
NtRp2697
(dp2698
g65
(dp2699
g73
I4
ssg74
Nsg67
(lp2700
g60
(g76
g62
NtRp2701
(dp2702
g65
(dp2703
sg74
g2697
sg67
(lp2704
g60
(g81
g62
NtRp2705
(dp2706
g65
(dp2707
sg74
g2701
sg67
(lp2708
g60
(g61
g62
NtRp2709
(dp2710
g65
(dp2711
g73
I4
ssg74
g2705
sg67
(lp2712
S'{{'
p2713
asbasbasbag60
(g76
g62
NtRp2714
(dp2715
g65
(dp2716
sg74
g2697
sg67
(lp2717
g60
(g81
g62
NtRp2718
(dp2719
g65
(dp2720
sg74
g2714
sg67
(lp2721
g60
(g61
g62
NtRp2722
(dp2723
g65
(dp2724
g73
I4
ssg74
g2718
sg67
(lp2725
S'}}'
p2726
asbasbasbasbasbasbasbag60
(g76
g62
NtRp2727
(dp2728
g65
(dp2729
sg74
g2455
sg67
(lp2730
g60
(g81
g62
NtRp2731
(dp2732
g65
(dp2733
g85
g86
ssg74
g2727
sg67
(lp2734
S'files'
p2735
asbag60
(g81
g62
NtRp2736
(dp2737
g65
(dp2738
g92
g93
ssg74
g2727
sg67
(lp2739
S':'
asbag60
(g81
g62
NtRp2740
(dp2741
g65
(dp2742
sg74
g2727
sg67
(lp2743
g60
(g61
g62
NtRp2744
(dp2745
g65
(dp2746
g73
I5
ssg74
g2740
sg67
(lp2747
g60
(g69
g62
NtRp2748
(dp2749
g65
(dp2750
g73
I4
ssg74
Nsg67
(lp2751
sbasbasbasbag60
(g76
g62
NtRp2752
(dp2753
g65
(dp2754
sg74
g2455
sg67
(lp2755
g60
(g81
g62
NtRp2756
(dp2757
g65
(dp2758
g85
g86
ssg74
g2752
sg67
(lp2759
S'flash'
p2760
asbag60
(g81
g62
NtRp2761
(dp2762
g65
(dp2763
g92
g93
ssg74
g2752
sg67
(lp2764
S':'
asbag60
(g81
g62
NtRp2765
(dp2766
g65
(dp2767
sg74
g2752
sg67
(lp2768
g60
(g61
g62
NtRp2769
(dp2770
g65
(dp2771
g73
I5
ssg74
g2765
sg67
(lp2772
S''
asbasbasbag60
(g76
g62
NtRp2773
(dp2774
g65
(dp2775
sg74
g2455
sg67
(lp2776
g60
(g81
g62
NtRp2777
(dp2778
g65
(dp2779
g85
g86
ssg74
g2773
sg67
(lp2780
S'generic_patterns'
p2781
asbag60
(g81
g62
NtRp2782
(dp2783
g65
(dp2784
g92
g93
ssg74
g2773
sg67
(lp2785
S':'
asbag60
(g81
g62
NtRp2786
(dp2787
g65
(dp2788
sg74
g2773
sg67
(lp2789
g60
(g61
g62
NtRp2790
(dp2791
g65
(dp2792
g73
I5
ssg74
g2786
sg67
(lp2793
g60
(g69
g62
NtRp2794
(dp2795
g65
(dp2796
g73
I4
ssg74
Nsg67
(lp2797
g60
(g76
g62
NtRp2798
(dp2799
g65
(dp2800
sg74
g2794
sg67
(lp2801
g60
(g81
g62
NtRp2802
(dp2803
g65
(dp2804
sg74
g2798
sg67
(lp2805
g60
(g61
g62
NtRp2806
(dp2807
g65
(dp2808
g73
I4
ssg74
g2802
sg67
(lp2809
S'*'
asbasbasbasbasbasbasbag60
(g76
g62
NtRp2810
(dp2811
g65
(dp2812
sg74
g2455
sg67
(lp2813
g60
(g81
g62
NtRp2814
(dp2815
g65
(dp2816
g85
g86
ssg74
g2810
sg67
(lp2817
S'headers'
p2818
asbag60
(g81
g62
NtRp2819
(dp2820
g65
(dp2821
g92
g93
ssg74
g2810
sg67
(lp2822
S':'
asbag60
(g81
g62
NtRp2823
(dp2824
g65
(dp2825
sg74
g2810
sg67
(lp2826
g60
(g61
g62
NtRp2827
(dp2828
g65
(dp2829
g73
I5
ssg74
g2823
sg67
(lp2830
g60
(g69
g62
NtRp2831
(dp2832
g65
(dp2833
g73
I4
ssg74
Nsg67
(lp2834
g60
(g76
g62
NtRp2835
(dp2836
g65
(dp2837
sg74
g2831
sg67
(lp2838
g60
(g81
g62
NtRp2839
(dp2840
g65
(dp2841
g85
g86
ssg74
g2835
sg67
(lp2842
S'Cache-Control'
p2843
asbag60
(g81
g62
NtRp2844
(dp2845
g65
(dp2846
g92
g93
ssg74
g2835
sg67
(lp2847
S':'
asbag60
(g81
g62
NtRp2848
(dp2849
g65
(dp2850
sg74
g2835
sg67
(lp2851
g60
(g61
g62
NtRp2852
(dp2853
g65
(dp2854
g73
I4
ssg74
g2848
sg67
(lp2855
S'no-store, no-cache, must-revalidate, post-check=0, pre-check=0'
p2856
asbasbasbag60
(g76
g62
NtRp2857
(dp2858
g65
(dp2859
sg74
g2831
sg67
(lp2860
g60
(g81
g62
NtRp2861
(dp2862
g65
(dp2863
g85
g86
ssg74
g2857
sg67
(lp2864
S'Content-Type'
p2865
asbag60
(g81
g62
NtRp2866
(dp2867
g65
(dp2868
g92
g93
ssg74
g2857
sg67
(lp2869
S':'
asbag60
(g81
g62
NtRp2870
(dp2871
g65
(dp2872
sg74
g2857
sg67
(lp2873
g60
(g61
g62
NtRp2874
(dp2875
g65
(dp2876
g73
I4
ssg74
g2870
sg67
(lp2877
S'text/html; charset=utf-8'
p2878
asbasbasbag60
(g76
g62
NtRp2879
(dp2880
g65
(dp2881
sg74
g2831
sg67
(lp2882
g60
(g81
g62
NtRp2883
(dp2884
g65
(dp2885
g85
g86
ssg74
g2879
sg67
(lp2886
S'Expires'
p2887
asbag60
(g81
g62
NtRp2888
(dp2889
g65
(dp2890
g92
g93
ssg74
g2879
sg67
(lp2891
S':'
asbag60
(g81
g62
NtRp2892
(dp2893
g65
(dp2894
sg74
g2879
sg67
(lp2895
g60
(g61
g62
NtRp2896
(dp2897
g65
(dp2898
g73
I4
ssg74
g2892
sg67
(lp2899
S'Thu, 29 Mar 2012 13:08:04 GMT'
p2900
asbasbasbag60
(g76
g62
NtRp2901
(dp2902
g65
(dp2903
sg74
g2831
sg67
(lp2904
g60
(g81
g62
NtRp2905
(dp2906
g65
(dp2907
g85
g86
ssg74
g2901
sg67
(lp2908
S'Pragma'
p2909
asbag60
(g81
g62
NtRp2910
(dp2911
g65
(dp2912
g92
g93
ssg74
g2901
sg67
(lp2913
S':'
asbag60
(g81
g62
NtRp2914
(dp2915
g65
(dp2916
sg74
g2901
sg67
(lp2917
g60
(g61
g62
NtRp2918
(dp2919
g65
(dp2920
g73
I4
ssg74
g2914
sg67
(lp2921
S'no-cache'
p2922
asbasbasbag60
(g76
g62
NtRp2923
(dp2924
g65
(dp2925
sg74
g2831
sg67
(lp2926
g60
(g81
g62
NtRp2927
(dp2928
g65
(dp2929
g85
g86
ssg74
g2923
sg67
(lp2930
S'X-Powered-By'
p2931
asbag60
(g81
g62
NtRp2932
(dp2933
g65
(dp2934
g92
g93
ssg74
g2923
sg67
(lp2935
S':'
asbag60
(g81
g62
NtRp2936
(dp2937
g65
(dp2938
sg74
g2923
sg67
(lp2939
g60
(g61
g62
NtRp2940
(dp2941
g65
(dp2942
g73
I4
ssg74
g2936
sg67
(lp2943
S'web2py'
p2944
asbasbasbasbasbasbasbag60
(g76
g62
NtRp2945
(dp2946
g65
(dp2947
sg74
g2455
sg67
(lp2948
g60
(g81
g62
NtRp2949
(dp2950
g65
(dp2951
g85
g86
ssg74
g2945
sg67
(lp2952
S'menu'
p2953
asbag60
(g81
g62
NtRp2954
(dp2955
g65
(dp2956
g92
g93
ssg74
g2945
sg67
(lp2957
S':'
asbag60
(g81
g62
NtRp2958
(dp2959
g65
(dp2960
sg74
g2945
sg67
(lp2961
g60
(g61
g62
NtRp2962
(dp2963
g65
(dp2964
g73
I5
ssg74
g2958
sg67
(lp2965
g60
(g69
g62
NtRp2966
(dp2967
g65
(dp2968
g73
I4
ssg74
Nsg67
(lp2969
g60
(g76
g62
NtRp2970
(dp2971
g65
(dp2972
sg74
g2966
sg67
(lp2973
g60
(g81
g62
NtRp2974
(dp2975
g65
(dp2976
sg74
g2970
sg67
(lp2977
g60
(g61
g62
NtRp2978
(dp2979
g65
(dp2980
g73
I4
ssg74
g2974
sg67
(lp2981
g60
(g69
g62
NtRp2982
(dp2983
g65
(dp2984
g73
I3
ssg74
Nsg67
(lp2985
g60
(g76
g62
NtRp2986
(dp2987
g65
(dp2988
sg74
g2982
sg67
(lp2989
g60
(g81
g62
NtRp2990
(dp2991
g65
(dp2992
sg74
g2986
sg67
(lp2993
g60
(g61
g62
NtRp2994
(dp2995
g65
(dp2996
g73
I3
ssg74
g2990
sg67
(lp2997
cgluon.languages
lazyT_unpickle
p2998
(S't\x07\x00\x00\x00Accueil'
tRp2999
asbasbasbag60
(g76
g62
NtRp3000
(dp3001
g65
(dp3002
sg74
g2982
sg67
(lp3003
g60
(g81
g62
NtRp3004
(dp3005
g65
(dp3006
sg74
g3000
sg67
(lp3007
g60
(g61
g62
NtRp3008
(dp3009
g65
(dp3010
g73
I3
ssg74
g3004
sg67
(lp3011
g103
asbasbasbag60
(g76
g62
NtRp3012
(dp3013
g65
(dp3014
sg74
g2982
sg67
(lp3015
g60
(g81
g62
NtRp3016
(dp3017
g65
(dp3018
sg74
g3012
sg67
(lp3019
g60
(g61
g62
NtRp3020
(dp3021
g65
(dp3022
g73
I3
ssg74
g3016
sg67
(lp3023
S'/init/default/index'
p3024
asbasbasbag60
(g76
g62
NtRp3025
(dp3026
g65
(dp3027
sg74
g2982
sg67
(lp3028
g60
(g81
g62
NtRp3029
(dp3030
g65
(dp3031
sg74
g3025
sg67
(lp3032
g60
(g61
g62
NtRp3033
(dp3034
g65
(dp3035
g73
I3
ssg74
g3029
sg67
(lp3036
g60
(g69
g62
NtRp3037
(dp3038
g65
(dp3039
g73
I2
ssg74
Nsg67
(lp3040
sbasbasbasbasbasbasbasbag60
(g76
g62
NtRp3041
(dp3042
g65
(dp3043
sg74
g2966
sg67
(lp3044
g60
(g81
g62
NtRp3045
(dp3046
g65
(dp3047
sg74
g3041
sg67
(lp3048
g60
(g61
g62
NtRp3049
(dp3050
g65
(dp3051
g73
I4
ssg74
g3045
sg67
(lp3052
g60
(g69
g62
NtRp3053
(dp3054
g65
(dp3055
g73
I3
ssg74
Nsg67
(lp3056
g60
(g76
g62
NtRp3057
(dp3058
g65
(dp3059
sg74
g3053
sg67
(lp3060
g60
(g81
g62
NtRp3061
(dp3062
g65
(dp3063
sg74
g3057
sg67
(lp3064
g60
(g61
g62
NtRp3065
(dp3066
g65
(dp3067
g73
I3
ssg74
g3061
sg67
(lp3068
g60
(cgluon.html
SPAN
p3069
g62
NtRp3070
(dp3071
g65
(dp3072
g85
S'color:yellow'
p3073
ssg74
Nsg67
(lp3074
g2944
asbasbasbasbag60
(g76
g62
NtRp3075
(dp3076
g65
(dp3077
sg74
g3053
sg67
(lp3078
g60
(g81
g62
NtRp3079
(dp3080
g65
(dp3081
sg74
g3075
sg67
(lp3082
g60
(g61
g62
NtRp3083
(dp3084
g65
(dp3085
g73
I3
ssg74
g3079
sg67
(lp3086
g103
asbasbasbag60
(g76
g62
NtRp3087
(dp3088
g65
(dp3089
sg74
g3053
sg67
(lp3090
g60
(g81
g62
NtRp3091
(dp3092
g65
(dp3093
sg74
g3087
sg67
(lp3094
g60
(g61
g62
NtRp3095
(dp3096
g65
(dp3097
g73
I3
ssg74
g3091
sg67
(lp3098
S'None'
p3099
asbasbasbag60
(g76
g62
NtRp3100
(dp3101
g65
(dp3102
sg74
g3053
sg67
(lp3103
g60
(g81
g62
NtRp3104
(dp3105
g65
(dp3106
sg74
g3100
sg67
(lp3107
g60
(g61
g62
NtRp3108
(dp3109
g65
(dp3110
g73
I3
ssg74
g3104
sg67
(lp3111
g60
(g69
g62
NtRp3112
(dp3113
g65
(dp3114
g73
I2
ssg74
Nsg67
(lp3115
g60
(g76
g62
NtRp3116
(dp3117
g65
(dp3118
sg74
g3112
sg67
(lp3119
g60
(g81
g62
NtRp3120
(dp3121
g65
(dp3122
sg74
g3116
sg67
(lp3123
g60
(g61
g62
NtRp3124
(dp3125
g65
(dp3126
g73
I2
ssg74
g3120
sg67
(lp3127
g60
(g69
g62
NtRp3128
(dp3129
g65
(dp3130
g73
I1
ssg74
Nsg67
(lp3131
g60
(g76
g62
NtRp3132
(dp3133
g65
(dp3134
sg74
g3128
sg67
(lp3135
g60
(g81
g62
NtRp3136
(dp3137
g65
(dp3138
sg74
g3132
sg67
(lp3139
g60
(g61
g62
NtRp3140
(dp3141
g65
(dp3142
g73
I1
ssg74
g3136
sg67
(lp3143
g2998
(S's\x08\x00\x00\x00My Sites'
tRp3144
asbasbasbag60
(g76
g62
NtRp3145
(dp3146
g65
(dp3147
sg74
g3128
sg67
(lp3148
g60
(g81
g62
NtRp3149
(dp3150
g65
(dp3151
sg74
g3145
sg67
(lp3152
g60
(g61
g62
NtRp3153
(dp3154
g65
(dp3155
g73
I1
ssg74
g3149
sg67
(lp3156
I00
asbasbasbag60
(g76
g62
NtRp3157
(dp3158
g65
(dp3159
sg74
g3128
sg67
(lp3160
g60
(g81
g62
NtRp3161
(dp3162
g65
(dp3163
sg74
g3157
sg67
(lp3164
g60
(g61
g62
NtRp3165
(dp3166
g65
(dp3167
g73
I1
ssg74
g3161
sg67
(lp3168
S'/admin/default/site'
p3169
asbasbasbasbasbasbasbag60
(g76
g62
NtRp3170
(dp3171
g65
(dp3172
sg74
g3112
sg67
(lp3173
g60
(g81
g62
NtRp3174
(dp3175
g65
(dp3176
sg74
g3170
sg67
(lp3177
g60
(g61
g62
NtRp3178
(dp3179
g65
(dp3180
g73
I2
ssg74
g3174
sg67
(lp3181
g60
(g69
g62
NtRp3182
(dp3183
g65
(dp3184
g73
I1
ssg74
Nsg67
(lp3185
g60
(g76
g62
NtRp3186
(dp3187
g65
(dp3188
sg74
g3182
sg67
(lp3189
g60
(g81
g62
NtRp3190
(dp3191
g65
(dp3192
sg74
g3186
sg67
(lp3193
g60
(g61
g62
NtRp3194
(dp3195
g65
(dp3196
g73
I1
ssg74
g3190
sg67
(lp3197
g2998
(S's\x0b\x00\x00\x00Cette Appli'
tRp3198
asbasbasbag60
(g76
g62
NtRp3199
(dp3200
g65
(dp3201
sg74
g3182
sg67
(lp3202
g60
(g81
g62
NtRp3203
(dp3204
g65
(dp3205
sg74
g3199
sg67
(lp3206
g60
(g61
g62
NtRp3207
(dp3208
g65
(dp3209
g73
I1
ssg74
g3203
sg67
(lp3210
I00
asbasbasbag60
(g76
g62
NtRp3211
(dp3212
g65
(dp3213
sg74
g3182
sg67
(lp3214
g60
(g81
g62
NtRp3215
(dp3216
g65
(dp3217
sg74
g3211
sg67
(lp3218
g60
(g61
g62
NtRp3219
(dp3220
g65
(dp3221
g73
I1
ssg74
g3215
sg67
(lp3222
S'/admin/default/design/init'
p3223
asbasbasbag60
(g76
g62
NtRp3224
(dp3225
g65
(dp3226
sg74
g3182
sg67
(lp3227
g60
(g81
g62
NtRp3228
(dp3229
g65
(dp3230
sg74
g3224
sg67
(lp3231
g60
(g61
g62
NtRp3232
(dp3233
g65
(dp3234
g73
I1
ssg74
g3228
sg67
(lp3235
(lp3236
(g2998
(S's\x0b\x00\x00\x00Contr\xc3\xb4leur'
tRp3237
I00
S'/admin/default/edit/init/controllers/default.py'
tp3238
a(g2998
(S's\r\x00\x00\x00Pr\xc3\xa9sentation'
tRp3239
I00
S'/admin/default/edit/init/views/default/index.html'
tp3240
a(g2998
(S's\x0c\x00\x00\x00Mise en page'
tRp3241
I00
S'/admin/default/edit/init/views/layout.html'
tp3242
a(g2998
(S's\x10\x00\x00\x00Feuille de style'
tRp3243
I00
S'/admin/default/edit/init/static/css/web2py.css'
tp3244
a(g2998
(S's\n\x00\x00\x00Mod\xc3\xa8le DB'
tRp3245
I00
S'/admin/default/edit/init/models/db.py'
tp3246
a(g2998
(S's\x0c\x00\x00\x00Menu mod\xc3\xa8le'
tRp3247
I00
S'/admin/default/edit/init/models/menu.py'
tp3248
a(g2998
(S's\x10\x00\x00\x00Base de donn\xc3\xa9es'
tRp3249
I00
S'/init/appadmin/index'
tp3250
a(g2998
(S't\x07\x00\x00\x00Erreurs'
tRp3251
I00
S'/admin/default/errors/init'
tp3252
a(g2998
(S's\t\x00\x00\x00\xc3\x80 propos'
tRp3253
I00
S'/admin/default/about/init'
tp3254
aasbasbasbasbasbasbasbag60
(g76
g62
NtRp3255
(dp3256
g65
(dp3257
sg74
g3112
sg67
(lp3258
g60
(g81
g62
NtRp3259
(dp3260
g65
(dp3261
sg74
g3255
sg67
(lp3262
g60
(g61
g62
NtRp3263
(dp3264
g65
(dp3265
g73
I2
ssg74
g3259
sg67
(lp3266
g60
(g69
g62
NtRp3267
(dp3268
g65
(dp3269
g73
I1
ssg74
Nsg67
(lp3270
g60
(g76
g62
NtRp3271
(dp3272
g65
(dp3273
sg74
g3267
sg67
(lp3274
g60
(g81
g62
NtRp3275
(dp3276
g65
(dp3277
sg74
g3271
sg67
(lp3278
g60
(g61
g62
NtRp3279
(dp3280
g65
(dp3281
g73
I1
ssg74
g3275
sg67
(lp3282
S'web2py.com'
p3283
asbasbasbag60
(g76
g62
NtRp3284
(dp3285
g65
(dp3286
sg74
g3267
sg67
(lp3287
g60
(g81
g62
NtRp3288
(dp3289
g65
(dp3290
sg74
g3284
sg67
(lp3291
g60
(g61
g62
NtRp3292
(dp3293
g65
(dp3294
g73
I1
ssg74
g3288
sg67
(lp3295
I00
asbasbasbag60
(g76
g62
NtRp3296
(dp3297
g65
(dp3298
sg74
g3267
sg67
(lp3299
g60
(g81
g62
NtRp3300
(dp3301
g65
(dp3302
sg74
g3296
sg67
(lp3303
g60
(g61
g62
NtRp3304
(dp3305
g65
(dp3306
g73
I1
ssg74
g3300
sg67
(lp3307
S'http://www.web2py.com'
p3308
asbasbasbag60
(g76
g62
NtRp3309
(dp3310
g65
(dp3311
sg74
g3267
sg67
(lp3312
g60
(g81
g62
NtRp3313
(dp3314
g65
(dp3315
sg74
g3309
sg67
(lp3316
g60
(g61
g62
NtRp3317
(dp3318
g65
(dp3319
g73
I1
ssg74
g3313
sg67
(lp3320
(lp3321
(g2998
(S's\x10\x00\x00\x00T\xc3\xa9l\xc3\xa9chargement'
tRp3322
I00
S'http://www.web2py.com/examples/default/download'
p3323
tp3324
a(g2998
(S't\x07\x00\x00\x00Support'
tRp3325
I00
S'http://www.web2py.com/examples/default/support'
p3326
tp3327
a(g2998
(S's\x05\x00\x00\x00D\xc3\xa9mo'
tRp3328
I00
S'http://web2py.com/demo_admin'
p3329
tp3330
a(g2998
(S's\x10\x00\x00\x00Examples Rapides'
tRp3331
I00
S'http://web2py.com/examples/default/examples'
p3332
tp3333
a(g2998
(S't\x03\x00\x00\x00FAQ'
tRp3334
I00
S'http://web2py.com/AlterEgo'
p3335
tp3336
a(g2998
(S's\x07\x00\x00\x00Vid\xc3\xa9os'
tRp3337
I00
S'http://www.web2py.com/examples/default/videos/'
p3338
tp3339
a(g2998
(S's\x16\x00\x00\x00Applications gratuites'
tRp3340
I00
S'http://web2py.com/appliances'
p3341
tp3342
a(g2998
(S't\n\x00\x00\x00Plugiciels'
tRp3343
I00
S'http://web2py.com/plugins'
p3344
tp3345
a(g2998
(S't\x07\x00\x00\x00Layouts'
tRp3346
I00
S'http://web2py.com/layouts'
p3347
tp3348
a(g2998
(S't\x08\x00\x00\x00Recettes'
tRp3349
I00
S'http://web2pyslices.com/'
p3350
tp3351
a(g2998
(S's\x0b\x00\x00\x00S\xc3\xa9mantique'
tRp3352
I00
S'http://web2py.com/semantic'
p3353
tp3354
aasbasbasbasbasbasbasbag60
(g76
g62
NtRp3355
(dp3356
g65
(dp3357
sg74
g3112
sg67
(lp3358
g60
(g81
g62
NtRp3359
(dp3360
g65
(dp3361
sg74
g3355
sg67
(lp3362
g60
(g61
g62
NtRp3363
(dp3364
g65
(dp3365
g73
I2
ssg74
g3359
sg67
(lp3366
g60
(g69
g62
NtRp3367
(dp3368
g65
(dp3369
g73
I1
ssg74
Nsg67
(lp3370
g60
(g76
g62
NtRp3371
(dp3372
g65
(dp3373
sg74
g3367
sg67
(lp3374
g60
(g81
g62
NtRp3375
(dp3376
g65
(dp3377
sg74
g3371
sg67
(lp3378
g60
(g61
g62
NtRp3379
(dp3380
g65
(dp3381
g73
I1
ssg74
g3375
sg67
(lp3382
g2998
(S't\r\x00\x00\x00Documentation'
tRp3383
asbasbasbag60
(g76
g62
NtRp3384
(dp3385
g65
(dp3386
sg74
g3367
sg67
(lp3387
g60
(g81
g62
NtRp3388
(dp3389
g65
(dp3390
sg74
g3384
sg67
(lp3391
g60
(g61
g62
NtRp3392
(dp3393
g65
(dp3394
g73
I1
ssg74
g3388
sg67
(lp3395
I00
asbasbasbag60
(g76
g62
NtRp3396
(dp3397
g65
(dp3398
sg74
g3367
sg67
(lp3399
g60
(g81
g62
NtRp3400
(dp3401
g65
(dp3402
sg74
g3396
sg67
(lp3403
g60
(g61
g62
NtRp3404
(dp3405
g65
(dp3406
g73
I1
ssg74
g3400
sg67
(lp3407
S'http://www.web2py.com/book'
p3408
asbasbasbag60
(g76
g62
NtRp3409
(dp3410
g65
(dp3411
sg74
g3367
sg67
(lp3412
g60
(g81
g62
NtRp3413
(dp3414
g65
(dp3415
sg74
g3409
sg67
(lp3416
g60
(g61
g62
NtRp3417
(dp3418
g65
(dp3419
g73
I1
ssg74
g3413
sg67
(lp3420
(lp3421
(g2998
(S's\x08\x00\x00\x00Pr\xc3\xa9face'
tRp3422
I00
S'http://www.web2py.com/book/default/chapter/00'
p3423
tp3424
a(g2998
(S't\x0c\x00\x00\x00Introduction'
tRp3425
I00
S'http://www.web2py.com/book/default/chapter/01'
p3426
tp3427
a(g2998
(S't\x06\x00\x00\x00Python'
tRp3428
I00
S'http://www.web2py.com/book/default/chapter/02'
p3429
tp3430
a(g2998
(S's\r\x00\x00\x00Pr\xc3\xa9sentation'
tRp3431
I00
S'http://www.web2py.com/book/default/chapter/03'
p3432
tp3433
a(g2998
(S's\x08\x00\x00\x00Le noyau'
tRp3434
I00
S'http://www.web2py.com/book/default/chapter/04'
p3435
tp3436
a(g2998
(S's\x08\x00\x00\x00Les Vues'
tRp3437
I00
S'http://www.web2py.com/book/default/chapter/05'
p3438
tp3439
a(g2998
(S's\x10\x00\x00\x00Base de donn\xc3\xa9es'
tRp3440
I00
S'http://www.web2py.com/book/default/chapter/06'
p3441
tp3442
a(g2998
(S's\x1a\x00\x00\x00Formulaires et Validateurs'
tRp3443
I00
S'http://www.web2py.com/book/default/chapter/07'
p3444
tp3445
a(g2998
(S's\r\x00\x00\x00Email and SMS'
tRp3446
I00
S'http://www.web2py.com/book/default/chapter/08'
p3447
tp3448
a(g2998
(S"s\x12\x00\x00\x00Contr\xc3\xb4le d'acc\xc3\xa8s"
tRp3449
I00
S'http://www.web2py.com/book/default/chapter/09'
p3450
tp3451
a(g2998
(S't\x08\x00\x00\x00Services'
tRp3452
I00
S'http://www.web2py.com/book/default/chapter/10'
p3453
tp3454
a(g2998
(S's\r\x00\x00\x00Recettes Ajax'
tRp3455
I00
S'http://www.web2py.com/book/default/chapter/11'
p3456
tp3457
a(g2998
(S's\x16\x00\x00\x00Components and Plugins'
tRp3458
I00
S'http://www.web2py.com/book/default/chapter/12'
p3459
tp3460
a(g2998
(S's\x18\x00\x00\x00Recettes de d\xc3\xa9ploiement'
tRp3461
I00
S'http://www.web2py.com/book/default/chapter/13'
p3462
tp3463
a(g2998
(S's\x0f\x00\x00\x00Autres recettes'
tRp3464
I00
S'http://www.web2py.com/book/default/chapter/14'
p3465
tp3466
a(g2998
(S's\x10\x00\x00\x00Acheter ce livre'
tRp3467
I00
S'http://stores.lulu.com/web2py'
p3468
tp3469
aasbasbasbasbasbasbasbag60
(g76
g62
NtRp3470
(dp3471
g65
(dp3472
sg74
g3112
sg67
(lp3473
g60
(g81
g62
NtRp3474
(dp3475
g65
(dp3476
sg74
g3470
sg67
(lp3477
g60
(g61
g62
NtRp3478
(dp3479
g65
(dp3480
g73
I2
ssg74
g3474
sg67
(lp3481
g60
(g69
g62
NtRp3482
(dp3483
g65
(dp3484
g73
I1
ssg74
Nsg67
(lp3485
g60
(g76
g62
NtRp3486
(dp3487
g65
(dp3488
sg74
g3482
sg67
(lp3489
g60
(g81
g62
NtRp3490
(dp3491
g65
(dp3492
sg74
g3486
sg67
(lp3493
g60
(g61
g62
NtRp3494
(dp3495
g65
(dp3496
g73
I1
ssg74
g3490
sg67
(lp3497
g2998
(S's\x0b\x00\x00\x00Communaut\xc3\xa9'
tRp3498
asbasbasbag60
(g76
g62
NtRp3499
(dp3500
g65
(dp3501
sg74
g3482
sg67
(lp3502
g60
(g81
g62
NtRp3503
(dp3504
g65
(dp3505
sg74
g3499
sg67
(lp3506
g60
(g61
g62
NtRp3507
(dp3508
g65
(dp3509
g73
I1
ssg74
g3503
sg67
(lp3510
I00
asbasbasbag60
(g76
g62
NtRp3511
(dp3512
g65
(dp3513
sg74
g3482
sg67
(lp3514
g60
(g81
g62
NtRp3515
(dp3516
g65
(dp3517
sg74
g3511
sg67
(lp3518
g60
(g61
g62
NtRp3519
(dp3520
g65
(dp3521
g73
I1
ssg74
g3515
sg67
(lp3522
Nasbasbasbag60
(g76
g62
NtRp3523
(dp3524
g65
(dp3525
sg74
g3482
sg67
(lp3526
g60
(g81
g62
NtRp3527
(dp3528
g65
(dp3529
sg74
g3523
sg67
(lp3530
g60
(g61
g62
NtRp3531
(dp3532
g65
(dp3533
g73
I1
ssg74
g3527
sg67
(lp3534
(lp3535
(g2998
(S't\x06\x00\x00\x00Groups'
tRp3536
I00
S'http://www.web2py.com/examples/default/usergroups'
p3537
tp3538
a(g2998
(S't\x07\x00\x00\x00Twitter'
tRp3539
I00
S'http://twitter.com/web2py'
p3540
tp3541
a(g2998
(S's\t\x00\x00\x00Live Chat'
tRp3542
I00
S'http://webchat.freenode.net/?channels=web2py'
p3543
tp3544
aasbasbasbasbasbasbasbag60
(g76
g62
NtRp3545
(dp3546
g65
(dp3547
sg74
g3112
sg67
(lp3548
g60
(g81
g62
NtRp3549
(dp3550
g65
(dp3551
sg74
g3545
sg67
(lp3552
g60
(g61
g62
NtRp3553
(dp3554
g65
(dp3555
g73
I2
ssg74
g3549
sg67
(lp3556
g60
(g69
g62
NtRp3557
(dp3558
g65
(dp3559
g73
I1
ssg74
Nsg67
(lp3560
g60
(g76
g62
NtRp3561
(dp3562
g65
(dp3563
sg74
g3557
sg67
(lp3564
g60
(g81
g62
NtRp3565
(dp3566
g65
(dp3567
sg74
g3561
sg67
(lp3568
g60
(g61
g62
NtRp3569
(dp3570
g65
(dp3571
g73
I1
ssg74
g3565
sg67
(lp3572
g2998
(S't\n\x00\x00\x00Plugiciels'
tRp3573
asbasbasbag60
(g76
g62
NtRp3574
(dp3575
g65
(dp3576
sg74
g3557
sg67
(lp3577
g60
(g81
g62
NtRp3578
(dp3579
g65
(dp3580
sg74
g3574
sg67
(lp3581
g60
(g61
g62
NtRp3582
(dp3583
g65
(dp3584
g73
I1
ssg74
g3578
sg67
(lp3585
I00
asbasbasbag60
(g76
g62
NtRp3586
(dp3587
g65
(dp3588
sg74
g3557
sg67
(lp3589
g60
(g81
g62
NtRp3590
(dp3591
g65
(dp3592
sg74
g3586
sg67
(lp3593
g60
(g61
g62
NtRp3594
(dp3595
g65
(dp3596
g73
I1
ssg74
g3590
sg67
(lp3597
Nasbasbasbag60
(g76
g62
NtRp3598
(dp3599
g65
(dp3600
sg74
g3557
sg67
(lp3601
g60
(g81
g62
NtRp3602
(dp3603
g65
(dp3604
sg74
g3598
sg67
(lp3605
g60
(g61
g62
NtRp3606
(dp3607
g65
(dp3608
g73
I1
ssg74
g3602
sg67
(lp3609
(lp3610
(S'plugin_wiki'
p3611
I00
S'http://web2py.com/examples/default/download'
p3612
tp3613
a(g2998
(S's\r\x00\x00\x00Other Plugins'
tRp3614
I00
g3344
tp3615
a(g2998
(S's\x0e\x00\x00\x00Layout Plugins'
tRp3616
I00
g3347
tp3617
aasbasbasbasbasbasbasbasbasbasbasbasbasbasbasbasbasbasbasbag60
(g76
g62
NtRp3618
(dp3619
g65
(dp3620
sg74
g2455
sg67
(lp3621
g60
(g81
g62
NtRp3622
(dp3623
g65
(dp3624
g85
g86
ssg74
g3618
sg67
(lp3625
S'meta'
p3626
asbag60
(g81
g62
NtRp3627
(dp3628
g65
(dp3629
g92
g93
ssg74
g3618
sg67
(lp3630
S':'
asbag60
(g81
g62
NtRp3631
(dp3632
g65
(dp3633
sg74
g3618
sg67
(lp3634
g60
(g61
g62
NtRp3635
(dp3636
g65
(dp3637
g73
I5
ssg74
g3631
sg67
(lp3638
g60
(g69
g62
NtRp3639
(dp3640
g65
(dp3641
g73
I4
ssg74
Nsg67
(lp3642
g60
(g76
g62
NtRp3643
(dp3644
g65
(dp3645
sg74
g3639
sg67
(lp3646
g60
(g81
g62
NtRp3647
(dp3648
g65
(dp3649
g85
g86
ssg74
g3643
sg67
(lp3650
S'author'
p3651
asbag60
(g81
g62
NtRp3652
(dp3653
g65
(dp3654
g92
g93
ssg74
g3643
sg67
(lp3655
S':'
asbag60
(g81
g62
NtRp3656
(dp3657
g65
(dp3658
sg74
g3643
sg67
(lp3659
g60
(g61
g62
NtRp3660
(dp3661
g65
(dp3662
g73
I4
ssg74
g3656
sg67
(lp3663
S'Your Name <you@example.com>'
p3664
asbasbasbag60
(g76
g62
NtRp3665
(dp3666
g65
(dp3667
sg74
g3639
sg67
(lp3668
g60
(g81
g62
NtRp3669
(dp3670
g65
(dp3671
g85
g86
ssg74
g3665
sg67
(lp3672
S'copyright'
p3673
asbag60
(g81
g62
NtRp3674
(dp3675
g65
(dp3676
g92
g93
ssg74
g3665
sg67
(lp3677
S':'
asbag60
(g81
g62
NtRp3678
(dp3679
g65
(dp3680
sg74
g3665
sg67
(lp3681
g60
(g61
g62
NtRp3682
(dp3683
g65
(dp3684
g73
I4
ssg74
g3678
sg67
(lp3685
S'Copyright 2011'
p3686
asbasbasbag60
(g76
g62
NtRp3687
(dp3688
g65
(dp3689
sg74
g3639
sg67
(lp3690
g60
(g81
g62
NtRp3691
(dp3692
g65
(dp3693
g85
g86
ssg74
g3687
sg67
(lp3694
S'description'
p3695
asbag60
(g81
g62
NtRp3696
(dp3697
g65
(dp3698
g92
g93
ssg74
g3687
sg67
(lp3699
S':'
asbag60
(g81
g62
NtRp3700
(dp3701
g65
(dp3702
sg74
g3687
sg67
(lp3703
g60
(g61
g62
NtRp3704
(dp3705
g65
(dp3706
g73
I4
ssg74
g3700
sg67
(lp3707
S'a cool new app'
p3708
asbasbasbag60
(g76
g62
NtRp3709
(dp3710
g65
(dp3711
sg74
g3639
sg67
(lp3712
g60
(g81
g62
NtRp3713
(dp3714
g65
(dp3715
g85
g86
ssg74
g3709
sg67
(lp3716
S'generator'
p3717
asbag60
(g81
g62
NtRp3718
(dp3719
g65
(dp3720
g92
g93
ssg74
g3709
sg67
(lp3721
S':'
asbag60
(g81
g62
NtRp3722
(dp3723
g65
(dp3724
sg74
g3709
sg67
(lp3725
g60
(g61
g62
NtRp3726
(dp3727
g65
(dp3728
g73
I4
ssg74
g3722
sg67
(lp3729
S'Web2py Web Framework'
p3730
asbasbasbag60
(g76
g62
NtRp3731
(dp3732
g65
(dp3733
sg74
g3639
sg67
(lp3734
g60
(g81
g62
NtRp3735
(dp3736
g65
(dp3737
g85
g86
ssg74
g3731
sg67
(lp3738
S'keywords'
p3739
asbag60
(g81
g62
NtRp3740
(dp3741
g65
(dp3742
g92
g93
ssg74
g3731
sg67
(lp3743
S':'
asbag60
(g81
g62
NtRp3744
(dp3745
g65
(dp3746
sg74
g3731
sg67
(lp3747
g60
(g61
g62
NtRp3748
(dp3749
g65
(dp3750
g73
I4
ssg74
g3744
sg67
(lp3751
S'web2py, python, framework'
p3752
asbasbasbasbasbasbasbag60
(g76
g62
NtRp3753
(dp3754
g65
(dp3755
sg74
g2455
sg67
(lp3756
g60
(g81
g62
NtRp3757
(dp3758
g65
(dp3759
g85
g86
ssg74
g3753
sg67
(lp3760
S'postprocessing'
p3761
asbag60
(g81
g62
NtRp3762
(dp3763
g65
(dp3764
g92
g93
ssg74
g3753
sg67
(lp3765
S':'
asbag60
(g81
g62
NtRp3766
(dp3767
g65
(dp3768
sg74
g3753
sg67
(lp3769
g60
(g61
g62
NtRp3770
(dp3771
g65
(dp3772
g73
I5
ssg74
g3766
sg67
(lp3773
g60
(g69
g62
NtRp3774
(dp3775
g65
(dp3776
g73
I4
ssg74
Nsg67
(lp3777
sbasbasbasbag60
(g76
g62
NtRp3778
(dp3779
g65
(dp3780
sg74
g2455
sg67
(lp3781
g60
(g81
g62
NtRp3782
(dp3783
g65
(dp3784
g85
g86
ssg74
g3778
sg67
(lp3785
S'session_db'
p3786
asbag60
(g81
g62
NtRp3787
(dp3788
g65
(dp3789
g92
g93
ssg74
g3778
sg67
(lp3790
S':'
asbag60
(g81
g62
NtRp3791
(dp3792
g65
(dp3793
sg74
g3778
sg67
(lp3794
g60
(g61
g62
NtRp3795
(dp3796
g65
(dp3797
g73
I5
ssg74
g3791
sg67
(lp3798
g400
asbasbasbag60
(g76
g62
NtRp3799
(dp3800
g65
(dp3801
sg74
g2455
sg67
(lp3802
g60
(g81
g62
NtRp3803
(dp3804
g65
(dp3805
g85
g86
ssg74
g3799
sg67
(lp3806
S'session_id'
p3807
asbag60
(g81
g62
NtRp3808
(dp3809
g65
(dp3810
g92
g93
ssg74
g3799
sg67
(lp3811
S':'
asbag60
(g81
g62
NtRp3812
(dp3813
g65
(dp3814
sg74
g3799
sg67
(lp3815
g60
(g61
g62
NtRp3816
(dp3817
g65
(dp3818
g73
I5
ssg74
g3812
sg67
(lp3819
S'None:6e0b9f6f-03e5-451b-b087-ca97fbf5d8f7'
p3820
asbasbasbag60
(g76
g62
NtRp3821
(dp3822
g65
(dp3823
sg74
g2455
sg67
(lp3824
g60
(g81
g62
NtRp3825
(dp3826
g65
(dp3827
g85
g86
ssg74
g3821
sg67
(lp3828
S'session_id_name'
p3829
asbag60
(g81
g62
NtRp3830
(dp3831
g65
(dp3832
g92
g93
ssg74
g3821
sg67
(lp3833
S':'
asbag60
(g81
g62
NtRp3834
(dp3835
g65
(dp3836
sg74
g3821
sg67
(lp3837
g60
(g61
g62
NtRp3838
(dp3839
g65
(dp3840
g73
I5
ssg74
g3834
sg67
(lp3841
S'session_id_init'
p3842
asbasbasbag60
(g76
g62
NtRp3843
(dp3844
g65
(dp3845
sg74
g2455
sg67
(lp3846
g60
(g81
g62
NtRp3847
(dp3848
g65
(dp3849
g85
g86
ssg74
g3843
sg67
(lp3850
S'status'
p3851
asbag60
(g81
g62
NtRp3852
(dp3853
g65
(dp3854
g92
g93
ssg74
g3843
sg67
(lp3855
S':'
asbag60
(g81
g62
NtRp3856
(dp3857
g65
(dp3858
sg74
g3843
sg67
(lp3859
g60
(g61
g62
NtRp3860
(dp3861
g65
(dp3862
g73
I5
ssg74
g3856
sg67
(lp3863
S'200'
p3864
asbasbasbag60
(g76
g62
NtRp3865
(dp3866
g65
(dp3867
sg74
g2455
sg67
(lp3868
g60
(g81
g62
NtRp3869
(dp3870
g65
(dp3871
g85
g86
ssg74
g3865
sg67
(lp3872
S'subtitle'
p3873
asbag60
(g81
g62
NtRp3874
(dp3875
g65
(dp3876
g92
g93
ssg74
g3865
sg67
(lp3877
S':'
asbag60
(g81
g62
NtRp3878
(dp3879
g65
(dp3880
sg74
g3865
sg67
(lp3881
g60
(g61
g62
NtRp3882
(dp3883
g65
(dp3884
g73
I5
ssg74
g3878
sg67
(lp3885
g2998
(S's\x12\x00\x00\x00personnalisez-moi!'
tRp3886
asbasbasbag60
(g76
g62
NtRp3887
(dp3888
g65
(dp3889
sg74
g2455
sg67
(lp3890
g60
(g81
g62
NtRp3891
(dp3892
g65
(dp3893
g85
g86
ssg74
g3887
sg67
(lp3894
S'title'
p3895
asbag60
(g81
g62
NtRp3896
(dp3897
g65
(dp3898
g92
g93
ssg74
g3887
sg67
(lp3899
S':'
asbag60
(g81
g62
NtRp3900
(dp3901
g65
(dp3902
sg74
g3887
sg67
(lp3903
g60
(g61
g62
NtRp3904
(dp3905
g65
(dp3906
g73
I5
ssg74
g3900
sg67
(lp3907
S'Init'
p3908
asbasbasbag60
(g76
g62
NtRp3909
(dp3910
g65
(dp3911
sg74
g2455
sg67
(lp3912
g60
(g81
g62
NtRp3913
(dp3914
g65
(dp3915
g85
g86
ssg74
g3909
sg67
(lp3916
g1759
asbag60
(g81
g62
NtRp3917
(dp3918
g65
(dp3919
g92
g93
ssg74
g3909
sg67
(lp3920
S':'
asbag60
(g81
g62
NtRp3921
(dp3922
g65
(dp3923
sg74
g3909
sg67
(lp3924
g60
(g61
g62
NtRp3925
(dp3926
g65
(dp3927
g73
I5
ssg74
g3921
sg67
(lp3928
g1772
asbasbasbag60
(g76
g62
NtRp3929
(dp3930
g65
(dp3931
sg74
g2455
sg67
(lp3932
g60
(g81
g62
NtRp3933
(dp3934
g65
(dp3935
g85
g86
ssg74
g3929
sg67
(lp3936
S'view'
p3937
asbag60
(g81
g62
NtRp3938
(dp3939
g65
(dp3940
g92
g93
ssg74
g3929
sg67
(lp3941
S':'
asbag60
(g81
g62
NtRp3942
(dp3943
g65
(dp3944
sg74
g3929
sg67
(lp3945
g60
(g61
g62
NtRp3946
(dp3947
g65
(dp3948
g73
I5
ssg74
g3942
sg67
(lp3949
S'default/index.html'
p3950
asbasbasbasbasbsS'locals'
p3951
(dp3952
g4
S"r'C:\\Users\\Bussiere\\Dropbox\\Projets\\jackpoint\\web2py\\applications\\init\\controllers/default.py'"
p3953
sg6
S"'\\xef\\xbb\\xbf# -*- coding: utf-8 -*-\\n# this file is releas...=crud())\\n\\nresponse._vars=response._caller(index)\\n'"
p3954
sssS'traceback'
p3955
S'Traceback (most recent call last):\n  File "gluon/restricted.py", line 204, in restricted\n  File "gluon/restricted.py", line 189, in compile2\n  File "C:\\Users\\Bussiere\\Dropbox\\Projets\\jackpoint\\web2py\\applications\\init\\controllers/default.py", line 253\n    form.insert(-1,INPUT(_name=\'titi\',_value=\'titi\'))\n       ^\nSyntaxError: invalid syntax\n'
p3956
s.