(dp1
S'output'
p2
S"<type 'exceptions.SyntaxError'> Field: unknown field type: auth_user for father"
p3
sS'layer'
p4
S'D:\\Documents\\Projets_Perso\\jackpoint\\web2py\\applications\\init\\models\\db.py'
p5
sS'code'
p6
S"# -*- coding: utf-8 -*-\n# Static analyzer import helpers:\nif 0: \n    import gluon\n    global cache; cache = gluon.cache.Cache()\n    global LOAD; LOAD  = gluon.compileapp.LoadFactory()\n    import gluon.compileapp.local_import_aux as local_import #@UnusedImport\n    from gluon.contrib.gql import GQLDB #@UnusedImport\n    from gluon.dal import Field #@UnusedImport\n    global request; request = gluon.globals.Request()\n    global response; response = gluon.globals.Response()\n    global session; session = gluon.globals.Session()\n    from gluon.html import A #@UnusedImport\n    from gluon.html import B #@UnusedImport\n    from gluon.html import BEAUTIFY #@UnusedImport\n    from gluon.html import BODY #@UnusedImport\n    from gluon.html import BR #@UnusedImport\n    from gluon.html import CENTER #@UnusedImport\n    from gluon.html import CODE #@UnusedImport\n    from gluon.html import DIV #@UnusedImport\n    from gluon.html import EM #@UnusedImport\n    from gluon.html import EMBED #@UnusedImport\n    from gluon.html import embed64 #@UnusedImport\n    from gluon.html import FIELDSET #@UnusedImport\n    from gluon.html import FORM #@UnusedImport\n    from gluon.html import H1 #@UnusedImport\n    from gluon.html import H2 #@UnusedImport\n    from gluon.html import H3 #@UnusedImport\n    from gluon.html import H4 #@UnusedImport\n    from gluon.html import H5 #@UnusedImport\n    from gluon.html import H6 #@UnusedImport\n    from gluon.html import HEAD #@UnusedImport\n    from gluon.html import HR #@UnusedImport\n    from gluon.html import HTML #@UnusedImport\n    from gluon.html import I #@UnusedImport\n    from gluon.html import IFRAME #@UnusedImport\n    from gluon.html import IMG #@UnusedImport\n    from gluon.html import INPUT #@UnusedImport\n    from gluon.html import LABEL #@UnusedImport\n    from gluon.html import LEGEND #@UnusedImport\n    from gluon.html import LI #@UnusedImport\n    from gluon.html import LINK #@UnusedImport\n    from gluon.html import MARKMIN #@UnusedImport\n    from gluon.html import MENU #@UnusedImport\n    from gluon.html import META #@UnusedImport\n    from gluon.html import OBJECT #@UnusedImport\n    from gluon.html import OL #@UnusedImport\n    from gluon.html import ON #@UnusedImport\n    from gluon.html import OPTGROUP #@UnusedImport\n    from gluon.html import OPTION #@UnusedImport\n    from gluon.html import P #@UnusedImport\n    from gluon.html import PRE #@UnusedImport\n    from gluon.html import STYLE #@UnusedImport\n    from gluon.html import SCRIPT #@UnusedImport\n    from gluon.html import SELECT #@UnusedImport\n    from gluon.html import SPAN #@UnusedImport\n    from gluon.html import TABLE #@UnusedImport\n    from gluon.html import TAG #@UnusedImport\n    from gluon.html import TBODY #@UnusedImport\n    from gluon.html import TD #@UnusedImport\n    from gluon.html import TEXTAREA #@UnusedImport\n    from gluon.html import TFOOT #@UnusedImport\n    from gluon.html import TH  #@UnusedImport\n    from gluon.html import THEAD #@UnusedImport\n    from gluon.html import TITLE #@UnusedImport\n    from gluon.html import TR #@UnusedImport\n    from gluon.html import TT #@UnusedImport\n    from gluon.html import UL #@UnusedImport\n    from gluon.html import URL #@UnusedImport\n    from gluon.html import XHTML #@UnusedImport\n    from gluon.html import XML #@UnusedImport\n    from gluon.html import xmlescape #@UnusedImport\n    from gluon.http import HTTP #@UnusedImport\n    from gluon.http import redirect #@UnusedImport\n    import gluon.languages.translator as T #@UnusedImport\n    from gluon.sql import DAL\n    global db; db = DAL()\n    from gluon.sql import SQLDB #@UnusedImport\n    from gluon.sql import SQLField #@UnusedImport\n    from gluon.sqlhtml import SQLFORM #@UnusedImport\n    from gluon.sqlhtml import SQLTABLE #@UnusedImport\n    from gluon.tools import  Auth\n    global auth; auth = Auth()\n    from gluon.tools import Crud\n    global crud; crud = Crud()\n    from gluon.tools import fetch #@UnusedImport\n    from gluon.tools import geocode #@UnusedImport\n    from gluon.tools import Mail\n    global mail; mail = Mail()\n    from gluon.tools import PluginManager\n    global plugins; plugins = PluginManager()\n    from gluon.tools import prettydate #@UnusedImport\n    from gluon.tools import Recaptcha #@UnusedImport\n    from gluon.tools import Service\n    global service; service = Service()\n    from gluon.validators import CLEANUP  #@UnusedImport\n    from gluon.validators import CRYPT #@UnusedImport\n    from gluon.validators import IS_ALPHANUMERIC #@UnusedImport\n    from gluon.validators import IS_DATE #@UnusedImport\n    from gluon.validators import IS_DATE_IN_RANGE #@UnusedImport\n    from gluon.validators import IS_DATETIME #@UnusedImport\n    from gluon.validators import IS_DATETIME_IN_RANGE #@UnusedImport\n    from gluon.validators import IS_DECIMAL_IN_RANGE #@UnusedImport\n    from gluon.validators import IS_EMAIL #@UnusedImport\n    from gluon.validators import IS_EMPTY_OR #@UnusedImport\n    from gluon.validators import IS_EQUAL_TO #@UnusedImport\n    from gluon.validators import IS_EXPR #@UnusedImport\n    from gluon.validators import IS_FLOAT_IN_RANGE #@UnusedImport\n    from gluon.validators import IS_IMAGE #@UnusedImport\n    from gluon.validators import IS_IN_DB #@UnusedImport\n    from gluon.validators import IS_IN_SET #@UnusedImport\n    from gluon.validators import IS_INT_IN_RANGE #@UnusedImport\n    from gluon.validators import IS_IPV4 #@UnusedImport\n    from gluon.validators import IS_LENGTH #@UnusedImport\n    from gluon.validators import IS_LIST_OF #@UnusedImport\n    from gluon.validators import IS_LOWER #@UnusedImport\n    from gluon.validators import IS_MATCH #@UnusedImport\n    from gluon.validators import IS_NOT_EMPTY #@UnusedImport\n    from gluon.validators import IS_NOT_IN_DB #@UnusedImport\n    from gluon.validators import IS_NULL_OR #@UnusedImport\n    from gluon.validators import IS_SLUG #@UnusedImport\n    from gluon.validators import IS_STRONG  #@UnusedImport\n    from gluon.validators import IS_TIME #@UnusedImport\n    from gluon.validators import IS_UPLOAD_FILENAME #@UnusedImport\n    from gluon.validators import IS_UPPER #@UnusedImport\n    from gluon.validators import IS_URL #@UnusedImport\n#########################################################################\n## This scaffolding model makes your app work on Google App Engine too\n## File is released under public domain and you can use without limitations\n#########################################################################\n\n## if SSL/HTTPS is properly configured and you want all HTTP requests to\n## be redirected to HTTPS, uncomment the line below:\n# request.requires_https()\n\nif not request.env.web2py_runtime_gae:\n## if NOT running on Google App Engine use SQLite or other DB\n    db = DAL('sqlite://storage.sqlite')\nelse:\n## connect to Google BigTable (optional 'google:datastore://namespace')\n    db = DAL('google:datastore')\n## store sessions and tickets there\nsession.connect(request, response, db = db)\n## or store session in Memcache, Redis, etc.\n#from gluon.contrib.memdb import MEMDB\n#from google.appengine.api.memcache import Client\n## session.connect(request, response, db = MEMDB(Client()))\n\n## by default give a view/generic.extension to all actions from localhost\n## none otherwise. a pattern can be 'controller/function.extension'\nresponse.generic_patterns = ['*'] if request.is_local else []\n## (optional) optimize handling of static files\n# response.optimize_css = 'concat,minify,inline'\n# response.optimize_js = 'concat,minify,inline'\n\n#########################################################################\n## Here is sample code if you need for\n## - email capabilities\n## - authentication (registration, login, logout, ... )\n## - authorization (role based authorization)\n## - services (xml, csv, json, xmlrpc, jsonrpc, amf, rss)\n## - old style crud actions\n## (more options discussed in gluon/tools.py)\n#########################################################################\n\nfrom gluon.tools import Auth, Crud, Service, PluginManager, prettydate\nauth = Auth(db, hmac_key=Auth.get_or_create_key())\ncrud, service, plugins = Crud(db), Service(), PluginManager()\ndb.define_table(\nauth.settings.table_user_name,\nField('first_name', length=128, default=''),\nField('last_name', length=128, default=''),\nField('father', auth.settings.table_user_name),\nField('sons', auth.settings.table_user_name),\nField('email', length=128, default='', unique=True), # required\nField('password', 'password', length=512,# required\nreadable=False, label='Password'),\nField('Skills','list:reference SkillUser'),\nField('Items','list:reference Item'),\nField('registration_key', length=512,# required\nwritable=False, readable=False, default=''),\nField('reset_password_key', length=512,# required\nwritable=False, readable=False, default=''),\nField('registration_id', length=512, # required\nwritable=False, readable=False, default=''))\n\n## do not forget validators\ncustom_auth_table = db[auth.settings.table_user_name] # get the custom_auth_table\ncustom_auth_table.first_name.requires = \\\nIS_NOT_EMPTY(error_message=auth.messages.is_empty)\ncustom_auth_table.last_name.requires = \\\nIS_NOT_EMPTY(error_message=auth.messages.is_empty)\ncustom_auth_table.password.requires = [CRYPT()]\ncustom_auth_table.email.requires = [\nIS_EMAIL(error_message=auth.messages.invalid_email),\nIS_NOT_IN_DB(db, custom_auth_table.email)]\n\n\n## create all tables needed by auth if not custom tables\nauth.define_tables()\n\ndb.define_table('Skill',\n Field('Nom', unique=True),\n format = '%(Nom)s')\n\ndb.define_table('Item',\n Field('Nom', unique=True),\n format = '%(Nom)s')\n\n\ndb.define_table('SkillUser',\n Field('Skill', db.Skill),\n Field('User', db.auth_user),\n Field('Niveau','integer'),\n format = '%(Demande)s')\n \ndb.SkillUser.Niveau.requires=IS_INT_IN_RANGE(0, 5)\n\ndb.define_table('SkillDemande',\n Field('Skill', db.Skill),\n Field('Niveau','integer'),\n format = '%(Demande)s') \n\n\ndb.SkillDemande.Niveau.requires=IS_INT_IN_RANGE(0, 5)\n \n \n\n\ndb.define_table('Demande',\n Field('Topic', unique=True),\n Field('Texte'),\n Field('Skills','list:reference SkillDemande'),\n Field('Items','list:reference Item'),\n Field('auth_user',db.auth_user),\n format = '%(Topic)s')\n\ndb.define_table('Usage_Db',\n Field('Nom', unique=True),\n format = '%(Nom)s')\n\ndb.define_table('Invitation',\n Field('Code', unique=True),\n Field('Usage', db.Usage_Db),\n format = '%(Topic)s')\n\ndb.define_table('Popup',\n Field('Demande', db.Demande),\n Field('User', db.auth_user),\n format = '%(Demande)s')\n\ndb.define_table('Suggestion',\n Field('Topic', unique=True),\n Field('Texte'),\n Field('Skills','list:reference Skill'),\n Field('Items','list:reference Item'),\n Field('auth_user',db.auth_user),\n format = '%(Topic)s')\n \n\n\n## configure email\nmail=auth.settings.mailer\nmail.settings.server = 'logging' or 'smtp.gmail.com:587'\nmail.settings.sender = 'you@gmail.com'\nmail.settings.login = 'username:password'\n\n## configure auth policy\nauth.settings.registration_requires_verification = False\nauth.settings.registration_requires_approval = False\nauth.settings.reset_password_requires_verification = True\n\n## if you need to use OpenID, Facebook, MySpace, Twitter, Linkedin, etc.\n## register with janrain.com, write your domain:api_key in private/janrain.key\nfrom gluon.contrib.login_methods.rpx_account import use_janrain\nuse_janrain(auth,filename='private/janrain.key')\n\n#########################################################################\n## Define your tables below (or better in another model file) for example\n##\n## >>> db.define_table('mytable',Field('myfield','string'))\n##\n## Fields can be 'string','text','password','integer','double','boolean'\n## 'date','time','datetime','blob','upload', 'reference TABLENAME'\n## There is an implicit 'id integer autoincrement' field\n## Consult manual for more options, validators, etc.\n##\n## More API examples for controllers:\n##\n## >>> db.mytable.insert(myfield='value')\n## >>> rows=db(db.mytable.myfield=='value').select(db.mytable.ALL)\n## >>> for row in rows: print row.id, row.myfield\n#########################################################################\n\n"
p7
sS'snapshot'
p8
(dp9
S'exception'
p10
(dp11
S'__getslice__'
p12
S"<method-wrapper '__getslice__' of exceptions.SyntaxError object at 0x024FB5F0>"
p13
sS'text'
p14
S'None'
p15
sS'__str__'
p16
S"<method-wrapper '__str__' of exceptions.SyntaxError object at 0x024FB5F0>"
p17
sS'__reduce__'
p18
S'<built-in method __reduce__ of exceptions.SyntaxError object at 0x024FB5F0>'
p19
sS'__dict__'
p20
S'{}'
p21
sS'__init__'
p22
S"<method-wrapper '__init__' of exceptions.SyntaxError object at 0x024FB5F0>"
p23
sS'__setattr__'
p24
S"<method-wrapper '__setattr__' of exceptions.SyntaxError object at 0x024FB5F0>"
p25
sS'__reduce_ex__'
p26
S'<built-in method __reduce_ex__ of exceptions.SyntaxError object at 0x024FB5F0>'
p27
sS'__new__'
p28
S'<built-in method __new__ of type object at 0x1E1CDBD0>'
p29
sS'__class__'
p30
S"<type 'exceptions.SyntaxError'>"
p31
sS'filename'
p32
S'None'
p33
sS'lineno'
p34
S'None'
p35
sS'msg'
p36
S"'Field: unknown field type: auth_user for father'"
p37
sS'__doc__'
p38
S"'Invalid syntax.'"
p39
sS'__getitem__'
p40
S"<method-wrapper '__getitem__' of exceptions.SyntaxError object at 0x024FB5F0>"
p41
sS'__setstate__'
p42
S'<built-in method __setstate__ of exceptions.SyntaxError object at 0x024FB5F0>'
p43
sS'__getattribute__'
p44
S"<method-wrapper '__getattribute__' of exceptions.SyntaxError object at 0x024FB5F0>"
p45
sS'print_file_and_line'
p46
S'None'
p47
sS'args'
p48
S"('Field: unknown field type: auth_user for father',)"
p49
sS'offset'
p50
S'None'
p51
sS'__delattr__'
p52
S"<method-wrapper '__delattr__' of exceptions.SyntaxError object at 0x024FB5F0>"
p53
sS'__repr__'
p54
S"<method-wrapper '__repr__' of exceptions.SyntaxError object at 0x024FB5F0>"
p55
sS'__hash__'
p56
S"<method-wrapper '__hash__' of exceptions.SyntaxError object at 0x024FB5F0>"
p57
ssS'evalue'
p58
S'Field: unknown field type: auth_user for father'
p59
sS'request'
p60
ccopy_reg
_reconstructor
p61
(cgluon.html
BEAUTIFY
p62
c__builtin__
object
p63
NtRp64
(dp65
S'attributes'
p66
(dp67
sS'components'
p68
(lp69
g61
(cgluon.html
TABLE
p70
g63
NtRp71
(dp72
g66
(dp73
S'level'
p74
I5
ssS'parent'
p75
Nsg68
(lp76
g61
(cgluon.html
TR
p77
g63
NtRp78
(dp79
g66
(dp80
sg75
g71
sg68
(lp81
g61
(cgluon.html
TD
p82
g63
NtRp83
(dp84
g66
(dp85
S'_style'
p86
S'font-weight:bold;vertical-align:top'
p87
ssg75
g78
sg68
(lp88
S'ajax'
p89
asbag61
(g82
g63
NtRp90
(dp91
g66
(dp92
S'_valign'
p93
S'top'
p94
ssg75
g78
sg68
(lp95
S':'
asbag61
(g82
g63
NtRp96
(dp97
g66
(dp98
sg75
g78
sg68
(lp99
g61
(g62
g63
NtRp100
(dp101
g66
(dp102
g74
I5
ssg75
g96
sg68
(lp103
S'False'
p104
asbasbasbag61
(g77
g63
NtRp105
(dp106
g66
(dp107
sg75
g71
sg68
(lp108
g61
(g82
g63
NtRp109
(dp110
g66
(dp111
g86
g87
ssg75
g105
sg68
(lp112
S'application'
p113
asbag61
(g82
g63
NtRp114
(dp115
g66
(dp116
g93
g94
ssg75
g105
sg68
(lp117
S':'
asbag61
(g82
g63
NtRp118
(dp119
g66
(dp120
sg75
g105
sg68
(lp121
g61
(g62
g63
NtRp122
(dp123
g66
(dp124
g74
I5
ssg75
g118
sg68
(lp125
S'init'
p126
asbasbasbag61
(g77
g63
NtRp127
(dp128
g66
(dp129
sg75
g71
sg68
(lp130
g61
(g82
g63
NtRp131
(dp132
g66
(dp133
g86
g87
ssg75
g127
sg68
(lp134
g48
asbag61
(g82
g63
NtRp135
(dp136
g66
(dp137
g93
g94
ssg75
g127
sg68
(lp138
S':'
asbag61
(g82
g63
NtRp139
(dp140
g66
(dp141
sg75
g127
sg68
(lp142
g61
(g62
g63
NtRp143
(dp144
g66
(dp145
g74
I5
ssg75
g139
sg68
(lp146
g61
(g70
g63
NtRp147
(dp148
g66
(dp149
g74
I4
ssg75
Nsg68
(lp150
g61
(g77
g63
NtRp151
(dp152
g66
(dp153
sg75
g147
sg68
(lp154
g61
(g82
g63
NtRp155
(dp156
g66
(dp157
sg75
g151
sg68
(lp158
g61
(g62
g63
NtRp159
(dp160
g66
(dp161
g74
I4
ssg75
g155
sg68
(lp162
S'login'
p163
asbasbasbasbasbasbasbag61
(g77
g63
NtRp164
(dp165
g66
(dp166
sg75
g71
sg68
(lp167
g61
(g82
g63
NtRp168
(dp169
g66
(dp170
g86
g87
ssg75
g164
sg68
(lp171
S'body'
p172
asbag61
(g82
g63
NtRp173
(dp174
g66
(dp175
g93
g94
ssg75
g164
sg68
(lp176
S':'
asbag61
(g82
g63
NtRp177
(dp178
g66
(dp179
sg75
g164
sg68
(lp180
g61
(g62
g63
NtRp181
(dp182
g66
(dp183
g74
I5
ssg75
g177
sg68
(lp184
S'<cStringIO.StringO object at 0x024D8560>'
p185
asbasbasbag61
(g77
g63
NtRp186
(dp187
g66
(dp188
sg75
g71
sg68
(lp189
g61
(g82
g63
NtRp190
(dp191
g66
(dp192
g86
g87
ssg75
g186
sg68
(lp193
S'client'
p194
asbag61
(g82
g63
NtRp195
(dp196
g66
(dp197
g93
g94
ssg75
g186
sg68
(lp198
S':'
asbag61
(g82
g63
NtRp199
(dp200
g66
(dp201
sg75
g186
sg68
(lp202
g61
(g62
g63
NtRp203
(dp204
g66
(dp205
g74
I5
ssg75
g199
sg68
(lp206
S'127.0.0.1'
p207
asbasbasbag61
(g77
g63
NtRp208
(dp209
g66
(dp210
sg75
g71
sg68
(lp211
g61
(g82
g63
NtRp212
(dp213
g66
(dp214
g86
g87
ssg75
g208
sg68
(lp215
S'controller'
p216
asbag61
(g82
g63
NtRp217
(dp218
g66
(dp219
g93
g94
ssg75
g208
sg68
(lp220
S':'
asbag61
(g82
g63
NtRp221
(dp222
g66
(dp223
sg75
g208
sg68
(lp224
g61
(g62
g63
NtRp225
(dp226
g66
(dp227
g74
I5
ssg75
g221
sg68
(lp228
S'default'
p229
asbasbasbag61
(g77
g63
NtRp230
(dp231
g66
(dp232
sg75
g71
sg68
(lp233
g61
(g82
g63
NtRp234
(dp235
g66
(dp236
g86
g87
ssg75
g230
sg68
(lp237
S'cookies'
p238
asbag61
(g82
g63
NtRp239
(dp240
g66
(dp241
g93
g94
ssg75
g230
sg68
(lp242
S':'
asbag61
(g82
g63
NtRp243
(dp244
g66
(dp245
sg75
g230
sg68
(lp246
g61
(g62
g63
NtRp247
(dp248
g66
(dp249
g74
I5
ssg75
g243
sg68
(lp250
g61
(g70
g63
NtRp251
(dp252
g66
(dp253
g74
I4
ssg75
Nsg68
(lp254
g61
(g77
g63
NtRp255
(dp256
g66
(dp257
sg75
g251
sg68
(lp258
g61
(g82
g63
NtRp259
(dp260
g66
(dp261
g86
g87
ssg75
g255
sg68
(lp262
S'session_id_init'
p263
asbag61
(g82
g63
NtRp264
(dp265
g66
(dp266
g93
g94
ssg75
g255
sg68
(lp267
S':'
asbag61
(g82
g63
NtRp268
(dp269
g66
(dp270
sg75
g255
sg68
(lp271
g61
(g62
g63
NtRp272
(dp273
g66
(dp274
g74
I4
ssg75
g268
sg68
(lp275
g61
(g70
g63
NtRp276
(dp277
g66
(dp278
g74
I3
ssg75
Nsg68
(lp279
g61
(g77
g63
NtRp280
(dp281
g66
(dp282
sg75
g276
sg68
(lp283
g61
(g82
g63
NtRp284
(dp285
g66
(dp286
g86
g87
ssg75
g280
sg68
(lp287
S'comment'
p288
asbag61
(g82
g63
NtRp289
(dp290
g66
(dp291
g93
g94
ssg75
g280
sg68
(lp292
S':'
asbag61
(g82
g63
NtRp293
(dp294
g66
(dp295
sg75
g280
sg68
(lp296
g61
(g62
g63
NtRp297
(dp298
g66
(dp299
g74
I3
ssg75
g293
sg68
(lp300
S''
asbasbasbag61
(g77
g63
NtRp301
(dp302
g66
(dp303
sg75
g276
sg68
(lp304
g61
(g82
g63
NtRp305
(dp306
g66
(dp307
g86
g87
ssg75
g301
sg68
(lp308
S'domain'
p309
asbag61
(g82
g63
NtRp310
(dp311
g66
(dp312
g93
g94
ssg75
g301
sg68
(lp313
S':'
asbag61
(g82
g63
NtRp314
(dp315
g66
(dp316
sg75
g301
sg68
(lp317
g61
(g62
g63
NtRp318
(dp319
g66
(dp320
g74
I3
ssg75
g314
sg68
(lp321
S''
asbasbasbag61
(g77
g63
NtRp322
(dp323
g66
(dp324
sg75
g276
sg68
(lp325
g61
(g82
g63
NtRp326
(dp327
g66
(dp328
g86
g87
ssg75
g322
sg68
(lp329
S'expires'
p330
asbag61
(g82
g63
NtRp331
(dp332
g66
(dp333
g93
g94
ssg75
g322
sg68
(lp334
S':'
asbag61
(g82
g63
NtRp335
(dp336
g66
(dp337
sg75
g322
sg68
(lp338
g61
(g62
g63
NtRp339
(dp340
g66
(dp341
g74
I3
ssg75
g335
sg68
(lp342
S''
asbasbasbag61
(g77
g63
NtRp343
(dp344
g66
(dp345
sg75
g276
sg68
(lp346
g61
(g82
g63
NtRp347
(dp348
g66
(dp349
g86
g87
ssg75
g343
sg68
(lp350
S'max-age'
p351
asbag61
(g82
g63
NtRp352
(dp353
g66
(dp354
g93
g94
ssg75
g343
sg68
(lp355
S':'
asbag61
(g82
g63
NtRp356
(dp357
g66
(dp358
sg75
g343
sg68
(lp359
g61
(g62
g63
NtRp360
(dp361
g66
(dp362
g74
I3
ssg75
g356
sg68
(lp363
S''
asbasbasbag61
(g77
g63
NtRp364
(dp365
g66
(dp366
sg75
g276
sg68
(lp367
g61
(g82
g63
NtRp368
(dp369
g66
(dp370
g86
g87
ssg75
g364
sg68
(lp371
S'path'
p372
asbag61
(g82
g63
NtRp373
(dp374
g66
(dp375
g93
g94
ssg75
g364
sg68
(lp376
S':'
asbag61
(g82
g63
NtRp377
(dp378
g66
(dp379
sg75
g364
sg68
(lp380
g61
(g62
g63
NtRp381
(dp382
g66
(dp383
g74
I3
ssg75
g377
sg68
(lp384
S''
asbasbasbag61
(g77
g63
NtRp385
(dp386
g66
(dp387
sg75
g276
sg68
(lp388
g61
(g82
g63
NtRp389
(dp390
g66
(dp391
g86
g87
ssg75
g385
sg68
(lp392
S'secure'
p393
asbag61
(g82
g63
NtRp394
(dp395
g66
(dp396
g93
g94
ssg75
g385
sg68
(lp397
S':'
asbag61
(g82
g63
NtRp398
(dp399
g66
(dp400
sg75
g385
sg68
(lp401
g61
(g62
g63
NtRp402
(dp403
g66
(dp404
g74
I3
ssg75
g398
sg68
(lp405
S''
asbasbasbag61
(g77
g63
NtRp406
(dp407
g66
(dp408
sg75
g276
sg68
(lp409
g61
(g82
g63
NtRp410
(dp411
g66
(dp412
g86
g87
ssg75
g406
sg68
(lp413
S'version'
p414
asbag61
(g82
g63
NtRp415
(dp416
g66
(dp417
g93
g94
ssg75
g406
sg68
(lp418
S':'
asbag61
(g82
g63
NtRp419
(dp420
g66
(dp421
sg75
g406
sg68
(lp422
g61
(g62
g63
NtRp423
(dp424
g66
(dp425
g74
I3
ssg75
g419
sg68
(lp426
S''
asbasbasbasbasbasbasbasbasbasbasbag61
(g77
g63
NtRp427
(dp428
g66
(dp429
sg75
g71
sg68
(lp430
g61
(g82
g63
NtRp431
(dp432
g66
(dp433
g86
g87
ssg75
g427
sg68
(lp434
S'env'
p435
asbag61
(g82
g63
NtRp436
(dp437
g66
(dp438
g93
g94
ssg75
g427
sg68
(lp439
S':'
asbag61
(g82
g63
NtRp440
(dp441
g66
(dp442
sg75
g427
sg68
(lp443
g61
(g62
g63
NtRp444
(dp445
g66
(dp446
g74
I5
ssg75
g440
sg68
(lp447
g61
(g70
g63
NtRp448
(dp449
g66
(dp450
g74
I4
ssg75
Nsg68
(lp451
g61
(g77
g63
NtRp452
(dp453
g66
(dp454
sg75
g448
sg68
(lp455
g61
(g82
g63
NtRp456
(dp457
g66
(dp458
g86
g87
ssg75
g452
sg68
(lp459
S'app_folders'
p460
asbag61
(g82
g63
NtRp461
(dp462
g66
(dp463
g93
g94
ssg75
g452
sg68
(lp464
S':'
asbag61
(g82
g63
NtRp465
(dp466
g66
(dp467
sg75
g452
sg68
(lp468
g61
(g62
g63
NtRp469
(dp470
g66
(dp471
g74
I4
ssg75
g465
sg68
(lp472
S"set(['D:\\\\Documents\\\\Projets_Perso\\\\jackpoint\\\\web2py\\\\applications\\\\init\\\\'])"
p473
asbasbasbag61
(g77
g63
NtRp474
(dp475
g66
(dp476
sg75
g448
sg68
(lp477
g61
(g82
g63
NtRp478
(dp479
g66
(dp480
g86
g87
ssg75
g474
sg68
(lp481
S'applications_parent'
p482
asbag61
(g82
g63
NtRp483
(dp484
g66
(dp485
g93
g94
ssg75
g474
sg68
(lp486
S':'
asbag61
(g82
g63
NtRp487
(dp488
g66
(dp489
sg75
g474
sg68
(lp490
g61
(g62
g63
NtRp491
(dp492
g66
(dp493
g74
I4
ssg75
g487
sg68
(lp494
S'D:\\Documents\\Projets_Perso\\jackpoint\\web2py'
p495
asbasbasbag61
(g77
g63
NtRp496
(dp497
g66
(dp498
sg75
g448
sg68
(lp499
g61
(g82
g63
NtRp500
(dp501
g66
(dp502
g86
g87
ssg75
g496
sg68
(lp503
S'cmd_args'
p504
asbag61
(g82
g63
NtRp505
(dp506
g66
(dp507
g93
g94
ssg75
g496
sg68
(lp508
S':'
asbag61
(g82
g63
NtRp509
(dp510
g66
(dp511
sg75
g496
sg68
(lp512
g61
(g62
g63
NtRp513
(dp514
g66
(dp515
g74
I4
ssg75
g509
sg68
(lp516
g61
(g70
g63
NtRp517
(dp518
g66
(dp519
g74
I3
ssg75
Nsg68
(lp520
sbasbasbasbag61
(g77
g63
NtRp521
(dp522
g66
(dp523
sg75
g448
sg68
(lp524
g61
(g82
g63
NtRp525
(dp526
g66
(dp527
g86
g87
ssg75
g521
sg68
(lp528
S'cmd_options'
p529
asbag61
(g82
g63
NtRp530
(dp531
g66
(dp532
g93
g94
ssg75
g521
sg68
(lp533
S':'
asbag61
(g82
g63
NtRp534
(dp535
g66
(dp536
sg75
g521
sg68
(lp537
g61
(g62
g63
NtRp538
(dp539
g66
(dp540
g74
I4
ssg75
g534
sg68
(lp541
S"<Values at 0x2254b98: {'verbose': False, 'ip': '127.0.0.1', 'shutdown_timeout': 5, 'taskbar': False, 'nocron': False, 'pid_filename': 'httpserver.pid', 'maxthreads': None, 'softcron': False, 'server_name': 'Pixies', 'bpython': False, 'nogui': False, 'port': 8000, 'extcron': False, 'debuglevel': 30, 'test': None, 'folder': 'D:\\\\Documents\\\\Projets_Perso\\\\jackpoint\\\\web2py', 'config': '', 'import_models': False, 'winservice': '', 'shell': None, 'run': '', 'log_filename': 'httpserver.log', 'args': [''], 'socket_timeout': 5, 'ssl_ca_certificate': None, 'scheduler': None, 'profiler_filename': None, 'ssl_private_key': '', 'password': '<ask>', 'request_queue_size': 5, 'ssl_certificate': '', 'cronjob': False, 'numthreads': None, 'quiet': False, 'interfaces': None, 'minthreads': None, 'timeout': 10, 'plain': False, 'nobanner': False}>"
p542
asbasbasbag61
(g77
g63
NtRp543
(dp544
g66
(dp545
sg75
g448
sg68
(lp546
g61
(g82
g63
NtRp547
(dp548
g66
(dp549
g86
g87
ssg75
g543
sg68
(lp550
S'db_sessions'
p551
asbag61
(g82
g63
NtRp552
(dp553
g66
(dp554
g93
g94
ssg75
g543
sg68
(lp555
S':'
asbag61
(g82
g63
NtRp556
(dp557
g66
(dp558
sg75
g543
sg68
(lp559
g61
(g62
g63
NtRp560
(dp561
g66
(dp562
g74
I4
ssg75
g556
sg68
(lp563
S"set(['init'])"
p564
asbasbasbag61
(g77
g63
NtRp565
(dp566
g66
(dp567
sg75
g448
sg68
(lp568
g61
(g82
g63
NtRp569
(dp570
g66
(dp571
g86
g87
ssg75
g565
sg68
(lp572
S'debugging'
p573
asbag61
(g82
g63
NtRp574
(dp575
g66
(dp576
g93
g94
ssg75
g565
sg68
(lp577
S':'
asbag61
(g82
g63
NtRp578
(dp579
g66
(dp580
sg75
g565
sg68
(lp581
g61
(g62
g63
NtRp582
(dp583
g66
(dp584
g74
I4
ssg75
g578
sg68
(lp585
S'True'
p586
asbasbasbag61
(g77
g63
NtRp587
(dp588
g66
(dp589
sg75
g448
sg68
(lp590
g61
(g82
g63
NtRp591
(dp592
g66
(dp593
g86
g87
ssg75
g587
sg68
(lp594
S'gluon_parent'
p595
asbag61
(g82
g63
NtRp596
(dp597
g66
(dp598
g93
g94
ssg75
g587
sg68
(lp599
S':'
asbag61
(g82
g63
NtRp600
(dp601
g66
(dp602
sg75
g587
sg68
(lp603
g61
(g62
g63
NtRp604
(dp605
g66
(dp606
g74
I4
ssg75
g600
sg68
(lp607
S'D:\\Documents\\Projets_Perso\\jackpoint\\web2py'
p608
asbasbasbag61
(g77
g63
NtRp609
(dp610
g66
(dp611
sg75
g448
sg68
(lp612
g61
(g82
g63
NtRp613
(dp614
g66
(dp615
g86
g87
ssg75
g609
sg68
(lp616
S'http_accept'
p617
asbag61
(g82
g63
NtRp618
(dp619
g66
(dp620
g93
g94
ssg75
g609
sg68
(lp621
S':'
asbag61
(g82
g63
NtRp622
(dp623
g66
(dp624
sg75
g609
sg68
(lp625
g61
(g62
g63
NtRp626
(dp627
g66
(dp628
g74
I4
ssg75
g622
sg68
(lp629
S'*/*'
p630
asbasbasbag61
(g77
g63
NtRp631
(dp632
g66
(dp633
sg75
g448
sg68
(lp634
g61
(g82
g63
NtRp635
(dp636
g66
(dp637
g86
g87
ssg75
g631
sg68
(lp638
S'http_accept_encoding'
p639
asbag61
(g82
g63
NtRp640
(dp641
g66
(dp642
g93
g94
ssg75
g631
sg68
(lp643
S':'
asbag61
(g82
g63
NtRp644
(dp645
g66
(dp646
sg75
g631
sg68
(lp647
g61
(g62
g63
NtRp648
(dp649
g66
(dp650
g74
I4
ssg75
g644
sg68
(lp651
S'gzip, deflate'
p652
asbasbasbag61
(g77
g63
NtRp653
(dp654
g66
(dp655
sg75
g448
sg68
(lp656
g61
(g82
g63
NtRp657
(dp658
g66
(dp659
g86
g87
ssg75
g653
sg68
(lp660
S'http_accept_language'
p661
asbag61
(g82
g63
NtRp662
(dp663
g66
(dp664
g93
g94
ssg75
g653
sg68
(lp665
S':'
asbag61
(g82
g63
NtRp666
(dp667
g66
(dp668
sg75
g653
sg68
(lp669
g61
(g62
g63
NtRp670
(dp671
g66
(dp672
g74
I4
ssg75
g666
sg68
(lp673
S'fr'
p674
asbasbasbag61
(g77
g63
NtRp675
(dp676
g66
(dp677
sg75
g448
sg68
(lp678
g61
(g82
g63
NtRp679
(dp680
g66
(dp681
g86
g87
ssg75
g675
sg68
(lp682
S'http_connection'
p683
asbag61
(g82
g63
NtRp684
(dp685
g66
(dp686
g93
g94
ssg75
g675
sg68
(lp687
S':'
asbag61
(g82
g63
NtRp688
(dp689
g66
(dp690
sg75
g675
sg68
(lp691
g61
(g62
g63
NtRp692
(dp693
g66
(dp694
g74
I4
ssg75
g688
sg68
(lp695
S'Keep-Alive'
p696
asbasbasbag61
(g77
g63
NtRp697
(dp698
g66
(dp699
sg75
g448
sg68
(lp700
g61
(g82
g63
NtRp701
(dp702
g66
(dp703
g86
g87
ssg75
g697
sg68
(lp704
S'http_cookie'
p705
asbag61
(g82
g63
NtRp706
(dp707
g66
(dp708
g93
g94
ssg75
g697
sg68
(lp709
S':'
asbag61
(g82
g63
NtRp710
(dp711
g66
(dp712
sg75
g697
sg68
(lp713
g61
(g62
g63
NtRp714
(dp715
g66
(dp716
g74
I4
ssg75
g710
sg68
(lp717
S'session_id_init="2:cff041d2-11b1-4080-8fe3-1f51b98a7313"'
p718
asbasbasbag61
(g77
g63
NtRp719
(dp720
g66
(dp721
sg75
g448
sg68
(lp722
g61
(g82
g63
NtRp723
(dp724
g66
(dp725
g86
g87
ssg75
g719
sg68
(lp726
S'http_host'
p727
asbag61
(g82
g63
NtRp728
(dp729
g66
(dp730
g93
g94
ssg75
g719
sg68
(lp731
S':'
asbag61
(g82
g63
NtRp732
(dp733
g66
(dp734
sg75
g719
sg68
(lp735
g61
(g62
g63
NtRp736
(dp737
g66
(dp738
g74
I4
ssg75
g732
sg68
(lp739
S'127.0.0.1:8000'
p740
asbasbasbag61
(g77
g63
NtRp741
(dp742
g66
(dp743
sg75
g448
sg68
(lp744
g61
(g82
g63
NtRp745
(dp746
g66
(dp747
g86
g87
ssg75
g741
sg68
(lp748
S'http_ua_cpu'
p749
asbag61
(g82
g63
NtRp750
(dp751
g66
(dp752
g93
g94
ssg75
g741
sg68
(lp753
S':'
asbag61
(g82
g63
NtRp754
(dp755
g66
(dp756
sg75
g741
sg68
(lp757
g61
(g62
g63
NtRp758
(dp759
g66
(dp760
g74
I4
ssg75
g754
sg68
(lp761
S'x86'
p762
asbasbasbag61
(g77
g63
NtRp763
(dp764
g66
(dp765
sg75
g448
sg68
(lp766
g61
(g82
g63
NtRp767
(dp768
g66
(dp769
g86
g87
ssg75
g763
sg68
(lp770
S'http_user_agent'
p771
asbag61
(g82
g63
NtRp772
(dp773
g66
(dp774
g93
g94
ssg75
g763
sg68
(lp775
S':'
asbag61
(g82
g63
NtRp776
(dp777
g66
(dp778
sg75
g763
sg68
(lp779
g61
(g62
g63
NtRp780
(dp781
g66
(dp782
g74
I4
ssg75
g776
sg68
(lp783
S'Mozilla/4.0 (compatible; MSIE 7.0; Windows NT 5.1; BTRS122288; .NET CLR 2.0.50727; .NET CLR 3.0.04506.30; .NET CLR 3.0.4506.2152; .NET CLR 3.5.30729; .NET4.0C; .NET4.0E; Creative AutoUpdate v1.10.10)'
p784
asbasbasbag61
(g77
g63
NtRp785
(dp786
g66
(dp787
sg75
g448
sg68
(lp788
g61
(g82
g63
NtRp789
(dp790
g66
(dp791
g86
g87
ssg75
g785
sg68
(lp792
S'is_jython'
p793
asbag61
(g82
g63
NtRp794
(dp795
g66
(dp796
g93
g94
ssg75
g785
sg68
(lp797
S':'
asbag61
(g82
g63
NtRp798
(dp799
g66
(dp800
sg75
g785
sg68
(lp801
g61
(g62
g63
NtRp802
(dp803
g66
(dp804
g74
I4
ssg75
g798
sg68
(lp805
g104
asbasbasbag61
(g77
g63
NtRp806
(dp807
g66
(dp808
sg75
g448
sg68
(lp809
g61
(g82
g63
NtRp810
(dp811
g66
(dp812
g86
g87
ssg75
g806
sg68
(lp813
S'is_pypy'
p814
asbag61
(g82
g63
NtRp815
(dp816
g66
(dp817
g93
g94
ssg75
g806
sg68
(lp818
S':'
asbag61
(g82
g63
NtRp819
(dp820
g66
(dp821
sg75
g806
sg68
(lp822
g61
(g62
g63
NtRp823
(dp824
g66
(dp825
g74
I4
ssg75
g819
sg68
(lp826
g104
asbasbasbag61
(g77
g63
NtRp827
(dp828
g66
(dp829
sg75
g448
sg68
(lp830
g61
(g82
g63
NtRp831
(dp832
g66
(dp833
g86
g87
ssg75
g827
sg68
(lp834
S'path_info'
p835
asbag61
(g82
g63
NtRp836
(dp837
g66
(dp838
g93
g94
ssg75
g827
sg68
(lp839
S':'
asbag61
(g82
g63
NtRp840
(dp841
g66
(dp842
sg75
g827
sg68
(lp843
g61
(g62
g63
NtRp844
(dp845
g66
(dp846
g74
I4
ssg75
g840
sg68
(lp847
S'/init/default/user/login'
p848
asbasbasbag61
(g77
g63
NtRp849
(dp850
g66
(dp851
sg75
g448
sg68
(lp852
g61
(g82
g63
NtRp853
(dp854
g66
(dp855
g86
g87
ssg75
g849
sg68
(lp856
S'query_string'
p857
asbag61
(g82
g63
NtRp858
(dp859
g66
(dp860
g93
g94
ssg75
g849
sg68
(lp861
S':'
asbag61
(g82
g63
NtRp862
(dp863
g66
(dp864
sg75
g849
sg68
(lp865
g61
(g62
g63
NtRp866
(dp867
g66
(dp868
g74
I4
ssg75
g862
sg68
(lp869
S'_next=/init/default/index'
p870
asbasbasbag61
(g77
g63
NtRp871
(dp872
g66
(dp873
sg75
g448
sg68
(lp874
g61
(g82
g63
NtRp875
(dp876
g66
(dp877
g86
g87
ssg75
g871
sg68
(lp878
S'remote_addr'
p879
asbag61
(g82
g63
NtRp880
(dp881
g66
(dp882
g93
g94
ssg75
g871
sg68
(lp883
S':'
asbag61
(g82
g63
NtRp884
(dp885
g66
(dp886
sg75
g871
sg68
(lp887
g61
(g62
g63
NtRp888
(dp889
g66
(dp890
g74
I4
ssg75
g884
sg68
(lp891
g207
asbasbasbag61
(g77
g63
NtRp892
(dp893
g66
(dp894
sg75
g448
sg68
(lp895
g61
(g82
g63
NtRp896
(dp897
g66
(dp898
g86
g87
ssg75
g892
sg68
(lp899
S'remote_port'
p900
asbag61
(g82
g63
NtRp901
(dp902
g66
(dp903
g93
g94
ssg75
g892
sg68
(lp904
S':'
asbag61
(g82
g63
NtRp905
(dp906
g66
(dp907
sg75
g892
sg68
(lp908
g61
(g62
g63
NtRp909
(dp910
g66
(dp911
g74
I4
ssg75
g905
sg68
(lp912
S'2710'
p913
asbasbasbag61
(g77
g63
NtRp914
(dp915
g66
(dp916
sg75
g448
sg68
(lp917
g61
(g82
g63
NtRp918
(dp919
g66
(dp920
g86
g87
ssg75
g914
sg68
(lp921
S'request_method'
p922
asbag61
(g82
g63
NtRp923
(dp924
g66
(dp925
g93
g94
ssg75
g914
sg68
(lp926
S':'
asbag61
(g82
g63
NtRp927
(dp928
g66
(dp929
sg75
g914
sg68
(lp930
g61
(g62
g63
NtRp931
(dp932
g66
(dp933
g74
I4
ssg75
g927
sg68
(lp934
S'GET'
p935
asbasbasbag61
(g77
g63
NtRp936
(dp937
g66
(dp938
sg75
g448
sg68
(lp939
g61
(g82
g63
NtRp940
(dp941
g66
(dp942
g86
g87
ssg75
g936
sg68
(lp943
S'script_name'
p944
asbag61
(g82
g63
NtRp945
(dp946
g66
(dp947
g93
g94
ssg75
g936
sg68
(lp948
S':'
asbag61
(g82
g63
NtRp949
(dp950
g66
(dp951
sg75
g936
sg68
(lp952
g61
(g62
g63
NtRp953
(dp954
g66
(dp955
g74
I4
ssg75
g949
sg68
(lp956
S''
asbasbasbag61
(g77
g63
NtRp957
(dp958
g66
(dp959
sg75
g448
sg68
(lp960
g61
(g82
g63
NtRp961
(dp962
g66
(dp963
g86
g87
ssg75
g957
sg68
(lp964
S'server_name'
p965
asbag61
(g82
g63
NtRp966
(dp967
g66
(dp968
g93
g94
ssg75
g957
sg68
(lp969
S':'
asbag61
(g82
g63
NtRp970
(dp971
g66
(dp972
sg75
g957
sg68
(lp973
g61
(g62
g63
NtRp974
(dp975
g66
(dp976
g74
I4
ssg75
g970
sg68
(lp977
S'Pixies'
p978
asbasbasbag61
(g77
g63
NtRp979
(dp980
g66
(dp981
sg75
g448
sg68
(lp982
g61
(g82
g63
NtRp983
(dp984
g66
(dp985
g86
g87
ssg75
g979
sg68
(lp986
S'server_port'
p987
asbag61
(g82
g63
NtRp988
(dp989
g66
(dp990
g93
g94
ssg75
g979
sg68
(lp991
S':'
asbag61
(g82
g63
NtRp992
(dp993
g66
(dp994
sg75
g979
sg68
(lp995
g61
(g62
g63
NtRp996
(dp997
g66
(dp998
g74
I4
ssg75
g992
sg68
(lp999
S'8000'
p1000
asbasbasbag61
(g77
g63
NtRp1001
(dp1002
g66
(dp1003
sg75
g448
sg68
(lp1004
g61
(g82
g63
NtRp1005
(dp1006
g66
(dp1007
g86
g87
ssg75
g1001
sg68
(lp1008
S'server_protocol'
p1009
asbag61
(g82
g63
NtRp1010
(dp1011
g66
(dp1012
g93
g94
ssg75
g1001
sg68
(lp1013
S':'
asbag61
(g82
g63
NtRp1014
(dp1015
g66
(dp1016
sg75
g1001
sg68
(lp1017
g61
(g62
g63
NtRp1018
(dp1019
g66
(dp1020
g74
I4
ssg75
g1014
sg68
(lp1021
S'HTTP/1.1'
p1022
asbasbasbag61
(g77
g63
NtRp1023
(dp1024
g66
(dp1025
sg75
g448
sg68
(lp1026
g61
(g82
g63
NtRp1027
(dp1028
g66
(dp1029
g86
g87
ssg75
g1023
sg68
(lp1030
S'server_software'
p1031
asbag61
(g82
g63
NtRp1032
(dp1033
g66
(dp1034
g93
g94
ssg75
g1023
sg68
(lp1035
S':'
asbag61
(g82
g63
NtRp1036
(dp1037
g66
(dp1038
sg75
g1023
sg68
(lp1039
g61
(g62
g63
NtRp1040
(dp1041
g66
(dp1042
g74
I4
ssg75
g1036
sg68
(lp1043
S'Rocket 1.2.4'
p1044
asbasbasbag61
(g77
g63
NtRp1045
(dp1046
g66
(dp1047
sg75
g448
sg68
(lp1048
g61
(g82
g63
NtRp1049
(dp1050
g66
(dp1051
g86
g87
ssg75
g1045
sg68
(lp1052
S'web2py_crontype'
p1053
asbag61
(g82
g63
NtRp1054
(dp1055
g66
(dp1056
g93
g94
ssg75
g1045
sg68
(lp1057
S':'
asbag61
(g82
g63
NtRp1058
(dp1059
g66
(dp1060
sg75
g1045
sg68
(lp1061
g61
(g62
g63
NtRp1062
(dp1063
g66
(dp1064
g74
I4
ssg75
g1058
sg68
(lp1065
S'hard'
p1066
asbasbasbag61
(g77
g63
NtRp1067
(dp1068
g66
(dp1069
sg75
g448
sg68
(lp1070
g61
(g82
g63
NtRp1071
(dp1072
g66
(dp1073
g86
g87
ssg75
g1067
sg68
(lp1074
S'web2py_path'
p1075
asbag61
(g82
g63
NtRp1076
(dp1077
g66
(dp1078
g93
g94
ssg75
g1067
sg68
(lp1079
S':'
asbag61
(g82
g63
NtRp1080
(dp1081
g66
(dp1082
sg75
g1067
sg68
(lp1083
g61
(g62
g63
NtRp1084
(dp1085
g66
(dp1086
g74
I4
ssg75
g1080
sg68
(lp1087
g495
asbasbasbag61
(g77
g63
NtRp1088
(dp1089
g66
(dp1090
sg75
g448
sg68
(lp1091
g61
(g82
g63
NtRp1092
(dp1093
g66
(dp1094
g86
g87
ssg75
g1088
sg68
(lp1095
S'web2py_version'
p1096
asbag61
(g82
g63
NtRp1097
(dp1098
g66
(dp1099
g93
g94
ssg75
g1088
sg68
(lp1100
S':'
asbag61
(g82
g63
NtRp1101
(dp1102
g66
(dp1103
sg75
g1088
sg68
(lp1104
g61
(g62
g63
NtRp1105
(dp1106
g66
(dp1107
g74
I4
ssg75
g1101
sg68
(lp1108
g61
(g70
g63
NtRp1109
(dp1110
g66
(dp1111
g74
I3
ssg75
Nsg68
(lp1112
g61
(g77
g63
NtRp1113
(dp1114
g66
(dp1115
sg75
g1109
sg68
(lp1116
g61
(g82
g63
NtRp1117
(dp1118
g66
(dp1119
sg75
g1113
sg68
(lp1120
g61
(g62
g63
NtRp1121
(dp1122
g66
(dp1123
g74
I3
ssg75
g1117
sg68
(lp1124
S'1'
asbasbasbag61
(g77
g63
NtRp1125
(dp1126
g66
(dp1127
sg75
g1109
sg68
(lp1128
g61
(g82
g63
NtRp1129
(dp1130
g66
(dp1131
sg75
g1125
sg68
(lp1132
g61
(g62
g63
NtRp1133
(dp1134
g66
(dp1135
g74
I3
ssg75
g1129
sg68
(lp1136
S'99'
p1137
asbasbasbag61
(g77
g63
NtRp1138
(dp1139
g66
(dp1140
sg75
g1109
sg68
(lp1141
g61
(g82
g63
NtRp1142
(dp1143
g66
(dp1144
sg75
g1138
sg68
(lp1145
g61
(g62
g63
NtRp1146
(dp1147
g66
(dp1148
g74
I3
ssg75
g1142
sg68
(lp1149
S'7'
asbasbasbag61
(g77
g63
NtRp1150
(dp1151
g66
(dp1152
sg75
g1109
sg68
(lp1153
g61
(g82
g63
NtRp1154
(dp1155
g66
(dp1156
sg75
g1150
sg68
(lp1157
g61
(g62
g63
NtRp1158
(dp1159
g66
(dp1160
g74
I3
ssg75
g1154
sg68
(lp1161
S'datetime.datetime(2012, 3, 4, 22, 12, 8)'
p1162
asbasbasbag61
(g77
g63
NtRp1163
(dp1164
g66
(dp1165
sg75
g1109
sg68
(lp1166
g61
(g82
g63
NtRp1167
(dp1168
g66
(dp1169
sg75
g1163
sg68
(lp1170
g61
(g62
g63
NtRp1171
(dp1172
g66
(dp1173
g74
I3
ssg75
g1167
sg68
(lp1174
S'stable'
p1175
asbasbasbasbasbasbasbag61
(g77
g63
NtRp1176
(dp1177
g66
(dp1178
sg75
g448
sg68
(lp1179
g61
(g82
g63
NtRp1180
(dp1181
g66
(dp1182
g86
g87
ssg75
g1176
sg68
(lp1183
S'wsgi_errors'
p1184
asbag61
(g82
g63
NtRp1185
(dp1186
g66
(dp1187
g93
g94
ssg75
g1176
sg68
(lp1188
S':'
asbag61
(g82
g63
NtRp1189
(dp1190
g66
(dp1191
sg75
g1176
sg68
(lp1192
g61
(g62
g63
NtRp1193
(dp1194
g66
(dp1195
g74
I4
ssg75
g1189
sg68
(lp1196
S"<open file '<stderr>', mode 'w' at 0x009000B0>"
p1197
asbasbasbag61
(g77
g63
NtRp1198
(dp1199
g66
(dp1200
sg75
g448
sg68
(lp1201
g61
(g82
g63
NtRp1202
(dp1203
g66
(dp1204
g86
g87
ssg75
g1198
sg68
(lp1205
S'wsgi_file_wrapper'
p1206
asbag61
(g82
g63
NtRp1207
(dp1208
g66
(dp1209
g93
g94
ssg75
g1198
sg68
(lp1210
S':'
asbag61
(g82
g63
NtRp1211
(dp1212
g66
(dp1213
sg75
g1198
sg68
(lp1214
g61
(g62
g63
NtRp1215
(dp1216
g66
(dp1217
g74
I4
ssg75
g1211
sg68
(lp1218
S'<class wsgiref.util.FileWrapper at 0x0159C600>'
p1219
asbasbasbag61
(g77
g63
NtRp1220
(dp1221
g66
(dp1222
sg75
g448
sg68
(lp1223
g61
(g82
g63
NtRp1224
(dp1225
g66
(dp1226
g86
g87
ssg75
g1220
sg68
(lp1227
S'wsgi_input'
p1228
asbag61
(g82
g63
NtRp1229
(dp1230
g66
(dp1231
g93
g94
ssg75
g1220
sg68
(lp1232
S':'
asbag61
(g82
g63
NtRp1233
(dp1234
g66
(dp1235
sg75
g1220
sg68
(lp1236
g61
(g62
g63
NtRp1237
(dp1238
g66
(dp1239
g74
I4
ssg75
g1233
sg68
(lp1240
S'<socket._fileobject object at 0x024090F0>'
p1241
asbasbasbag61
(g77
g63
NtRp1242
(dp1243
g66
(dp1244
sg75
g448
sg68
(lp1245
g61
(g82
g63
NtRp1246
(dp1247
g66
(dp1248
g86
g87
ssg75
g1242
sg68
(lp1249
S'wsgi_multiprocess'
p1250
asbag61
(g82
g63
NtRp1251
(dp1252
g66
(dp1253
g93
g94
ssg75
g1242
sg68
(lp1254
S':'
asbag61
(g82
g63
NtRp1255
(dp1256
g66
(dp1257
sg75
g1242
sg68
(lp1258
g61
(g62
g63
NtRp1259
(dp1260
g66
(dp1261
g74
I4
ssg75
g1255
sg68
(lp1262
g104
asbasbasbag61
(g77
g63
NtRp1263
(dp1264
g66
(dp1265
sg75
g448
sg68
(lp1266
g61
(g82
g63
NtRp1267
(dp1268
g66
(dp1269
g86
g87
ssg75
g1263
sg68
(lp1270
S'wsgi_multithread'
p1271
asbag61
(g82
g63
NtRp1272
(dp1273
g66
(dp1274
g93
g94
ssg75
g1263
sg68
(lp1275
S':'
asbag61
(g82
g63
NtRp1276
(dp1277
g66
(dp1278
sg75
g1263
sg68
(lp1279
g61
(g62
g63
NtRp1280
(dp1281
g66
(dp1282
g74
I4
ssg75
g1276
sg68
(lp1283
g586
asbasbasbag61
(g77
g63
NtRp1284
(dp1285
g66
(dp1286
sg75
g448
sg68
(lp1287
g61
(g82
g63
NtRp1288
(dp1289
g66
(dp1290
g86
g87
ssg75
g1284
sg68
(lp1291
S'wsgi_run_once'
p1292
asbag61
(g82
g63
NtRp1293
(dp1294
g66
(dp1295
g93
g94
ssg75
g1284
sg68
(lp1296
S':'
asbag61
(g82
g63
NtRp1297
(dp1298
g66
(dp1299
sg75
g1284
sg68
(lp1300
g61
(g62
g63
NtRp1301
(dp1302
g66
(dp1303
g74
I4
ssg75
g1297
sg68
(lp1304
g104
asbasbasbag61
(g77
g63
NtRp1305
(dp1306
g66
(dp1307
sg75
g448
sg68
(lp1308
g61
(g82
g63
NtRp1309
(dp1310
g66
(dp1311
g86
g87
ssg75
g1305
sg68
(lp1312
S'wsgi_url_scheme'
p1313
asbag61
(g82
g63
NtRp1314
(dp1315
g66
(dp1316
g93
g94
ssg75
g1305
sg68
(lp1317
S':'
asbag61
(g82
g63
NtRp1318
(dp1319
g66
(dp1320
sg75
g1305
sg68
(lp1321
g61
(g62
g63
NtRp1322
(dp1323
g66
(dp1324
g74
I4
ssg75
g1318
sg68
(lp1325
S'http'
p1326
asbasbasbag61
(g77
g63
NtRp1327
(dp1328
g66
(dp1329
sg75
g448
sg68
(lp1330
g61
(g82
g63
NtRp1331
(dp1332
g66
(dp1333
g86
g87
ssg75
g1327
sg68
(lp1334
S'wsgi_version'
p1335
asbag61
(g82
g63
NtRp1336
(dp1337
g66
(dp1338
g93
g94
ssg75
g1327
sg68
(lp1339
S':'
asbag61
(g82
g63
NtRp1340
(dp1341
g66
(dp1342
sg75
g1327
sg68
(lp1343
g61
(g62
g63
NtRp1344
(dp1345
g66
(dp1346
g74
I4
ssg75
g1340
sg68
(lp1347
g61
(g70
g63
NtRp1348
(dp1349
g66
(dp1350
g74
I3
ssg75
Nsg68
(lp1351
g61
(g77
g63
NtRp1352
(dp1353
g66
(dp1354
sg75
g1348
sg68
(lp1355
g61
(g82
g63
NtRp1356
(dp1357
g66
(dp1358
sg75
g1352
sg68
(lp1359
g61
(g62
g63
NtRp1360
(dp1361
g66
(dp1362
g74
I3
ssg75
g1356
sg68
(lp1363
S'1'
asbasbasbag61
(g77
g63
NtRp1364
(dp1365
g66
(dp1366
sg75
g1348
sg68
(lp1367
g61
(g82
g63
NtRp1368
(dp1369
g66
(dp1370
sg75
g1364
sg68
(lp1371
g61
(g62
g63
NtRp1372
(dp1373
g66
(dp1374
g74
I3
ssg75
g1368
sg68
(lp1375
S'0'
asbasbasbasbasbasbasbasbasbasbasbag61
(g77
g63
NtRp1376
(dp1377
g66
(dp1378
sg75
g71
sg68
(lp1379
g61
(g82
g63
NtRp1380
(dp1381
g66
(dp1382
g86
g87
ssg75
g1376
sg68
(lp1383
S'extension'
p1384
asbag61
(g82
g63
NtRp1385
(dp1386
g66
(dp1387
g93
g94
ssg75
g1376
sg68
(lp1388
S':'
asbag61
(g82
g63
NtRp1389
(dp1390
g66
(dp1391
sg75
g1376
sg68
(lp1392
g61
(g62
g63
NtRp1393
(dp1394
g66
(dp1395
g74
I5
ssg75
g1389
sg68
(lp1396
S'html'
p1397
asbasbasbag61
(g77
g63
NtRp1398
(dp1399
g66
(dp1400
sg75
g71
sg68
(lp1401
g61
(g82
g63
NtRp1402
(dp1403
g66
(dp1404
g86
g87
ssg75
g1398
sg68
(lp1405
S'folder'
p1406
asbag61
(g82
g63
NtRp1407
(dp1408
g66
(dp1409
g93
g94
ssg75
g1398
sg68
(lp1410
S':'
asbag61
(g82
g63
NtRp1411
(dp1412
g66
(dp1413
sg75
g1398
sg68
(lp1414
g61
(g62
g63
NtRp1415
(dp1416
g66
(dp1417
g74
I5
ssg75
g1411
sg68
(lp1418
S'D:\\Documents\\Projets_Perso\\jackpoint\\web2py\\applications\\init\\'
p1419
asbasbasbag61
(g77
g63
NtRp1420
(dp1421
g66
(dp1422
sg75
g71
sg68
(lp1423
g61
(g82
g63
NtRp1424
(dp1425
g66
(dp1426
g86
g87
ssg75
g1420
sg68
(lp1427
S'function'
p1428
asbag61
(g82
g63
NtRp1429
(dp1430
g66
(dp1431
g93
g94
ssg75
g1420
sg68
(lp1432
S':'
asbag61
(g82
g63
NtRp1433
(dp1434
g66
(dp1435
sg75
g1420
sg68
(lp1436
g61
(g62
g63
NtRp1437
(dp1438
g66
(dp1439
g74
I5
ssg75
g1433
sg68
(lp1440
S'user'
p1441
asbasbasbag61
(g77
g63
NtRp1442
(dp1443
g66
(dp1444
sg75
g71
sg68
(lp1445
g61
(g82
g63
NtRp1446
(dp1447
g66
(dp1448
g86
g87
ssg75
g1442
sg68
(lp1449
S'get_vars'
p1450
asbag61
(g82
g63
NtRp1451
(dp1452
g66
(dp1453
g93
g94
ssg75
g1442
sg68
(lp1454
S':'
asbag61
(g82
g63
NtRp1455
(dp1456
g66
(dp1457
sg75
g1442
sg68
(lp1458
g61
(g62
g63
NtRp1459
(dp1460
g66
(dp1461
g74
I5
ssg75
g1455
sg68
(lp1462
g61
(g70
g63
NtRp1463
(dp1464
g66
(dp1465
g74
I4
ssg75
Nsg68
(lp1466
sbasbasbasbag61
(g77
g63
NtRp1467
(dp1468
g66
(dp1469
sg75
g71
sg68
(lp1470
g61
(g82
g63
NtRp1471
(dp1472
g66
(dp1473
g86
g87
ssg75
g1467
sg68
(lp1474
S'global_settings'
p1475
asbag61
(g82
g63
NtRp1476
(dp1477
g66
(dp1478
g93
g94
ssg75
g1467
sg68
(lp1479
S':'
asbag61
(g82
g63
NtRp1480
(dp1481
g66
(dp1482
sg75
g1467
sg68
(lp1483
g61
(g62
g63
NtRp1484
(dp1485
g66
(dp1486
g74
I5
ssg75
g1480
sg68
(lp1487
g61
(g70
g63
NtRp1488
(dp1489
g66
(dp1490
g74
I4
ssg75
Nsg68
(lp1491
g61
(g77
g63
NtRp1492
(dp1493
g66
(dp1494
sg75
g1488
sg68
(lp1495
g61
(g82
g63
NtRp1496
(dp1497
g66
(dp1498
g86
g87
ssg75
g1492
sg68
(lp1499
g460
asbag61
(g82
g63
NtRp1500
(dp1501
g66
(dp1502
g93
g94
ssg75
g1492
sg68
(lp1503
S':'
asbag61
(g82
g63
NtRp1504
(dp1505
g66
(dp1506
sg75
g1492
sg68
(lp1507
g61
(g62
g63
NtRp1508
(dp1509
g66
(dp1510
g74
I4
ssg75
g1504
sg68
(lp1511
S"set(['D:\\\\Documents\\\\Projets_Perso\\\\jackpoint\\\\web2py\\\\applications\\\\init\\\\'])"
p1512
asbasbasbag61
(g77
g63
NtRp1513
(dp1514
g66
(dp1515
sg75
g1488
sg68
(lp1516
g61
(g82
g63
NtRp1517
(dp1518
g66
(dp1519
g86
g87
ssg75
g1513
sg68
(lp1520
g482
asbag61
(g82
g63
NtRp1521
(dp1522
g66
(dp1523
g93
g94
ssg75
g1513
sg68
(lp1524
S':'
asbag61
(g82
g63
NtRp1525
(dp1526
g66
(dp1527
sg75
g1513
sg68
(lp1528
g61
(g62
g63
NtRp1529
(dp1530
g66
(dp1531
g74
I4
ssg75
g1525
sg68
(lp1532
g495
asbasbasbag61
(g77
g63
NtRp1533
(dp1534
g66
(dp1535
sg75
g1488
sg68
(lp1536
g61
(g82
g63
NtRp1537
(dp1538
g66
(dp1539
g86
g87
ssg75
g1533
sg68
(lp1540
g504
asbag61
(g82
g63
NtRp1541
(dp1542
g66
(dp1543
g93
g94
ssg75
g1533
sg68
(lp1544
S':'
asbag61
(g82
g63
NtRp1545
(dp1546
g66
(dp1547
sg75
g1533
sg68
(lp1548
g61
(g62
g63
NtRp1549
(dp1550
g66
(dp1551
g74
I4
ssg75
g1545
sg68
(lp1552
g61
(g70
g63
NtRp1553
(dp1554
g66
(dp1555
g74
I3
ssg75
Nsg68
(lp1556
sbasbasbasbag61
(g77
g63
NtRp1557
(dp1558
g66
(dp1559
sg75
g1488
sg68
(lp1560
g61
(g82
g63
NtRp1561
(dp1562
g66
(dp1563
g86
g87
ssg75
g1557
sg68
(lp1564
g529
asbag61
(g82
g63
NtRp1565
(dp1566
g66
(dp1567
g93
g94
ssg75
g1557
sg68
(lp1568
S':'
asbag61
(g82
g63
NtRp1569
(dp1570
g66
(dp1571
sg75
g1557
sg68
(lp1572
g61
(g62
g63
NtRp1573
(dp1574
g66
(dp1575
g74
I4
ssg75
g1569
sg68
(lp1576
S"<Values at 0x2254b98: {'verbose': False, 'ip': '127.0.0.1', 'shutdown_timeout': 5, 'taskbar': False, 'nocron': False, 'pid_filename': 'httpserver.pid', 'maxthreads': None, 'softcron': False, 'server_name': 'Pixies', 'bpython': False, 'nogui': False, 'port': 8000, 'extcron': False, 'debuglevel': 30, 'test': None, 'folder': 'D:\\\\Documents\\\\Projets_Perso\\\\jackpoint\\\\web2py', 'config': '', 'import_models': False, 'winservice': '', 'shell': None, 'run': '', 'log_filename': 'httpserver.log', 'args': [''], 'socket_timeout': 5, 'ssl_ca_certificate': None, 'scheduler': None, 'profiler_filename': None, 'ssl_private_key': '', 'password': '<ask>', 'request_queue_size': 5, 'ssl_certificate': '', 'cronjob': False, 'numthreads': None, 'quiet': False, 'interfaces': None, 'minthreads': None, 'timeout': 10, 'plain': False, 'nobanner': False}>"
p1577
asbasbasbag61
(g77
g63
NtRp1578
(dp1579
g66
(dp1580
sg75
g1488
sg68
(lp1581
g61
(g82
g63
NtRp1582
(dp1583
g66
(dp1584
g86
g87
ssg75
g1578
sg68
(lp1585
g551
asbag61
(g82
g63
NtRp1586
(dp1587
g66
(dp1588
g93
g94
ssg75
g1578
sg68
(lp1589
S':'
asbag61
(g82
g63
NtRp1590
(dp1591
g66
(dp1592
sg75
g1578
sg68
(lp1593
g61
(g62
g63
NtRp1594
(dp1595
g66
(dp1596
g74
I4
ssg75
g1590
sg68
(lp1597
S"set(['init'])"
p1598
asbasbasbag61
(g77
g63
NtRp1599
(dp1600
g66
(dp1601
sg75
g1488
sg68
(lp1602
g61
(g82
g63
NtRp1603
(dp1604
g66
(dp1605
g86
g87
ssg75
g1599
sg68
(lp1606
g573
asbag61
(g82
g63
NtRp1607
(dp1608
g66
(dp1609
g93
g94
ssg75
g1599
sg68
(lp1610
S':'
asbag61
(g82
g63
NtRp1611
(dp1612
g66
(dp1613
sg75
g1599
sg68
(lp1614
g61
(g62
g63
NtRp1615
(dp1616
g66
(dp1617
g74
I4
ssg75
g1611
sg68
(lp1618
g586
asbasbasbag61
(g77
g63
NtRp1619
(dp1620
g66
(dp1621
sg75
g1488
sg68
(lp1622
g61
(g82
g63
NtRp1623
(dp1624
g66
(dp1625
g86
g87
ssg75
g1619
sg68
(lp1626
g595
asbag61
(g82
g63
NtRp1627
(dp1628
g66
(dp1629
g93
g94
ssg75
g1619
sg68
(lp1630
S':'
asbag61
(g82
g63
NtRp1631
(dp1632
g66
(dp1633
sg75
g1619
sg68
(lp1634
g61
(g62
g63
NtRp1635
(dp1636
g66
(dp1637
g74
I4
ssg75
g1631
sg68
(lp1638
g608
asbasbasbag61
(g77
g63
NtRp1639
(dp1640
g66
(dp1641
sg75
g1488
sg68
(lp1642
g61
(g82
g63
NtRp1643
(dp1644
g66
(dp1645
g86
g87
ssg75
g1639
sg68
(lp1646
g793
asbag61
(g82
g63
NtRp1647
(dp1648
g66
(dp1649
g93
g94
ssg75
g1639
sg68
(lp1650
S':'
asbag61
(g82
g63
NtRp1651
(dp1652
g66
(dp1653
sg75
g1639
sg68
(lp1654
g61
(g62
g63
NtRp1655
(dp1656
g66
(dp1657
g74
I4
ssg75
g1651
sg68
(lp1658
g104
asbasbasbag61
(g77
g63
NtRp1659
(dp1660
g66
(dp1661
sg75
g1488
sg68
(lp1662
g61
(g82
g63
NtRp1663
(dp1664
g66
(dp1665
g86
g87
ssg75
g1659
sg68
(lp1666
g814
asbag61
(g82
g63
NtRp1667
(dp1668
g66
(dp1669
g93
g94
ssg75
g1659
sg68
(lp1670
S':'
asbag61
(g82
g63
NtRp1671
(dp1672
g66
(dp1673
sg75
g1659
sg68
(lp1674
g61
(g62
g63
NtRp1675
(dp1676
g66
(dp1677
g74
I4
ssg75
g1671
sg68
(lp1678
g104
asbasbasbag61
(g77
g63
NtRp1679
(dp1680
g66
(dp1681
sg75
g1488
sg68
(lp1682
g61
(g82
g63
NtRp1683
(dp1684
g66
(dp1685
g86
g87
ssg75
g1679
sg68
(lp1686
g1053
asbag61
(g82
g63
NtRp1687
(dp1688
g66
(dp1689
g93
g94
ssg75
g1679
sg68
(lp1690
S':'
asbag61
(g82
g63
NtRp1691
(dp1692
g66
(dp1693
sg75
g1679
sg68
(lp1694
g61
(g62
g63
NtRp1695
(dp1696
g66
(dp1697
g74
I4
ssg75
g1691
sg68
(lp1698
g1066
asbasbasbag61
(g77
g63
NtRp1699
(dp1700
g66
(dp1701
sg75
g1488
sg68
(lp1702
g61
(g82
g63
NtRp1703
(dp1704
g66
(dp1705
g86
g87
ssg75
g1699
sg68
(lp1706
g1096
asbag61
(g82
g63
NtRp1707
(dp1708
g66
(dp1709
g93
g94
ssg75
g1699
sg68
(lp1710
S':'
asbag61
(g82
g63
NtRp1711
(dp1712
g66
(dp1713
sg75
g1699
sg68
(lp1714
g61
(g62
g63
NtRp1715
(dp1716
g66
(dp1717
g74
I4
ssg75
g1711
sg68
(lp1718
g61
(g70
g63
NtRp1719
(dp1720
g66
(dp1721
g74
I3
ssg75
Nsg68
(lp1722
g61
(g77
g63
NtRp1723
(dp1724
g66
(dp1725
sg75
g1719
sg68
(lp1726
g61
(g82
g63
NtRp1727
(dp1728
g66
(dp1729
sg75
g1723
sg68
(lp1730
g61
(g62
g63
NtRp1731
(dp1732
g66
(dp1733
g74
I3
ssg75
g1727
sg68
(lp1734
S'1'
asbasbasbag61
(g77
g63
NtRp1735
(dp1736
g66
(dp1737
sg75
g1719
sg68
(lp1738
g61
(g82
g63
NtRp1739
(dp1740
g66
(dp1741
sg75
g1735
sg68
(lp1742
g61
(g62
g63
NtRp1743
(dp1744
g66
(dp1745
g74
I3
ssg75
g1739
sg68
(lp1746
S'99'
p1747
asbasbasbag61
(g77
g63
NtRp1748
(dp1749
g66
(dp1750
sg75
g1719
sg68
(lp1751
g61
(g82
g63
NtRp1752
(dp1753
g66
(dp1754
sg75
g1748
sg68
(lp1755
g61
(g62
g63
NtRp1756
(dp1757
g66
(dp1758
g74
I3
ssg75
g1752
sg68
(lp1759
S'7'
asbasbasbag61
(g77
g63
NtRp1760
(dp1761
g66
(dp1762
sg75
g1719
sg68
(lp1763
g61
(g82
g63
NtRp1764
(dp1765
g66
(dp1766
sg75
g1760
sg68
(lp1767
g61
(g62
g63
NtRp1768
(dp1769
g66
(dp1770
g74
I3
ssg75
g1764
sg68
(lp1771
S'datetime.datetime(2012, 3, 4, 22, 12, 8)'
p1772
asbasbasbag61
(g77
g63
NtRp1773
(dp1774
g66
(dp1775
sg75
g1719
sg68
(lp1776
g61
(g82
g63
NtRp1777
(dp1778
g66
(dp1779
sg75
g1773
sg68
(lp1780
g61
(g62
g63
NtRp1781
(dp1782
g66
(dp1783
g74
I3
ssg75
g1777
sg68
(lp1784
g1175
asbasbasbasbasbasbasbasbasbasbasbag61
(g77
g63
NtRp1785
(dp1786
g66
(dp1787
sg75
g71
sg68
(lp1788
g61
(g82
g63
NtRp1789
(dp1790
g66
(dp1791
g86
g87
ssg75
g1785
sg68
(lp1792
S'is_https'
p1793
asbag61
(g82
g63
NtRp1794
(dp1795
g66
(dp1796
g93
g94
ssg75
g1785
sg68
(lp1797
S':'
asbag61
(g82
g63
NtRp1798
(dp1799
g66
(dp1800
sg75
g1785
sg68
(lp1801
g61
(g62
g63
NtRp1802
(dp1803
g66
(dp1804
g74
I5
ssg75
g1798
sg68
(lp1805
g104
asbasbasbag61
(g77
g63
NtRp1806
(dp1807
g66
(dp1808
sg75
g71
sg68
(lp1809
g61
(g82
g63
NtRp1810
(dp1811
g66
(dp1812
g86
g87
ssg75
g1806
sg68
(lp1813
S'is_local'
p1814
asbag61
(g82
g63
NtRp1815
(dp1816
g66
(dp1817
g93
g94
ssg75
g1806
sg68
(lp1818
S':'
asbag61
(g82
g63
NtRp1819
(dp1820
g66
(dp1821
sg75
g1806
sg68
(lp1822
g61
(g62
g63
NtRp1823
(dp1824
g66
(dp1825
g74
I5
ssg75
g1819
sg68
(lp1826
g586
asbasbasbag61
(g77
g63
NtRp1827
(dp1828
g66
(dp1829
sg75
g71
sg68
(lp1830
g61
(g82
g63
NtRp1831
(dp1832
g66
(dp1833
g86
g87
ssg75
g1827
sg68
(lp1834
S'is_restful'
p1835
asbag61
(g82
g63
NtRp1836
(dp1837
g66
(dp1838
g93
g94
ssg75
g1827
sg68
(lp1839
S':'
asbag61
(g82
g63
NtRp1840
(dp1841
g66
(dp1842
sg75
g1827
sg68
(lp1843
g61
(g62
g63
NtRp1844
(dp1845
g66
(dp1846
g74
I5
ssg75
g1840
sg68
(lp1847
g104
asbasbasbag61
(g77
g63
NtRp1848
(dp1849
g66
(dp1850
sg75
g71
sg68
(lp1851
g61
(g82
g63
NtRp1852
(dp1853
g66
(dp1854
g86
g87
ssg75
g1848
sg68
(lp1855
S'now'
p1856
asbag61
(g82
g63
NtRp1857
(dp1858
g66
(dp1859
g93
g94
ssg75
g1848
sg68
(lp1860
S':'
asbag61
(g82
g63
NtRp1861
(dp1862
g66
(dp1863
sg75
g1848
sg68
(lp1864
g61
(g62
g63
NtRp1865
(dp1866
g66
(dp1867
g74
I5
ssg75
g1861
sg68
(lp1868
S'datetime.datetime(2012, 3, 14, 16, 3, 42, 500000)'
p1869
asbasbasbag61
(g77
g63
NtRp1870
(dp1871
g66
(dp1872
sg75
g71
sg68
(lp1873
g61
(g82
g63
NtRp1874
(dp1875
g66
(dp1876
g86
g87
ssg75
g1870
sg68
(lp1877
S'post_vars'
p1878
asbag61
(g82
g63
NtRp1879
(dp1880
g66
(dp1881
g93
g94
ssg75
g1870
sg68
(lp1882
S':'
asbag61
(g82
g63
NtRp1883
(dp1884
g66
(dp1885
sg75
g1870
sg68
(lp1886
g61
(g62
g63
NtRp1887
(dp1888
g66
(dp1889
g74
I5
ssg75
g1883
sg68
(lp1890
g61
(g70
g63
NtRp1891
(dp1892
g66
(dp1893
g74
I4
ssg75
Nsg68
(lp1894
sbasbasbasbag61
(g77
g63
NtRp1895
(dp1896
g66
(dp1897
sg75
g71
sg68
(lp1898
g61
(g82
g63
NtRp1899
(dp1900
g66
(dp1901
g86
g87
ssg75
g1895
sg68
(lp1902
S'raw_args'
p1903
asbag61
(g82
g63
NtRp1904
(dp1905
g66
(dp1906
g93
g94
ssg75
g1895
sg68
(lp1907
S':'
asbag61
(g82
g63
NtRp1908
(dp1909
g66
(dp1910
sg75
g1895
sg68
(lp1911
g61
(g62
g63
NtRp1912
(dp1913
g66
(dp1914
g74
I5
ssg75
g1908
sg68
(lp1915
S'login'
p1916
asbasbasbag61
(g77
g63
NtRp1917
(dp1918
g66
(dp1919
sg75
g71
sg68
(lp1920
g61
(g82
g63
NtRp1921
(dp1922
g66
(dp1923
g86
g87
ssg75
g1917
sg68
(lp1924
S'url'
p1925
asbag61
(g82
g63
NtRp1926
(dp1927
g66
(dp1928
g93
g94
ssg75
g1917
sg68
(lp1929
S':'
asbag61
(g82
g63
NtRp1930
(dp1931
g66
(dp1932
sg75
g1917
sg68
(lp1933
g61
(g62
g63
NtRp1934
(dp1935
g66
(dp1936
g74
I5
ssg75
g1930
sg68
(lp1937
S'/init/default/user/login'
p1938
asbasbasbag61
(g77
g63
NtRp1939
(dp1940
g66
(dp1941
sg75
g71
sg68
(lp1942
g61
(g82
g63
NtRp1943
(dp1944
g66
(dp1945
g86
g87
ssg75
g1939
sg68
(lp1946
S'utcnow'
p1947
asbag61
(g82
g63
NtRp1948
(dp1949
g66
(dp1950
g93
g94
ssg75
g1939
sg68
(lp1951
S':'
asbag61
(g82
g63
NtRp1952
(dp1953
g66
(dp1954
sg75
g1939
sg68
(lp1955
g61
(g62
g63
NtRp1956
(dp1957
g66
(dp1958
g74
I5
ssg75
g1952
sg68
(lp1959
S'datetime.datetime(2012, 3, 14, 15, 3, 42, 500000)'
p1960
asbasbasbag61
(g77
g63
NtRp1961
(dp1962
g66
(dp1963
sg75
g71
sg68
(lp1964
g61
(g82
g63
NtRp1965
(dp1966
g66
(dp1967
g86
g87
ssg75
g1961
sg68
(lp1968
S'uuid'
p1969
asbag61
(g82
g63
NtRp1970
(dp1971
g66
(dp1972
g93
g94
ssg75
g1961
sg68
(lp1973
S':'
asbag61
(g82
g63
NtRp1974
(dp1975
g66
(dp1976
sg75
g1961
sg68
(lp1977
g61
(g62
g63
NtRp1978
(dp1979
g66
(dp1980
g74
I5
ssg75
g1974
sg68
(lp1981
S'init/127.0.0.1.2012-03-14.16-03-42.db9930cb-816c-4f8b-93a9-556d3055ce9e'
p1982
asbasbasbag61
(g77
g63
NtRp1983
(dp1984
g66
(dp1985
sg75
g71
sg68
(lp1986
g61
(g82
g63
NtRp1987
(dp1988
g66
(dp1989
g86
g87
ssg75
g1983
sg68
(lp1990
S'vars'
p1991
asbag61
(g82
g63
NtRp1992
(dp1993
g66
(dp1994
g93
g94
ssg75
g1983
sg68
(lp1995
S':'
asbag61
(g82
g63
NtRp1996
(dp1997
g66
(dp1998
sg75
g1983
sg68
(lp1999
g61
(g62
g63
NtRp2000
(dp2001
g66
(dp2002
g74
I5
ssg75
g1996
sg68
(lp2003
g61
(g70
g63
NtRp2004
(dp2005
g66
(dp2006
g74
I4
ssg75
Nsg68
(lp2007
sbasbasbasbag61
(g77
g63
NtRp2008
(dp2009
g66
(dp2010
sg75
g71
sg68
(lp2011
g61
(g82
g63
NtRp2012
(dp2013
g66
(dp2014
g86
g87
ssg75
g2008
sg68
(lp2015
S'wsgi'
p2016
asbag61
(g82
g63
NtRp2017
(dp2018
g66
(dp2019
g93
g94
ssg75
g2008
sg68
(lp2020
S':'
asbag61
(g82
g63
NtRp2021
(dp2022
g66
(dp2023
sg75
g2008
sg68
(lp2024
g61
(g62
g63
NtRp2025
(dp2026
g66
(dp2027
g74
I5
ssg75
g2021
sg68
(lp2028
g61
(g70
g63
NtRp2029
(dp2030
g66
(dp2031
g74
I4
ssg75
Nsg68
(lp2032
g61
(g77
g63
NtRp2033
(dp2034
g66
(dp2035
sg75
g2029
sg68
(lp2036
g61
(g82
g63
NtRp2037
(dp2038
g66
(dp2039
g86
g87
ssg75
g2033
sg68
(lp2040
S'environ'
p2041
asbag61
(g82
g63
NtRp2042
(dp2043
g66
(dp2044
g93
g94
ssg75
g2033
sg68
(lp2045
S':'
asbag61
(g82
g63
NtRp2046
(dp2047
g66
(dp2048
sg75
g2033
sg68
(lp2049
g61
(g62
g63
NtRp2050
(dp2051
g66
(dp2052
g74
I4
ssg75
g2046
sg68
(lp2053
g61
(g70
g63
NtRp2054
(dp2055
g66
(dp2056
g74
I3
ssg75
Nsg68
(lp2057
g61
(g77
g63
NtRp2058
(dp2059
g66
(dp2060
sg75
g2054
sg68
(lp2061
g61
(g82
g63
NtRp2062
(dp2063
g66
(dp2064
g86
g87
ssg75
g2058
sg68
(lp2065
S'HTTP_ACCEPT'
p2066
asbag61
(g82
g63
NtRp2067
(dp2068
g66
(dp2069
g93
g94
ssg75
g2058
sg68
(lp2070
S':'
asbag61
(g82
g63
NtRp2071
(dp2072
g66
(dp2073
sg75
g2058
sg68
(lp2074
g61
(g62
g63
NtRp2075
(dp2076
g66
(dp2077
g74
I3
ssg75
g2071
sg68
(lp2078
g630
asbasbasbag61
(g77
g63
NtRp2079
(dp2080
g66
(dp2081
sg75
g2054
sg68
(lp2082
g61
(g82
g63
NtRp2083
(dp2084
g66
(dp2085
g86
g87
ssg75
g2079
sg68
(lp2086
S'HTTP_ACCEPT_ENCODING'
p2087
asbag61
(g82
g63
NtRp2088
(dp2089
g66
(dp2090
g93
g94
ssg75
g2079
sg68
(lp2091
S':'
asbag61
(g82
g63
NtRp2092
(dp2093
g66
(dp2094
sg75
g2079
sg68
(lp2095
g61
(g62
g63
NtRp2096
(dp2097
g66
(dp2098
g74
I3
ssg75
g2092
sg68
(lp2099
g652
asbasbasbag61
(g77
g63
NtRp2100
(dp2101
g66
(dp2102
sg75
g2054
sg68
(lp2103
g61
(g82
g63
NtRp2104
(dp2105
g66
(dp2106
g86
g87
ssg75
g2100
sg68
(lp2107
S'HTTP_ACCEPT_LANGUAGE'
p2108
asbag61
(g82
g63
NtRp2109
(dp2110
g66
(dp2111
g93
g94
ssg75
g2100
sg68
(lp2112
S':'
asbag61
(g82
g63
NtRp2113
(dp2114
g66
(dp2115
sg75
g2100
sg68
(lp2116
g61
(g62
g63
NtRp2117
(dp2118
g66
(dp2119
g74
I3
ssg75
g2113
sg68
(lp2120
g674
asbasbasbag61
(g77
g63
NtRp2121
(dp2122
g66
(dp2123
sg75
g2054
sg68
(lp2124
g61
(g82
g63
NtRp2125
(dp2126
g66
(dp2127
g86
g87
ssg75
g2121
sg68
(lp2128
S'HTTP_CONNECTION'
p2129
asbag61
(g82
g63
NtRp2130
(dp2131
g66
(dp2132
g93
g94
ssg75
g2121
sg68
(lp2133
S':'
asbag61
(g82
g63
NtRp2134
(dp2135
g66
(dp2136
sg75
g2121
sg68
(lp2137
g61
(g62
g63
NtRp2138
(dp2139
g66
(dp2140
g74
I3
ssg75
g2134
sg68
(lp2141
g696
asbasbasbag61
(g77
g63
NtRp2142
(dp2143
g66
(dp2144
sg75
g2054
sg68
(lp2145
g61
(g82
g63
NtRp2146
(dp2147
g66
(dp2148
g86
g87
ssg75
g2142
sg68
(lp2149
S'HTTP_COOKIE'
p2150
asbag61
(g82
g63
NtRp2151
(dp2152
g66
(dp2153
g93
g94
ssg75
g2142
sg68
(lp2154
S':'
asbag61
(g82
g63
NtRp2155
(dp2156
g66
(dp2157
sg75
g2142
sg68
(lp2158
g61
(g62
g63
NtRp2159
(dp2160
g66
(dp2161
g74
I3
ssg75
g2155
sg68
(lp2162
g718
asbasbasbag61
(g77
g63
NtRp2163
(dp2164
g66
(dp2165
sg75
g2054
sg68
(lp2166
g61
(g82
g63
NtRp2167
(dp2168
g66
(dp2169
g86
g87
ssg75
g2163
sg68
(lp2170
S'HTTP_HOST'
p2171
asbag61
(g82
g63
NtRp2172
(dp2173
g66
(dp2174
g93
g94
ssg75
g2163
sg68
(lp2175
S':'
asbag61
(g82
g63
NtRp2176
(dp2177
g66
(dp2178
sg75
g2163
sg68
(lp2179
g61
(g62
g63
NtRp2180
(dp2181
g66
(dp2182
g74
I3
ssg75
g2176
sg68
(lp2183
g740
asbasbasbag61
(g77
g63
NtRp2184
(dp2185
g66
(dp2186
sg75
g2054
sg68
(lp2187
g61
(g82
g63
NtRp2188
(dp2189
g66
(dp2190
g86
g87
ssg75
g2184
sg68
(lp2191
S'HTTP_UA_CPU'
p2192
asbag61
(g82
g63
NtRp2193
(dp2194
g66
(dp2195
g93
g94
ssg75
g2184
sg68
(lp2196
S':'
asbag61
(g82
g63
NtRp2197
(dp2198
g66
(dp2199
sg75
g2184
sg68
(lp2200
g61
(g62
g63
NtRp2201
(dp2202
g66
(dp2203
g74
I3
ssg75
g2197
sg68
(lp2204
g762
asbasbasbag61
(g77
g63
NtRp2205
(dp2206
g66
(dp2207
sg75
g2054
sg68
(lp2208
g61
(g82
g63
NtRp2209
(dp2210
g66
(dp2211
g86
g87
ssg75
g2205
sg68
(lp2212
S'HTTP_USER_AGENT'
p2213
asbag61
(g82
g63
NtRp2214
(dp2215
g66
(dp2216
g93
g94
ssg75
g2205
sg68
(lp2217
S':'
asbag61
(g82
g63
NtRp2218
(dp2219
g66
(dp2220
sg75
g2205
sg68
(lp2221
g61
(g62
g63
NtRp2222
(dp2223
g66
(dp2224
g74
I3
ssg75
g2218
sg68
(lp2225
g784
asbasbasbag61
(g77
g63
NtRp2226
(dp2227
g66
(dp2228
sg75
g2054
sg68
(lp2229
g61
(g82
g63
NtRp2230
(dp2231
g66
(dp2232
g86
g87
ssg75
g2226
sg68
(lp2233
S'PATH_INFO'
p2234
asbag61
(g82
g63
NtRp2235
(dp2236
g66
(dp2237
g93
g94
ssg75
g2226
sg68
(lp2238
S':'
asbag61
(g82
g63
NtRp2239
(dp2240
g66
(dp2241
sg75
g2226
sg68
(lp2242
g61
(g62
g63
NtRp2243
(dp2244
g66
(dp2245
g74
I3
ssg75
g2239
sg68
(lp2246
g848
asbasbasbag61
(g77
g63
NtRp2247
(dp2248
g66
(dp2249
sg75
g2054
sg68
(lp2250
g61
(g82
g63
NtRp2251
(dp2252
g66
(dp2253
g86
g87
ssg75
g2247
sg68
(lp2254
S'QUERY_STRING'
p2255
asbag61
(g82
g63
NtRp2256
(dp2257
g66
(dp2258
g93
g94
ssg75
g2247
sg68
(lp2259
S':'
asbag61
(g82
g63
NtRp2260
(dp2261
g66
(dp2262
sg75
g2247
sg68
(lp2263
g61
(g62
g63
NtRp2264
(dp2265
g66
(dp2266
g74
I3
ssg75
g2260
sg68
(lp2267
g870
asbasbasbag61
(g77
g63
NtRp2268
(dp2269
g66
(dp2270
sg75
g2054
sg68
(lp2271
g61
(g82
g63
NtRp2272
(dp2273
g66
(dp2274
g86
g87
ssg75
g2268
sg68
(lp2275
S'REMOTE_ADDR'
p2276
asbag61
(g82
g63
NtRp2277
(dp2278
g66
(dp2279
g93
g94
ssg75
g2268
sg68
(lp2280
S':'
asbag61
(g82
g63
NtRp2281
(dp2282
g66
(dp2283
sg75
g2268
sg68
(lp2284
g61
(g62
g63
NtRp2285
(dp2286
g66
(dp2287
g74
I3
ssg75
g2281
sg68
(lp2288
g207
asbasbasbag61
(g77
g63
NtRp2289
(dp2290
g66
(dp2291
sg75
g2054
sg68
(lp2292
g61
(g82
g63
NtRp2293
(dp2294
g66
(dp2295
g86
g87
ssg75
g2289
sg68
(lp2296
S'REMOTE_PORT'
p2297
asbag61
(g82
g63
NtRp2298
(dp2299
g66
(dp2300
g93
g94
ssg75
g2289
sg68
(lp2301
S':'
asbag61
(g82
g63
NtRp2302
(dp2303
g66
(dp2304
sg75
g2289
sg68
(lp2305
g61
(g62
g63
NtRp2306
(dp2307
g66
(dp2308
g74
I3
ssg75
g2302
sg68
(lp2309
g913
asbasbasbag61
(g77
g63
NtRp2310
(dp2311
g66
(dp2312
sg75
g2054
sg68
(lp2313
g61
(g82
g63
NtRp2314
(dp2315
g66
(dp2316
g86
g87
ssg75
g2310
sg68
(lp2317
S'REQUEST_METHOD'
p2318
asbag61
(g82
g63
NtRp2319
(dp2320
g66
(dp2321
g93
g94
ssg75
g2310
sg68
(lp2322
S':'
asbag61
(g82
g63
NtRp2323
(dp2324
g66
(dp2325
sg75
g2310
sg68
(lp2326
g61
(g62
g63
NtRp2327
(dp2328
g66
(dp2329
g74
I3
ssg75
g2323
sg68
(lp2330
g935
asbasbasbag61
(g77
g63
NtRp2331
(dp2332
g66
(dp2333
sg75
g2054
sg68
(lp2334
g61
(g82
g63
NtRp2335
(dp2336
g66
(dp2337
g86
g87
ssg75
g2331
sg68
(lp2338
S'SCRIPT_NAME'
p2339
asbag61
(g82
g63
NtRp2340
(dp2341
g66
(dp2342
g93
g94
ssg75
g2331
sg68
(lp2343
S':'
asbag61
(g82
g63
NtRp2344
(dp2345
g66
(dp2346
sg75
g2331
sg68
(lp2347
g61
(g62
g63
NtRp2348
(dp2349
g66
(dp2350
g74
I3
ssg75
g2344
sg68
(lp2351
S''
asbasbasbag61
(g77
g63
NtRp2352
(dp2353
g66
(dp2354
sg75
g2054
sg68
(lp2355
g61
(g82
g63
NtRp2356
(dp2357
g66
(dp2358
g86
g87
ssg75
g2352
sg68
(lp2359
S'SERVER_NAME'
p2360
asbag61
(g82
g63
NtRp2361
(dp2362
g66
(dp2363
g93
g94
ssg75
g2352
sg68
(lp2364
S':'
asbag61
(g82
g63
NtRp2365
(dp2366
g66
(dp2367
sg75
g2352
sg68
(lp2368
g61
(g62
g63
NtRp2369
(dp2370
g66
(dp2371
g74
I3
ssg75
g2365
sg68
(lp2372
g978
asbasbasbag61
(g77
g63
NtRp2373
(dp2374
g66
(dp2375
sg75
g2054
sg68
(lp2376
g61
(g82
g63
NtRp2377
(dp2378
g66
(dp2379
g86
g87
ssg75
g2373
sg68
(lp2380
S'SERVER_PORT'
p2381
asbag61
(g82
g63
NtRp2382
(dp2383
g66
(dp2384
g93
g94
ssg75
g2373
sg68
(lp2385
S':'
asbag61
(g82
g63
NtRp2386
(dp2387
g66
(dp2388
sg75
g2373
sg68
(lp2389
g61
(g62
g63
NtRp2390
(dp2391
g66
(dp2392
g74
I3
ssg75
g2386
sg68
(lp2393
g1000
asbasbasbag61
(g77
g63
NtRp2394
(dp2395
g66
(dp2396
sg75
g2054
sg68
(lp2397
g61
(g82
g63
NtRp2398
(dp2399
g66
(dp2400
g86
g87
ssg75
g2394
sg68
(lp2401
S'SERVER_PROTOCOL'
p2402
asbag61
(g82
g63
NtRp2403
(dp2404
g66
(dp2405
g93
g94
ssg75
g2394
sg68
(lp2406
S':'
asbag61
(g82
g63
NtRp2407
(dp2408
g66
(dp2409
sg75
g2394
sg68
(lp2410
g61
(g62
g63
NtRp2411
(dp2412
g66
(dp2413
g74
I3
ssg75
g2407
sg68
(lp2414
g1022
asbasbasbag61
(g77
g63
NtRp2415
(dp2416
g66
(dp2417
sg75
g2054
sg68
(lp2418
g61
(g82
g63
NtRp2419
(dp2420
g66
(dp2421
g86
g87
ssg75
g2415
sg68
(lp2422
S'SERVER_SOFTWARE'
p2423
asbag61
(g82
g63
NtRp2424
(dp2425
g66
(dp2426
g93
g94
ssg75
g2415
sg68
(lp2427
S':'
asbag61
(g82
g63
NtRp2428
(dp2429
g66
(dp2430
sg75
g2415
sg68
(lp2431
g61
(g62
g63
NtRp2432
(dp2433
g66
(dp2434
g74
I3
ssg75
g2428
sg68
(lp2435
g1044
asbasbasbag61
(g77
g63
NtRp2436
(dp2437
g66
(dp2438
sg75
g2054
sg68
(lp2439
g61
(g82
g63
NtRp2440
(dp2441
g66
(dp2442
g86
g87
ssg75
g2436
sg68
(lp2443
S'wsgi.errors'
p2444
asbag61
(g82
g63
NtRp2445
(dp2446
g66
(dp2447
g93
g94
ssg75
g2436
sg68
(lp2448
S':'
asbag61
(g82
g63
NtRp2449
(dp2450
g66
(dp2451
sg75
g2436
sg68
(lp2452
g61
(g62
g63
NtRp2453
(dp2454
g66
(dp2455
g74
I3
ssg75
g2449
sg68
(lp2456
S"<open file '<stderr>', mode 'w' at 0x009000B0>"
p2457
asbasbasbag61
(g77
g63
NtRp2458
(dp2459
g66
(dp2460
sg75
g2054
sg68
(lp2461
g61
(g82
g63
NtRp2462
(dp2463
g66
(dp2464
g86
g87
ssg75
g2458
sg68
(lp2465
S'wsgi.file_wrapper'
p2466
asbag61
(g82
g63
NtRp2467
(dp2468
g66
(dp2469
g93
g94
ssg75
g2458
sg68
(lp2470
S':'
asbag61
(g82
g63
NtRp2471
(dp2472
g66
(dp2473
sg75
g2458
sg68
(lp2474
g61
(g62
g63
NtRp2475
(dp2476
g66
(dp2477
g74
I3
ssg75
g2471
sg68
(lp2478
S'<class wsgiref.util.FileWrapper at 0x0159C600>'
p2479
asbasbasbag61
(g77
g63
NtRp2480
(dp2481
g66
(dp2482
sg75
g2054
sg68
(lp2483
g61
(g82
g63
NtRp2484
(dp2485
g66
(dp2486
g86
g87
ssg75
g2480
sg68
(lp2487
S'wsgi.input'
p2488
asbag61
(g82
g63
NtRp2489
(dp2490
g66
(dp2491
g93
g94
ssg75
g2480
sg68
(lp2492
S':'
asbag61
(g82
g63
NtRp2493
(dp2494
g66
(dp2495
sg75
g2480
sg68
(lp2496
g61
(g62
g63
NtRp2497
(dp2498
g66
(dp2499
g74
I3
ssg75
g2493
sg68
(lp2500
S'<cStringIO.StringO object at 0x024D8560>'
p2501
asbasbasbag61
(g77
g63
NtRp2502
(dp2503
g66
(dp2504
sg75
g2054
sg68
(lp2505
g61
(g82
g63
NtRp2506
(dp2507
g66
(dp2508
g86
g87
ssg75
g2502
sg68
(lp2509
S'wsgi.multiprocess'
p2510
asbag61
(g82
g63
NtRp2511
(dp2512
g66
(dp2513
g93
g94
ssg75
g2502
sg68
(lp2514
S':'
asbag61
(g82
g63
NtRp2515
(dp2516
g66
(dp2517
sg75
g2502
sg68
(lp2518
g61
(g62
g63
NtRp2519
(dp2520
g66
(dp2521
g74
I3
ssg75
g2515
sg68
(lp2522
g104
asbasbasbag61
(g77
g63
NtRp2523
(dp2524
g66
(dp2525
sg75
g2054
sg68
(lp2526
g61
(g82
g63
NtRp2527
(dp2528
g66
(dp2529
g86
g87
ssg75
g2523
sg68
(lp2530
S'wsgi.multithread'
p2531
asbag61
(g82
g63
NtRp2532
(dp2533
g66
(dp2534
g93
g94
ssg75
g2523
sg68
(lp2535
S':'
asbag61
(g82
g63
NtRp2536
(dp2537
g66
(dp2538
sg75
g2523
sg68
(lp2539
g61
(g62
g63
NtRp2540
(dp2541
g66
(dp2542
g74
I3
ssg75
g2536
sg68
(lp2543
g586
asbasbasbag61
(g77
g63
NtRp2544
(dp2545
g66
(dp2546
sg75
g2054
sg68
(lp2547
g61
(g82
g63
NtRp2548
(dp2549
g66
(dp2550
g86
g87
ssg75
g2544
sg68
(lp2551
S'wsgi.run_once'
p2552
asbag61
(g82
g63
NtRp2553
(dp2554
g66
(dp2555
g93
g94
ssg75
g2544
sg68
(lp2556
S':'
asbag61
(g82
g63
NtRp2557
(dp2558
g66
(dp2559
sg75
g2544
sg68
(lp2560
g61
(g62
g63
NtRp2561
(dp2562
g66
(dp2563
g74
I3
ssg75
g2557
sg68
(lp2564
g104
asbasbasbag61
(g77
g63
NtRp2565
(dp2566
g66
(dp2567
sg75
g2054
sg68
(lp2568
g61
(g82
g63
NtRp2569
(dp2570
g66
(dp2571
g86
g87
ssg75
g2565
sg68
(lp2572
S'wsgi.url_scheme'
p2573
asbag61
(g82
g63
NtRp2574
(dp2575
g66
(dp2576
g93
g94
ssg75
g2565
sg68
(lp2577
S':'
asbag61
(g82
g63
NtRp2578
(dp2579
g66
(dp2580
sg75
g2565
sg68
(lp2581
g61
(g62
g63
NtRp2582
(dp2583
g66
(dp2584
g74
I3
ssg75
g2578
sg68
(lp2585
g1326
asbasbasbag61
(g77
g63
NtRp2586
(dp2587
g66
(dp2588
sg75
g2054
sg68
(lp2589
g61
(g82
g63
NtRp2590
(dp2591
g66
(dp2592
g86
g87
ssg75
g2586
sg68
(lp2593
S'wsgi.version'
p2594
asbag61
(g82
g63
NtRp2595
(dp2596
g66
(dp2597
g93
g94
ssg75
g2586
sg68
(lp2598
S':'
asbag61
(g82
g63
NtRp2599
(dp2600
g66
(dp2601
sg75
g2586
sg68
(lp2602
g61
(g62
g63
NtRp2603
(dp2604
g66
(dp2605
g74
I3
ssg75
g2599
sg68
(lp2606
S'1'
asbasbasbasbasbasbasbasbasbasbasbasbasbsS'frames'
p2607
(lp2608
(dp2609
S'file'
p2610
S'D:\\Documents\\Projets_Perso\\jackpoint\\web2py\\gluon\\restricted.py'
p2611
sS'dump'
p2612
(dp2613
sS'lnum'
p2614
I205
sS'lines'
p2615
(dp2616
I200
S'    try:'
p2617
sI201
S'        if type(code) == types.CodeType:'
p2618
sI202
S'            ccode = code'
p2619
sI203
S'        else:'
p2620
sI204
S'            ccode = compile2(code,layer)'
p2621
sI205
S'        exec ccode in environment'
p2622
sI206
S'    except HTTP:'
p2623
sI207
S'        raise'
p2624
sI208
S'    except RestrictedError:'
p2625
sI209
S'        # do not encapsulate (obfuscate) the original RestrictedError'
p2626
ssS'call'
p2627
S"(code='# -*- coding: utf-8 -*-\\n# Static analyzer import...###############################################\\n\\n', environment={'A': <class 'gluon.html.A'>, 'Auth': <class 'gluon.tools.Auth'>, 'B': <class 'gluon.html.B'>, 'BEAUTIFY': <class 'gluon.html.BEAUTIFY'>, 'BODY': <class 'gluon.html.BODY'>, 'BR': <class 'gluon.html.BR'>, 'BUTTON': <class 'gluon.html.BUTTON'>, 'CAT': <class 'gluon.html.CAT'>, 'CENTER': <class 'gluon.html.CENTER'>, 'CLEANUP': <class 'gluon.validators.CLEANUP'>, ...}, layer=r'D:\\Documents\\Projets_Perso\\jackpoint\\web2py\\applications\\init\\models\\db.py')"
p2628
sS'func'
p2629
S'restricted'
p2630
sa(dp2631
g2610
S'D:\\Documents\\Projets_Perso\\jackpoint\\web2py\\applications\\init\\models\\db.py'
p2632
sg2612
(dp2633
sg2614
I185
sg2615
(dp2634
I180
S"Field('registration_key', length=512,# required"
p2635
sI181
S"writable=False, readable=False, default=''),"
p2636
sI182
S"Field('reset_password_key', length=512,# required"
p2637
sI183
S"writable=False, readable=False, default=''),"
p2638
sI184
S"Field('registration_id', length=512, # required"
p2639
sI185
S"writable=False, readable=False, default=''))"
p2640
sI186
S''
sI187
S'## do not forget validators'
p2641
sI188
S'custom_auth_table = db[auth.settings.table_user_name] # get the custom_auth_table'
p2642
sI189
S'custom_auth_table.first_name.requires = \\'
p2643
ssg2627
S'()'
p2644
sg2629
S'<module>'
p2645
sa(dp2646
g2610
S'D:\\Documents\\Projets_Perso\\jackpoint\\web2py\\gluon\\dal.py'
p2647
sg2612
(dp2648
sg2614
I6320
sg2615
(dp2649
I6315
S"        if migrate or self._adapter.dbengine=='google:datastore':"
p2650
sI6316
S'            try:'
p2651
sI6317
S'                sql_locker.acquire()'
p2652
sI6318
S'                self._adapter.create_table(t,migrate=migrate,'
p2653
sI6319
S'                                           fake_migrate=fake_migrate,'
p2654
sI6320
S'                                           polymodel=polymodel)'
p2655
sI6321
S'            finally:'
p2656
sI6322
S'                sql_locker.release()'
p2657
sI6323
S'        else:'
p2658
sI6324
S'            t._dbt = None'
p2659
ssg2627
S"(self=<DAL {'_migrate_enabled': True, '_lastsql': 'SEL...'_uri_hash': 'c8b669d15150d7109e5f7ab36744a5b7'}>, tablename='auth_user', *fields=(<gluon.dal.Field object at 0x024DF030>, <gluon.dal.Field object at 0x024DF050>, <gluon.dal.Field object at 0x024DF090>, <gluon.dal.Field object at 0x024DF110>, <gluon.dal.Field object at 0x024DF170>, <gluon.dal.Field object at 0x024DF1D0>, <gluon.dal.Field object at 0x024DF1F0>, <gluon.dal.Field object at 0x024DF270>, <gluon.dal.Field object at 0x024DF2D0>, <gluon.dal.Field object at 0x024DF2F0>, <gluon.dal.Field object at 0x024DF330>), **args={})"
p2660
sg2629
S'define_table'
p2661
sa(dp2662
g2610
S'D:\\Documents\\Projets_Perso\\jackpoint\\web2py\\gluon\\dal.py'
p2663
sg2612
(dp2664
sg2614
I638
sg2615
(dp2665
I640
S'                ftype = self.types[field.type]\\'
p2666
sI641
S'                     % dict(length=field.length)'
p2667
sI642
S"            if not field.type.startswith('id') and not field.type.startswith('reference'):"
p2668
sI633
S"                precision, scale = map(int,field.type[8:-1].split(','))"
p2669
sI634
S'                ftype = self.types[field.type[:7]] % \\'
p2670
sI635
S'                    dict(precision=precision,scale=scale)'
p2671
sI636
S'            elif not field.type in self.types:'
p2672
sI637
S"                raise SyntaxError, 'Field: unknown field type: %s for %s' % \\"
p2673
sI638
S'                    (field.type, field.name)'
p2674
sI639
S'            else:'
p2675
ssg2627
S"(self=<gluon.dal.SQLiteAdapter object at 0x024D8990>, table=<Table {'last_name': <gluon.dal.Field object at ...on_key': <gluon.dal.Field object at 0x024DF2D0>}>, migrate=True, fake_migrate=False, polymodel=None)"
p2676
sg2629
S'create_table'
p2677
sasS'pyver'
p2678
S'Python 2.5.4: D:\\Documents\\Projets_Perso\\jackpoint\\web2py\\web2py.exe'
p2679
sS'session'
p2680
g61
(g62
g63
NtRp2681
(dp2682
g66
(dp2683
sg68
(lp2684
g61
(g70
g63
NtRp2685
(dp2686
g66
(dp2687
g74
I5
ssg75
Nsg68
(lp2688
g61
(g77
g63
NtRp2689
(dp2690
g66
(dp2691
sg75
g2685
sg68
(lp2692
g61
(g82
g63
NtRp2693
(dp2694
g66
(dp2695
g86
g87
ssg75
g2689
sg68
(lp2696
S'flash'
p2697
asbag61
(g82
g63
NtRp2698
(dp2699
g66
(dp2700
g93
g94
ssg75
g2689
sg68
(lp2701
S':'
asbag61
(g82
g63
NtRp2702
(dp2703
g66
(dp2704
sg75
g2689
sg68
(lp2705
g61
(g62
g63
NtRp2706
(dp2707
g66
(dp2708
g74
I5
ssg75
g2702
sg68
(lp2709
S''
asbasbasbasbasbsS'etype'
p2710
S"<type 'exceptions.SyntaxError'>"
p2711
sS'date'
p2712
S'Wed Mar 14 16:03:42 2012'
p2713
sS'response'
p2714
g61
(g62
g63
NtRp2715
(dp2716
g66
(dp2717
sg68
(lp2718
g61
(g70
g63
NtRp2719
(dp2720
g66
(dp2721
g74
I5
ssg75
Nsg68
(lp2722
g61
(g77
g63
NtRp2723
(dp2724
g66
(dp2725
sg75
g2719
sg68
(lp2726
g61
(g82
g63
NtRp2727
(dp2728
g66
(dp2729
g86
g87
ssg75
g2723
sg68
(lp2730
g172
asbag61
(g82
g63
NtRp2731
(dp2732
g66
(dp2733
g93
g94
ssg75
g2723
sg68
(lp2734
S':'
asbag61
(g82
g63
NtRp2735
(dp2736
g66
(dp2737
sg75
g2723
sg68
(lp2738
g61
(g62
g63
NtRp2739
(dp2740
g66
(dp2741
g74
I5
ssg75
g2735
sg68
(lp2742
S'<cStringIO.StringO object at 0x024D8720>'
p2743
asbasbasbag61
(g77
g63
NtRp2744
(dp2745
g66
(dp2746
sg75
g2719
sg68
(lp2747
g61
(g82
g63
NtRp2748
(dp2749
g66
(dp2750
g86
g87
ssg75
g2744
sg68
(lp2751
g238
asbag61
(g82
g63
NtRp2752
(dp2753
g66
(dp2754
g93
g94
ssg75
g2744
sg68
(lp2755
S':'
asbag61
(g82
g63
NtRp2756
(dp2757
g66
(dp2758
sg75
g2744
sg68
(lp2759
g61
(g62
g63
NtRp2760
(dp2761
g66
(dp2762
g74
I5
ssg75
g2756
sg68
(lp2763
g61
(g70
g63
NtRp2764
(dp2765
g66
(dp2766
g74
I4
ssg75
Nsg68
(lp2767
g61
(g77
g63
NtRp2768
(dp2769
g66
(dp2770
sg75
g2764
sg68
(lp2771
g61
(g82
g63
NtRp2772
(dp2773
g66
(dp2774
g86
g87
ssg75
g2768
sg68
(lp2775
S'session_id_init'
p2776
asbag61
(g82
g63
NtRp2777
(dp2778
g66
(dp2779
g93
g94
ssg75
g2768
sg68
(lp2780
S':'
asbag61
(g82
g63
NtRp2781
(dp2782
g66
(dp2783
sg75
g2768
sg68
(lp2784
g61
(g62
g63
NtRp2785
(dp2786
g66
(dp2787
g74
I4
ssg75
g2781
sg68
(lp2788
g61
(g70
g63
NtRp2789
(dp2790
g66
(dp2791
g74
I3
ssg75
Nsg68
(lp2792
g61
(g77
g63
NtRp2793
(dp2794
g66
(dp2795
sg75
g2789
sg68
(lp2796
g61
(g82
g63
NtRp2797
(dp2798
g66
(dp2799
g86
g87
ssg75
g2793
sg68
(lp2800
g288
asbag61
(g82
g63
NtRp2801
(dp2802
g66
(dp2803
g93
g94
ssg75
g2793
sg68
(lp2804
S':'
asbag61
(g82
g63
NtRp2805
(dp2806
g66
(dp2807
sg75
g2793
sg68
(lp2808
g61
(g62
g63
NtRp2809
(dp2810
g66
(dp2811
g74
I3
ssg75
g2805
sg68
(lp2812
S''
asbasbasbag61
(g77
g63
NtRp2813
(dp2814
g66
(dp2815
sg75
g2789
sg68
(lp2816
g61
(g82
g63
NtRp2817
(dp2818
g66
(dp2819
g86
g87
ssg75
g2813
sg68
(lp2820
g309
asbag61
(g82
g63
NtRp2821
(dp2822
g66
(dp2823
g93
g94
ssg75
g2813
sg68
(lp2824
S':'
asbag61
(g82
g63
NtRp2825
(dp2826
g66
(dp2827
sg75
g2813
sg68
(lp2828
g61
(g62
g63
NtRp2829
(dp2830
g66
(dp2831
g74
I3
ssg75
g2825
sg68
(lp2832
S''
asbasbasbag61
(g77
g63
NtRp2833
(dp2834
g66
(dp2835
sg75
g2789
sg68
(lp2836
g61
(g82
g63
NtRp2837
(dp2838
g66
(dp2839
g86
g87
ssg75
g2833
sg68
(lp2840
g330
asbag61
(g82
g63
NtRp2841
(dp2842
g66
(dp2843
g93
g94
ssg75
g2833
sg68
(lp2844
S':'
asbag61
(g82
g63
NtRp2845
(dp2846
g66
(dp2847
sg75
g2833
sg68
(lp2848
g61
(g62
g63
NtRp2849
(dp2850
g66
(dp2851
g74
I3
ssg75
g2845
sg68
(lp2852
S''
asbasbasbag61
(g77
g63
NtRp2853
(dp2854
g66
(dp2855
sg75
g2789
sg68
(lp2856
g61
(g82
g63
NtRp2857
(dp2858
g66
(dp2859
g86
g87
ssg75
g2853
sg68
(lp2860
g351
asbag61
(g82
g63
NtRp2861
(dp2862
g66
(dp2863
g93
g94
ssg75
g2853
sg68
(lp2864
S':'
asbag61
(g82
g63
NtRp2865
(dp2866
g66
(dp2867
sg75
g2853
sg68
(lp2868
g61
(g62
g63
NtRp2869
(dp2870
g66
(dp2871
g74
I3
ssg75
g2865
sg68
(lp2872
S''
asbasbasbag61
(g77
g63
NtRp2873
(dp2874
g66
(dp2875
sg75
g2789
sg68
(lp2876
g61
(g82
g63
NtRp2877
(dp2878
g66
(dp2879
g86
g87
ssg75
g2873
sg68
(lp2880
g372
asbag61
(g82
g63
NtRp2881
(dp2882
g66
(dp2883
g93
g94
ssg75
g2873
sg68
(lp2884
S':'
asbag61
(g82
g63
NtRp2885
(dp2886
g66
(dp2887
sg75
g2873
sg68
(lp2888
g61
(g62
g63
NtRp2889
(dp2890
g66
(dp2891
g74
I3
ssg75
g2885
sg68
(lp2892
S'/'
asbasbasbag61
(g77
g63
NtRp2893
(dp2894
g66
(dp2895
sg75
g2789
sg68
(lp2896
g61
(g82
g63
NtRp2897
(dp2898
g66
(dp2899
g86
g87
ssg75
g2893
sg68
(lp2900
g393
asbag61
(g82
g63
NtRp2901
(dp2902
g66
(dp2903
g93
g94
ssg75
g2893
sg68
(lp2904
S':'
asbag61
(g82
g63
NtRp2905
(dp2906
g66
(dp2907
sg75
g2893
sg68
(lp2908
g61
(g62
g63
NtRp2909
(dp2910
g66
(dp2911
g74
I3
ssg75
g2905
sg68
(lp2912
S''
asbasbasbag61
(g77
g63
NtRp2913
(dp2914
g66
(dp2915
sg75
g2789
sg68
(lp2916
g61
(g82
g63
NtRp2917
(dp2918
g66
(dp2919
g86
g87
ssg75
g2913
sg68
(lp2920
g414
asbag61
(g82
g63
NtRp2921
(dp2922
g66
(dp2923
g93
g94
ssg75
g2913
sg68
(lp2924
S':'
asbag61
(g82
g63
NtRp2925
(dp2926
g66
(dp2927
sg75
g2913
sg68
(lp2928
g61
(g62
g63
NtRp2929
(dp2930
g66
(dp2931
g74
I3
ssg75
g2925
sg68
(lp2932
S''
asbasbasbasbasbasbasbasbasbasbasbag61
(g77
g63
NtRp2933
(dp2934
g66
(dp2935
sg75
g2719
sg68
(lp2936
g61
(g82
g63
NtRp2937
(dp2938
g66
(dp2939
g86
g87
ssg75
g2933
sg68
(lp2940
S'delimiters'
p2941
asbag61
(g82
g63
NtRp2942
(dp2943
g66
(dp2944
g93
g94
ssg75
g2933
sg68
(lp2945
S':'
asbag61
(g82
g63
NtRp2946
(dp2947
g66
(dp2948
sg75
g2933
sg68
(lp2949
g61
(g62
g63
NtRp2950
(dp2951
g66
(dp2952
g74
I5
ssg75
g2946
sg68
(lp2953
g61
(g70
g63
NtRp2954
(dp2955
g66
(dp2956
g74
I4
ssg75
Nsg68
(lp2957
g61
(g77
g63
NtRp2958
(dp2959
g66
(dp2960
sg75
g2954
sg68
(lp2961
g61
(g82
g63
NtRp2962
(dp2963
g66
(dp2964
sg75
g2958
sg68
(lp2965
g61
(g62
g63
NtRp2966
(dp2967
g66
(dp2968
g74
I4
ssg75
g2962
sg68
(lp2969
S'{{'
p2970
asbasbasbag61
(g77
g63
NtRp2971
(dp2972
g66
(dp2973
sg75
g2954
sg68
(lp2974
g61
(g82
g63
NtRp2975
(dp2976
g66
(dp2977
sg75
g2971
sg68
(lp2978
g61
(g62
g63
NtRp2979
(dp2980
g66
(dp2981
g74
I4
ssg75
g2975
sg68
(lp2982
S'}}'
p2983
asbasbasbasbasbasbasbag61
(g77
g63
NtRp2984
(dp2985
g66
(dp2986
sg75
g2719
sg68
(lp2987
g61
(g82
g63
NtRp2988
(dp2989
g66
(dp2990
g86
g87
ssg75
g2984
sg68
(lp2991
S'files'
p2992
asbag61
(g82
g63
NtRp2993
(dp2994
g66
(dp2995
g93
g94
ssg75
g2984
sg68
(lp2996
S':'
asbag61
(g82
g63
NtRp2997
(dp2998
g66
(dp2999
sg75
g2984
sg68
(lp3000
g61
(g62
g63
NtRp3001
(dp3002
g66
(dp3003
g74
I5
ssg75
g2997
sg68
(lp3004
g61
(g70
g63
NtRp3005
(dp3006
g66
(dp3007
g74
I4
ssg75
Nsg68
(lp3008
sbasbasbasbag61
(g77
g63
NtRp3009
(dp3010
g66
(dp3011
sg75
g2719
sg68
(lp3012
g61
(g82
g63
NtRp3013
(dp3014
g66
(dp3015
g86
g87
ssg75
g3009
sg68
(lp3016
S'flash'
p3017
asbag61
(g82
g63
NtRp3018
(dp3019
g66
(dp3020
g93
g94
ssg75
g3009
sg68
(lp3021
S':'
asbag61
(g82
g63
NtRp3022
(dp3023
g66
(dp3024
sg75
g3009
sg68
(lp3025
g61
(g62
g63
NtRp3026
(dp3027
g66
(dp3028
g74
I5
ssg75
g3022
sg68
(lp3029
S''
asbasbasbag61
(g77
g63
NtRp3030
(dp3031
g66
(dp3032
sg75
g2719
sg68
(lp3033
g61
(g82
g63
NtRp3034
(dp3035
g66
(dp3036
g86
g87
ssg75
g3030
sg68
(lp3037
S'generic_patterns'
p3038
asbag61
(g82
g63
NtRp3039
(dp3040
g66
(dp3041
g93
g94
ssg75
g3030
sg68
(lp3042
S':'
asbag61
(g82
g63
NtRp3043
(dp3044
g66
(dp3045
sg75
g3030
sg68
(lp3046
g61
(g62
g63
NtRp3047
(dp3048
g66
(dp3049
g74
I5
ssg75
g3043
sg68
(lp3050
g61
(g70
g63
NtRp3051
(dp3052
g66
(dp3053
g74
I4
ssg75
Nsg68
(lp3054
g61
(g77
g63
NtRp3055
(dp3056
g66
(dp3057
sg75
g3051
sg68
(lp3058
g61
(g82
g63
NtRp3059
(dp3060
g66
(dp3061
sg75
g3055
sg68
(lp3062
g61
(g62
g63
NtRp3063
(dp3064
g66
(dp3065
g74
I4
ssg75
g3059
sg68
(lp3066
S'*'
asbasbasbasbasbasbasbag61
(g77
g63
NtRp3067
(dp3068
g66
(dp3069
sg75
g2719
sg68
(lp3070
g61
(g82
g63
NtRp3071
(dp3072
g66
(dp3073
g86
g87
ssg75
g3067
sg68
(lp3074
S'headers'
p3075
asbag61
(g82
g63
NtRp3076
(dp3077
g66
(dp3078
g93
g94
ssg75
g3067
sg68
(lp3079
S':'
asbag61
(g82
g63
NtRp3080
(dp3081
g66
(dp3082
sg75
g3067
sg68
(lp3083
g61
(g62
g63
NtRp3084
(dp3085
g66
(dp3086
g74
I5
ssg75
g3080
sg68
(lp3087
g61
(g70
g63
NtRp3088
(dp3089
g66
(dp3090
g74
I4
ssg75
Nsg68
(lp3091
g61
(g77
g63
NtRp3092
(dp3093
g66
(dp3094
sg75
g3088
sg68
(lp3095
g61
(g82
g63
NtRp3096
(dp3097
g66
(dp3098
g86
g87
ssg75
g3092
sg68
(lp3099
S'Cache-Control'
p3100
asbag61
(g82
g63
NtRp3101
(dp3102
g66
(dp3103
g93
g94
ssg75
g3092
sg68
(lp3104
S':'
asbag61
(g82
g63
NtRp3105
(dp3106
g66
(dp3107
sg75
g3092
sg68
(lp3108
g61
(g62
g63
NtRp3109
(dp3110
g66
(dp3111
g74
I4
ssg75
g3105
sg68
(lp3112
S'no-store, no-cache, must-revalidate, post-check=0, pre-check=0'
p3113
asbasbasbag61
(g77
g63
NtRp3114
(dp3115
g66
(dp3116
sg75
g3088
sg68
(lp3117
g61
(g82
g63
NtRp3118
(dp3119
g66
(dp3120
g86
g87
ssg75
g3114
sg68
(lp3121
S'Content-Type'
p3122
asbag61
(g82
g63
NtRp3123
(dp3124
g66
(dp3125
g93
g94
ssg75
g3114
sg68
(lp3126
S':'
asbag61
(g82
g63
NtRp3127
(dp3128
g66
(dp3129
sg75
g3114
sg68
(lp3130
g61
(g62
g63
NtRp3131
(dp3132
g66
(dp3133
g74
I4
ssg75
g3127
sg68
(lp3134
S'text/html; charset=utf-8'
p3135
asbasbasbag61
(g77
g63
NtRp3136
(dp3137
g66
(dp3138
sg75
g3088
sg68
(lp3139
g61
(g82
g63
NtRp3140
(dp3141
g66
(dp3142
g86
g87
ssg75
g3136
sg68
(lp3143
S'Expires'
p3144
asbag61
(g82
g63
NtRp3145
(dp3146
g66
(dp3147
g93
g94
ssg75
g3136
sg68
(lp3148
S':'
asbag61
(g82
g63
NtRp3149
(dp3150
g66
(dp3151
sg75
g3136
sg68
(lp3152
g61
(g62
g63
NtRp3153
(dp3154
g66
(dp3155
g74
I4
ssg75
g3149
sg68
(lp3156
S'Wed, 14 Mar 2012 15:03:42 GMT'
p3157
asbasbasbag61
(g77
g63
NtRp3158
(dp3159
g66
(dp3160
sg75
g3088
sg68
(lp3161
g61
(g82
g63
NtRp3162
(dp3163
g66
(dp3164
g86
g87
ssg75
g3158
sg68
(lp3165
S'Pragma'
p3166
asbag61
(g82
g63
NtRp3167
(dp3168
g66
(dp3169
g93
g94
ssg75
g3158
sg68
(lp3170
S':'
asbag61
(g82
g63
NtRp3171
(dp3172
g66
(dp3173
sg75
g3158
sg68
(lp3174
g61
(g62
g63
NtRp3175
(dp3176
g66
(dp3177
g74
I4
ssg75
g3171
sg68
(lp3178
S'no-cache'
p3179
asbasbasbag61
(g77
g63
NtRp3180
(dp3181
g66
(dp3182
sg75
g3088
sg68
(lp3183
g61
(g82
g63
NtRp3184
(dp3185
g66
(dp3186
g86
g87
ssg75
g3180
sg68
(lp3187
S'X-Powered-By'
p3188
asbag61
(g82
g63
NtRp3189
(dp3190
g66
(dp3191
g93
g94
ssg75
g3180
sg68
(lp3192
S':'
asbag61
(g82
g63
NtRp3193
(dp3194
g66
(dp3195
sg75
g3180
sg68
(lp3196
g61
(g62
g63
NtRp3197
(dp3198
g66
(dp3199
g74
I4
ssg75
g3193
sg68
(lp3200
S'web2py'
p3201
asbasbasbasbasbasbasbag61
(g77
g63
NtRp3202
(dp3203
g66
(dp3204
sg75
g2719
sg68
(lp3205
g61
(g82
g63
NtRp3206
(dp3207
g66
(dp3208
g86
g87
ssg75
g3202
sg68
(lp3209
S'menu'
p3210
asbag61
(g82
g63
NtRp3211
(dp3212
g66
(dp3213
g93
g94
ssg75
g3202
sg68
(lp3214
S':'
asbag61
(g82
g63
NtRp3215
(dp3216
g66
(dp3217
sg75
g3202
sg68
(lp3218
g61
(g62
g63
NtRp3219
(dp3220
g66
(dp3221
g74
I5
ssg75
g3215
sg68
(lp3222
g61
(g70
g63
NtRp3223
(dp3224
g66
(dp3225
g74
I4
ssg75
Nsg68
(lp3226
sbasbasbasbag61
(g77
g63
NtRp3227
(dp3228
g66
(dp3229
sg75
g2719
sg68
(lp3230
g61
(g82
g63
NtRp3231
(dp3232
g66
(dp3233
g86
g87
ssg75
g3227
sg68
(lp3234
S'meta'
p3235
asbag61
(g82
g63
NtRp3236
(dp3237
g66
(dp3238
g93
g94
ssg75
g3227
sg68
(lp3239
S':'
asbag61
(g82
g63
NtRp3240
(dp3241
g66
(dp3242
sg75
g3227
sg68
(lp3243
g61
(g62
g63
NtRp3244
(dp3245
g66
(dp3246
g74
I5
ssg75
g3240
sg68
(lp3247
g61
(g70
g63
NtRp3248
(dp3249
g66
(dp3250
g74
I4
ssg75
Nsg68
(lp3251
sbasbasbasbag61
(g77
g63
NtRp3252
(dp3253
g66
(dp3254
sg75
g2719
sg68
(lp3255
g61
(g82
g63
NtRp3256
(dp3257
g66
(dp3258
g86
g87
ssg75
g3252
sg68
(lp3259
S'postprocessing'
p3260
asbag61
(g82
g63
NtRp3261
(dp3262
g66
(dp3263
g93
g94
ssg75
g3252
sg68
(lp3264
S':'
asbag61
(g82
g63
NtRp3265
(dp3266
g66
(dp3267
sg75
g3252
sg68
(lp3268
g61
(g62
g63
NtRp3269
(dp3270
g66
(dp3271
g74
I5
ssg75
g3265
sg68
(lp3272
g61
(g70
g63
NtRp3273
(dp3274
g66
(dp3275
g74
I4
ssg75
Nsg68
(lp3276
sbasbasbasbag61
(g77
g63
NtRp3277
(dp3278
g66
(dp3279
sg75
g2719
sg68
(lp3280
g61
(g82
g63
NtRp3281
(dp3282
g66
(dp3283
g86
g87
ssg75
g3277
sg68
(lp3284
S'session_db'
p3285
asbag61
(g82
g63
NtRp3286
(dp3287
g66
(dp3288
g93
g94
ssg75
g3277
sg68
(lp3289
S':'
asbag61
(g82
g63
NtRp3290
(dp3291
g66
(dp3292
sg75
g3277
sg68
(lp3293
g61
(g62
g63
NtRp3294
(dp3295
g66
(dp3296
g74
I5
ssg75
g3290
sg68
(lp3297
g586
asbasbasbag61
(g77
g63
NtRp3298
(dp3299
g66
(dp3300
sg75
g2719
sg68
(lp3301
g61
(g82
g63
NtRp3302
(dp3303
g66
(dp3304
g86
g87
ssg75
g3298
sg68
(lp3305
S'session_id'
p3306
asbag61
(g82
g63
NtRp3307
(dp3308
g66
(dp3309
g93
g94
ssg75
g3298
sg68
(lp3310
S':'
asbag61
(g82
g63
NtRp3311
(dp3312
g66
(dp3313
sg75
g3298
sg68
(lp3314
g61
(g62
g63
NtRp3315
(dp3316
g66
(dp3317
g74
I5
ssg75
g3311
sg68
(lp3318
S'2:cff041d2-11b1-4080-8fe3-1f51b98a7313'
p3319
asbasbasbag61
(g77
g63
NtRp3320
(dp3321
g66
(dp3322
sg75
g2719
sg68
(lp3323
g61
(g82
g63
NtRp3324
(dp3325
g66
(dp3326
g86
g87
ssg75
g3320
sg68
(lp3327
S'session_id_name'
p3328
asbag61
(g82
g63
NtRp3329
(dp3330
g66
(dp3331
g93
g94
ssg75
g3320
sg68
(lp3332
S':'
asbag61
(g82
g63
NtRp3333
(dp3334
g66
(dp3335
sg75
g3320
sg68
(lp3336
g61
(g62
g63
NtRp3337
(dp3338
g66
(dp3339
g74
I5
ssg75
g3333
sg68
(lp3340
g2776
asbasbasbag61
(g77
g63
NtRp3341
(dp3342
g66
(dp3343
sg75
g2719
sg68
(lp3344
g61
(g82
g63
NtRp3345
(dp3346
g66
(dp3347
g86
g87
ssg75
g3341
sg68
(lp3348
S'status'
p3349
asbag61
(g82
g63
NtRp3350
(dp3351
g66
(dp3352
g93
g94
ssg75
g3341
sg68
(lp3353
S':'
asbag61
(g82
g63
NtRp3354
(dp3355
g66
(dp3356
sg75
g3341
sg68
(lp3357
g61
(g62
g63
NtRp3358
(dp3359
g66
(dp3360
g74
I5
ssg75
g3354
sg68
(lp3361
S'200'
p3362
asbasbasbag61
(g77
g63
NtRp3363
(dp3364
g66
(dp3365
sg75
g2719
sg68
(lp3366
g61
(g82
g63
NtRp3367
(dp3368
g66
(dp3369
g86
g87
ssg75
g3363
sg68
(lp3370
g1969
asbag61
(g82
g63
NtRp3371
(dp3372
g66
(dp3373
g93
g94
ssg75
g3363
sg68
(lp3374
S':'
asbag61
(g82
g63
NtRp3375
(dp3376
g66
(dp3377
sg75
g3363
sg68
(lp3378
g61
(g62
g63
NtRp3379
(dp3380
g66
(dp3381
g74
I5
ssg75
g3375
sg68
(lp3382
g1982
asbasbasbag61
(g77
g63
NtRp3383
(dp3384
g66
(dp3385
sg75
g2719
sg68
(lp3386
g61
(g82
g63
NtRp3387
(dp3388
g66
(dp3389
g86
g87
ssg75
g3383
sg68
(lp3390
S'view'
p3391
asbag61
(g82
g63
NtRp3392
(dp3393
g66
(dp3394
g93
g94
ssg75
g3383
sg68
(lp3395
S':'
asbag61
(g82
g63
NtRp3396
(dp3397
g66
(dp3398
sg75
g3383
sg68
(lp3399
g61
(g62
g63
NtRp3400
(dp3401
g66
(dp3402
g74
I5
ssg75
g3396
sg68
(lp3403
S'default/user.html'
p3404
asbasbasbasbasbsS'locals'
p3405
(dp3406
S'polymodel'
p3407
S'None'
p3408
sS'sortable'
p3409
S'4'
sS'sql_fields_aux'
p3410
S"{'first_name': {'sql': 'CHAR(128)'}, 'id': {'sql': 'INTEGER PRIMARY KEY AUTOINCREMENT'}, 'last_name': {'sql': 'CHAR(128)'}}"
p3411
sS'TFK'
p3412
g21
sS'field'
p3413
S'<gluon.dal.Field object at 0x024DF090>'
p3414
sS'migrate'
p3415
g586
sS'fields'
p3416
S"['id INTEGER PRIMARY KEY AUTOINCREMENT', 'first_name CHAR(128)', 'last_name CHAR(128)']"
p3417
sS'self'
p3418
S'<gluon.dal.SQLiteAdapter object at 0x024D8990>'
p3419
sS'tablename'
p3420
S"'auth_user'"
p3421
sS'fake_migrate'
p3422
g104
sS'not_null'
p3423
S'"NOT NULL DEFAULT \'\'"'
p3424
sS'ftype'
p3425
S"'CHAR(128)'"
p3426
sS'table'
p3427
S"<Table {'last_name': <gluon.dal.Field object at ...on_key': <gluon.dal.Field object at 0x024DF2D0>}>"
p3428
sS'sql_fields'
p3429
S"{'first_name': {'sortable': 2, 'sql': 'CHAR(128)', 'type': 'string'}, 'id': {'sortable': 1, 'sql': 'INTEGER PRIMARY KEY AUTOINCREMENT', 'type': 'id'}, 'last_name': {'sortable': 3, 'sql': 'CHAR(128)', 'type': 'string'}}"
p3430
sS'k'
S"'father'"
p3431
sssS'traceback'
p3432
S'Traceback (most recent call last):\n  File "gluon/restricted.py", line 205, in restricted\n  File "D:\\Documents\\Projets_Perso\\jackpoint\\web2py\\applications\\init\\models\\db.py", line 185, in <module>\n  File "gluon/dal.py", line 6320, in define_table\n  File "gluon/dal.py", line 638, in create_table\nSyntaxError: Field: unknown field type: auth_user for father\n'
p3433
s.