(dp1
S'output'
p2
S"<type 'exceptions.IndentationError'> unexpected indent (controllers/default.py, line 388)"
p3
sS'layer'
p4
S'C:\\Users\\Bussiere\\Dropbox\\Projets\\jackpoint\\web2py\\applications\\init\\controllers/default.py'
p5
sS'code'
p6
S'\xef\xbb\xbf# -*- coding: utf-8 -*-\n# this file is released under public domain and you can use without limitations\n\n#########################################################################\n## This is a samples controller\n## - index is the default action of any application\n## - user is required for authentication and authorization\n## - download is for downloading files uploaded in the db (does streaming)\n## - call exposes all registered services (none by default)\n#########################################################################\n# Static analyzer import helpers: (STATIC_IMPORT_MARK)\nif 0: \n    import gluon\n    global cache; cache = gluon.cache.Cache()\n    global LOAD; LOAD  = gluon.compileapp.LoadFactory()\n    import gluon.compileapp.local_import_aux as local_import #@UnusedImport\n    from gluon.contrib.gql import GQLDB #@UnusedImport\n    from gluon.dal import Field #@UnusedImport\n    global request; request = gluon.globals.Request()\n    global response; response = gluon.globals.Response()\n    global session; session = gluon.globals.Session()\n    from gluon.html import A #@UnusedImport\n    from gluon.html import B #@UnusedImport\n    from gluon.html import BEAUTIFY #@UnusedImport\n    from gluon.html import BODY #@UnusedImport\n    from gluon.html import BR #@UnusedImport\n    from gluon.html import CENTER #@UnusedImport\n    from gluon.html import CODE #@UnusedImport\n    from gluon.html import DIV #@UnusedImport\n    from gluon.html import EM #@UnusedImport\n    from gluon.html import EMBED #@UnusedImport\n    from gluon.html import embed64 #@UnusedImport\n    from gluon.html import FIELDSET #@UnusedImport\n    from gluon.html import FORM #@UnusedImport\n    from gluon.html import H1 #@UnusedImport\n    from gluon.html import H2 #@UnusedImport\n    from gluon.html import H3 #@UnusedImport\n    from gluon.html import H4 #@UnusedImport\n    from gluon.html import H5 #@UnusedImport\n    from gluon.html import H6 #@UnusedImport\n    from gluon.html import HEAD #@UnusedImport\n    from gluon.html import HR #@UnusedImport\n    from gluon.html import HTML #@UnusedImport\n    from gluon.html import I #@UnusedImport\n    from gluon.html import IFRAME #@UnusedImport\n    from gluon.html import IMG #@UnusedImport\n    from gluon.html import INPUT #@UnusedImport\n    from gluon.html import LABEL #@UnusedImport\n    from gluon.html import LEGEND #@UnusedImport\n    from gluon.html import LI #@UnusedImport\n    from gluon.html import LINK #@UnusedImport\n    from gluon.html import MARKMIN #@UnusedImport\n    from gluon.html import MENU #@UnusedImport\n    from gluon.html import META #@UnusedImport\n    from gluon.html import OBJECT #@UnusedImport\n    from gluon.html import OL #@UnusedImport\n    from gluon.html import ON #@UnusedImport\n    from gluon.html import OPTGROUP #@UnusedImport\n    from gluon.html import OPTION #@UnusedImport\n    from gluon.html import P #@UnusedImport\n    from gluon.html import PRE #@UnusedImport\n    from gluon.html import STYLE #@UnusedImport\n    from gluon.html import SCRIPT #@UnusedImport\n    from gluon.html import SELECT #@UnusedImport\n    from gluon.html import SPAN #@UnusedImport\n    from gluon.html import TABLE #@UnusedImport\n    from gluon.html import TAG #@UnusedImport\n    from gluon.html import TBODY #@UnusedImport\n    from gluon.html import TD #@UnusedImport\n    from gluon.html import TEXTAREA #@UnusedImport\n    from gluon.html import TFOOT #@UnusedImport\n    from gluon.html import TH  #@UnusedImport\n    from gluon.html import THEAD #@UnusedImport\n    from gluon.html import TITLE #@UnusedImport\n    from gluon.html import TR #@UnusedImport\n    from gluon.html import TT #@UnusedImport\n    from gluon.html import UL #@UnusedImport\n    from gluon.html import URL #@UnusedImport\n    from gluon.html import XHTML #@UnusedImport\n    from gluon.html import XML #@UnusedImport\n    from gluon.html import xmlescape #@UnusedImport\n    from gluon.http import HTTP #@UnusedImport\n    from gluon.http import redirect #@UnusedImport\n    import gluon.languages.translator as T #@UnusedImport\n    from gluon.sql import DAL\n    global db; db = DAL()\n    from gluon.sql import SQLDB #@UnusedImport\n    from gluon.sql import SQLField #@UnusedImport\n    from gluon.sqlhtml import SQLFORM #@UnusedImport\n    from gluon.sqlhtml import SQLTABLE #@UnusedImport\n    from gluon.tools import  Auth\n    global auth; auth = Auth()\n    from gluon.tools import Crud\n    global crud; crud = Crud()\n    from gluon.tools import fetch #@UnusedImport\n    from gluon.tools import geocode #@UnusedImport\n    from gluon.tools import Mail\n    global mail; mail = Mail()\n    from gluon.tools import PluginManager\n    global plugins; plugins = PluginManager()\n    from gluon.tools import prettydate #@UnusedImport\n    from gluon.tools import Recaptcha #@UnusedImport\n    from gluon.tools import Service\n    global service; service = Service()\n    from gluon.validators import CLEANUP  #@UnusedImport\n    from gluon.validators import CRYPT #@UnusedImport\n    from gluon.validators import IS_ALPHANUMERIC #@UnusedImport\n    from gluon.validators import IS_DATE #@UnusedImport\n    from gluon.validators import IS_DATE_IN_RANGE #@UnusedImport\n    from gluon.validators import IS_DATETIME #@UnusedImport\n    from gluon.validators import IS_DATETIME_IN_RANGE #@UnusedImport\n    from gluon.validators import IS_DECIMAL_IN_RANGE #@UnusedImport\n    from gluon.validators import IS_EMAIL #@UnusedImport\n    from gluon.validators import IS_EMPTY_OR #@UnusedImport\n    from gluon.validators import IS_EQUAL_TO #@UnusedImport\n    from gluon.validators import IS_EXPR #@UnusedImport\n    from gluon.validators import IS_FLOAT_IN_RANGE #@UnusedImport\n    from gluon.validators import IS_IMAGE #@UnusedImport\n    from gluon.validators import IS_IN_DB #@UnusedImport\n    from gluon.validators import IS_IN_SET #@UnusedImport\n    from gluon.validators import IS_INT_IN_RANGE #@UnusedImport\n    from gluon.validators import IS_IPV4 #@UnusedImport\n    from gluon.validators import IS_LENGTH #@UnusedImport\n    from gluon.validators import IS_LIST_OF #@UnusedImport\n    from gluon.validators import IS_LOWER #@UnusedImport\n    from gluon.validators import IS_MATCH #@UnusedImport\n    from gluon.validators import IS_NOT_EMPTY #@UnusedImport\n    from gluon.validators import IS_NOT_IN_DB #@UnusedImport\n    from gluon.validators import IS_NULL_OR #@UnusedImport\n    from gluon.validators import IS_SLUG #@UnusedImport\n    from gluon.validators import IS_STRONG  #@UnusedImport\n    from gluon.validators import IS_TIME #@UnusedImport\n    from gluon.validators import IS_UPLOAD_FILENAME #@UnusedImport\n    from gluon.validators import IS_UPPER #@UnusedImpor\n\n\nimport random\nfrom uuid import uuid4\nfrom gluon.storage import Storage\nsettings = Storage()\n\n\ndef logout():\n    return auth.logout()\n\n\ndef index():\n    if auth.is_logged_in() :\n       redirect(URL(\'interfaceuser\'))\n    else :\n        return dict(form=auth.login(),faq=URL(\'faq\'))\n\n\n\ndef index2():\n    if auth.is_logged_in() :\n        return "You get the blue pills"\n    else :\n        return dict(form=auth.login(),faq=URL(\'faq\'))\n\ndef ensurefirstuser(Surnom, email, password):\n  users = db(db.auth_user.email == email).select()\n  if users:\n    user_id = users[0].id\n    created = False\n    print (\'found user_id so created equals %s\') % created\n    if settings.debug_ensure_first_user == True:\n      print (\'found user_id so created equals %s\') % created\n    return (user_id, created)\n\n  else:\n    my_crypt = CRYPT(key=auth.settings.hmac_key)\n    crypt_pass = my_crypt(password)[0]    \n    id_user = db.auth_user.insert(\n                   Surnom=Surnom,\n                   email=email,\n                   username=email,\n                   Items = None,\n                   Skills = None,\n                   password=crypt_pass,\n                                   )\n    db.commit()\n    created = True\n    print (\'creating user_id\')\n    if settings.debug_ensure_first_user == True:\n      print (\'creating user_id\')\n    return (id_user, created)\n\n    \n\n\ndef ensure_users():\n  user_id, created = _ensure_user(\'first\', \'last\', \'email@address.com\', \'UserPassword12345\')\n  if settings.debug_ensure_users == True:\n    print (\'user id %i\') % user_id\n    print (\'created %s\') % created\n\ndef ensure_group_role(role, description):\n  if not auth.id_group(role=role):  \n    auth.add_group(role=role, description=description)  \n    if settings.debug_ensure_group_role == True:\n      print (\'created role %s\') % (role)\n\ndef ensure_membership(group_id, user_id):\n  return_group_id = auth.add_membership(role=role, user_id=user_id)\n  if settings.debug_ensure_membership == True:\n    print (\'made user_id member of %s\') % (role)\n  return return_group_id\n \ndef ensure_permissions(role, description, user_id):\n  ensure_group_role(role, description)\n  return_group_id = ensure_membership(group_id, user_id)\n  if settings.debug_ensure_permissions == True:\n    print return_group_id\n\ndef generate_invitation(number,word=4,num=1,numdigit=5):\n    code = [\n[\'BELCHER\', \'FIX\', \'EEL\', \'PANZERBOY\', \'DESK_JOCKEY\', \'CHILLED\', \'ENFORCER\', \'CHERRY_PICKING\', \'COUNTRY_CLUB\', \'BOMBSHELL\', \'PLUGGED_IN\', \'FINI\', \'LEGIT\', \'JAM\', \'BONED_OUT\', \'BLADE\', \'ROUST\', \'SAMURAI\', \'DISK\', \'INPUT\', \'POST_TIME\', \'SOUNDS\', \'SKIP\', \'FLATBACKER\', \'WILSON\', \'SHOEMAKER\', \'DELTA_SIERRA\', \'HEART\', \'CROAK\', \'HEAD_HUNTER\', \'HOSHO_KAISHA\', "DELTA\'D", "\'FACE_(also,_FACE,_EYE-FACE,_I-FACE)", \'WEEFLE\', \'DIRTGIRL\', \'KEYBOARD\', \'BRAIN_BUCKET\', \'DRYING_OUT\', \'OVERCOOK\', \'PIG\', \'COLD_TEA\', \'RECONFIG\', \'PAD\', \'LIT_UP\', \'WRAITH\', \'HANDLE\', \'L.P.\', \'PINCH\', \'TAKE_A_CAB\', \'SPILL\', \'ACE_KOOL\', \'DO\', \'BIZ\', \'BROWNIE\', \'CANDLE_AND_BLOOD\', \'BLUEBOY\', \'UP_ON_IT\', \'BURN\', \'USER_INTERFACE\', \'HOB\', \'GYRO\', \'STUFFIT\', \'THATCH\', \'ICEBREAKER\', \'ZIP_GUN\', \'PETERMAN\', \'PLAY_DOUGH\', \'TREY-EIGHT\', \'SETTLE\', "CHIPPIN\'_IN", \'MEATBALL\', \'RAFFLES\', \'YUBITSUME\', \'CROAKER\', \'SUCKER_POCKETS\', \'L.A.M.A.\', \'GEEK\', \'BUTTONHEAD\'],\n[\'TAKE\', \'TEKIYA\', \'KURUMAKU\', \'BLOC\', \'GAT\', \'JOHATSU\', \'CRYSTAL\', \'A.I.\', \'ZEROED\', \'OVER_THE_SHOULDER\', \'GRAB_GEE\', \'PANZER\', \'GO_LEO\', \'WASHED\', \'I.C.E.\', \'COPSHOP\', \'COLLATERAL_DAMAGE\', \'BIG_DARK\', \'DOUBLE-DEUCE\', \'ZONEDANCE\', \'MARK\', \'COBBERS\', \'CHIMPIRA\', \'TRIADS\', \'SHANK\', \'FRAG\', \'BREATH_VAC\', "CHARLIE\'S_ANGEL", \'MULE\', \'BURNER\', "PACKIN\'", \'HOTDOGGER\', \'BOSOZOKU\', \'RIPPERDOC\', \'THIRDMAN\', \'MAXIMUM,_MAX\', \'CHOOH2_("CHOO")\', \'CRYO_MAX\', \'HEATER\', \'SHARK\', \'JOYGIRL\', \'GURENTAI\', \'BANDIT\', \'VENICE\', \'MIZU_SHOBAI\', \'PASTA_BOYS\', \'SQUID\', \'CYBERED_UP\', \'DEAD_RECKONING\', \'POPSICLE\', \'FAUST\', \'COLLARBOY\', \'SHOES\', \'TORCH\', \'DELTAJOCK\', \'BUTTERFLY_MAN\', \'WISE_GUYS\', \'BOOST\', \'CAIN\', \'FOUR-FIVE\', \'BREAK-DOWN\', \'POLYMER_ONE-SHOT\', \'FLAG\', \'CALL_GIRL\', \'IN_THE_HUNT\', \'HYDRO\', \'DOCK\', \'FENCE\', \'SHAIKUJIN\', \'GOMI\', \'FILTER\', \'SAINT_NICK\', \'LINEFOOT\', \'CAVALRY\', \'PUKE\', \'CONVERSION\', \'FINGER\', \'CONTRACT\'],\n[\'PLASTIC\', \'CRYSTALJOCKEY,_CRYSTALJOCK\', \'SCREW\', \'TOYSTORE\', \'DREAM_TIME\', \'EXOTIC\', \'WALKABOUT\', \'DIAMOND_SEASON\', \'SARAKIN\', \'CHRISTMAS_BUNDLES\', \'SHADES\', \'BUTTON_MAN\', \'FOXTROT_UNIFORM\', \'KAI\', \'UNDER_THE_PAINT\', \'MINIMUM\', \'TRIPLE_A\', \'PIG_ON_A_WHEEL\', \'BAG_MAN\', \'DIP\', \'PIGEONS\', \'MAN\', \'ADAM_HENRY\', \'HIGH\', \'HEAT\', \'NINJO\', \'KNIFE_FIGHT\', \'MOUTHPIECE\', \'AGRIPLEX\', \'DATA_TERM\', \'LIZ\', \'CHROMER\', \'OUTPUT\', \'N.O.E.\', \'CLOSE_A_CONTRACT\', \'LASSIE\', \'FLATLINE\', \'CHIV\', \'SING\', \'AMMO\', \'RAT\', \'MATCHBOX\', \'PULL_AN_ASH\', \'BORYOKUDAN\', \'SQUEEZE\', \'RONIN\', \'HIT\', \'RAGS\', \'TAKE_OUT\', \'BEAT_THE_RAP\', \'GIRI\', \'RUNNING_THE_LINE\', \'HARNESS\', \'GRAVEROBBER\', \'DROP_A_DIME\', \'BADGE_ON_A_BEAVER\', \'FLETCHER\', \'AMPED-OUT\', \'NEUTRALIZE\', \'PETER\', \'CONFIG\', \'HARDFIRE\', \'B.A.M.A.\', \'CHROMATIC_ROCK\', \'MOLDED\', \'RAD\', \'CREASED\', \'CHATTER_BOX\', \'HAND_CANNON\', \'NIPPERS\', \'SIERRA_HOTEL\', \'HOOK_UP\', \'-JOCKEY,_-JOCK\', \'BUG\', \'BATMAN_AND_ROBIN\', \'BLACK_OPERATIONS\', "D.C.\'S", \'SO_KA\'],\n[\'_A.A.A.\', \'HOME_PLATE\', \'LITEJACK\', \'PINEAPPLE\', \'MAKE\', \'THE_STREET\', \'SITREP\', \'HANGING_PAPER\', \'PAINT_BOYS\', \'WETWORK\', \'NINER\', \'BOOKIE\', \'WHIPLASH\', \'TORPEDO\', \'HEATWAVE\', \'SOLAR_WIND\', \'QUIFF\', \'BIKE\', \'TRAFFIC\', \'WIRE_ROOM\', \'OYABUN\', \'COWBOY\', \'KOBUN\', \'MUDBOY\', \'COP_OUT\', \'SOKAIYA\', "\'DORPH", \'JOYBOY\', \'DIRTY\', \'BOAT\', \'DROP\', \'GRAV_or_GEE\', \'APOGEE\', \'BOOSTER\', \'BOOK\', \'FRY\', \'PULLING_TEETH\', \'ONE_LARGE\', \'COMBAT_DRUGS\', \'THRASH\', \'DO_A_GHOST\', \'DELTA\', \'RIN_TIN_TIN\', \'DROP_OUT\', \'GUMI\', \'ROCKERBOY/GIRL\', \'BULLET\', \'DEB\', \'THREADING_THE_NEEDLE\', \'MOTOR\', \'BLEEDER\', \'ARC\', \'BOPPER\', \'WASTE\', \'_DEMUKAI\', \'BREAK\', \'HOLDING_DOWN\', \'FEDS\', \'GAP\', \'RABBI\', \'BAKUTO\', \'CHOMBATTA_(CHOOMBA)\', \'BIG_HATS\', \'MR._JOHNSON\', \'EXEC\', \'BULL\', \'BULLSEYE\', \'POSERGANG\', \'CHAOL\', \'GEISHA\', \'SLAMMIT_ON\', \'POP_CAPS\', \'HARD_TIME\', \'BENJI\', \'MAKING_BANK\', \'PAPERHANGER\', \'NETRUN\', \'BOGEY\'],\n]     \n    i = 0\n    invits = []\n    print number\n    while (i < number):\n        invit = ""\n        j = 0\n        while (j < word):\n            debut = random.randint(0,len(code)-1)\n            codepick = code[debut][random.randint(0,len(code[debut])-1)]\n            j += 1\n            invit += codepick+"-"\n        j = 0\n        while (j < num):\n            invit += randomdig(numdigit)+"-"\n            j += 1\n        i+= 1\n        invit = invit[:-1]\n        if invit not in invits :\n            invits.append(invit[:-1])\n            print invit\n    return invits\n        \ndef randomdig(number):\n    max = "9"*number\n    max = int(max)\n    rand =  random.randint(0,max)\n    rand = str(rand)\n    rand = "0"*(number-len(rand))+rand\n    return rand\n\n@auth.requires_login()\ndef inscriptioninvit():\n    user = auth.environment.session.auth.user\n    caracs = db().select(db.Carac.ALL)\n    form=TABLE(\n        TR(\n            TD(\n                TABLE(\n        TR(\n\n                TD(\n                    LABEL(\'Username : \')\n                    ),\n                TD( \n                    INPUT(_name=\'Username\')\n                    )\n            ),\n    TR(\n        TD(\n            LABEL(\'Email: \')\n            ), \n        TD(\n            INPUT(_name=\'email\',_value=user.email)\n            )\n        ),\n             \n    TR(\n        TD(\n            LABEL(\'Password : \')\n            ), \n        TD(\n            INPUT(_name=\'password1\',_type=\'password\')\n            )\n        ),\n\n     TR(\n        TD(\n            LABEL(\'Password verification : \')\n            ), \n        TD(\n            INPUT(_name=\'password2\',_type=\'password\')\n            )\n        ),\n    \n    \n    )\n                )\n            )\n        )\n            \n\n\n    \n    form.append(TR(LABEL(\'1 = mauvais, 2 = bof, 3 = Moyen,4 = Bon , 5 = Tres Bon\')))\n    for carac in caracs :\n        form.append(\n            TR(\n\n                TD(LABEL(\'%s : \'%carac.Nom)),\n                TD(INPUT(_type=\'radio\',_name=\'carac_%d\'%carac.id,_value=\'1\',value=\'1\'),"1 "),\n                TD(INPUT(_type=\'radio\',_name=\'carac_%d\'%carac.id,_value=\'2\'),"2 "),\n                TD(INPUT(_type=\'radio\',_name=\'carac_%d\'%carac.id,_value=\'3\'),"3 "),\n                TD(INPUT(_type=\'radio\',_name=\'carac_%d\'%carac.id,_value=\'4\'),"4 "),\n                TD(INPUT(_type=\'radio\',_name=\'carac_%d\'%carac.id,_value=\'5\'),"5        "),\n\n                TD(LABEL(\'Private: \')),\n                TD(INPUT(_type=\'radio\',_name=\'carac_%d_private\'%carac.id,_value=\'1\'),"oui "),\n                TD(INPUT(_type=\'radio\',_name=\'carac_%d_private\'%carac.id,_value=\'0\',value=\'0\'),"non ")\n                )\n        )\n \n    # form.insert(-1, TR(LABEL(\'titi : \'),INPUT(_name=\'titi\',_value=\'titi\'))\n    # form.insert(-1, TR(LABEL(\'toto : \'),INPUT(_name=\'toto\',_value=\'toto\'))\n\n    form.append(TR(LABEL(\'0 = Inconnu, 1 = mauvais, 2 = bof, 3 = Moyen,4 = Bon , 5 = Moyen\')))\n    \n    #TODO a revoir algo crade :\n    skills1 = db(db.SkillLevel.Level==0).select()\n    skills2 = db(db.SkillLevel.Level==1).select()\n    skills3 = db(db.SkillLevel.Level==2).select()\n    skills4 = db(db.SkillLevel.Level==3).select()\n    skills5 = db(db.SkillLevel.Level==4).select()\n    Listeskill = UL()\n    for skill1 in skills1 :\n        Nom1 = db.Skill(skill1.Skill.id).Nom\n        retour1 = skillstab(Nom1)\n        for skill2 in skills2 :\n            if (skill2.Parent.id == skill1.Skill.id) :\n                Nom2 = db.Skill(skill2.Skill.id).Nom\n                retour2 = skillstab(Nom2)\n                for skill3 in skills3 :\n                    if (skill3.Parent.id == skill2.Skill.id) :\n                        Nom3 = db.Skill(skill3.Skill.id).Nom\n                        retour3 = skillstab(Nom3)\n                        for skill4 in skills4 :\n                            if (skill4.Parent.id == skill3.Skill.id) :\n                                Nom4 = db.Skill(skill4.Skill.id).Nom\n                                retour4 = skillstab(Nom4)\n                                for skill5 in skills5 :\n                                    if (skill5.Parent.id == skill4.Skill.id) :\n                                        Nom5 = db.Skill(skill5.Skill.id).Nom\n                                        retour5 = skillstab(Nom5)\n                                        retour4.append(UL(retour5))\n                                retour3.append(UL(retour4))\n                        retour2.append(UL(retour3))\n                retour1.append(UL(retour2))\n        Listeskill.append(retour1)\n       \n\n\n\n    form.append(TR(Listeskill))\n\n    Items = db().select(db.Item.ALL)\n    for item in Items :\n        form.append(\n            TR(\n                TD(item.Nom),\n                TD(item.Skill),\n                TD(INPUT(_type=\'checkbox\',_name=\'%s\'%item.Nom)), \n                TD(LABEL(\'Private: \')),\n                TD(INPUT(_type=\'radio\',_name=\'%s_private\'%item.Nom,_value=\'1\'),"oui "),\n                TD(INPUT(_type=\'radio\',_name=\'%s_private\'%item.Nom,_value=\'0\',value=\'0\'),"non ")\n            )\n        )\n\n\n    form.append(TR(\n        TD("Suggestion (Rajout,skills,caracs,items"),\n            TD(_type=\'textarea\',_name=\'suggestion\', _rows="4", _cols="140")\n            )\n    )\n\n    form.append(TR(INPUT(_type=\'submit\')))\n    form = FORM(TABLE(form)) \n     if form.process(onvalidation=forminscription_processing).accepted:\n       session.flash = \'record inserted\'\n       redirect(URL(\'interfaceuser\'))\n    return dict(form=form)\n\n@auth.requires_login()\ndef demandecoupdemain():\n    pass\n\n#process de la validation de l\'utilisateur\ndef forminscription_processing(form):\n    for var in form.vars :\n        print var\n\n@auth.requires_login()\ndef interfaceuser():\n    pass\n\ndef skillstab(Nom) :\n    skills = db(db.Skill.Nom==Nom).select()\n    for skill in skills :\n        idskill = skill.id \n    tab =  LI( Nom," : ",TABLE(\n                    TR(\n                TD(INPUT(_type=\'radio\',_name=\'skill_%d\'%idskill,_value=\'0\',value=\'0\'),"0 "),\n                TD(INPUT(_type=\'radio\',_name=\'skill_%d\'%idskill,_value=\'1\'),"1 "),\n                TD(INPUT(_type=\'radio\',_name=\'skill_%d\'%idskill,_value=\'2\'),"2 "),\n                TD(INPUT(_type=\'radio\',_name=\'skill_%d\'%idskill,_value=\'3\'),"3 "),\n                TD(INPUT(_type=\'radio\',_name=\'skill_%d\'%idskill,_value=\'4\'),"4 "),\n                TD(INPUT(_type=\'radio\',_name=\'skill_%d\'%idskill,_value=\'5\'),"5        "),\n\n                TD(LABEL(\'Private: \')),\n                TD(INPUT(_type=\'radio\',_name=\'skill_%d_private\'%idskill,_value=\'1\'),"oui "),\n                TD(INPUT(_type=\'radio\',_name=\'skill_%d_private\'%idskill,_value=\'0\',value=\'0\'),"non ")\n                )\n\n                )\n    )\n    return tab\n\ndef userstuff():\n    return dict(rows1 = db().select(db.Carac.ALL),rows2 = db().select(db.SkillLevel.ALL),rows3 = db().select(db.Item.ALL) )\n\ndef initdbjack():\n    auth.add_group(\'UserValide\', \'User ayant valide l inscription\')\n    auth.add_group(\'UserTemp\', \'User ayant pas valide l inscription\')\n    if db(db.auth_user.username == "bussiere").count() == 0:\n            password= "titi" \n            my_crypt = CRYPT(key=auth.settings.hmac_key)\n            crypt_pass = my_crypt(password)[0]  \n            buss = db.auth_user.insert(\n               email= "bussiere2@gmail.com",\n               username="bussiere",\n               password=crypt_pass,\n            )\n            jack = auth.add_group(\'Jack\', \'Jack master of none\')\n            auth.add_membership(jack, buss)\n            db.commit()  \n    db.commit() \n    carac = ["Force","Logique","Volonte","Charisme","Apparence","Dexterite"]\n    skills = { \n    "Physique":{\n                "Sport":{\n                         "Capoeira" :{ \n                                      "bengale":{}\n                                      },\n                        "Karate":{\n                                  "Nord" : {},\n                                  "Sud" : {},\n                                 },\n                         },\n            },\n\n\n    "Technique":{\n                "Mettalerrie" : {\n                                 "Forge" : {},\n                                  \n                                  },\n                 "Couture" : {\n                                  \n                                  },\n                "Conduite" : {\n                                  \n                                  },\n                 \n    },\n\n    "Savoir":{\n              "Informatique" : {\n                                   "Programmation" :{\n                                                     "Python" :{\n                                                                 "Django" : {} ,\n                                                                  "Web2py" : {}\n                                                                },\n                                                     "Methode" :{\n                                                                 "Uml":{},\n                                                                  "Merise": {}\n                                                                },\n                                                     },\n                                   },\n\n            },\n    }\n\n    for c in carac :\n        if db(db.Carac.Nom == c).count() == 0:\n            db.Carac.insert(Nom=c)\n\n    #TODO a revoir tout pourris on peut rien rajouter de nouveau\n    for level1 in skills.keys() :\n        i = 0\n        if db(db.Skill.Nom == level1).count() == 0:\n            Skill1 = db.SkillLevel.insert(Skill = (db.Skill.insert(Nom=level1)),Level = i)\n\n            for level2 in skills[level1].keys() :\n                i = 1\n                if db(db.Skill.Nom == level2).count() == 0:\n                    #Todo\n                    # c\'est crade a revoir :\n                    for row in db((db.Skill.Nom==level1) & (db.Skill.id)).select() :\n                        parent = row.id\n                    #fin du truc a revoir\n                    Skill2 = db.SkillLevel.insert(Skill = (db.Skill.insert(Nom=level2)),Level = i,Parent = parent )\n                    for level3 in skills[level1][level2].keys() :\n                        i = 2\n                        if db(db.Skill.Nom == level3).count() == 0:\n                            #Todo\n                            # c\'est crade a revoir :\n                            for row in db((db.Skill.Nom==level2) & (db.Skill.id)).select() :\n                                parent = row.id\n                            #fin du truc a revoir\n                            Skill3 = db.SkillLevel.insert(Skill = (db.Skill.insert(Nom=level3)),Level = i,Parent = parent)\n                            for level4 in skills[level1][level2][level3].keys() :\n                                i = 3\n                                if db(db.Skill.Nom == level4).count() == 0:\n                                #Todo\n                                # c\'est crade a revoir :\n                                    for row in db((db.Skill.Nom==level3) & (db.Skill.id)).select() :\n                                        parent = row.id\n                                #fin du truc a revoir\n                                    Skill3 = db.SkillLevel.insert(Skill = (db.Skill.insert(Nom=level4)),Level = i,Parent = parent)\n                                    for level5 in skills[level1][level2][level3][level4].keys() :\n                                        i = 4\n                                        if db(db.Skill.Nom == level5).count() == 0:\n                                        #Todo\n                                        # c\'est crade a revoir :\n                                            for row in db((db.Skill.Nom==level4) & (db.Skill.id)).select() :\n                                                parent = row.id\n                                        #fin du truc a revoir\n                                            Skill4 = db.SkillLevel.insert(Skill = (db.Skill.insert(Nom=level5)),Level = i,Parent = parent)\n\n\n\n    Item = {\n    "Machine a Coudre" : "Couture",\n    "Voiture" : "Conduite",\n    "Decoupeuse a plasma" : "Mettalerrie",\n    }\n\n\n    for row in Item.keys() :\n        if db(db.Item.Nom == Item[row]).count() == 0:\n            db.Item.insert(Nom=row,Skill=db.Skill(Nom=Item[row]))                                       \n    db.commit() \n\n\n\n\n\n\n\ndef liste_invitations():\n    return dict(rows = db().select(db.Invitation.ALL))\n\ndef liste_user():\n    return dict(rows = db().select(db.auth_user.ALL))\n\n#@auth.requires_membership(\'manager\')\ndef generate_invitationpage():\n   form=FORM("Nombre d\'invit a generer:", INPUT(_name=\'nmbreinvit\'), INPUT(_type=\'submit\'))\n   if form.process().accepted and form.vars.nmbreinvit != None :\n       i = form.vars.nmbreinvit\n       invitsgenere = generate_invitation(int(i))\n       for invit in invitsgenere :\n           db.Invitation.insert(Code=invit)\n           db.commit()\n       session.flash = \'invitation inserted\'\n       form=FORM("Nombre d\'invit a generer:", INPUT(_name=\'nmbreinvit\'), INPUT(_type=\'submit\'))\n       #db.Invitation.insert(Code="Toto-5542")\n       db.commit()\n   return dict(form=form)\n\ndef verif_invitation(form):\n    print form.vars.invitation\n    if db.Invitation(db.Invitation.Code==form.vars.invitation) == None :\n        form.errors.invitation = \'code invitation incorrect\'\n        print "mauvais"\n    else :\n        print "bon"\n\ndef invitation():\n    form=FORM("Code Invitation :", INPUT(_name=\'invitation\'),"<Email :",INPUT(_name=\'email\'),  INPUT(_type=\'submit\'))\n    if form.process(onvalidation=verif_invitation).accepted and  form.vars.invitation != None  :\n        email = form.vars.email\n        if db(db.auth_user.email == email).count() == 0:\n            password= form.vars.invitation  \n            my_crypt = CRYPT(key=auth.settings.hmac_key)\n            crypt_pass = my_crypt(password)[0]  \n            db.auth_user.insert(\n               email= email,\n               username="John_Doe",\n               password=crypt_pass,\n            )\n            db.commit()  \n            user = db(db.auth_user.email==email).select().first()\n            auth.user = Storage(auth.settings.table_user._filter_fields(user, id=True))\n            auth.environment.session.auth = Storage(user=user, last_visit=request.now,\n                                                expiration=auth.settings.expiration)\n            redirect(URL(\'inscriptioninvit\'))\n    return dict(form=form)\n\ndef faq():\n\n    return dict()\ndef user():\n    """\n    exposes:\n    http://..../[app]/default/user/login\n    http://..../[app]/default/user/logout\n    http://..../[app]/default/user/register\n    http://..../[app]/default/user/profile\n    http://..../[app]/default/user/retrieve_password\n    http://..../[app]/default/user/change_password\n    use @auth.requires_login()\n        @auth.requires_membership(\'group name\')\n        @auth.requires_permission(\'read\',\'table name\',record_id)\n    to decorate functions that need access control\n    """\n    return dict(form=auth())\n\n\ndef download():\n    """\n    allows downloading of uploaded files\n    http://..../[app]/default/download/[filename]\n    """\n    return response.download(request,db)\n\n\ndef call():\n    """\n    exposes services. for example:\n    http://..../[app]/default/call/jsonrpc\n    decorate with @services.jsonrpc the functions to expose\n    supports xml, json, xmlrpc, jsonrpc, amfrpc, rss, csv\n    """\n    return service()\n\n\n@auth.requires_signature()\ndef data():\n    """\n    http://..../[app]/default/data/tables\n    http://..../[app]/default/data/create/[table]\n    http://..../[app]/default/data/read/[table]/[id]\n    http://..../[app]/default/data/update/[table]/[id]\n    http://..../[app]/default/data/delete/[table]/[id]\n    http://..../[app]/default/data/select/[table]\n    http://..../[app]/default/data/search/[table]\n    but URLs must be signed, i.e. linked with\n      A(\'table\',_href=URL(\'data/tables\',user_signature=True))\n    or with the signed load operator\n      LOAD(\'default\',\'data.load\',args=\'tables\',ajax=True,user_signature=True)\n    """\n    return dict(form=crud())\n\nresponse._vars=response._caller(index)\n'
p7
sS'snapshot'
p8
(dp9
S'exception'
p10
(dp11
S'__getslice__'
p12
S"<method-wrapper '__getslice__' of exceptions.IndentationError object at 0x03D9ACB0>"
p13
sS'text'
p14
S"'     if form.process(onvalidation=forminscription_processing).accepted:\\n'"
p15
sS'__str__'
p16
S"<method-wrapper '__str__' of exceptions.IndentationError object at 0x03D9ACB0>"
p17
sS'__reduce__'
p18
S'<built-in method __reduce__ of exceptions.IndentationError object at 0x03D9ACB0>'
p19
sS'__dict__'
p20
S'{}'
p21
sS'__init__'
p22
S"<method-wrapper '__init__' of exceptions.IndentationError object at 0x03D9ACB0>"
p23
sS'__setattr__'
p24
S"<method-wrapper '__setattr__' of exceptions.IndentationError object at 0x03D9ACB0>"
p25
sS'__reduce_ex__'
p26
S'<built-in method __reduce_ex__ of exceptions.IndentationError object at 0x03D9ACB0>'
p27
sS'__new__'
p28
S'<built-in method __new__ of type object at 0x1E1CDC98>'
p29
sS'__class__'
p30
S"<type 'exceptions.IndentationError'>"
p31
sS'filename'
p32
S"r'C:\\Users\\Bussiere\\Dropbox\\Projets\\jackpoint\\web2py\\applications\\init\\controllers/default.py'"
p33
sS'lineno'
p34
S'388'
p35
sS'msg'
p36
S"'unexpected indent'"
p37
sS'__doc__'
p38
S"'Improper indentation.'"
p39
sS'__getitem__'
p40
S"<method-wrapper '__getitem__' of exceptions.IndentationError object at 0x03D9ACB0>"
p41
sS'__setstate__'
p42
S'<built-in method __setstate__ of exceptions.IndentationError object at 0x03D9ACB0>'
p43
sS'__getattribute__'
p44
S"<method-wrapper '__getattribute__' of exceptions.IndentationError object at 0x03D9ACB0>"
p45
sS'print_file_and_line'
p46
S'None'
p47
sS'args'
p48
S"('unexpected indent', (r'C:\\Users\\Bussiere\\Dropbox\\Projets\\jackpoint\\web2py\\applications\\init\\controllers/default.py', 388, 5, '     if form.process(onvalidation=forminscription_processing).accepted:\\n'))"
p49
sS'offset'
p50
S'5'
sS'__delattr__'
p51
S"<method-wrapper '__delattr__' of exceptions.IndentationError object at 0x03D9ACB0>"
p52
sS'__repr__'
p53
S"<method-wrapper '__repr__' of exceptions.IndentationError object at 0x03D9ACB0>"
p54
sS'__hash__'
p55
S"<method-wrapper '__hash__' of exceptions.IndentationError object at 0x03D9ACB0>"
p56
ssS'evalue'
p57
S'unexpected indent (controllers/default.py, line 388)'
p58
sS'request'
p59
ccopy_reg
_reconstructor
p60
(cgluon.html
BEAUTIFY
p61
c__builtin__
object
p62
NtRp63
(dp64
S'attributes'
p65
(dp66
sS'components'
p67
(lp68
g60
(cgluon.html
TABLE
p69
g62
NtRp70
(dp71
g65
(dp72
S'level'
p73
I5
ssS'parent'
p74
Nsg67
(lp75
g60
(cgluon.html
TR
p76
g62
NtRp77
(dp78
g65
(dp79
sg74
g70
sg67
(lp80
g60
(cgluon.html
TD
p81
g62
NtRp82
(dp83
g65
(dp84
S'_style'
p85
S'font-weight:bold;vertical-align:top'
p86
ssg74
g77
sg67
(lp87
S'ajax'
p88
asbag60
(g81
g62
NtRp89
(dp90
g65
(dp91
S'_valign'
p92
S'top'
p93
ssg74
g77
sg67
(lp94
S':'
asbag60
(g81
g62
NtRp95
(dp96
g65
(dp97
sg74
g77
sg67
(lp98
g60
(g61
g62
NtRp99
(dp100
g65
(dp101
g73
I5
ssg74
g95
sg67
(lp102
S'False'
p103
asbasbasbag60
(g76
g62
NtRp104
(dp105
g65
(dp106
sg74
g70
sg67
(lp107
g60
(g81
g62
NtRp108
(dp109
g65
(dp110
g85
g86
ssg74
g104
sg67
(lp111
S'application'
p112
asbag60
(g81
g62
NtRp113
(dp114
g65
(dp115
g92
g93
ssg74
g104
sg67
(lp116
S':'
asbag60
(g81
g62
NtRp117
(dp118
g65
(dp119
sg74
g104
sg67
(lp120
g60
(g61
g62
NtRp121
(dp122
g65
(dp123
g73
I5
ssg74
g117
sg67
(lp124
S'init'
p125
asbasbasbag60
(g76
g62
NtRp126
(dp127
g65
(dp128
sg74
g70
sg67
(lp129
g60
(g81
g62
NtRp130
(dp131
g65
(dp132
g85
g86
ssg74
g126
sg67
(lp133
g48
asbag60
(g81
g62
NtRp134
(dp135
g65
(dp136
g92
g93
ssg74
g126
sg67
(lp137
S':'
asbag60
(g81
g62
NtRp138
(dp139
g65
(dp140
sg74
g126
sg67
(lp141
g60
(g61
g62
NtRp142
(dp143
g65
(dp144
g73
I5
ssg74
g138
sg67
(lp145
g60
(g69
g62
NtRp146
(dp147
g65
(dp148
g73
I4
ssg74
Nsg67
(lp149
sbasbasbasbag60
(g76
g62
NtRp150
(dp151
g65
(dp152
sg74
g70
sg67
(lp153
g60
(g81
g62
NtRp154
(dp155
g65
(dp156
g85
g86
ssg74
g150
sg67
(lp157
S'body'
p158
asbag60
(g81
g62
NtRp159
(dp160
g65
(dp161
g92
g93
ssg74
g150
sg67
(lp162
S':'
asbag60
(g81
g62
NtRp163
(dp164
g65
(dp165
sg74
g150
sg67
(lp166
g60
(g61
g62
NtRp167
(dp168
g65
(dp169
g73
I5
ssg74
g163
sg67
(lp170
S'<cStringIO.StringO object at 0x03C2F1E0>'
p171
asbasbasbag60
(g76
g62
NtRp172
(dp173
g65
(dp174
sg74
g70
sg67
(lp175
g60
(g81
g62
NtRp176
(dp177
g65
(dp178
g85
g86
ssg74
g172
sg67
(lp179
S'client'
p180
asbag60
(g81
g62
NtRp181
(dp182
g65
(dp183
g92
g93
ssg74
g172
sg67
(lp184
S':'
asbag60
(g81
g62
NtRp185
(dp186
g65
(dp187
sg74
g172
sg67
(lp188
g60
(g61
g62
NtRp189
(dp190
g65
(dp191
g73
I5
ssg74
g185
sg67
(lp192
S'127.0.0.1'
p193
asbasbasbag60
(g76
g62
NtRp194
(dp195
g65
(dp196
sg74
g70
sg67
(lp197
g60
(g81
g62
NtRp198
(dp199
g65
(dp200
g85
g86
ssg74
g194
sg67
(lp201
S'controller'
p202
asbag60
(g81
g62
NtRp203
(dp204
g65
(dp205
g92
g93
ssg74
g194
sg67
(lp206
S':'
asbag60
(g81
g62
NtRp207
(dp208
g65
(dp209
sg74
g194
sg67
(lp210
g60
(g61
g62
NtRp211
(dp212
g65
(dp213
g73
I5
ssg74
g207
sg67
(lp214
S'default'
p215
asbasbasbag60
(g76
g62
NtRp216
(dp217
g65
(dp218
sg74
g70
sg67
(lp219
g60
(g81
g62
NtRp220
(dp221
g65
(dp222
g85
g86
ssg74
g216
sg67
(lp223
S'cookies'
p224
asbag60
(g81
g62
NtRp225
(dp226
g65
(dp227
g92
g93
ssg74
g216
sg67
(lp228
S':'
asbag60
(g81
g62
NtRp229
(dp230
g65
(dp231
sg74
g216
sg67
(lp232
g60
(g61
g62
NtRp233
(dp234
g65
(dp235
g73
I5
ssg74
g229
sg67
(lp236
g60
(g69
g62
NtRp237
(dp238
g65
(dp239
g73
I4
ssg74
Nsg67
(lp240
sbasbasbasbag60
(g76
g62
NtRp241
(dp242
g65
(dp243
sg74
g70
sg67
(lp244
g60
(g81
g62
NtRp245
(dp246
g65
(dp247
g85
g86
ssg74
g241
sg67
(lp248
S'env'
p249
asbag60
(g81
g62
NtRp250
(dp251
g65
(dp252
g92
g93
ssg74
g241
sg67
(lp253
S':'
asbag60
(g81
g62
NtRp254
(dp255
g65
(dp256
sg74
g241
sg67
(lp257
g60
(g61
g62
NtRp258
(dp259
g65
(dp260
g73
I5
ssg74
g254
sg67
(lp261
g60
(g69
g62
NtRp262
(dp263
g65
(dp264
g73
I4
ssg74
Nsg67
(lp265
g60
(g76
g62
NtRp266
(dp267
g65
(dp268
sg74
g262
sg67
(lp269
g60
(g81
g62
NtRp270
(dp271
g65
(dp272
g85
g86
ssg74
g266
sg67
(lp273
S'app_folders'
p274
asbag60
(g81
g62
NtRp275
(dp276
g65
(dp277
g92
g93
ssg74
g266
sg67
(lp278
S':'
asbag60
(g81
g62
NtRp279
(dp280
g65
(dp281
sg74
g266
sg67
(lp282
g60
(g61
g62
NtRp283
(dp284
g65
(dp285
g73
I4
ssg74
g279
sg67
(lp286
S"set(['C:\\\\Users\\\\Bussiere\\\\Dropbox\\\\Projets\\\\jackpoint\\\\web2py\\\\applications\\\\init\\\\'])"
p287
asbasbasbag60
(g76
g62
NtRp288
(dp289
g65
(dp290
sg74
g262
sg67
(lp291
g60
(g81
g62
NtRp292
(dp293
g65
(dp294
g85
g86
ssg74
g288
sg67
(lp295
S'applications_parent'
p296
asbag60
(g81
g62
NtRp297
(dp298
g65
(dp299
g92
g93
ssg74
g288
sg67
(lp300
S':'
asbag60
(g81
g62
NtRp301
(dp302
g65
(dp303
sg74
g288
sg67
(lp304
g60
(g61
g62
NtRp305
(dp306
g65
(dp307
g73
I4
ssg74
g301
sg67
(lp308
S'C:\\Users\\Bussiere\\Dropbox\\Projets\\jackpoint\\web2py'
p309
asbasbasbag60
(g76
g62
NtRp310
(dp311
g65
(dp312
sg74
g262
sg67
(lp313
g60
(g81
g62
NtRp314
(dp315
g65
(dp316
g85
g86
ssg74
g310
sg67
(lp317
S'cmd_args'
p318
asbag60
(g81
g62
NtRp319
(dp320
g65
(dp321
g92
g93
ssg74
g310
sg67
(lp322
S':'
asbag60
(g81
g62
NtRp323
(dp324
g65
(dp325
sg74
g310
sg67
(lp326
g60
(g61
g62
NtRp327
(dp328
g65
(dp329
g73
I4
ssg74
g323
sg67
(lp330
g60
(g69
g62
NtRp331
(dp332
g65
(dp333
g73
I3
ssg74
Nsg67
(lp334
sbasbasbasbag60
(g76
g62
NtRp335
(dp336
g65
(dp337
sg74
g262
sg67
(lp338
g60
(g81
g62
NtRp339
(dp340
g65
(dp341
g85
g86
ssg74
g335
sg67
(lp342
S'cmd_options'
p343
asbag60
(g81
g62
NtRp344
(dp345
g65
(dp346
g92
g93
ssg74
g335
sg67
(lp347
S':'
asbag60
(g81
g62
NtRp348
(dp349
g65
(dp350
sg74
g335
sg67
(lp351
g60
(g61
g62
NtRp352
(dp353
g65
(dp354
g73
I4
ssg74
g348
sg67
(lp355
S"<Values at 0x3c25fa8: {'verbose': False, 'ip': '127.0.0.1', 'shutdown_timeout': 5, 'taskbar': False, 'nocron': False, 'pid_filename': 'httpserver.pid', 'maxthreads': None, 'softcron': False, 'server_name': 'Batou', 'bpython': False, 'nogui': False, 'port': 8000, 'extcron': False, 'debuglevel': 30, 'test': None, 'folder': 'C:\\\\Users\\\\Bussiere\\\\Dropbox\\\\Projets\\\\jackpoint\\\\web2py', 'config': '', 'import_models': False, 'winservice': '', 'shell': None, 'run': '', 'log_filename': 'httpserver.log', 'args': [''], 'socket_timeout': 5, 'ssl_ca_certificate': None, 'scheduler': None, 'profiler_filename': None, 'ssl_private_key': '', 'password': '<ask>', 'request_queue_size': 5, 'ssl_certificate': '', 'cronjob': False, 'numthreads': None, 'quiet': False, 'interfaces': None, 'minthreads': None, 'timeout': 10, 'plain': False, 'nobanner': False}>"
p356
asbasbasbag60
(g76
g62
NtRp357
(dp358
g65
(dp359
sg74
g262
sg67
(lp360
g60
(g81
g62
NtRp361
(dp362
g65
(dp363
g85
g86
ssg74
g357
sg67
(lp364
S'db_sessions'
p365
asbag60
(g81
g62
NtRp366
(dp367
g65
(dp368
g92
g93
ssg74
g357
sg67
(lp369
S':'
asbag60
(g81
g62
NtRp370
(dp371
g65
(dp372
sg74
g357
sg67
(lp373
g60
(g61
g62
NtRp374
(dp375
g65
(dp376
g73
I4
ssg74
g370
sg67
(lp377
S"set(['init'])"
p378
asbasbasbag60
(g76
g62
NtRp379
(dp380
g65
(dp381
sg74
g262
sg67
(lp382
g60
(g81
g62
NtRp383
(dp384
g65
(dp385
g85
g86
ssg74
g379
sg67
(lp386
S'debugging'
p387
asbag60
(g81
g62
NtRp388
(dp389
g65
(dp390
g92
g93
ssg74
g379
sg67
(lp391
S':'
asbag60
(g81
g62
NtRp392
(dp393
g65
(dp394
sg74
g379
sg67
(lp395
g60
(g61
g62
NtRp396
(dp397
g65
(dp398
g73
I4
ssg74
g392
sg67
(lp399
S'True'
p400
asbasbasbag60
(g76
g62
NtRp401
(dp402
g65
(dp403
sg74
g262
sg67
(lp404
g60
(g81
g62
NtRp405
(dp406
g65
(dp407
g85
g86
ssg74
g401
sg67
(lp408
S'gluon_parent'
p409
asbag60
(g81
g62
NtRp410
(dp411
g65
(dp412
g92
g93
ssg74
g401
sg67
(lp413
S':'
asbag60
(g81
g62
NtRp414
(dp415
g65
(dp416
sg74
g401
sg67
(lp417
g60
(g61
g62
NtRp418
(dp419
g65
(dp420
g73
I4
ssg74
g414
sg67
(lp421
S'C:\\Users\\Bussiere\\Dropbox\\Projets\\jackpoint\\web2py'
p422
asbasbasbag60
(g76
g62
NtRp423
(dp424
g65
(dp425
sg74
g262
sg67
(lp426
g60
(g81
g62
NtRp427
(dp428
g65
(dp429
g85
g86
ssg74
g423
sg67
(lp430
S'http_accept'
p431
asbag60
(g81
g62
NtRp432
(dp433
g65
(dp434
g92
g93
ssg74
g423
sg67
(lp435
S':'
asbag60
(g81
g62
NtRp436
(dp437
g65
(dp438
sg74
g423
sg67
(lp439
g60
(g61
g62
NtRp440
(dp441
g65
(dp442
g73
I4
ssg74
g436
sg67
(lp443
S'text/html,application/xhtml+xml,application/xml;q=0.9,*/*;q=0.8'
p444
asbasbasbag60
(g76
g62
NtRp445
(dp446
g65
(dp447
sg74
g262
sg67
(lp448
g60
(g81
g62
NtRp449
(dp450
g65
(dp451
g85
g86
ssg74
g445
sg67
(lp452
S'http_accept_charset'
p453
asbag60
(g81
g62
NtRp454
(dp455
g65
(dp456
g92
g93
ssg74
g445
sg67
(lp457
S':'
asbag60
(g81
g62
NtRp458
(dp459
g65
(dp460
sg74
g445
sg67
(lp461
g60
(g61
g62
NtRp462
(dp463
g65
(dp464
g73
I4
ssg74
g458
sg67
(lp465
S'ISO-8859-1,utf-8;q=0.7,*;q=0.3'
p466
asbasbasbag60
(g76
g62
NtRp467
(dp468
g65
(dp469
sg74
g262
sg67
(lp470
g60
(g81
g62
NtRp471
(dp472
g65
(dp473
g85
g86
ssg74
g467
sg67
(lp474
S'http_accept_encoding'
p475
asbag60
(g81
g62
NtRp476
(dp477
g65
(dp478
g92
g93
ssg74
g467
sg67
(lp479
S':'
asbag60
(g81
g62
NtRp480
(dp481
g65
(dp482
sg74
g467
sg67
(lp483
g60
(g61
g62
NtRp484
(dp485
g65
(dp486
g73
I4
ssg74
g480
sg67
(lp487
S'gzip,deflate,sdch'
p488
asbasbasbag60
(g76
g62
NtRp489
(dp490
g65
(dp491
sg74
g262
sg67
(lp492
g60
(g81
g62
NtRp493
(dp494
g65
(dp495
g85
g86
ssg74
g489
sg67
(lp496
S'http_accept_language'
p497
asbag60
(g81
g62
NtRp498
(dp499
g65
(dp500
g92
g93
ssg74
g489
sg67
(lp501
S':'
asbag60
(g81
g62
NtRp502
(dp503
g65
(dp504
sg74
g489
sg67
(lp505
g60
(g61
g62
NtRp506
(dp507
g65
(dp508
g73
I4
ssg74
g502
sg67
(lp509
S'en-US,en;q=0.8'
p510
asbasbasbag60
(g76
g62
NtRp511
(dp512
g65
(dp513
sg74
g262
sg67
(lp514
g60
(g81
g62
NtRp515
(dp516
g65
(dp517
g85
g86
ssg74
g511
sg67
(lp518
S'http_connection'
p519
asbag60
(g81
g62
NtRp520
(dp521
g65
(dp522
g92
g93
ssg74
g511
sg67
(lp523
S':'
asbag60
(g81
g62
NtRp524
(dp525
g65
(dp526
sg74
g511
sg67
(lp527
g60
(g61
g62
NtRp528
(dp529
g65
(dp530
g73
I4
ssg74
g524
sg67
(lp531
S'keep-alive'
p532
asbasbasbag60
(g76
g62
NtRp533
(dp534
g65
(dp535
sg74
g262
sg67
(lp536
g60
(g81
g62
NtRp537
(dp538
g65
(dp539
g85
g86
ssg74
g533
sg67
(lp540
S'http_host'
p541
asbag60
(g81
g62
NtRp542
(dp543
g65
(dp544
g92
g93
ssg74
g533
sg67
(lp545
S':'
asbag60
(g81
g62
NtRp546
(dp547
g65
(dp548
sg74
g533
sg67
(lp549
g60
(g61
g62
NtRp550
(dp551
g65
(dp552
g73
I4
ssg74
g546
sg67
(lp553
S'localhost:8000'
p554
asbasbasbag60
(g76
g62
NtRp555
(dp556
g65
(dp557
sg74
g262
sg67
(lp558
g60
(g81
g62
NtRp559
(dp560
g65
(dp561
g85
g86
ssg74
g555
sg67
(lp562
S'http_user_agent'
p563
asbag60
(g81
g62
NtRp564
(dp565
g65
(dp566
g92
g93
ssg74
g555
sg67
(lp567
S':'
asbag60
(g81
g62
NtRp568
(dp569
g65
(dp570
sg74
g555
sg67
(lp571
g60
(g61
g62
NtRp572
(dp573
g65
(dp574
g73
I4
ssg74
g568
sg67
(lp575
S'Mozilla/5.0 (Windows NT 6.1; WOW64) AppleWebKit/535.18 (KHTML, like Gecko) Chrome/18.0.1011.0 Safari/535.18'
p576
asbasbasbag60
(g76
g62
NtRp577
(dp578
g65
(dp579
sg74
g262
sg67
(lp580
g60
(g81
g62
NtRp581
(dp582
g65
(dp583
g85
g86
ssg74
g577
sg67
(lp584
S'is_jython'
p585
asbag60
(g81
g62
NtRp586
(dp587
g65
(dp588
g92
g93
ssg74
g577
sg67
(lp589
S':'
asbag60
(g81
g62
NtRp590
(dp591
g65
(dp592
sg74
g577
sg67
(lp593
g60
(g61
g62
NtRp594
(dp595
g65
(dp596
g73
I4
ssg74
g590
sg67
(lp597
g103
asbasbasbag60
(g76
g62
NtRp598
(dp599
g65
(dp600
sg74
g262
sg67
(lp601
g60
(g81
g62
NtRp602
(dp603
g65
(dp604
g85
g86
ssg74
g598
sg67
(lp605
S'is_pypy'
p606
asbag60
(g81
g62
NtRp607
(dp608
g65
(dp609
g92
g93
ssg74
g598
sg67
(lp610
S':'
asbag60
(g81
g62
NtRp611
(dp612
g65
(dp613
sg74
g598
sg67
(lp614
g60
(g61
g62
NtRp615
(dp616
g65
(dp617
g73
I4
ssg74
g611
sg67
(lp618
g103
asbasbasbag60
(g76
g62
NtRp619
(dp620
g65
(dp621
sg74
g262
sg67
(lp622
g60
(g81
g62
NtRp623
(dp624
g65
(dp625
g85
g86
ssg74
g619
sg67
(lp626
S'path_info'
p627
asbag60
(g81
g62
NtRp628
(dp629
g65
(dp630
g92
g93
ssg74
g619
sg67
(lp631
S':'
asbag60
(g81
g62
NtRp632
(dp633
g65
(dp634
sg74
g619
sg67
(lp635
g60
(g61
g62
NtRp636
(dp637
g65
(dp638
g73
I4
ssg74
g632
sg67
(lp639
S'/'
asbasbasbag60
(g76
g62
NtRp640
(dp641
g65
(dp642
sg74
g262
sg67
(lp643
g60
(g81
g62
NtRp644
(dp645
g65
(dp646
g85
g86
ssg74
g640
sg67
(lp647
S'query_string'
p648
asbag60
(g81
g62
NtRp649
(dp650
g65
(dp651
g92
g93
ssg74
g640
sg67
(lp652
S':'
asbag60
(g81
g62
NtRp653
(dp654
g65
(dp655
sg74
g640
sg67
(lp656
g60
(g61
g62
NtRp657
(dp658
g65
(dp659
g73
I4
ssg74
g653
sg67
(lp660
S''
asbasbasbag60
(g76
g62
NtRp661
(dp662
g65
(dp663
sg74
g262
sg67
(lp664
g60
(g81
g62
NtRp665
(dp666
g65
(dp667
g85
g86
ssg74
g661
sg67
(lp668
S'remote_addr'
p669
asbag60
(g81
g62
NtRp670
(dp671
g65
(dp672
g92
g93
ssg74
g661
sg67
(lp673
S':'
asbag60
(g81
g62
NtRp674
(dp675
g65
(dp676
sg74
g661
sg67
(lp677
g60
(g61
g62
NtRp678
(dp679
g65
(dp680
g73
I4
ssg74
g674
sg67
(lp681
g193
asbasbasbag60
(g76
g62
NtRp682
(dp683
g65
(dp684
sg74
g262
sg67
(lp685
g60
(g81
g62
NtRp686
(dp687
g65
(dp688
g85
g86
ssg74
g682
sg67
(lp689
S'remote_port'
p690
asbag60
(g81
g62
NtRp691
(dp692
g65
(dp693
g92
g93
ssg74
g682
sg67
(lp694
S':'
asbag60
(g81
g62
NtRp695
(dp696
g65
(dp697
sg74
g682
sg67
(lp698
g60
(g61
g62
NtRp699
(dp700
g65
(dp701
g73
I4
ssg74
g695
sg67
(lp702
S'51008'
p703
asbasbasbag60
(g76
g62
NtRp704
(dp705
g65
(dp706
sg74
g262
sg67
(lp707
g60
(g81
g62
NtRp708
(dp709
g65
(dp710
g85
g86
ssg74
g704
sg67
(lp711
S'request_method'
p712
asbag60
(g81
g62
NtRp713
(dp714
g65
(dp715
g92
g93
ssg74
g704
sg67
(lp716
S':'
asbag60
(g81
g62
NtRp717
(dp718
g65
(dp719
sg74
g704
sg67
(lp720
g60
(g61
g62
NtRp721
(dp722
g65
(dp723
g73
I4
ssg74
g717
sg67
(lp724
S'GET'
p725
asbasbasbag60
(g76
g62
NtRp726
(dp727
g65
(dp728
sg74
g262
sg67
(lp729
g60
(g81
g62
NtRp730
(dp731
g65
(dp732
g85
g86
ssg74
g726
sg67
(lp733
S'script_name'
p734
asbag60
(g81
g62
NtRp735
(dp736
g65
(dp737
g92
g93
ssg74
g726
sg67
(lp738
S':'
asbag60
(g81
g62
NtRp739
(dp740
g65
(dp741
sg74
g726
sg67
(lp742
g60
(g61
g62
NtRp743
(dp744
g65
(dp745
g73
I4
ssg74
g739
sg67
(lp746
S''
asbasbasbag60
(g76
g62
NtRp747
(dp748
g65
(dp749
sg74
g262
sg67
(lp750
g60
(g81
g62
NtRp751
(dp752
g65
(dp753
g85
g86
ssg74
g747
sg67
(lp754
S'server_name'
p755
asbag60
(g81
g62
NtRp756
(dp757
g65
(dp758
g92
g93
ssg74
g747
sg67
(lp759
S':'
asbag60
(g81
g62
NtRp760
(dp761
g65
(dp762
sg74
g747
sg67
(lp763
g60
(g61
g62
NtRp764
(dp765
g65
(dp766
g73
I4
ssg74
g760
sg67
(lp767
S'Batou'
p768
asbasbasbag60
(g76
g62
NtRp769
(dp770
g65
(dp771
sg74
g262
sg67
(lp772
g60
(g81
g62
NtRp773
(dp774
g65
(dp775
g85
g86
ssg74
g769
sg67
(lp776
S'server_port'
p777
asbag60
(g81
g62
NtRp778
(dp779
g65
(dp780
g92
g93
ssg74
g769
sg67
(lp781
S':'
asbag60
(g81
g62
NtRp782
(dp783
g65
(dp784
sg74
g769
sg67
(lp785
g60
(g61
g62
NtRp786
(dp787
g65
(dp788
g73
I4
ssg74
g782
sg67
(lp789
S'8000'
p790
asbasbasbag60
(g76
g62
NtRp791
(dp792
g65
(dp793
sg74
g262
sg67
(lp794
g60
(g81
g62
NtRp795
(dp796
g65
(dp797
g85
g86
ssg74
g791
sg67
(lp798
S'server_protocol'
p799
asbag60
(g81
g62
NtRp800
(dp801
g65
(dp802
g92
g93
ssg74
g791
sg67
(lp803
S':'
asbag60
(g81
g62
NtRp804
(dp805
g65
(dp806
sg74
g791
sg67
(lp807
g60
(g61
g62
NtRp808
(dp809
g65
(dp810
g73
I4
ssg74
g804
sg67
(lp811
S'HTTP/1.1'
p812
asbasbasbag60
(g76
g62
NtRp813
(dp814
g65
(dp815
sg74
g262
sg67
(lp816
g60
(g81
g62
NtRp817
(dp818
g65
(dp819
g85
g86
ssg74
g813
sg67
(lp820
S'server_software'
p821
asbag60
(g81
g62
NtRp822
(dp823
g65
(dp824
g92
g93
ssg74
g813
sg67
(lp825
S':'
asbag60
(g81
g62
NtRp826
(dp827
g65
(dp828
sg74
g813
sg67
(lp829
g60
(g61
g62
NtRp830
(dp831
g65
(dp832
g73
I4
ssg74
g826
sg67
(lp833
S'Rocket 1.2.4'
p834
asbasbasbag60
(g76
g62
NtRp835
(dp836
g65
(dp837
sg74
g262
sg67
(lp838
g60
(g81
g62
NtRp839
(dp840
g65
(dp841
g85
g86
ssg74
g835
sg67
(lp842
S'web2py_crontype'
p843
asbag60
(g81
g62
NtRp844
(dp845
g65
(dp846
g92
g93
ssg74
g835
sg67
(lp847
S':'
asbag60
(g81
g62
NtRp848
(dp849
g65
(dp850
sg74
g835
sg67
(lp851
g60
(g61
g62
NtRp852
(dp853
g65
(dp854
g73
I4
ssg74
g848
sg67
(lp855
S'hard'
p856
asbasbasbag60
(g76
g62
NtRp857
(dp858
g65
(dp859
sg74
g262
sg67
(lp860
g60
(g81
g62
NtRp861
(dp862
g65
(dp863
g85
g86
ssg74
g857
sg67
(lp864
S'web2py_path'
p865
asbag60
(g81
g62
NtRp866
(dp867
g65
(dp868
g92
g93
ssg74
g857
sg67
(lp869
S':'
asbag60
(g81
g62
NtRp870
(dp871
g65
(dp872
sg74
g857
sg67
(lp873
g60
(g61
g62
NtRp874
(dp875
g65
(dp876
g73
I4
ssg74
g870
sg67
(lp877
g309
asbasbasbag60
(g76
g62
NtRp878
(dp879
g65
(dp880
sg74
g262
sg67
(lp881
g60
(g81
g62
NtRp882
(dp883
g65
(dp884
g85
g86
ssg74
g878
sg67
(lp885
S'web2py_version'
p886
asbag60
(g81
g62
NtRp887
(dp888
g65
(dp889
g92
g93
ssg74
g878
sg67
(lp890
S':'
asbag60
(g81
g62
NtRp891
(dp892
g65
(dp893
sg74
g878
sg67
(lp894
g60
(g61
g62
NtRp895
(dp896
g65
(dp897
g73
I4
ssg74
g891
sg67
(lp898
g60
(g69
g62
NtRp899
(dp900
g65
(dp901
g73
I3
ssg74
Nsg67
(lp902
g60
(g76
g62
NtRp903
(dp904
g65
(dp905
sg74
g899
sg67
(lp906
g60
(g81
g62
NtRp907
(dp908
g65
(dp909
sg74
g903
sg67
(lp910
g60
(g61
g62
NtRp911
(dp912
g65
(dp913
g73
I3
ssg74
g907
sg67
(lp914
S'1'
asbasbasbag60
(g76
g62
NtRp915
(dp916
g65
(dp917
sg74
g899
sg67
(lp918
g60
(g81
g62
NtRp919
(dp920
g65
(dp921
sg74
g915
sg67
(lp922
g60
(g61
g62
NtRp923
(dp924
g65
(dp925
g73
I3
ssg74
g919
sg67
(lp926
S'99'
p927
asbasbasbag60
(g76
g62
NtRp928
(dp929
g65
(dp930
sg74
g899
sg67
(lp931
g60
(g81
g62
NtRp932
(dp933
g65
(dp934
sg74
g928
sg67
(lp935
g60
(g61
g62
NtRp936
(dp937
g65
(dp938
g73
I3
ssg74
g932
sg67
(lp939
S'7'
asbasbasbag60
(g76
g62
NtRp940
(dp941
g65
(dp942
sg74
g899
sg67
(lp943
g60
(g81
g62
NtRp944
(dp945
g65
(dp946
sg74
g940
sg67
(lp947
g60
(g61
g62
NtRp948
(dp949
g65
(dp950
g73
I3
ssg74
g944
sg67
(lp951
S'datetime.datetime(2012, 3, 4, 22, 12, 8)'
p952
asbasbasbag60
(g76
g62
NtRp953
(dp954
g65
(dp955
sg74
g899
sg67
(lp956
g60
(g81
g62
NtRp957
(dp958
g65
(dp959
sg74
g953
sg67
(lp960
g60
(g61
g62
NtRp961
(dp962
g65
(dp963
g73
I3
ssg74
g957
sg67
(lp964
S'stable'
p965
asbasbasbasbasbasbasbag60
(g76
g62
NtRp966
(dp967
g65
(dp968
sg74
g262
sg67
(lp969
g60
(g81
g62
NtRp970
(dp971
g65
(dp972
g85
g86
ssg74
g966
sg67
(lp973
S'wsgi_errors'
p974
asbag60
(g81
g62
NtRp975
(dp976
g65
(dp977
g92
g93
ssg74
g966
sg67
(lp978
S':'
asbag60
(g81
g62
NtRp979
(dp980
g65
(dp981
sg74
g966
sg67
(lp982
g60
(g61
g62
NtRp983
(dp984
g65
(dp985
g73
I4
ssg74
g979
sg67
(lp986
S"<open file '<stderr>', mode 'w' at 0x008C00B0>"
p987
asbasbasbag60
(g76
g62
NtRp988
(dp989
g65
(dp990
sg74
g262
sg67
(lp991
g60
(g81
g62
NtRp992
(dp993
g65
(dp994
g85
g86
ssg74
g988
sg67
(lp995
S'wsgi_file_wrapper'
p996
asbag60
(g81
g62
NtRp997
(dp998
g65
(dp999
g92
g93
ssg74
g988
sg67
(lp1000
S':'
asbag60
(g81
g62
NtRp1001
(dp1002
g65
(dp1003
sg74
g988
sg67
(lp1004
g60
(g61
g62
NtRp1005
(dp1006
g65
(dp1007
g73
I4
ssg74
g1001
sg67
(lp1008
S'<class wsgiref.util.FileWrapper at 0x02BC6900>'
p1009
asbasbasbag60
(g76
g62
NtRp1010
(dp1011
g65
(dp1012
sg74
g262
sg67
(lp1013
g60
(g81
g62
NtRp1014
(dp1015
g65
(dp1016
g85
g86
ssg74
g1010
sg67
(lp1017
S'wsgi_input'
p1018
asbag60
(g81
g62
NtRp1019
(dp1020
g65
(dp1021
g92
g93
ssg74
g1010
sg67
(lp1022
S':'
asbag60
(g81
g62
NtRp1023
(dp1024
g65
(dp1025
sg74
g1010
sg67
(lp1026
g60
(g61
g62
NtRp1027
(dp1028
g65
(dp1029
g73
I4
ssg74
g1023
sg67
(lp1030
S'<socket._fileobject object at 0x03C23630>'
p1031
asbasbasbag60
(g76
g62
NtRp1032
(dp1033
g65
(dp1034
sg74
g262
sg67
(lp1035
g60
(g81
g62
NtRp1036
(dp1037
g65
(dp1038
g85
g86
ssg74
g1032
sg67
(lp1039
S'wsgi_multiprocess'
p1040
asbag60
(g81
g62
NtRp1041
(dp1042
g65
(dp1043
g92
g93
ssg74
g1032
sg67
(lp1044
S':'
asbag60
(g81
g62
NtRp1045
(dp1046
g65
(dp1047
sg74
g1032
sg67
(lp1048
g60
(g61
g62
NtRp1049
(dp1050
g65
(dp1051
g73
I4
ssg74
g1045
sg67
(lp1052
g103
asbasbasbag60
(g76
g62
NtRp1053
(dp1054
g65
(dp1055
sg74
g262
sg67
(lp1056
g60
(g81
g62
NtRp1057
(dp1058
g65
(dp1059
g85
g86
ssg74
g1053
sg67
(lp1060
S'wsgi_multithread'
p1061
asbag60
(g81
g62
NtRp1062
(dp1063
g65
(dp1064
g92
g93
ssg74
g1053
sg67
(lp1065
S':'
asbag60
(g81
g62
NtRp1066
(dp1067
g65
(dp1068
sg74
g1053
sg67
(lp1069
g60
(g61
g62
NtRp1070
(dp1071
g65
(dp1072
g73
I4
ssg74
g1066
sg67
(lp1073
g400
asbasbasbag60
(g76
g62
NtRp1074
(dp1075
g65
(dp1076
sg74
g262
sg67
(lp1077
g60
(g81
g62
NtRp1078
(dp1079
g65
(dp1080
g85
g86
ssg74
g1074
sg67
(lp1081
S'wsgi_run_once'
p1082
asbag60
(g81
g62
NtRp1083
(dp1084
g65
(dp1085
g92
g93
ssg74
g1074
sg67
(lp1086
S':'
asbag60
(g81
g62
NtRp1087
(dp1088
g65
(dp1089
sg74
g1074
sg67
(lp1090
g60
(g61
g62
NtRp1091
(dp1092
g65
(dp1093
g73
I4
ssg74
g1087
sg67
(lp1094
g103
asbasbasbag60
(g76
g62
NtRp1095
(dp1096
g65
(dp1097
sg74
g262
sg67
(lp1098
g60
(g81
g62
NtRp1099
(dp1100
g65
(dp1101
g85
g86
ssg74
g1095
sg67
(lp1102
S'wsgi_url_scheme'
p1103
asbag60
(g81
g62
NtRp1104
(dp1105
g65
(dp1106
g92
g93
ssg74
g1095
sg67
(lp1107
S':'
asbag60
(g81
g62
NtRp1108
(dp1109
g65
(dp1110
sg74
g1095
sg67
(lp1111
g60
(g61
g62
NtRp1112
(dp1113
g65
(dp1114
g73
I4
ssg74
g1108
sg67
(lp1115
S'http'
p1116
asbasbasbag60
(g76
g62
NtRp1117
(dp1118
g65
(dp1119
sg74
g262
sg67
(lp1120
g60
(g81
g62
NtRp1121
(dp1122
g65
(dp1123
g85
g86
ssg74
g1117
sg67
(lp1124
S'wsgi_version'
p1125
asbag60
(g81
g62
NtRp1126
(dp1127
g65
(dp1128
g92
g93
ssg74
g1117
sg67
(lp1129
S':'
asbag60
(g81
g62
NtRp1130
(dp1131
g65
(dp1132
sg74
g1117
sg67
(lp1133
g60
(g61
g62
NtRp1134
(dp1135
g65
(dp1136
g73
I4
ssg74
g1130
sg67
(lp1137
g60
(g69
g62
NtRp1138
(dp1139
g65
(dp1140
g73
I3
ssg74
Nsg67
(lp1141
g60
(g76
g62
NtRp1142
(dp1143
g65
(dp1144
sg74
g1138
sg67
(lp1145
g60
(g81
g62
NtRp1146
(dp1147
g65
(dp1148
sg74
g1142
sg67
(lp1149
g60
(g61
g62
NtRp1150
(dp1151
g65
(dp1152
g73
I3
ssg74
g1146
sg67
(lp1153
S'1'
asbasbasbag60
(g76
g62
NtRp1154
(dp1155
g65
(dp1156
sg74
g1138
sg67
(lp1157
g60
(g81
g62
NtRp1158
(dp1159
g65
(dp1160
sg74
g1154
sg67
(lp1161
g60
(g61
g62
NtRp1162
(dp1163
g65
(dp1164
g73
I3
ssg74
g1158
sg67
(lp1165
S'0'
asbasbasbasbasbasbasbasbasbasbasbag60
(g76
g62
NtRp1166
(dp1167
g65
(dp1168
sg74
g70
sg67
(lp1169
g60
(g81
g62
NtRp1170
(dp1171
g65
(dp1172
g85
g86
ssg74
g1166
sg67
(lp1173
S'extension'
p1174
asbag60
(g81
g62
NtRp1175
(dp1176
g65
(dp1177
g92
g93
ssg74
g1166
sg67
(lp1178
S':'
asbag60
(g81
g62
NtRp1179
(dp1180
g65
(dp1181
sg74
g1166
sg67
(lp1182
g60
(g61
g62
NtRp1183
(dp1184
g65
(dp1185
g73
I5
ssg74
g1179
sg67
(lp1186
S'html'
p1187
asbasbasbag60
(g76
g62
NtRp1188
(dp1189
g65
(dp1190
sg74
g70
sg67
(lp1191
g60
(g81
g62
NtRp1192
(dp1193
g65
(dp1194
g85
g86
ssg74
g1188
sg67
(lp1195
S'folder'
p1196
asbag60
(g81
g62
NtRp1197
(dp1198
g65
(dp1199
g92
g93
ssg74
g1188
sg67
(lp1200
S':'
asbag60
(g81
g62
NtRp1201
(dp1202
g65
(dp1203
sg74
g1188
sg67
(lp1204
g60
(g61
g62
NtRp1205
(dp1206
g65
(dp1207
g73
I5
ssg74
g1201
sg67
(lp1208
S'C:\\Users\\Bussiere\\Dropbox\\Projets\\jackpoint\\web2py\\applications\\init\\'
p1209
asbasbasbag60
(g76
g62
NtRp1210
(dp1211
g65
(dp1212
sg74
g70
sg67
(lp1213
g60
(g81
g62
NtRp1214
(dp1215
g65
(dp1216
g85
g86
ssg74
g1210
sg67
(lp1217
S'function'
p1218
asbag60
(g81
g62
NtRp1219
(dp1220
g65
(dp1221
g92
g93
ssg74
g1210
sg67
(lp1222
S':'
asbag60
(g81
g62
NtRp1223
(dp1224
g65
(dp1225
sg74
g1210
sg67
(lp1226
g60
(g61
g62
NtRp1227
(dp1228
g65
(dp1229
g73
I5
ssg74
g1223
sg67
(lp1230
S'index'
p1231
asbasbasbag60
(g76
g62
NtRp1232
(dp1233
g65
(dp1234
sg74
g70
sg67
(lp1235
g60
(g81
g62
NtRp1236
(dp1237
g65
(dp1238
g85
g86
ssg74
g1232
sg67
(lp1239
S'get_vars'
p1240
asbag60
(g81
g62
NtRp1241
(dp1242
g65
(dp1243
g92
g93
ssg74
g1232
sg67
(lp1244
S':'
asbag60
(g81
g62
NtRp1245
(dp1246
g65
(dp1247
sg74
g1232
sg67
(lp1248
g60
(g61
g62
NtRp1249
(dp1250
g65
(dp1251
g73
I5
ssg74
g1245
sg67
(lp1252
g60
(g69
g62
NtRp1253
(dp1254
g65
(dp1255
g73
I4
ssg74
Nsg67
(lp1256
sbasbasbasbag60
(g76
g62
NtRp1257
(dp1258
g65
(dp1259
sg74
g70
sg67
(lp1260
g60
(g81
g62
NtRp1261
(dp1262
g65
(dp1263
g85
g86
ssg74
g1257
sg67
(lp1264
S'global_settings'
p1265
asbag60
(g81
g62
NtRp1266
(dp1267
g65
(dp1268
g92
g93
ssg74
g1257
sg67
(lp1269
S':'
asbag60
(g81
g62
NtRp1270
(dp1271
g65
(dp1272
sg74
g1257
sg67
(lp1273
g60
(g61
g62
NtRp1274
(dp1275
g65
(dp1276
g73
I5
ssg74
g1270
sg67
(lp1277
g60
(g69
g62
NtRp1278
(dp1279
g65
(dp1280
g73
I4
ssg74
Nsg67
(lp1281
g60
(g76
g62
NtRp1282
(dp1283
g65
(dp1284
sg74
g1278
sg67
(lp1285
g60
(g81
g62
NtRp1286
(dp1287
g65
(dp1288
g85
g86
ssg74
g1282
sg67
(lp1289
g274
asbag60
(g81
g62
NtRp1290
(dp1291
g65
(dp1292
g92
g93
ssg74
g1282
sg67
(lp1293
S':'
asbag60
(g81
g62
NtRp1294
(dp1295
g65
(dp1296
sg74
g1282
sg67
(lp1297
g60
(g61
g62
NtRp1298
(dp1299
g65
(dp1300
g73
I4
ssg74
g1294
sg67
(lp1301
S"set(['C:\\\\Users\\\\Bussiere\\\\Dropbox\\\\Projets\\\\jackpoint\\\\web2py\\\\applications\\\\init\\\\'])"
p1302
asbasbasbag60
(g76
g62
NtRp1303
(dp1304
g65
(dp1305
sg74
g1278
sg67
(lp1306
g60
(g81
g62
NtRp1307
(dp1308
g65
(dp1309
g85
g86
ssg74
g1303
sg67
(lp1310
g296
asbag60
(g81
g62
NtRp1311
(dp1312
g65
(dp1313
g92
g93
ssg74
g1303
sg67
(lp1314
S':'
asbag60
(g81
g62
NtRp1315
(dp1316
g65
(dp1317
sg74
g1303
sg67
(lp1318
g60
(g61
g62
NtRp1319
(dp1320
g65
(dp1321
g73
I4
ssg74
g1315
sg67
(lp1322
g309
asbasbasbag60
(g76
g62
NtRp1323
(dp1324
g65
(dp1325
sg74
g1278
sg67
(lp1326
g60
(g81
g62
NtRp1327
(dp1328
g65
(dp1329
g85
g86
ssg74
g1323
sg67
(lp1330
g318
asbag60
(g81
g62
NtRp1331
(dp1332
g65
(dp1333
g92
g93
ssg74
g1323
sg67
(lp1334
S':'
asbag60
(g81
g62
NtRp1335
(dp1336
g65
(dp1337
sg74
g1323
sg67
(lp1338
g60
(g61
g62
NtRp1339
(dp1340
g65
(dp1341
g73
I4
ssg74
g1335
sg67
(lp1342
g60
(g69
g62
NtRp1343
(dp1344
g65
(dp1345
g73
I3
ssg74
Nsg67
(lp1346
sbasbasbasbag60
(g76
g62
NtRp1347
(dp1348
g65
(dp1349
sg74
g1278
sg67
(lp1350
g60
(g81
g62
NtRp1351
(dp1352
g65
(dp1353
g85
g86
ssg74
g1347
sg67
(lp1354
g343
asbag60
(g81
g62
NtRp1355
(dp1356
g65
(dp1357
g92
g93
ssg74
g1347
sg67
(lp1358
S':'
asbag60
(g81
g62
NtRp1359
(dp1360
g65
(dp1361
sg74
g1347
sg67
(lp1362
g60
(g61
g62
NtRp1363
(dp1364
g65
(dp1365
g73
I4
ssg74
g1359
sg67
(lp1366
S"<Values at 0x3c25fa8: {'verbose': False, 'ip': '127.0.0.1', 'shutdown_timeout': 5, 'taskbar': False, 'nocron': False, 'pid_filename': 'httpserver.pid', 'maxthreads': None, 'softcron': False, 'server_name': 'Batou', 'bpython': False, 'nogui': False, 'port': 8000, 'extcron': False, 'debuglevel': 30, 'test': None, 'folder': 'C:\\\\Users\\\\Bussiere\\\\Dropbox\\\\Projets\\\\jackpoint\\\\web2py', 'config': '', 'import_models': False, 'winservice': '', 'shell': None, 'run': '', 'log_filename': 'httpserver.log', 'args': [''], 'socket_timeout': 5, 'ssl_ca_certificate': None, 'scheduler': None, 'profiler_filename': None, 'ssl_private_key': '', 'password': '<ask>', 'request_queue_size': 5, 'ssl_certificate': '', 'cronjob': False, 'numthreads': None, 'quiet': False, 'interfaces': None, 'minthreads': None, 'timeout': 10, 'plain': False, 'nobanner': False}>"
p1367
asbasbasbag60
(g76
g62
NtRp1368
(dp1369
g65
(dp1370
sg74
g1278
sg67
(lp1371
g60
(g81
g62
NtRp1372
(dp1373
g65
(dp1374
g85
g86
ssg74
g1368
sg67
(lp1375
g365
asbag60
(g81
g62
NtRp1376
(dp1377
g65
(dp1378
g92
g93
ssg74
g1368
sg67
(lp1379
S':'
asbag60
(g81
g62
NtRp1380
(dp1381
g65
(dp1382
sg74
g1368
sg67
(lp1383
g60
(g61
g62
NtRp1384
(dp1385
g65
(dp1386
g73
I4
ssg74
g1380
sg67
(lp1387
S"set(['init'])"
p1388
asbasbasbag60
(g76
g62
NtRp1389
(dp1390
g65
(dp1391
sg74
g1278
sg67
(lp1392
g60
(g81
g62
NtRp1393
(dp1394
g65
(dp1395
g85
g86
ssg74
g1389
sg67
(lp1396
g387
asbag60
(g81
g62
NtRp1397
(dp1398
g65
(dp1399
g92
g93
ssg74
g1389
sg67
(lp1400
S':'
asbag60
(g81
g62
NtRp1401
(dp1402
g65
(dp1403
sg74
g1389
sg67
(lp1404
g60
(g61
g62
NtRp1405
(dp1406
g65
(dp1407
g73
I4
ssg74
g1401
sg67
(lp1408
g400
asbasbasbag60
(g76
g62
NtRp1409
(dp1410
g65
(dp1411
sg74
g1278
sg67
(lp1412
g60
(g81
g62
NtRp1413
(dp1414
g65
(dp1415
g85
g86
ssg74
g1409
sg67
(lp1416
g409
asbag60
(g81
g62
NtRp1417
(dp1418
g65
(dp1419
g92
g93
ssg74
g1409
sg67
(lp1420
S':'
asbag60
(g81
g62
NtRp1421
(dp1422
g65
(dp1423
sg74
g1409
sg67
(lp1424
g60
(g61
g62
NtRp1425
(dp1426
g65
(dp1427
g73
I4
ssg74
g1421
sg67
(lp1428
g422
asbasbasbag60
(g76
g62
NtRp1429
(dp1430
g65
(dp1431
sg74
g1278
sg67
(lp1432
g60
(g81
g62
NtRp1433
(dp1434
g65
(dp1435
g85
g86
ssg74
g1429
sg67
(lp1436
g585
asbag60
(g81
g62
NtRp1437
(dp1438
g65
(dp1439
g92
g93
ssg74
g1429
sg67
(lp1440
S':'
asbag60
(g81
g62
NtRp1441
(dp1442
g65
(dp1443
sg74
g1429
sg67
(lp1444
g60
(g61
g62
NtRp1445
(dp1446
g65
(dp1447
g73
I4
ssg74
g1441
sg67
(lp1448
g103
asbasbasbag60
(g76
g62
NtRp1449
(dp1450
g65
(dp1451
sg74
g1278
sg67
(lp1452
g60
(g81
g62
NtRp1453
(dp1454
g65
(dp1455
g85
g86
ssg74
g1449
sg67
(lp1456
g606
asbag60
(g81
g62
NtRp1457
(dp1458
g65
(dp1459
g92
g93
ssg74
g1449
sg67
(lp1460
S':'
asbag60
(g81
g62
NtRp1461
(dp1462
g65
(dp1463
sg74
g1449
sg67
(lp1464
g60
(g61
g62
NtRp1465
(dp1466
g65
(dp1467
g73
I4
ssg74
g1461
sg67
(lp1468
g103
asbasbasbag60
(g76
g62
NtRp1469
(dp1470
g65
(dp1471
sg74
g1278
sg67
(lp1472
g60
(g81
g62
NtRp1473
(dp1474
g65
(dp1475
g85
g86
ssg74
g1469
sg67
(lp1476
g843
asbag60
(g81
g62
NtRp1477
(dp1478
g65
(dp1479
g92
g93
ssg74
g1469
sg67
(lp1480
S':'
asbag60
(g81
g62
NtRp1481
(dp1482
g65
(dp1483
sg74
g1469
sg67
(lp1484
g60
(g61
g62
NtRp1485
(dp1486
g65
(dp1487
g73
I4
ssg74
g1481
sg67
(lp1488
g856
asbasbasbag60
(g76
g62
NtRp1489
(dp1490
g65
(dp1491
sg74
g1278
sg67
(lp1492
g60
(g81
g62
NtRp1493
(dp1494
g65
(dp1495
g85
g86
ssg74
g1489
sg67
(lp1496
g886
asbag60
(g81
g62
NtRp1497
(dp1498
g65
(dp1499
g92
g93
ssg74
g1489
sg67
(lp1500
S':'
asbag60
(g81
g62
NtRp1501
(dp1502
g65
(dp1503
sg74
g1489
sg67
(lp1504
g60
(g61
g62
NtRp1505
(dp1506
g65
(dp1507
g73
I4
ssg74
g1501
sg67
(lp1508
g60
(g69
g62
NtRp1509
(dp1510
g65
(dp1511
g73
I3
ssg74
Nsg67
(lp1512
g60
(g76
g62
NtRp1513
(dp1514
g65
(dp1515
sg74
g1509
sg67
(lp1516
g60
(g81
g62
NtRp1517
(dp1518
g65
(dp1519
sg74
g1513
sg67
(lp1520
g60
(g61
g62
NtRp1521
(dp1522
g65
(dp1523
g73
I3
ssg74
g1517
sg67
(lp1524
S'1'
asbasbasbag60
(g76
g62
NtRp1525
(dp1526
g65
(dp1527
sg74
g1509
sg67
(lp1528
g60
(g81
g62
NtRp1529
(dp1530
g65
(dp1531
sg74
g1525
sg67
(lp1532
g60
(g61
g62
NtRp1533
(dp1534
g65
(dp1535
g73
I3
ssg74
g1529
sg67
(lp1536
S'99'
p1537
asbasbasbag60
(g76
g62
NtRp1538
(dp1539
g65
(dp1540
sg74
g1509
sg67
(lp1541
g60
(g81
g62
NtRp1542
(dp1543
g65
(dp1544
sg74
g1538
sg67
(lp1545
g60
(g61
g62
NtRp1546
(dp1547
g65
(dp1548
g73
I3
ssg74
g1542
sg67
(lp1549
S'7'
asbasbasbag60
(g76
g62
NtRp1550
(dp1551
g65
(dp1552
sg74
g1509
sg67
(lp1553
g60
(g81
g62
NtRp1554
(dp1555
g65
(dp1556
sg74
g1550
sg67
(lp1557
g60
(g61
g62
NtRp1558
(dp1559
g65
(dp1560
g73
I3
ssg74
g1554
sg67
(lp1561
S'datetime.datetime(2012, 3, 4, 22, 12, 8)'
p1562
asbasbasbag60
(g76
g62
NtRp1563
(dp1564
g65
(dp1565
sg74
g1509
sg67
(lp1566
g60
(g81
g62
NtRp1567
(dp1568
g65
(dp1569
sg74
g1563
sg67
(lp1570
g60
(g61
g62
NtRp1571
(dp1572
g65
(dp1573
g73
I3
ssg74
g1567
sg67
(lp1574
g965
asbasbasbasbasbasbasbasbasbasbasbag60
(g76
g62
NtRp1575
(dp1576
g65
(dp1577
sg74
g70
sg67
(lp1578
g60
(g81
g62
NtRp1579
(dp1580
g65
(dp1581
g85
g86
ssg74
g1575
sg67
(lp1582
S'is_https'
p1583
asbag60
(g81
g62
NtRp1584
(dp1585
g65
(dp1586
g92
g93
ssg74
g1575
sg67
(lp1587
S':'
asbag60
(g81
g62
NtRp1588
(dp1589
g65
(dp1590
sg74
g1575
sg67
(lp1591
g60
(g61
g62
NtRp1592
(dp1593
g65
(dp1594
g73
I5
ssg74
g1588
sg67
(lp1595
g103
asbasbasbag60
(g76
g62
NtRp1596
(dp1597
g65
(dp1598
sg74
g70
sg67
(lp1599
g60
(g81
g62
NtRp1600
(dp1601
g65
(dp1602
g85
g86
ssg74
g1596
sg67
(lp1603
S'is_local'
p1604
asbag60
(g81
g62
NtRp1605
(dp1606
g65
(dp1607
g92
g93
ssg74
g1596
sg67
(lp1608
S':'
asbag60
(g81
g62
NtRp1609
(dp1610
g65
(dp1611
sg74
g1596
sg67
(lp1612
g60
(g61
g62
NtRp1613
(dp1614
g65
(dp1615
g73
I5
ssg74
g1609
sg67
(lp1616
g400
asbasbasbag60
(g76
g62
NtRp1617
(dp1618
g65
(dp1619
sg74
g70
sg67
(lp1620
g60
(g81
g62
NtRp1621
(dp1622
g65
(dp1623
g85
g86
ssg74
g1617
sg67
(lp1624
S'is_restful'
p1625
asbag60
(g81
g62
NtRp1626
(dp1627
g65
(dp1628
g92
g93
ssg74
g1617
sg67
(lp1629
S':'
asbag60
(g81
g62
NtRp1630
(dp1631
g65
(dp1632
sg74
g1617
sg67
(lp1633
g60
(g61
g62
NtRp1634
(dp1635
g65
(dp1636
g73
I5
ssg74
g1630
sg67
(lp1637
g103
asbasbasbag60
(g76
g62
NtRp1638
(dp1639
g65
(dp1640
sg74
g70
sg67
(lp1641
g60
(g81
g62
NtRp1642
(dp1643
g65
(dp1644
g85
g86
ssg74
g1638
sg67
(lp1645
S'now'
p1646
asbag60
(g81
g62
NtRp1647
(dp1648
g65
(dp1649
g92
g93
ssg74
g1638
sg67
(lp1650
S':'
asbag60
(g81
g62
NtRp1651
(dp1652
g65
(dp1653
sg74
g1638
sg67
(lp1654
g60
(g61
g62
NtRp1655
(dp1656
g65
(dp1657
g73
I5
ssg74
g1651
sg67
(lp1658
S'datetime.datetime(2012, 4, 2, 16, 24, 27, 535000)'
p1659
asbasbasbag60
(g76
g62
NtRp1660
(dp1661
g65
(dp1662
sg74
g70
sg67
(lp1663
g60
(g81
g62
NtRp1664
(dp1665
g65
(dp1666
g85
g86
ssg74
g1660
sg67
(lp1667
S'post_vars'
p1668
asbag60
(g81
g62
NtRp1669
(dp1670
g65
(dp1671
g92
g93
ssg74
g1660
sg67
(lp1672
S':'
asbag60
(g81
g62
NtRp1673
(dp1674
g65
(dp1675
sg74
g1660
sg67
(lp1676
g60
(g61
g62
NtRp1677
(dp1678
g65
(dp1679
g73
I5
ssg74
g1673
sg67
(lp1680
g60
(g69
g62
NtRp1681
(dp1682
g65
(dp1683
g73
I4
ssg74
Nsg67
(lp1684
sbasbasbasbag60
(g76
g62
NtRp1685
(dp1686
g65
(dp1687
sg74
g70
sg67
(lp1688
g60
(g81
g62
NtRp1689
(dp1690
g65
(dp1691
g85
g86
ssg74
g1685
sg67
(lp1692
S'url'
p1693
asbag60
(g81
g62
NtRp1694
(dp1695
g65
(dp1696
g92
g93
ssg74
g1685
sg67
(lp1697
S':'
asbag60
(g81
g62
NtRp1698
(dp1699
g65
(dp1700
sg74
g1685
sg67
(lp1701
g60
(g61
g62
NtRp1702
(dp1703
g65
(dp1704
g73
I5
ssg74
g1698
sg67
(lp1705
S'/init/default/index'
p1706
asbasbasbag60
(g76
g62
NtRp1707
(dp1708
g65
(dp1709
sg74
g70
sg67
(lp1710
g60
(g81
g62
NtRp1711
(dp1712
g65
(dp1713
g85
g86
ssg74
g1707
sg67
(lp1714
S'utcnow'
p1715
asbag60
(g81
g62
NtRp1716
(dp1717
g65
(dp1718
g92
g93
ssg74
g1707
sg67
(lp1719
S':'
asbag60
(g81
g62
NtRp1720
(dp1721
g65
(dp1722
sg74
g1707
sg67
(lp1723
g60
(g61
g62
NtRp1724
(dp1725
g65
(dp1726
g73
I5
ssg74
g1720
sg67
(lp1727
S'datetime.datetime(2012, 4, 2, 14, 24, 27, 535000)'
p1728
asbasbasbag60
(g76
g62
NtRp1729
(dp1730
g65
(dp1731
sg74
g70
sg67
(lp1732
g60
(g81
g62
NtRp1733
(dp1734
g65
(dp1735
g85
g86
ssg74
g1729
sg67
(lp1736
S'uuid'
p1737
asbag60
(g81
g62
NtRp1738
(dp1739
g65
(dp1740
g92
g93
ssg74
g1729
sg67
(lp1741
S':'
asbag60
(g81
g62
NtRp1742
(dp1743
g65
(dp1744
sg74
g1729
sg67
(lp1745
g60
(g61
g62
NtRp1746
(dp1747
g65
(dp1748
g73
I5
ssg74
g1742
sg67
(lp1749
S'init/127.0.0.1.2012-04-02.16-24-27.70a42393-9f73-43e3-99b1-d6302b61dd06'
p1750
asbasbasbag60
(g76
g62
NtRp1751
(dp1752
g65
(dp1753
sg74
g70
sg67
(lp1754
g60
(g81
g62
NtRp1755
(dp1756
g65
(dp1757
g85
g86
ssg74
g1751
sg67
(lp1758
S'vars'
p1759
asbag60
(g81
g62
NtRp1760
(dp1761
g65
(dp1762
g92
g93
ssg74
g1751
sg67
(lp1763
S':'
asbag60
(g81
g62
NtRp1764
(dp1765
g65
(dp1766
sg74
g1751
sg67
(lp1767
g60
(g61
g62
NtRp1768
(dp1769
g65
(dp1770
g73
I5
ssg74
g1764
sg67
(lp1771
g60
(g69
g62
NtRp1772
(dp1773
g65
(dp1774
g73
I4
ssg74
Nsg67
(lp1775
sbasbasbasbag60
(g76
g62
NtRp1776
(dp1777
g65
(dp1778
sg74
g70
sg67
(lp1779
g60
(g81
g62
NtRp1780
(dp1781
g65
(dp1782
g85
g86
ssg74
g1776
sg67
(lp1783
S'wsgi'
p1784
asbag60
(g81
g62
NtRp1785
(dp1786
g65
(dp1787
g92
g93
ssg74
g1776
sg67
(lp1788
S':'
asbag60
(g81
g62
NtRp1789
(dp1790
g65
(dp1791
sg74
g1776
sg67
(lp1792
g60
(g61
g62
NtRp1793
(dp1794
g65
(dp1795
g73
I5
ssg74
g1789
sg67
(lp1796
g60
(g69
g62
NtRp1797
(dp1798
g65
(dp1799
g73
I4
ssg74
Nsg67
(lp1800
g60
(g76
g62
NtRp1801
(dp1802
g65
(dp1803
sg74
g1797
sg67
(lp1804
g60
(g81
g62
NtRp1805
(dp1806
g65
(dp1807
g85
g86
ssg74
g1801
sg67
(lp1808
S'environ'
p1809
asbag60
(g81
g62
NtRp1810
(dp1811
g65
(dp1812
g92
g93
ssg74
g1801
sg67
(lp1813
S':'
asbag60
(g81
g62
NtRp1814
(dp1815
g65
(dp1816
sg74
g1801
sg67
(lp1817
g60
(g61
g62
NtRp1818
(dp1819
g65
(dp1820
g73
I4
ssg74
g1814
sg67
(lp1821
g60
(g69
g62
NtRp1822
(dp1823
g65
(dp1824
g73
I3
ssg74
Nsg67
(lp1825
g60
(g76
g62
NtRp1826
(dp1827
g65
(dp1828
sg74
g1822
sg67
(lp1829
g60
(g81
g62
NtRp1830
(dp1831
g65
(dp1832
g85
g86
ssg74
g1826
sg67
(lp1833
S'HTTP_ACCEPT'
p1834
asbag60
(g81
g62
NtRp1835
(dp1836
g65
(dp1837
g92
g93
ssg74
g1826
sg67
(lp1838
S':'
asbag60
(g81
g62
NtRp1839
(dp1840
g65
(dp1841
sg74
g1826
sg67
(lp1842
g60
(g61
g62
NtRp1843
(dp1844
g65
(dp1845
g73
I3
ssg74
g1839
sg67
(lp1846
g444
asbasbasbag60
(g76
g62
NtRp1847
(dp1848
g65
(dp1849
sg74
g1822
sg67
(lp1850
g60
(g81
g62
NtRp1851
(dp1852
g65
(dp1853
g85
g86
ssg74
g1847
sg67
(lp1854
S'HTTP_ACCEPT_CHARSET'
p1855
asbag60
(g81
g62
NtRp1856
(dp1857
g65
(dp1858
g92
g93
ssg74
g1847
sg67
(lp1859
S':'
asbag60
(g81
g62
NtRp1860
(dp1861
g65
(dp1862
sg74
g1847
sg67
(lp1863
g60
(g61
g62
NtRp1864
(dp1865
g65
(dp1866
g73
I3
ssg74
g1860
sg67
(lp1867
g466
asbasbasbag60
(g76
g62
NtRp1868
(dp1869
g65
(dp1870
sg74
g1822
sg67
(lp1871
g60
(g81
g62
NtRp1872
(dp1873
g65
(dp1874
g85
g86
ssg74
g1868
sg67
(lp1875
S'HTTP_ACCEPT_ENCODING'
p1876
asbag60
(g81
g62
NtRp1877
(dp1878
g65
(dp1879
g92
g93
ssg74
g1868
sg67
(lp1880
S':'
asbag60
(g81
g62
NtRp1881
(dp1882
g65
(dp1883
sg74
g1868
sg67
(lp1884
g60
(g61
g62
NtRp1885
(dp1886
g65
(dp1887
g73
I3
ssg74
g1881
sg67
(lp1888
g488
asbasbasbag60
(g76
g62
NtRp1889
(dp1890
g65
(dp1891
sg74
g1822
sg67
(lp1892
g60
(g81
g62
NtRp1893
(dp1894
g65
(dp1895
g85
g86
ssg74
g1889
sg67
(lp1896
S'HTTP_ACCEPT_LANGUAGE'
p1897
asbag60
(g81
g62
NtRp1898
(dp1899
g65
(dp1900
g92
g93
ssg74
g1889
sg67
(lp1901
S':'
asbag60
(g81
g62
NtRp1902
(dp1903
g65
(dp1904
sg74
g1889
sg67
(lp1905
g60
(g61
g62
NtRp1906
(dp1907
g65
(dp1908
g73
I3
ssg74
g1902
sg67
(lp1909
g510
asbasbasbag60
(g76
g62
NtRp1910
(dp1911
g65
(dp1912
sg74
g1822
sg67
(lp1913
g60
(g81
g62
NtRp1914
(dp1915
g65
(dp1916
g85
g86
ssg74
g1910
sg67
(lp1917
S'HTTP_CONNECTION'
p1918
asbag60
(g81
g62
NtRp1919
(dp1920
g65
(dp1921
g92
g93
ssg74
g1910
sg67
(lp1922
S':'
asbag60
(g81
g62
NtRp1923
(dp1924
g65
(dp1925
sg74
g1910
sg67
(lp1926
g60
(g61
g62
NtRp1927
(dp1928
g65
(dp1929
g73
I3
ssg74
g1923
sg67
(lp1930
g532
asbasbasbag60
(g76
g62
NtRp1931
(dp1932
g65
(dp1933
sg74
g1822
sg67
(lp1934
g60
(g81
g62
NtRp1935
(dp1936
g65
(dp1937
g85
g86
ssg74
g1931
sg67
(lp1938
S'HTTP_HOST'
p1939
asbag60
(g81
g62
NtRp1940
(dp1941
g65
(dp1942
g92
g93
ssg74
g1931
sg67
(lp1943
S':'
asbag60
(g81
g62
NtRp1944
(dp1945
g65
(dp1946
sg74
g1931
sg67
(lp1947
g60
(g61
g62
NtRp1948
(dp1949
g65
(dp1950
g73
I3
ssg74
g1944
sg67
(lp1951
g554
asbasbasbag60
(g76
g62
NtRp1952
(dp1953
g65
(dp1954
sg74
g1822
sg67
(lp1955
g60
(g81
g62
NtRp1956
(dp1957
g65
(dp1958
g85
g86
ssg74
g1952
sg67
(lp1959
S'HTTP_USER_AGENT'
p1960
asbag60
(g81
g62
NtRp1961
(dp1962
g65
(dp1963
g92
g93
ssg74
g1952
sg67
(lp1964
S':'
asbag60
(g81
g62
NtRp1965
(dp1966
g65
(dp1967
sg74
g1952
sg67
(lp1968
g60
(g61
g62
NtRp1969
(dp1970
g65
(dp1971
g73
I3
ssg74
g1965
sg67
(lp1972
g576
asbasbasbag60
(g76
g62
NtRp1973
(dp1974
g65
(dp1975
sg74
g1822
sg67
(lp1976
g60
(g81
g62
NtRp1977
(dp1978
g65
(dp1979
g85
g86
ssg74
g1973
sg67
(lp1980
S'PATH_INFO'
p1981
asbag60
(g81
g62
NtRp1982
(dp1983
g65
(dp1984
g92
g93
ssg74
g1973
sg67
(lp1985
S':'
asbag60
(g81
g62
NtRp1986
(dp1987
g65
(dp1988
sg74
g1973
sg67
(lp1989
g60
(g61
g62
NtRp1990
(dp1991
g65
(dp1992
g73
I3
ssg74
g1986
sg67
(lp1993
S'/'
asbasbasbag60
(g76
g62
NtRp1994
(dp1995
g65
(dp1996
sg74
g1822
sg67
(lp1997
g60
(g81
g62
NtRp1998
(dp1999
g65
(dp2000
g85
g86
ssg74
g1994
sg67
(lp2001
S'QUERY_STRING'
p2002
asbag60
(g81
g62
NtRp2003
(dp2004
g65
(dp2005
g92
g93
ssg74
g1994
sg67
(lp2006
S':'
asbag60
(g81
g62
NtRp2007
(dp2008
g65
(dp2009
sg74
g1994
sg67
(lp2010
g60
(g61
g62
NtRp2011
(dp2012
g65
(dp2013
g73
I3
ssg74
g2007
sg67
(lp2014
S''
asbasbasbag60
(g76
g62
NtRp2015
(dp2016
g65
(dp2017
sg74
g1822
sg67
(lp2018
g60
(g81
g62
NtRp2019
(dp2020
g65
(dp2021
g85
g86
ssg74
g2015
sg67
(lp2022
S'REMOTE_ADDR'
p2023
asbag60
(g81
g62
NtRp2024
(dp2025
g65
(dp2026
g92
g93
ssg74
g2015
sg67
(lp2027
S':'
asbag60
(g81
g62
NtRp2028
(dp2029
g65
(dp2030
sg74
g2015
sg67
(lp2031
g60
(g61
g62
NtRp2032
(dp2033
g65
(dp2034
g73
I3
ssg74
g2028
sg67
(lp2035
g193
asbasbasbag60
(g76
g62
NtRp2036
(dp2037
g65
(dp2038
sg74
g1822
sg67
(lp2039
g60
(g81
g62
NtRp2040
(dp2041
g65
(dp2042
g85
g86
ssg74
g2036
sg67
(lp2043
S'REMOTE_PORT'
p2044
asbag60
(g81
g62
NtRp2045
(dp2046
g65
(dp2047
g92
g93
ssg74
g2036
sg67
(lp2048
S':'
asbag60
(g81
g62
NtRp2049
(dp2050
g65
(dp2051
sg74
g2036
sg67
(lp2052
g60
(g61
g62
NtRp2053
(dp2054
g65
(dp2055
g73
I3
ssg74
g2049
sg67
(lp2056
g703
asbasbasbag60
(g76
g62
NtRp2057
(dp2058
g65
(dp2059
sg74
g1822
sg67
(lp2060
g60
(g81
g62
NtRp2061
(dp2062
g65
(dp2063
g85
g86
ssg74
g2057
sg67
(lp2064
S'REQUEST_METHOD'
p2065
asbag60
(g81
g62
NtRp2066
(dp2067
g65
(dp2068
g92
g93
ssg74
g2057
sg67
(lp2069
S':'
asbag60
(g81
g62
NtRp2070
(dp2071
g65
(dp2072
sg74
g2057
sg67
(lp2073
g60
(g61
g62
NtRp2074
(dp2075
g65
(dp2076
g73
I3
ssg74
g2070
sg67
(lp2077
g725
asbasbasbag60
(g76
g62
NtRp2078
(dp2079
g65
(dp2080
sg74
g1822
sg67
(lp2081
g60
(g81
g62
NtRp2082
(dp2083
g65
(dp2084
g85
g86
ssg74
g2078
sg67
(lp2085
S'SCRIPT_NAME'
p2086
asbag60
(g81
g62
NtRp2087
(dp2088
g65
(dp2089
g92
g93
ssg74
g2078
sg67
(lp2090
S':'
asbag60
(g81
g62
NtRp2091
(dp2092
g65
(dp2093
sg74
g2078
sg67
(lp2094
g60
(g61
g62
NtRp2095
(dp2096
g65
(dp2097
g73
I3
ssg74
g2091
sg67
(lp2098
S''
asbasbasbag60
(g76
g62
NtRp2099
(dp2100
g65
(dp2101
sg74
g1822
sg67
(lp2102
g60
(g81
g62
NtRp2103
(dp2104
g65
(dp2105
g85
g86
ssg74
g2099
sg67
(lp2106
S'SERVER_NAME'
p2107
asbag60
(g81
g62
NtRp2108
(dp2109
g65
(dp2110
g92
g93
ssg74
g2099
sg67
(lp2111
S':'
asbag60
(g81
g62
NtRp2112
(dp2113
g65
(dp2114
sg74
g2099
sg67
(lp2115
g60
(g61
g62
NtRp2116
(dp2117
g65
(dp2118
g73
I3
ssg74
g2112
sg67
(lp2119
g768
asbasbasbag60
(g76
g62
NtRp2120
(dp2121
g65
(dp2122
sg74
g1822
sg67
(lp2123
g60
(g81
g62
NtRp2124
(dp2125
g65
(dp2126
g85
g86
ssg74
g2120
sg67
(lp2127
S'SERVER_PORT'
p2128
asbag60
(g81
g62
NtRp2129
(dp2130
g65
(dp2131
g92
g93
ssg74
g2120
sg67
(lp2132
S':'
asbag60
(g81
g62
NtRp2133
(dp2134
g65
(dp2135
sg74
g2120
sg67
(lp2136
g60
(g61
g62
NtRp2137
(dp2138
g65
(dp2139
g73
I3
ssg74
g2133
sg67
(lp2140
g790
asbasbasbag60
(g76
g62
NtRp2141
(dp2142
g65
(dp2143
sg74
g1822
sg67
(lp2144
g60
(g81
g62
NtRp2145
(dp2146
g65
(dp2147
g85
g86
ssg74
g2141
sg67
(lp2148
S'SERVER_PROTOCOL'
p2149
asbag60
(g81
g62
NtRp2150
(dp2151
g65
(dp2152
g92
g93
ssg74
g2141
sg67
(lp2153
S':'
asbag60
(g81
g62
NtRp2154
(dp2155
g65
(dp2156
sg74
g2141
sg67
(lp2157
g60
(g61
g62
NtRp2158
(dp2159
g65
(dp2160
g73
I3
ssg74
g2154
sg67
(lp2161
g812
asbasbasbag60
(g76
g62
NtRp2162
(dp2163
g65
(dp2164
sg74
g1822
sg67
(lp2165
g60
(g81
g62
NtRp2166
(dp2167
g65
(dp2168
g85
g86
ssg74
g2162
sg67
(lp2169
S'SERVER_SOFTWARE'
p2170
asbag60
(g81
g62
NtRp2171
(dp2172
g65
(dp2173
g92
g93
ssg74
g2162
sg67
(lp2174
S':'
asbag60
(g81
g62
NtRp2175
(dp2176
g65
(dp2177
sg74
g2162
sg67
(lp2178
g60
(g61
g62
NtRp2179
(dp2180
g65
(dp2181
g73
I3
ssg74
g2175
sg67
(lp2182
g834
asbasbasbag60
(g76
g62
NtRp2183
(dp2184
g65
(dp2185
sg74
g1822
sg67
(lp2186
g60
(g81
g62
NtRp2187
(dp2188
g65
(dp2189
g85
g86
ssg74
g2183
sg67
(lp2190
S'wsgi.errors'
p2191
asbag60
(g81
g62
NtRp2192
(dp2193
g65
(dp2194
g92
g93
ssg74
g2183
sg67
(lp2195
S':'
asbag60
(g81
g62
NtRp2196
(dp2197
g65
(dp2198
sg74
g2183
sg67
(lp2199
g60
(g61
g62
NtRp2200
(dp2201
g65
(dp2202
g73
I3
ssg74
g2196
sg67
(lp2203
S"<open file '<stderr>', mode 'w' at 0x008C00B0>"
p2204
asbasbasbag60
(g76
g62
NtRp2205
(dp2206
g65
(dp2207
sg74
g1822
sg67
(lp2208
g60
(g81
g62
NtRp2209
(dp2210
g65
(dp2211
g85
g86
ssg74
g2205
sg67
(lp2212
S'wsgi.file_wrapper'
p2213
asbag60
(g81
g62
NtRp2214
(dp2215
g65
(dp2216
g92
g93
ssg74
g2205
sg67
(lp2217
S':'
asbag60
(g81
g62
NtRp2218
(dp2219
g65
(dp2220
sg74
g2205
sg67
(lp2221
g60
(g61
g62
NtRp2222
(dp2223
g65
(dp2224
g73
I3
ssg74
g2218
sg67
(lp2225
S'<class wsgiref.util.FileWrapper at 0x02BC6900>'
p2226
asbasbasbag60
(g76
g62
NtRp2227
(dp2228
g65
(dp2229
sg74
g1822
sg67
(lp2230
g60
(g81
g62
NtRp2231
(dp2232
g65
(dp2233
g85
g86
ssg74
g2227
sg67
(lp2234
S'wsgi.input'
p2235
asbag60
(g81
g62
NtRp2236
(dp2237
g65
(dp2238
g92
g93
ssg74
g2227
sg67
(lp2239
S':'
asbag60
(g81
g62
NtRp2240
(dp2241
g65
(dp2242
sg74
g2227
sg67
(lp2243
g60
(g61
g62
NtRp2244
(dp2245
g65
(dp2246
g73
I3
ssg74
g2240
sg67
(lp2247
S'<cStringIO.StringO object at 0x03C2F1E0>'
p2248
asbasbasbag60
(g76
g62
NtRp2249
(dp2250
g65
(dp2251
sg74
g1822
sg67
(lp2252
g60
(g81
g62
NtRp2253
(dp2254
g65
(dp2255
g85
g86
ssg74
g2249
sg67
(lp2256
S'wsgi.multiprocess'
p2257
asbag60
(g81
g62
NtRp2258
(dp2259
g65
(dp2260
g92
g93
ssg74
g2249
sg67
(lp2261
S':'
asbag60
(g81
g62
NtRp2262
(dp2263
g65
(dp2264
sg74
g2249
sg67
(lp2265
g60
(g61
g62
NtRp2266
(dp2267
g65
(dp2268
g73
I3
ssg74
g2262
sg67
(lp2269
g103
asbasbasbag60
(g76
g62
NtRp2270
(dp2271
g65
(dp2272
sg74
g1822
sg67
(lp2273
g60
(g81
g62
NtRp2274
(dp2275
g65
(dp2276
g85
g86
ssg74
g2270
sg67
(lp2277
S'wsgi.multithread'
p2278
asbag60
(g81
g62
NtRp2279
(dp2280
g65
(dp2281
g92
g93
ssg74
g2270
sg67
(lp2282
S':'
asbag60
(g81
g62
NtRp2283
(dp2284
g65
(dp2285
sg74
g2270
sg67
(lp2286
g60
(g61
g62
NtRp2287
(dp2288
g65
(dp2289
g73
I3
ssg74
g2283
sg67
(lp2290
g400
asbasbasbag60
(g76
g62
NtRp2291
(dp2292
g65
(dp2293
sg74
g1822
sg67
(lp2294
g60
(g81
g62
NtRp2295
(dp2296
g65
(dp2297
g85
g86
ssg74
g2291
sg67
(lp2298
S'wsgi.run_once'
p2299
asbag60
(g81
g62
NtRp2300
(dp2301
g65
(dp2302
g92
g93
ssg74
g2291
sg67
(lp2303
S':'
asbag60
(g81
g62
NtRp2304
(dp2305
g65
(dp2306
sg74
g2291
sg67
(lp2307
g60
(g61
g62
NtRp2308
(dp2309
g65
(dp2310
g73
I3
ssg74
g2304
sg67
(lp2311
g103
asbasbasbag60
(g76
g62
NtRp2312
(dp2313
g65
(dp2314
sg74
g1822
sg67
(lp2315
g60
(g81
g62
NtRp2316
(dp2317
g65
(dp2318
g85
g86
ssg74
g2312
sg67
(lp2319
S'wsgi.url_scheme'
p2320
asbag60
(g81
g62
NtRp2321
(dp2322
g65
(dp2323
g92
g93
ssg74
g2312
sg67
(lp2324
S':'
asbag60
(g81
g62
NtRp2325
(dp2326
g65
(dp2327
sg74
g2312
sg67
(lp2328
g60
(g61
g62
NtRp2329
(dp2330
g65
(dp2331
g73
I3
ssg74
g2325
sg67
(lp2332
g1116
asbasbasbag60
(g76
g62
NtRp2333
(dp2334
g65
(dp2335
sg74
g1822
sg67
(lp2336
g60
(g81
g62
NtRp2337
(dp2338
g65
(dp2339
g85
g86
ssg74
g2333
sg67
(lp2340
S'wsgi.version'
p2341
asbag60
(g81
g62
NtRp2342
(dp2343
g65
(dp2344
g92
g93
ssg74
g2333
sg67
(lp2345
S':'
asbag60
(g81
g62
NtRp2346
(dp2347
g65
(dp2348
sg74
g2333
sg67
(lp2349
g60
(g61
g62
NtRp2350
(dp2351
g65
(dp2352
g73
I3
ssg74
g2346
sg67
(lp2353
S'1'
asbasbasbasbasbasbasbasbasbasbasbasbasbsS'frames'
p2354
(lp2355
(dp2356
S'file'
p2357
S'C:\\Users\\Bussiere\\Dropbox\\Projets\\jackpoint\\web2py\\gluon\\restricted.py'
p2358
sS'dump'
p2359
(dp2360
sS'lnum'
p2361
I204
sS'lines'
p2362
(dp2363
I199
S"    environment['__name__'] = '__restricted__'"
p2364
sI200
S'    try:'
p2365
sI201
S'        if type(code) == types.CodeType:'
p2366
sI202
S'            ccode = code'
p2367
sI203
S'        else:'
p2368
sI204
S'            ccode = compile2(code,layer)'
p2369
sI205
S'        exec ccode in environment'
p2370
sI206
S'    except HTTP:'
p2371
sI207
S'        raise'
p2372
sI208
S'    except RestrictedError:'
p2373
ssS'call'
p2374
S"(code='\\xef\\xbb\\xbf# -*- coding: utf-8 -*-\\n# this file is releas...=crud())\\n\\nresponse._vars=response._caller(index)\\n', environment={'A': <class 'gluon.html.A'>, 'Auth': <class 'gluon.tools.Auth'>, 'AutocompleteWidget': <class 'gluon.sqlhtml.AutocompleteWidget'>, 'B': <class 'gluon.html.B'>, 'BEAUTIFY': <class 'gluon.html.BEAUTIFY'>, 'BODY': <class 'gluon.html.BODY'>, 'BR': <class 'gluon.html.BR'>, 'BUTTON': <class 'gluon.html.BUTTON'>, 'BooleanWidget': <class 'gluon.sqlhtml.BooleanWidget'>, 'CALLABLETYPES': (<type 'function'>, <type 'function'>, <type 'builtin_function_or_method'>, <type 'instancemethod'>, <type 'builtin_function_or_method'>), ...}, layer=r'C:\\Users\\Bussiere\\Dropbox\\Projets\\jackpoint\\web2py\\applications\\init\\controllers/default.py')"
p2375
sS'func'
p2376
S'restricted'
p2377
sa(dp2378
g2357
S'C:\\Users\\Bussiere\\Dropbox\\Projets\\jackpoint\\web2py\\gluon\\restricted.py'
p2379
sg2359
(dp2380
sg2361
I189
sg2362
(dp2381
I192
S'    """'
p2382
sI193
S'    runs code in environment and returns the output. if an exception occurs'
p2383
sI184
S''
sI185
S'def compile2(code,layer):'
p2384
sI186
S'    """'
p2385
sI187
S"    The +'\\n' is necessary else compile fails when code ends in a comment."
p2386
sI188
S'    """'
p2387
sI189
S"    return compile(code.rstrip().replace('\\r\\n','\\n')+'\\n', layer, 'exec')"
p2388
sI190
S''
sI191
S"def restricted(code, environment=None, layer='Unknown'):"
p2389
ssg2374
S"(code='\\xef\\xbb\\xbf# -*- coding: utf-8 -*-\\n# this file is releas...=crud())\\n\\nresponse._vars=response._caller(index)\\n', layer=r'C:\\Users\\Bussiere\\Dropbox\\Projets\\jackpoint\\web2py\\applications\\init\\controllers/default.py')"
p2390
sg2376
S'compile2'
p2391
sasS'pyver'
p2392
S'Python 2.5.4: C:\\Users\\Bussiere\\Dropbox\\Projets\\jackpoint\\web2py\\web2py.exe'
p2393
sS'session'
p2394
g60
(g61
g62
NtRp2395
(dp2396
g65
(dp2397
sg67
(lp2398
g60
(g69
g62
NtRp2399
(dp2400
g65
(dp2401
g73
I5
ssg74
Nsg67
(lp2402
sbasbsS'etype'
p2403
S"<type 'exceptions.IndentationError'>"
p2404
sS'date'
p2405
S'Mon Apr 02 16:24:33 2012'
p2406
sS'response'
p2407
g60
(g61
g62
NtRp2408
(dp2409
g65
(dp2410
sg67
(lp2411
g60
(g69
g62
NtRp2412
(dp2413
g65
(dp2414
g73
I5
ssg74
Nsg67
(lp2415
g60
(g76
g62
NtRp2416
(dp2417
g65
(dp2418
sg74
g2412
sg67
(lp2419
g60
(g81
g62
NtRp2420
(dp2421
g65
(dp2422
g85
g86
ssg74
g2416
sg67
(lp2423
g158
asbag60
(g81
g62
NtRp2424
(dp2425
g65
(dp2426
g92
g93
ssg74
g2416
sg67
(lp2427
S':'
asbag60
(g81
g62
NtRp2428
(dp2429
g65
(dp2430
sg74
g2416
sg67
(lp2431
g60
(g61
g62
NtRp2432
(dp2433
g65
(dp2434
g73
I5
ssg74
g2428
sg67
(lp2435
S'<cStringIO.StringO object at 0x03C2F2E0>'
p2436
asbasbasbag60
(g76
g62
NtRp2437
(dp2438
g65
(dp2439
sg74
g2412
sg67
(lp2440
g60
(g81
g62
NtRp2441
(dp2442
g65
(dp2443
g85
g86
ssg74
g2437
sg67
(lp2444
g224
asbag60
(g81
g62
NtRp2445
(dp2446
g65
(dp2447
g92
g93
ssg74
g2437
sg67
(lp2448
S':'
asbag60
(g81
g62
NtRp2449
(dp2450
g65
(dp2451
sg74
g2437
sg67
(lp2452
g60
(g61
g62
NtRp2453
(dp2454
g65
(dp2455
g73
I5
ssg74
g2449
sg67
(lp2456
g60
(g69
g62
NtRp2457
(dp2458
g65
(dp2459
g73
I4
ssg74
Nsg67
(lp2460
g60
(g76
g62
NtRp2461
(dp2462
g65
(dp2463
sg74
g2457
sg67
(lp2464
g60
(g81
g62
NtRp2465
(dp2466
g65
(dp2467
g85
g86
ssg74
g2461
sg67
(lp2468
S'session_id_init'
p2469
asbag60
(g81
g62
NtRp2470
(dp2471
g65
(dp2472
g92
g93
ssg74
g2461
sg67
(lp2473
S':'
asbag60
(g81
g62
NtRp2474
(dp2475
g65
(dp2476
sg74
g2461
sg67
(lp2477
g60
(g61
g62
NtRp2478
(dp2479
g65
(dp2480
g73
I4
ssg74
g2474
sg67
(lp2481
g60
(g69
g62
NtRp2482
(dp2483
g65
(dp2484
g73
I3
ssg74
Nsg67
(lp2485
g60
(g76
g62
NtRp2486
(dp2487
g65
(dp2488
sg74
g2482
sg67
(lp2489
g60
(g81
g62
NtRp2490
(dp2491
g65
(dp2492
g85
g86
ssg74
g2486
sg67
(lp2493
S'comment'
p2494
asbag60
(g81
g62
NtRp2495
(dp2496
g65
(dp2497
g92
g93
ssg74
g2486
sg67
(lp2498
S':'
asbag60
(g81
g62
NtRp2499
(dp2500
g65
(dp2501
sg74
g2486
sg67
(lp2502
g60
(g61
g62
NtRp2503
(dp2504
g65
(dp2505
g73
I3
ssg74
g2499
sg67
(lp2506
S''
asbasbasbag60
(g76
g62
NtRp2507
(dp2508
g65
(dp2509
sg74
g2482
sg67
(lp2510
g60
(g81
g62
NtRp2511
(dp2512
g65
(dp2513
g85
g86
ssg74
g2507
sg67
(lp2514
S'domain'
p2515
asbag60
(g81
g62
NtRp2516
(dp2517
g65
(dp2518
g92
g93
ssg74
g2507
sg67
(lp2519
S':'
asbag60
(g81
g62
NtRp2520
(dp2521
g65
(dp2522
sg74
g2507
sg67
(lp2523
g60
(g61
g62
NtRp2524
(dp2525
g65
(dp2526
g73
I3
ssg74
g2520
sg67
(lp2527
S''
asbasbasbag60
(g76
g62
NtRp2528
(dp2529
g65
(dp2530
sg74
g2482
sg67
(lp2531
g60
(g81
g62
NtRp2532
(dp2533
g65
(dp2534
g85
g86
ssg74
g2528
sg67
(lp2535
S'expires'
p2536
asbag60
(g81
g62
NtRp2537
(dp2538
g65
(dp2539
g92
g93
ssg74
g2528
sg67
(lp2540
S':'
asbag60
(g81
g62
NtRp2541
(dp2542
g65
(dp2543
sg74
g2528
sg67
(lp2544
g60
(g61
g62
NtRp2545
(dp2546
g65
(dp2547
g73
I3
ssg74
g2541
sg67
(lp2548
S''
asbasbasbag60
(g76
g62
NtRp2549
(dp2550
g65
(dp2551
sg74
g2482
sg67
(lp2552
g60
(g81
g62
NtRp2553
(dp2554
g65
(dp2555
g85
g86
ssg74
g2549
sg67
(lp2556
S'max-age'
p2557
asbag60
(g81
g62
NtRp2558
(dp2559
g65
(dp2560
g92
g93
ssg74
g2549
sg67
(lp2561
S':'
asbag60
(g81
g62
NtRp2562
(dp2563
g65
(dp2564
sg74
g2549
sg67
(lp2565
g60
(g61
g62
NtRp2566
(dp2567
g65
(dp2568
g73
I3
ssg74
g2562
sg67
(lp2569
S''
asbasbasbag60
(g76
g62
NtRp2570
(dp2571
g65
(dp2572
sg74
g2482
sg67
(lp2573
g60
(g81
g62
NtRp2574
(dp2575
g65
(dp2576
g85
g86
ssg74
g2570
sg67
(lp2577
S'path'
p2578
asbag60
(g81
g62
NtRp2579
(dp2580
g65
(dp2581
g92
g93
ssg74
g2570
sg67
(lp2582
S':'
asbag60
(g81
g62
NtRp2583
(dp2584
g65
(dp2585
sg74
g2570
sg67
(lp2586
g60
(g61
g62
NtRp2587
(dp2588
g65
(dp2589
g73
I3
ssg74
g2583
sg67
(lp2590
S'/'
asbasbasbag60
(g76
g62
NtRp2591
(dp2592
g65
(dp2593
sg74
g2482
sg67
(lp2594
g60
(g81
g62
NtRp2595
(dp2596
g65
(dp2597
g85
g86
ssg74
g2591
sg67
(lp2598
S'secure'
p2599
asbag60
(g81
g62
NtRp2600
(dp2601
g65
(dp2602
g92
g93
ssg74
g2591
sg67
(lp2603
S':'
asbag60
(g81
g62
NtRp2604
(dp2605
g65
(dp2606
sg74
g2591
sg67
(lp2607
g60
(g61
g62
NtRp2608
(dp2609
g65
(dp2610
g73
I3
ssg74
g2604
sg67
(lp2611
S''
asbasbasbag60
(g76
g62
NtRp2612
(dp2613
g65
(dp2614
sg74
g2482
sg67
(lp2615
g60
(g81
g62
NtRp2616
(dp2617
g65
(dp2618
g85
g86
ssg74
g2612
sg67
(lp2619
S'version'
p2620
asbag60
(g81
g62
NtRp2621
(dp2622
g65
(dp2623
g92
g93
ssg74
g2612
sg67
(lp2624
S':'
asbag60
(g81
g62
NtRp2625
(dp2626
g65
(dp2627
sg74
g2612
sg67
(lp2628
g60
(g61
g62
NtRp2629
(dp2630
g65
(dp2631
g73
I3
ssg74
g2625
sg67
(lp2632
S''
asbasbasbasbasbasbasbasbasbasbasbag60
(g76
g62
NtRp2633
(dp2634
g65
(dp2635
sg74
g2412
sg67
(lp2636
g60
(g81
g62
NtRp2637
(dp2638
g65
(dp2639
g85
g86
ssg74
g2633
sg67
(lp2640
S'delimiters'
p2641
asbag60
(g81
g62
NtRp2642
(dp2643
g65
(dp2644
g92
g93
ssg74
g2633
sg67
(lp2645
S':'
asbag60
(g81
g62
NtRp2646
(dp2647
g65
(dp2648
sg74
g2633
sg67
(lp2649
g60
(g61
g62
NtRp2650
(dp2651
g65
(dp2652
g73
I5
ssg74
g2646
sg67
(lp2653
g60
(g69
g62
NtRp2654
(dp2655
g65
(dp2656
g73
I4
ssg74
Nsg67
(lp2657
g60
(g76
g62
NtRp2658
(dp2659
g65
(dp2660
sg74
g2654
sg67
(lp2661
g60
(g81
g62
NtRp2662
(dp2663
g65
(dp2664
sg74
g2658
sg67
(lp2665
g60
(g61
g62
NtRp2666
(dp2667
g65
(dp2668
g73
I4
ssg74
g2662
sg67
(lp2669
S'{{'
p2670
asbasbasbag60
(g76
g62
NtRp2671
(dp2672
g65
(dp2673
sg74
g2654
sg67
(lp2674
g60
(g81
g62
NtRp2675
(dp2676
g65
(dp2677
sg74
g2671
sg67
(lp2678
g60
(g61
g62
NtRp2679
(dp2680
g65
(dp2681
g73
I4
ssg74
g2675
sg67
(lp2682
S'}}'
p2683
asbasbasbasbasbasbasbag60
(g76
g62
NtRp2684
(dp2685
g65
(dp2686
sg74
g2412
sg67
(lp2687
g60
(g81
g62
NtRp2688
(dp2689
g65
(dp2690
g85
g86
ssg74
g2684
sg67
(lp2691
S'files'
p2692
asbag60
(g81
g62
NtRp2693
(dp2694
g65
(dp2695
g92
g93
ssg74
g2684
sg67
(lp2696
S':'
asbag60
(g81
g62
NtRp2697
(dp2698
g65
(dp2699
sg74
g2684
sg67
(lp2700
g60
(g61
g62
NtRp2701
(dp2702
g65
(dp2703
g73
I5
ssg74
g2697
sg67
(lp2704
g60
(g69
g62
NtRp2705
(dp2706
g65
(dp2707
g73
I4
ssg74
Nsg67
(lp2708
sbasbasbasbag60
(g76
g62
NtRp2709
(dp2710
g65
(dp2711
sg74
g2412
sg67
(lp2712
g60
(g81
g62
NtRp2713
(dp2714
g65
(dp2715
g85
g86
ssg74
g2709
sg67
(lp2716
S'flash'
p2717
asbag60
(g81
g62
NtRp2718
(dp2719
g65
(dp2720
g92
g93
ssg74
g2709
sg67
(lp2721
S':'
asbag60
(g81
g62
NtRp2722
(dp2723
g65
(dp2724
sg74
g2709
sg67
(lp2725
g60
(g61
g62
NtRp2726
(dp2727
g65
(dp2728
g73
I5
ssg74
g2722
sg67
(lp2729
S''
asbasbasbag60
(g76
g62
NtRp2730
(dp2731
g65
(dp2732
sg74
g2412
sg67
(lp2733
g60
(g81
g62
NtRp2734
(dp2735
g65
(dp2736
g85
g86
ssg74
g2730
sg67
(lp2737
S'generic_patterns'
p2738
asbag60
(g81
g62
NtRp2739
(dp2740
g65
(dp2741
g92
g93
ssg74
g2730
sg67
(lp2742
S':'
asbag60
(g81
g62
NtRp2743
(dp2744
g65
(dp2745
sg74
g2730
sg67
(lp2746
g60
(g61
g62
NtRp2747
(dp2748
g65
(dp2749
g73
I5
ssg74
g2743
sg67
(lp2750
g60
(g69
g62
NtRp2751
(dp2752
g65
(dp2753
g73
I4
ssg74
Nsg67
(lp2754
g60
(g76
g62
NtRp2755
(dp2756
g65
(dp2757
sg74
g2751
sg67
(lp2758
g60
(g81
g62
NtRp2759
(dp2760
g65
(dp2761
sg74
g2755
sg67
(lp2762
g60
(g61
g62
NtRp2763
(dp2764
g65
(dp2765
g73
I4
ssg74
g2759
sg67
(lp2766
S'*'
asbasbasbasbasbasbasbag60
(g76
g62
NtRp2767
(dp2768
g65
(dp2769
sg74
g2412
sg67
(lp2770
g60
(g81
g62
NtRp2771
(dp2772
g65
(dp2773
g85
g86
ssg74
g2767
sg67
(lp2774
S'headers'
p2775
asbag60
(g81
g62
NtRp2776
(dp2777
g65
(dp2778
g92
g93
ssg74
g2767
sg67
(lp2779
S':'
asbag60
(g81
g62
NtRp2780
(dp2781
g65
(dp2782
sg74
g2767
sg67
(lp2783
g60
(g61
g62
NtRp2784
(dp2785
g65
(dp2786
g73
I5
ssg74
g2780
sg67
(lp2787
g60
(g69
g62
NtRp2788
(dp2789
g65
(dp2790
g73
I4
ssg74
Nsg67
(lp2791
g60
(g76
g62
NtRp2792
(dp2793
g65
(dp2794
sg74
g2788
sg67
(lp2795
g60
(g81
g62
NtRp2796
(dp2797
g65
(dp2798
g85
g86
ssg74
g2792
sg67
(lp2799
S'Cache-Control'
p2800
asbag60
(g81
g62
NtRp2801
(dp2802
g65
(dp2803
g92
g93
ssg74
g2792
sg67
(lp2804
S':'
asbag60
(g81
g62
NtRp2805
(dp2806
g65
(dp2807
sg74
g2792
sg67
(lp2808
g60
(g61
g62
NtRp2809
(dp2810
g65
(dp2811
g73
I4
ssg74
g2805
sg67
(lp2812
S'no-store, no-cache, must-revalidate, post-check=0, pre-check=0'
p2813
asbasbasbag60
(g76
g62
NtRp2814
(dp2815
g65
(dp2816
sg74
g2788
sg67
(lp2817
g60
(g81
g62
NtRp2818
(dp2819
g65
(dp2820
g85
g86
ssg74
g2814
sg67
(lp2821
S'Content-Type'
p2822
asbag60
(g81
g62
NtRp2823
(dp2824
g65
(dp2825
g92
g93
ssg74
g2814
sg67
(lp2826
S':'
asbag60
(g81
g62
NtRp2827
(dp2828
g65
(dp2829
sg74
g2814
sg67
(lp2830
g60
(g61
g62
NtRp2831
(dp2832
g65
(dp2833
g73
I4
ssg74
g2827
sg67
(lp2834
S'text/html; charset=utf-8'
p2835
asbasbasbag60
(g76
g62
NtRp2836
(dp2837
g65
(dp2838
sg74
g2788
sg67
(lp2839
g60
(g81
g62
NtRp2840
(dp2841
g65
(dp2842
g85
g86
ssg74
g2836
sg67
(lp2843
S'Expires'
p2844
asbag60
(g81
g62
NtRp2845
(dp2846
g65
(dp2847
g92
g93
ssg74
g2836
sg67
(lp2848
S':'
asbag60
(g81
g62
NtRp2849
(dp2850
g65
(dp2851
sg74
g2836
sg67
(lp2852
g60
(g61
g62
NtRp2853
(dp2854
g65
(dp2855
g73
I4
ssg74
g2849
sg67
(lp2856
S'Mon, 02 Apr 2012 14:24:27 GMT'
p2857
asbasbasbag60
(g76
g62
NtRp2858
(dp2859
g65
(dp2860
sg74
g2788
sg67
(lp2861
g60
(g81
g62
NtRp2862
(dp2863
g65
(dp2864
g85
g86
ssg74
g2858
sg67
(lp2865
S'Pragma'
p2866
asbag60
(g81
g62
NtRp2867
(dp2868
g65
(dp2869
g92
g93
ssg74
g2858
sg67
(lp2870
S':'
asbag60
(g81
g62
NtRp2871
(dp2872
g65
(dp2873
sg74
g2858
sg67
(lp2874
g60
(g61
g62
NtRp2875
(dp2876
g65
(dp2877
g73
I4
ssg74
g2871
sg67
(lp2878
S'no-cache'
p2879
asbasbasbag60
(g76
g62
NtRp2880
(dp2881
g65
(dp2882
sg74
g2788
sg67
(lp2883
g60
(g81
g62
NtRp2884
(dp2885
g65
(dp2886
g85
g86
ssg74
g2880
sg67
(lp2887
S'X-Powered-By'
p2888
asbag60
(g81
g62
NtRp2889
(dp2890
g65
(dp2891
g92
g93
ssg74
g2880
sg67
(lp2892
S':'
asbag60
(g81
g62
NtRp2893
(dp2894
g65
(dp2895
sg74
g2880
sg67
(lp2896
g60
(g61
g62
NtRp2897
(dp2898
g65
(dp2899
g73
I4
ssg74
g2893
sg67
(lp2900
S'web2py'
p2901
asbasbasbasbasbasbasbag60
(g76
g62
NtRp2902
(dp2903
g65
(dp2904
sg74
g2412
sg67
(lp2905
g60
(g81
g62
NtRp2906
(dp2907
g65
(dp2908
g85
g86
ssg74
g2902
sg67
(lp2909
S'menu'
p2910
asbag60
(g81
g62
NtRp2911
(dp2912
g65
(dp2913
g92
g93
ssg74
g2902
sg67
(lp2914
S':'
asbag60
(g81
g62
NtRp2915
(dp2916
g65
(dp2917
sg74
g2902
sg67
(lp2918
g60
(g61
g62
NtRp2919
(dp2920
g65
(dp2921
g73
I5
ssg74
g2915
sg67
(lp2922
g60
(g69
g62
NtRp2923
(dp2924
g65
(dp2925
g73
I4
ssg74
Nsg67
(lp2926
g60
(g76
g62
NtRp2927
(dp2928
g65
(dp2929
sg74
g2923
sg67
(lp2930
g60
(g81
g62
NtRp2931
(dp2932
g65
(dp2933
sg74
g2927
sg67
(lp2934
g60
(g61
g62
NtRp2935
(dp2936
g65
(dp2937
g73
I4
ssg74
g2931
sg67
(lp2938
g60
(g69
g62
NtRp2939
(dp2940
g65
(dp2941
g73
I3
ssg74
Nsg67
(lp2942
g60
(g76
g62
NtRp2943
(dp2944
g65
(dp2945
sg74
g2939
sg67
(lp2946
g60
(g81
g62
NtRp2947
(dp2948
g65
(dp2949
sg74
g2943
sg67
(lp2950
g60
(g61
g62
NtRp2951
(dp2952
g65
(dp2953
g73
I3
ssg74
g2947
sg67
(lp2954
cgluon.languages
lazyT_unpickle
p2955
(S's\x04\x00\x00\x00Home'
tRp2956
asbasbasbag60
(g76
g62
NtRp2957
(dp2958
g65
(dp2959
sg74
g2939
sg67
(lp2960
g60
(g81
g62
NtRp2961
(dp2962
g65
(dp2963
sg74
g2957
sg67
(lp2964
g60
(g61
g62
NtRp2965
(dp2966
g65
(dp2967
g73
I3
ssg74
g2961
sg67
(lp2968
g103
asbasbasbag60
(g76
g62
NtRp2969
(dp2970
g65
(dp2971
sg74
g2939
sg67
(lp2972
g60
(g81
g62
NtRp2973
(dp2974
g65
(dp2975
sg74
g2969
sg67
(lp2976
g60
(g61
g62
NtRp2977
(dp2978
g65
(dp2979
g73
I3
ssg74
g2973
sg67
(lp2980
S'/init/default/index'
p2981
asbasbasbag60
(g76
g62
NtRp2982
(dp2983
g65
(dp2984
sg74
g2939
sg67
(lp2985
g60
(g81
g62
NtRp2986
(dp2987
g65
(dp2988
sg74
g2982
sg67
(lp2989
g60
(g61
g62
NtRp2990
(dp2991
g65
(dp2992
g73
I3
ssg74
g2986
sg67
(lp2993
g60
(g69
g62
NtRp2994
(dp2995
g65
(dp2996
g73
I2
ssg74
Nsg67
(lp2997
sbasbasbasbasbasbasbasbag60
(g76
g62
NtRp2998
(dp2999
g65
(dp3000
sg74
g2923
sg67
(lp3001
g60
(g81
g62
NtRp3002
(dp3003
g65
(dp3004
sg74
g2998
sg67
(lp3005
g60
(g61
g62
NtRp3006
(dp3007
g65
(dp3008
g73
I4
ssg74
g3002
sg67
(lp3009
g60
(g69
g62
NtRp3010
(dp3011
g65
(dp3012
g73
I3
ssg74
Nsg67
(lp3013
g60
(g76
g62
NtRp3014
(dp3015
g65
(dp3016
sg74
g3010
sg67
(lp3017
g60
(g81
g62
NtRp3018
(dp3019
g65
(dp3020
sg74
g3014
sg67
(lp3021
g60
(g61
g62
NtRp3022
(dp3023
g65
(dp3024
g73
I3
ssg74
g3018
sg67
(lp3025
g60
(cgluon.html
SPAN
p3026
g62
NtRp3027
(dp3028
g65
(dp3029
g85
S'color:yellow'
p3030
ssg74
Nsg67
(lp3031
g2901
asbasbasbasbag60
(g76
g62
NtRp3032
(dp3033
g65
(dp3034
sg74
g3010
sg67
(lp3035
g60
(g81
g62
NtRp3036
(dp3037
g65
(dp3038
sg74
g3032
sg67
(lp3039
g60
(g61
g62
NtRp3040
(dp3041
g65
(dp3042
g73
I3
ssg74
g3036
sg67
(lp3043
g103
asbasbasbag60
(g76
g62
NtRp3044
(dp3045
g65
(dp3046
sg74
g3010
sg67
(lp3047
g60
(g81
g62
NtRp3048
(dp3049
g65
(dp3050
sg74
g3044
sg67
(lp3051
g60
(g61
g62
NtRp3052
(dp3053
g65
(dp3054
g73
I3
ssg74
g3048
sg67
(lp3055
S'None'
p3056
asbasbasbag60
(g76
g62
NtRp3057
(dp3058
g65
(dp3059
sg74
g3010
sg67
(lp3060
g60
(g81
g62
NtRp3061
(dp3062
g65
(dp3063
sg74
g3057
sg67
(lp3064
g60
(g61
g62
NtRp3065
(dp3066
g65
(dp3067
g73
I3
ssg74
g3061
sg67
(lp3068
g60
(g69
g62
NtRp3069
(dp3070
g65
(dp3071
g73
I2
ssg74
Nsg67
(lp3072
g60
(g76
g62
NtRp3073
(dp3074
g65
(dp3075
sg74
g3069
sg67
(lp3076
g60
(g81
g62
NtRp3077
(dp3078
g65
(dp3079
sg74
g3073
sg67
(lp3080
g60
(g61
g62
NtRp3081
(dp3082
g65
(dp3083
g73
I2
ssg74
g3077
sg67
(lp3084
g60
(g69
g62
NtRp3085
(dp3086
g65
(dp3087
g73
I1
ssg74
Nsg67
(lp3088
g60
(g76
g62
NtRp3089
(dp3090
g65
(dp3091
sg74
g3085
sg67
(lp3092
g60
(g81
g62
NtRp3093
(dp3094
g65
(dp3095
sg74
g3089
sg67
(lp3096
g60
(g61
g62
NtRp3097
(dp3098
g65
(dp3099
g73
I1
ssg74
g3093
sg67
(lp3100
g2955
(S's\x08\x00\x00\x00My Sites'
tRp3101
asbasbasbag60
(g76
g62
NtRp3102
(dp3103
g65
(dp3104
sg74
g3085
sg67
(lp3105
g60
(g81
g62
NtRp3106
(dp3107
g65
(dp3108
sg74
g3102
sg67
(lp3109
g60
(g61
g62
NtRp3110
(dp3111
g65
(dp3112
g73
I1
ssg74
g3106
sg67
(lp3113
I00
asbasbasbag60
(g76
g62
NtRp3114
(dp3115
g65
(dp3116
sg74
g3085
sg67
(lp3117
g60
(g81
g62
NtRp3118
(dp3119
g65
(dp3120
sg74
g3114
sg67
(lp3121
g60
(g61
g62
NtRp3122
(dp3123
g65
(dp3124
g73
I1
ssg74
g3118
sg67
(lp3125
S'/admin/default/site'
p3126
asbasbasbasbasbasbasbag60
(g76
g62
NtRp3127
(dp3128
g65
(dp3129
sg74
g3069
sg67
(lp3130
g60
(g81
g62
NtRp3131
(dp3132
g65
(dp3133
sg74
g3127
sg67
(lp3134
g60
(g61
g62
NtRp3135
(dp3136
g65
(dp3137
g73
I2
ssg74
g3131
sg67
(lp3138
g60
(g69
g62
NtRp3139
(dp3140
g65
(dp3141
g73
I1
ssg74
Nsg67
(lp3142
g60
(g76
g62
NtRp3143
(dp3144
g65
(dp3145
sg74
g3139
sg67
(lp3146
g60
(g81
g62
NtRp3147
(dp3148
g65
(dp3149
sg74
g3143
sg67
(lp3150
g60
(g61
g62
NtRp3151
(dp3152
g65
(dp3153
g73
I1
ssg74
g3147
sg67
(lp3154
g2955
(S's\x08\x00\x00\x00This App'
tRp3155
asbasbasbag60
(g76
g62
NtRp3156
(dp3157
g65
(dp3158
sg74
g3139
sg67
(lp3159
g60
(g81
g62
NtRp3160
(dp3161
g65
(dp3162
sg74
g3156
sg67
(lp3163
g60
(g61
g62
NtRp3164
(dp3165
g65
(dp3166
g73
I1
ssg74
g3160
sg67
(lp3167
I00
asbasbasbag60
(g76
g62
NtRp3168
(dp3169
g65
(dp3170
sg74
g3139
sg67
(lp3171
g60
(g81
g62
NtRp3172
(dp3173
g65
(dp3174
sg74
g3168
sg67
(lp3175
g60
(g61
g62
NtRp3176
(dp3177
g65
(dp3178
g73
I1
ssg74
g3172
sg67
(lp3179
S'/admin/default/design/init'
p3180
asbasbasbag60
(g76
g62
NtRp3181
(dp3182
g65
(dp3183
sg74
g3139
sg67
(lp3184
g60
(g81
g62
NtRp3185
(dp3186
g65
(dp3187
sg74
g3181
sg67
(lp3188
g60
(g61
g62
NtRp3189
(dp3190
g65
(dp3191
g73
I1
ssg74
g3185
sg67
(lp3192
(lp3193
(g2955
(S's\n\x00\x00\x00Controller'
tRp3194
I00
S'/admin/default/edit/init/controllers/default.py'
tp3195
a(g2955
(S's\x04\x00\x00\x00View'
tRp3196
I00
S'/admin/default/edit/init/views/default/index.html'
tp3197
a(g2955
(S's\x06\x00\x00\x00Layout'
tRp3198
I00
S'/admin/default/edit/init/views/layout.html'
tp3199
a(g2955
(S's\n\x00\x00\x00Stylesheet'
tRp3200
I00
S'/admin/default/edit/init/static/css/web2py.css'
tp3201
a(g2955
(S's\x08\x00\x00\x00DB Model'
tRp3202
I00
S'/admin/default/edit/init/models/db.py'
tp3203
a(g2955
(S's\n\x00\x00\x00Menu Model'
tRp3204
I00
S'/admin/default/edit/init/models/menu.py'
tp3205
a(g2955
(S's\x08\x00\x00\x00Database'
tRp3206
I00
S'/init/appadmin/index'
tp3207
a(g2955
(S's\x06\x00\x00\x00Errors'
tRp3208
I00
S'/admin/default/errors/init'
tp3209
a(g2955
(S's\x05\x00\x00\x00About'
tRp3210
I00
S'/admin/default/about/init'
tp3211
aasbasbasbasbasbasbasbag60
(g76
g62
NtRp3212
(dp3213
g65
(dp3214
sg74
g3069
sg67
(lp3215
g60
(g81
g62
NtRp3216
(dp3217
g65
(dp3218
sg74
g3212
sg67
(lp3219
g60
(g61
g62
NtRp3220
(dp3221
g65
(dp3222
g73
I2
ssg74
g3216
sg67
(lp3223
g60
(g69
g62
NtRp3224
(dp3225
g65
(dp3226
g73
I1
ssg74
Nsg67
(lp3227
g60
(g76
g62
NtRp3228
(dp3229
g65
(dp3230
sg74
g3224
sg67
(lp3231
g60
(g81
g62
NtRp3232
(dp3233
g65
(dp3234
sg74
g3228
sg67
(lp3235
g60
(g61
g62
NtRp3236
(dp3237
g65
(dp3238
g73
I1
ssg74
g3232
sg67
(lp3239
S'web2py.com'
p3240
asbasbasbag60
(g76
g62
NtRp3241
(dp3242
g65
(dp3243
sg74
g3224
sg67
(lp3244
g60
(g81
g62
NtRp3245
(dp3246
g65
(dp3247
sg74
g3241
sg67
(lp3248
g60
(g61
g62
NtRp3249
(dp3250
g65
(dp3251
g73
I1
ssg74
g3245
sg67
(lp3252
I00
asbasbasbag60
(g76
g62
NtRp3253
(dp3254
g65
(dp3255
sg74
g3224
sg67
(lp3256
g60
(g81
g62
NtRp3257
(dp3258
g65
(dp3259
sg74
g3253
sg67
(lp3260
g60
(g61
g62
NtRp3261
(dp3262
g65
(dp3263
g73
I1
ssg74
g3257
sg67
(lp3264
S'http://www.web2py.com'
p3265
asbasbasbag60
(g76
g62
NtRp3266
(dp3267
g65
(dp3268
sg74
g3224
sg67
(lp3269
g60
(g81
g62
NtRp3270
(dp3271
g65
(dp3272
sg74
g3266
sg67
(lp3273
g60
(g61
g62
NtRp3274
(dp3275
g65
(dp3276
g73
I1
ssg74
g3270
sg67
(lp3277
(lp3278
(g2955
(S's\x08\x00\x00\x00Download'
tRp3279
I00
S'http://www.web2py.com/examples/default/download'
p3280
tp3281
a(g2955
(S's\x07\x00\x00\x00Support'
tRp3282
I00
S'http://www.web2py.com/examples/default/support'
p3283
tp3284
a(g2955
(S's\x04\x00\x00\x00Demo'
tRp3285
I00
S'http://web2py.com/demo_admin'
p3286
tp3287
a(g2955
(S's\x0e\x00\x00\x00Quick Examples'
tRp3288
I00
S'http://web2py.com/examples/default/examples'
p3289
tp3290
a(g2955
(S's\x03\x00\x00\x00FAQ'
tRp3291
I00
S'http://web2py.com/AlterEgo'
p3292
tp3293
a(g2955
(S's\x06\x00\x00\x00Videos'
tRp3294
I00
S'http://www.web2py.com/examples/default/videos/'
p3295
tp3296
a(g2955
(S's\x11\x00\x00\x00Free Applications'
tRp3297
I00
S'http://web2py.com/appliances'
p3298
tp3299
a(g2955
(S's\x07\x00\x00\x00Plugins'
tRp3300
I00
S'http://web2py.com/plugins'
p3301
tp3302
a(g2955
(S's\x07\x00\x00\x00Layouts'
tRp3303
I00
S'http://web2py.com/layouts'
p3304
tp3305
a(g2955
(S's\x07\x00\x00\x00Recipes'
tRp3306
I00
S'http://web2pyslices.com/'
p3307
tp3308
a(g2955
(S's\x08\x00\x00\x00Semantic'
tRp3309
I00
S'http://web2py.com/semantic'
p3310
tp3311
aasbasbasbasbasbasbasbag60
(g76
g62
NtRp3312
(dp3313
g65
(dp3314
sg74
g3069
sg67
(lp3315
g60
(g81
g62
NtRp3316
(dp3317
g65
(dp3318
sg74
g3312
sg67
(lp3319
g60
(g61
g62
NtRp3320
(dp3321
g65
(dp3322
g73
I2
ssg74
g3316
sg67
(lp3323
g60
(g69
g62
NtRp3324
(dp3325
g65
(dp3326
g73
I1
ssg74
Nsg67
(lp3327
g60
(g76
g62
NtRp3328
(dp3329
g65
(dp3330
sg74
g3324
sg67
(lp3331
g60
(g81
g62
NtRp3332
(dp3333
g65
(dp3334
sg74
g3328
sg67
(lp3335
g60
(g61
g62
NtRp3336
(dp3337
g65
(dp3338
g73
I1
ssg74
g3332
sg67
(lp3339
g2955
(S's\r\x00\x00\x00Documentation'
tRp3340
asbasbasbag60
(g76
g62
NtRp3341
(dp3342
g65
(dp3343
sg74
g3324
sg67
(lp3344
g60
(g81
g62
NtRp3345
(dp3346
g65
(dp3347
sg74
g3341
sg67
(lp3348
g60
(g61
g62
NtRp3349
(dp3350
g65
(dp3351
g73
I1
ssg74
g3345
sg67
(lp3352
I00
asbasbasbag60
(g76
g62
NtRp3353
(dp3354
g65
(dp3355
sg74
g3324
sg67
(lp3356
g60
(g81
g62
NtRp3357
(dp3358
g65
(dp3359
sg74
g3353
sg67
(lp3360
g60
(g61
g62
NtRp3361
(dp3362
g65
(dp3363
g73
I1
ssg74
g3357
sg67
(lp3364
S'http://www.web2py.com/book'
p3365
asbasbasbag60
(g76
g62
NtRp3366
(dp3367
g65
(dp3368
sg74
g3324
sg67
(lp3369
g60
(g81
g62
NtRp3370
(dp3371
g65
(dp3372
sg74
g3366
sg67
(lp3373
g60
(g61
g62
NtRp3374
(dp3375
g65
(dp3376
g73
I1
ssg74
g3370
sg67
(lp3377
(lp3378
(g2955
(S's\x07\x00\x00\x00Preface'
tRp3379
I00
S'http://www.web2py.com/book/default/chapter/00'
p3380
tp3381
a(g2955
(S's\x0c\x00\x00\x00Introduction'
tRp3382
I00
S'http://www.web2py.com/book/default/chapter/01'
p3383
tp3384
a(g2955
(S's\x06\x00\x00\x00Python'
tRp3385
I00
S'http://www.web2py.com/book/default/chapter/02'
p3386
tp3387
a(g2955
(S's\x08\x00\x00\x00Overview'
tRp3388
I00
S'http://www.web2py.com/book/default/chapter/03'
p3389
tp3390
a(g2955
(S's\x08\x00\x00\x00The Core'
tRp3391
I00
S'http://www.web2py.com/book/default/chapter/04'
p3392
tp3393
a(g2955
(S's\t\x00\x00\x00The Views'
tRp3394
I00
S'http://www.web2py.com/book/default/chapter/05'
p3395
tp3396
a(g2955
(S's\x08\x00\x00\x00Database'
tRp3397
I00
S'http://www.web2py.com/book/default/chapter/06'
p3398
tp3399
a(g2955
(S's\x14\x00\x00\x00Forms and Validators'
tRp3400
I00
S'http://www.web2py.com/book/default/chapter/07'
p3401
tp3402
a(g2955
(S's\r\x00\x00\x00Email and SMS'
tRp3403
I00
S'http://www.web2py.com/book/default/chapter/08'
p3404
tp3405
a(g2955
(S's\x0e\x00\x00\x00Access Control'
tRp3406
I00
S'http://www.web2py.com/book/default/chapter/09'
p3407
tp3408
a(g2955
(S's\x08\x00\x00\x00Services'
tRp3409
I00
S'http://www.web2py.com/book/default/chapter/10'
p3410
tp3411
a(g2955
(S's\x0c\x00\x00\x00Ajax Recipes'
tRp3412
I00
S'http://www.web2py.com/book/default/chapter/11'
p3413
tp3414
a(g2955
(S's\x16\x00\x00\x00Components and Plugins'
tRp3415
I00
S'http://www.web2py.com/book/default/chapter/12'
p3416
tp3417
a(g2955
(S's\x12\x00\x00\x00Deployment Recipes'
tRp3418
I00
S'http://www.web2py.com/book/default/chapter/13'
p3419
tp3420
a(g2955
(S's\r\x00\x00\x00Other Recipes'
tRp3421
I00
S'http://www.web2py.com/book/default/chapter/14'
p3422
tp3423
a(g2955
(S's\r\x00\x00\x00Buy this book'
tRp3424
I00
S'http://stores.lulu.com/web2py'
p3425
tp3426
aasbasbasbasbasbasbasbag60
(g76
g62
NtRp3427
(dp3428
g65
(dp3429
sg74
g3069
sg67
(lp3430
g60
(g81
g62
NtRp3431
(dp3432
g65
(dp3433
sg74
g3427
sg67
(lp3434
g60
(g61
g62
NtRp3435
(dp3436
g65
(dp3437
g73
I2
ssg74
g3431
sg67
(lp3438
g60
(g69
g62
NtRp3439
(dp3440
g65
(dp3441
g73
I1
ssg74
Nsg67
(lp3442
g60
(g76
g62
NtRp3443
(dp3444
g65
(dp3445
sg74
g3439
sg67
(lp3446
g60
(g81
g62
NtRp3447
(dp3448
g65
(dp3449
sg74
g3443
sg67
(lp3450
g60
(g61
g62
NtRp3451
(dp3452
g65
(dp3453
g73
I1
ssg74
g3447
sg67
(lp3454
g2955
(S's\t\x00\x00\x00Community'
tRp3455
asbasbasbag60
(g76
g62
NtRp3456
(dp3457
g65
(dp3458
sg74
g3439
sg67
(lp3459
g60
(g81
g62
NtRp3460
(dp3461
g65
(dp3462
sg74
g3456
sg67
(lp3463
g60
(g61
g62
NtRp3464
(dp3465
g65
(dp3466
g73
I1
ssg74
g3460
sg67
(lp3467
I00
asbasbasbag60
(g76
g62
NtRp3468
(dp3469
g65
(dp3470
sg74
g3439
sg67
(lp3471
g60
(g81
g62
NtRp3472
(dp3473
g65
(dp3474
sg74
g3468
sg67
(lp3475
g60
(g61
g62
NtRp3476
(dp3477
g65
(dp3478
g73
I1
ssg74
g3472
sg67
(lp3479
Nasbasbasbag60
(g76
g62
NtRp3480
(dp3481
g65
(dp3482
sg74
g3439
sg67
(lp3483
g60
(g81
g62
NtRp3484
(dp3485
g65
(dp3486
sg74
g3480
sg67
(lp3487
g60
(g61
g62
NtRp3488
(dp3489
g65
(dp3490
g73
I1
ssg74
g3484
sg67
(lp3491
(lp3492
(g2955
(S's\x06\x00\x00\x00Groups'
tRp3493
I00
S'http://www.web2py.com/examples/default/usergroups'
p3494
tp3495
a(g2955
(S's\x07\x00\x00\x00Twitter'
tRp3496
I00
S'http://twitter.com/web2py'
p3497
tp3498
a(g2955
(S's\t\x00\x00\x00Live Chat'
tRp3499
I00
S'http://webchat.freenode.net/?channels=web2py'
p3500
tp3501
aasbasbasbasbasbasbasbag60
(g76
g62
NtRp3502
(dp3503
g65
(dp3504
sg74
g3069
sg67
(lp3505
g60
(g81
g62
NtRp3506
(dp3507
g65
(dp3508
sg74
g3502
sg67
(lp3509
g60
(g61
g62
NtRp3510
(dp3511
g65
(dp3512
g73
I2
ssg74
g3506
sg67
(lp3513
g60
(g69
g62
NtRp3514
(dp3515
g65
(dp3516
g73
I1
ssg74
Nsg67
(lp3517
g60
(g76
g62
NtRp3518
(dp3519
g65
(dp3520
sg74
g3514
sg67
(lp3521
g60
(g81
g62
NtRp3522
(dp3523
g65
(dp3524
sg74
g3518
sg67
(lp3525
g60
(g61
g62
NtRp3526
(dp3527
g65
(dp3528
g73
I1
ssg74
g3522
sg67
(lp3529
g2955
(S's\x07\x00\x00\x00Plugins'
tRp3530
asbasbasbag60
(g76
g62
NtRp3531
(dp3532
g65
(dp3533
sg74
g3514
sg67
(lp3534
g60
(g81
g62
NtRp3535
(dp3536
g65
(dp3537
sg74
g3531
sg67
(lp3538
g60
(g61
g62
NtRp3539
(dp3540
g65
(dp3541
g73
I1
ssg74
g3535
sg67
(lp3542
I00
asbasbasbag60
(g76
g62
NtRp3543
(dp3544
g65
(dp3545
sg74
g3514
sg67
(lp3546
g60
(g81
g62
NtRp3547
(dp3548
g65
(dp3549
sg74
g3543
sg67
(lp3550
g60
(g61
g62
NtRp3551
(dp3552
g65
(dp3553
g73
I1
ssg74
g3547
sg67
(lp3554
Nasbasbasbag60
(g76
g62
NtRp3555
(dp3556
g65
(dp3557
sg74
g3514
sg67
(lp3558
g60
(g81
g62
NtRp3559
(dp3560
g65
(dp3561
sg74
g3555
sg67
(lp3562
g60
(g61
g62
NtRp3563
(dp3564
g65
(dp3565
g73
I1
ssg74
g3559
sg67
(lp3566
(lp3567
(S'plugin_wiki'
p3568
I00
S'http://web2py.com/examples/default/download'
p3569
tp3570
a(g2955
(S's\r\x00\x00\x00Other Plugins'
tRp3571
I00
g3301
tp3572
a(g2955
(S's\x0e\x00\x00\x00Layout Plugins'
tRp3573
I00
g3304
tp3574
aasbasbasbasbasbasbasbasbasbasbasbasbasbasbasbasbasbasbasbag60
(g76
g62
NtRp3575
(dp3576
g65
(dp3577
sg74
g2412
sg67
(lp3578
g60
(g81
g62
NtRp3579
(dp3580
g65
(dp3581
g85
g86
ssg74
g3575
sg67
(lp3582
S'meta'
p3583
asbag60
(g81
g62
NtRp3584
(dp3585
g65
(dp3586
g92
g93
ssg74
g3575
sg67
(lp3587
S':'
asbag60
(g81
g62
NtRp3588
(dp3589
g65
(dp3590
sg74
g3575
sg67
(lp3591
g60
(g61
g62
NtRp3592
(dp3593
g65
(dp3594
g73
I5
ssg74
g3588
sg67
(lp3595
g60
(g69
g62
NtRp3596
(dp3597
g65
(dp3598
g73
I4
ssg74
Nsg67
(lp3599
g60
(g76
g62
NtRp3600
(dp3601
g65
(dp3602
sg74
g3596
sg67
(lp3603
g60
(g81
g62
NtRp3604
(dp3605
g65
(dp3606
g85
g86
ssg74
g3600
sg67
(lp3607
S'author'
p3608
asbag60
(g81
g62
NtRp3609
(dp3610
g65
(dp3611
g92
g93
ssg74
g3600
sg67
(lp3612
S':'
asbag60
(g81
g62
NtRp3613
(dp3614
g65
(dp3615
sg74
g3600
sg67
(lp3616
g60
(g61
g62
NtRp3617
(dp3618
g65
(dp3619
g73
I4
ssg74
g3613
sg67
(lp3620
S'Your Name <you@example.com>'
p3621
asbasbasbag60
(g76
g62
NtRp3622
(dp3623
g65
(dp3624
sg74
g3596
sg67
(lp3625
g60
(g81
g62
NtRp3626
(dp3627
g65
(dp3628
g85
g86
ssg74
g3622
sg67
(lp3629
S'copyright'
p3630
asbag60
(g81
g62
NtRp3631
(dp3632
g65
(dp3633
g92
g93
ssg74
g3622
sg67
(lp3634
S':'
asbag60
(g81
g62
NtRp3635
(dp3636
g65
(dp3637
sg74
g3622
sg67
(lp3638
g60
(g61
g62
NtRp3639
(dp3640
g65
(dp3641
g73
I4
ssg74
g3635
sg67
(lp3642
S'Copyright 2011'
p3643
asbasbasbag60
(g76
g62
NtRp3644
(dp3645
g65
(dp3646
sg74
g3596
sg67
(lp3647
g60
(g81
g62
NtRp3648
(dp3649
g65
(dp3650
g85
g86
ssg74
g3644
sg67
(lp3651
S'description'
p3652
asbag60
(g81
g62
NtRp3653
(dp3654
g65
(dp3655
g92
g93
ssg74
g3644
sg67
(lp3656
S':'
asbag60
(g81
g62
NtRp3657
(dp3658
g65
(dp3659
sg74
g3644
sg67
(lp3660
g60
(g61
g62
NtRp3661
(dp3662
g65
(dp3663
g73
I4
ssg74
g3657
sg67
(lp3664
S'a cool new app'
p3665
asbasbasbag60
(g76
g62
NtRp3666
(dp3667
g65
(dp3668
sg74
g3596
sg67
(lp3669
g60
(g81
g62
NtRp3670
(dp3671
g65
(dp3672
g85
g86
ssg74
g3666
sg67
(lp3673
S'generator'
p3674
asbag60
(g81
g62
NtRp3675
(dp3676
g65
(dp3677
g92
g93
ssg74
g3666
sg67
(lp3678
S':'
asbag60
(g81
g62
NtRp3679
(dp3680
g65
(dp3681
sg74
g3666
sg67
(lp3682
g60
(g61
g62
NtRp3683
(dp3684
g65
(dp3685
g73
I4
ssg74
g3679
sg67
(lp3686
S'Web2py Web Framework'
p3687
asbasbasbag60
(g76
g62
NtRp3688
(dp3689
g65
(dp3690
sg74
g3596
sg67
(lp3691
g60
(g81
g62
NtRp3692
(dp3693
g65
(dp3694
g85
g86
ssg74
g3688
sg67
(lp3695
S'keywords'
p3696
asbag60
(g81
g62
NtRp3697
(dp3698
g65
(dp3699
g92
g93
ssg74
g3688
sg67
(lp3700
S':'
asbag60
(g81
g62
NtRp3701
(dp3702
g65
(dp3703
sg74
g3688
sg67
(lp3704
g60
(g61
g62
NtRp3705
(dp3706
g65
(dp3707
g73
I4
ssg74
g3701
sg67
(lp3708
S'web2py, python, framework'
p3709
asbasbasbasbasbasbasbag60
(g76
g62
NtRp3710
(dp3711
g65
(dp3712
sg74
g2412
sg67
(lp3713
g60
(g81
g62
NtRp3714
(dp3715
g65
(dp3716
g85
g86
ssg74
g3710
sg67
(lp3717
S'postprocessing'
p3718
asbag60
(g81
g62
NtRp3719
(dp3720
g65
(dp3721
g92
g93
ssg74
g3710
sg67
(lp3722
S':'
asbag60
(g81
g62
NtRp3723
(dp3724
g65
(dp3725
sg74
g3710
sg67
(lp3726
g60
(g61
g62
NtRp3727
(dp3728
g65
(dp3729
g73
I5
ssg74
g3723
sg67
(lp3730
g60
(g69
g62
NtRp3731
(dp3732
g65
(dp3733
g73
I4
ssg74
Nsg67
(lp3734
sbasbasbasbag60
(g76
g62
NtRp3735
(dp3736
g65
(dp3737
sg74
g2412
sg67
(lp3738
g60
(g81
g62
NtRp3739
(dp3740
g65
(dp3741
g85
g86
ssg74
g3735
sg67
(lp3742
S'session_db'
p3743
asbag60
(g81
g62
NtRp3744
(dp3745
g65
(dp3746
g92
g93
ssg74
g3735
sg67
(lp3747
S':'
asbag60
(g81
g62
NtRp3748
(dp3749
g65
(dp3750
sg74
g3735
sg67
(lp3751
g60
(g61
g62
NtRp3752
(dp3753
g65
(dp3754
g73
I5
ssg74
g3748
sg67
(lp3755
g400
asbasbasbag60
(g76
g62
NtRp3756
(dp3757
g65
(dp3758
sg74
g2412
sg67
(lp3759
g60
(g81
g62
NtRp3760
(dp3761
g65
(dp3762
g85
g86
ssg74
g3756
sg67
(lp3763
S'session_filename'
p3764
asbag60
(g81
g62
NtRp3765
(dp3766
g65
(dp3767
g92
g93
ssg74
g3756
sg67
(lp3768
S':'
asbag60
(g81
g62
NtRp3769
(dp3770
g65
(dp3771
sg74
g3756
sg67
(lp3772
g60
(g61
g62
NtRp3773
(dp3774
g65
(dp3775
g73
I5
ssg74
g3769
sg67
(lp3776
S'C:\\Users\\Bussiere\\Dropbox\\Projets\\jackpoint\\web2py\\applications\\init\\sessions\\127.0.0.1-63d3ecfe-713c-4178-b9ab-9ccf2e663a45'
p3777
asbasbasbag60
(g76
g62
NtRp3778
(dp3779
g65
(dp3780
sg74
g2412
sg67
(lp3781
g60
(g81
g62
NtRp3782
(dp3783
g65
(dp3784
g85
g86
ssg74
g3778
sg67
(lp3785
S'session_id'
p3786
asbag60
(g81
g62
NtRp3787
(dp3788
g65
(dp3789
g92
g93
ssg74
g3778
sg67
(lp3790
S':'
asbag60
(g81
g62
NtRp3791
(dp3792
g65
(dp3793
sg74
g3778
sg67
(lp3794
g60
(g61
g62
NtRp3795
(dp3796
g65
(dp3797
g73
I5
ssg74
g3791
sg67
(lp3798
S'None:646392f8-1a23-4a83-9f68-de7882edfa0f'
p3799
asbasbasbag60
(g76
g62
NtRp3800
(dp3801
g65
(dp3802
sg74
g2412
sg67
(lp3803
g60
(g81
g62
NtRp3804
(dp3805
g65
(dp3806
g85
g86
ssg74
g3800
sg67
(lp3807
S'session_id_name'
p3808
asbag60
(g81
g62
NtRp3809
(dp3810
g65
(dp3811
g92
g93
ssg74
g3800
sg67
(lp3812
S':'
asbag60
(g81
g62
NtRp3813
(dp3814
g65
(dp3815
sg74
g3800
sg67
(lp3816
g60
(g61
g62
NtRp3817
(dp3818
g65
(dp3819
g73
I5
ssg74
g3813
sg67
(lp3820
S'session_id_init'
p3821
asbasbasbag60
(g76
g62
NtRp3822
(dp3823
g65
(dp3824
sg74
g2412
sg67
(lp3825
g60
(g81
g62
NtRp3826
(dp3827
g65
(dp3828
g85
g86
ssg74
g3822
sg67
(lp3829
S'session_new'
p3830
asbag60
(g81
g62
NtRp3831
(dp3832
g65
(dp3833
g92
g93
ssg74
g3822
sg67
(lp3834
S':'
asbag60
(g81
g62
NtRp3835
(dp3836
g65
(dp3837
sg74
g3822
sg67
(lp3838
g60
(g61
g62
NtRp3839
(dp3840
g65
(dp3841
g73
I5
ssg74
g3835
sg67
(lp3842
g400
asbasbasbag60
(g76
g62
NtRp3843
(dp3844
g65
(dp3845
sg74
g2412
sg67
(lp3846
g60
(g81
g62
NtRp3847
(dp3848
g65
(dp3849
g85
g86
ssg74
g3843
sg67
(lp3850
S'status'
p3851
asbag60
(g81
g62
NtRp3852
(dp3853
g65
(dp3854
g92
g93
ssg74
g3843
sg67
(lp3855
S':'
asbag60
(g81
g62
NtRp3856
(dp3857
g65
(dp3858
sg74
g3843
sg67
(lp3859
g60
(g61
g62
NtRp3860
(dp3861
g65
(dp3862
g73
I5
ssg74
g3856
sg67
(lp3863
S'200'
p3864
asbasbasbag60
(g76
g62
NtRp3865
(dp3866
g65
(dp3867
sg74
g2412
sg67
(lp3868
g60
(g81
g62
NtRp3869
(dp3870
g65
(dp3871
g85
g86
ssg74
g3865
sg67
(lp3872
S'subtitle'
p3873
asbag60
(g81
g62
NtRp3874
(dp3875
g65
(dp3876
g92
g93
ssg74
g3865
sg67
(lp3877
S':'
asbag60
(g81
g62
NtRp3878
(dp3879
g65
(dp3880
sg74
g3865
sg67
(lp3881
g60
(g61
g62
NtRp3882
(dp3883
g65
(dp3884
g73
I5
ssg74
g3878
sg67
(lp3885
g2955
(S's\r\x00\x00\x00customize me!'
tRp3886
asbasbasbag60
(g76
g62
NtRp3887
(dp3888
g65
(dp3889
sg74
g2412
sg67
(lp3890
g60
(g81
g62
NtRp3891
(dp3892
g65
(dp3893
g85
g86
ssg74
g3887
sg67
(lp3894
S'title'
p3895
asbag60
(g81
g62
NtRp3896
(dp3897
g65
(dp3898
g92
g93
ssg74
g3887
sg67
(lp3899
S':'
asbag60
(g81
g62
NtRp3900
(dp3901
g65
(dp3902
sg74
g3887
sg67
(lp3903
g60
(g61
g62
NtRp3904
(dp3905
g65
(dp3906
g73
I5
ssg74
g3900
sg67
(lp3907
S'Init'
p3908
asbasbasbag60
(g76
g62
NtRp3909
(dp3910
g65
(dp3911
sg74
g2412
sg67
(lp3912
g60
(g81
g62
NtRp3913
(dp3914
g65
(dp3915
g85
g86
ssg74
g3909
sg67
(lp3916
g1737
asbag60
(g81
g62
NtRp3917
(dp3918
g65
(dp3919
g92
g93
ssg74
g3909
sg67
(lp3920
S':'
asbag60
(g81
g62
NtRp3921
(dp3922
g65
(dp3923
sg74
g3909
sg67
(lp3924
g60
(g61
g62
NtRp3925
(dp3926
g65
(dp3927
g73
I5
ssg74
g3921
sg67
(lp3928
g1750
asbasbasbag60
(g76
g62
NtRp3929
(dp3930
g65
(dp3931
sg74
g2412
sg67
(lp3932
g60
(g81
g62
NtRp3933
(dp3934
g65
(dp3935
g85
g86
ssg74
g3929
sg67
(lp3936
S'view'
p3937
asbag60
(g81
g62
NtRp3938
(dp3939
g65
(dp3940
g92
g93
ssg74
g3929
sg67
(lp3941
S':'
asbag60
(g81
g62
NtRp3942
(dp3943
g65
(dp3944
sg74
g3929
sg67
(lp3945
g60
(g61
g62
NtRp3946
(dp3947
g65
(dp3948
g73
I5
ssg74
g3942
sg67
(lp3949
S'default/index.html'
p3950
asbasbasbasbasbsS'locals'
p3951
(dp3952
g4
S"r'C:\\Users\\Bussiere\\Dropbox\\Projets\\jackpoint\\web2py\\applications\\init\\controllers/default.py'"
p3953
sg6
S"'\\xef\\xbb\\xbf# -*- coding: utf-8 -*-\\n# this file is releas...=crud())\\n\\nresponse._vars=response._caller(index)\\n'"
p3954
sssS'traceback'
p3955
S'Traceback (most recent call last):\n  File "gluon/restricted.py", line 204, in restricted\n  File "gluon/restricted.py", line 189, in compile2\n  File "C:\\Users\\Bussiere\\Dropbox\\Projets\\jackpoint\\web2py\\applications\\init\\controllers/default.py", line 388\n    if form.process(onvalidation=forminscription_processing).accepted:\n   ^\nIndentationError: unexpected indent\n'
p3956
s.