(dp1
S'output'
p2
S"<type 'exceptions.AttributeError'> 'tuple' object has no attribute 'items'"
p3
sS'layer'
p4
S'C:\\Users\\Bussiere\\Dropbox\\Projets\\jackpoint\\web2py\\applications\\init\\controllers/default.py'
p5
sS'code'
p6
S'# -*- coding: utf-8 -*-\n# this file is released under public domain and you can use without limitations\n\n#########################################################################\n## This is a samples controller\n## - index is the default action of any application\n## - user is required for authentication and authorization\n## - download is for downloading files uploaded in the db (does streaming)\n## - call exposes all registered services (none by default)\n#########################################################################\n# Static analyzer import helpers: (STATIC_IMPORT_MARK)\nif 0: \n    import gluon\n    global cache; cache = gluon.cache.Cache()\n    global LOAD; LOAD  = gluon.compileapp.LoadFactory()\n    import gluon.compileapp.local_import_aux as local_import #@UnusedImport\n    from gluon.contrib.gql import GQLDB #@UnusedImport\n    from gluon.dal import Field #@UnusedImport\n    global request; request = gluon.globals.Request()\n    global response; response = gluon.globals.Response()\n    global session; session = gluon.globals.Session()\n    from gluon.html import A #@UnusedImport\n    from gluon.html import B #@UnusedImport\n    from gluon.html import BEAUTIFY #@UnusedImport\n    from gluon.html import BODY #@UnusedImport\n    from gluon.html import BR #@UnusedImport\n    from gluon.html import CENTER #@UnusedImport\n    from gluon.html import CODE #@UnusedImport\n    from gluon.html import DIV #@UnusedImport\n    from gluon.html import EM #@UnusedImport\n    from gluon.html import EMBED #@UnusedImport\n    from gluon.html import embed64 #@UnusedImport\n    from gluon.html import FIELDSET #@UnusedImport\n    from gluon.html import FORM #@UnusedImport\n    from gluon.html import H1 #@UnusedImport\n    from gluon.html import H2 #@UnusedImport\n    from gluon.html import H3 #@UnusedImport\n    from gluon.html import H4 #@UnusedImport\n    from gluon.html import H5 #@UnusedImport\n    from gluon.html import H6 #@UnusedImport\n    from gluon.html import HEAD #@UnusedImport\n    from gluon.html import HR #@UnusedImport\n    from gluon.html import HTML #@UnusedImport\n    from gluon.html import I #@UnusedImport\n    from gluon.html import IFRAME #@UnusedImport\n    from gluon.html import IMG #@UnusedImport\n    from gluon.html import INPUT #@UnusedImport\n    from gluon.html import LABEL #@UnusedImport\n    from gluon.html import LEGEND #@UnusedImport\n    from gluon.html import LI #@UnusedImport\n    from gluon.html import LINK #@UnusedImport\n    from gluon.html import MARKMIN #@UnusedImport\n    from gluon.html import MENU #@UnusedImport\n    from gluon.html import META #@UnusedImport\n    from gluon.html import OBJECT #@UnusedImport\n    from gluon.html import OL #@UnusedImport\n    from gluon.html import ON #@UnusedImport\n    from gluon.html import OPTGROUP #@UnusedImport\n    from gluon.html import OPTION #@UnusedImport\n    from gluon.html import P #@UnusedImport\n    from gluon.html import PRE #@UnusedImport\n    from gluon.html import STYLE #@UnusedImport\n    from gluon.html import SCRIPT #@UnusedImport\n    from gluon.html import SELECT #@UnusedImport\n    from gluon.html import SPAN #@UnusedImport\n    from gluon.html import TABLE #@UnusedImport\n    from gluon.html import TAG #@UnusedImport\n    from gluon.html import TBODY #@UnusedImport\n    from gluon.html import TD #@UnusedImport\n    from gluon.html import TEXTAREA #@UnusedImport\n    from gluon.html import TFOOT #@UnusedImport\n    from gluon.html import TH  #@UnusedImport\n    from gluon.html import THEAD #@UnusedImport\n    from gluon.html import TITLE #@UnusedImport\n    from gluon.html import TR #@UnusedImport\n    from gluon.html import TT #@UnusedImport\n    from gluon.html import UL #@UnusedImport\n    from gluon.html import URL #@UnusedImport\n    from gluon.html import XHTML #@UnusedImport\n    from gluon.html import XML #@UnusedImport\n    from gluon.html import xmlescape #@UnusedImport\n    from gluon.http import HTTP #@UnusedImport\n    from gluon.http import redirect #@UnusedImport\n    import gluon.languages.translator as T #@UnusedImport\n    from gluon.sql import DAL\n    global db; db = DAL()\n    from gluon.sql import SQLDB #@UnusedImport\n    from gluon.sql import SQLField #@UnusedImport\n    from gluon.sqlhtml import SQLFORM #@UnusedImport\n    from gluon.sqlhtml import SQLTABLE #@UnusedImport\n    from gluon.tools import  Auth\n    global auth; auth = Auth()\n    from gluon.tools import Crud\n    global crud; crud = Crud()\n    from gluon.tools import fetch #@UnusedImport\n    from gluon.tools import geocode #@UnusedImport\n    from gluon.tools import Mail\n    global mail; mail = Mail()\n    from gluon.tools import PluginManager\n    global plugins; plugins = PluginManager()\n    from gluon.tools import prettydate #@UnusedImport\n    from gluon.tools import Recaptcha #@UnusedImport\n    from gluon.tools import Service\n    global service; service = Service()\n    from gluon.validators import CLEANUP  #@UnusedImport\n    from gluon.validators import CRYPT #@UnusedImport\n    from gluon.validators import IS_ALPHANUMERIC #@UnusedImport\n    from gluon.validators import IS_DATE #@UnusedImport\n    from gluon.validators import IS_DATE_IN_RANGE #@UnusedImport\n    from gluon.validators import IS_DATETIME #@UnusedImport\n    from gluon.validators import IS_DATETIME_IN_RANGE #@UnusedImport\n    from gluon.validators import IS_DECIMAL_IN_RANGE #@UnusedImport\n    from gluon.validators import IS_EMAIL #@UnusedImport\n    from gluon.validators import IS_EMPTY_OR #@UnusedImport\n    from gluon.validators import IS_EQUAL_TO #@UnusedImport\n    from gluon.validators import IS_EXPR #@UnusedImport\n    from gluon.validators import IS_FLOAT_IN_RANGE #@UnusedImport\n    from gluon.validators import IS_IMAGE #@UnusedImport\n    from gluon.validators import IS_IN_DB #@UnusedImport\n    from gluon.validators import IS_IN_SET #@UnusedImport\n    from gluon.validators import IS_INT_IN_RANGE #@UnusedImport\n    from gluon.validators import IS_IPV4 #@UnusedImport\n    from gluon.validators import IS_LENGTH #@UnusedImport\n    from gluon.validators import IS_LIST_OF #@UnusedImport\n    from gluon.validators import IS_LOWER #@UnusedImport\n    from gluon.validators import IS_MATCH #@UnusedImport\n    from gluon.validators import IS_NOT_EMPTY #@UnusedImport\n    from gluon.validators import IS_NOT_IN_DB #@UnusedImport\n    from gluon.validators import IS_NULL_OR #@UnusedImport\n    from gluon.validators import IS_SLUG #@UnusedImport\n    from gluon.validators import IS_STRONG  #@UnusedImport\n    from gluon.validators import IS_TIME #@UnusedImport\n    from gluon.validators import IS_UPLOAD_FILENAME #@UnusedImport\n    from gluon.validators import IS_UPPER #@UnusedImpor\n\n\nimport random\n\nfrom gluon.storage import Storage\nsettings = Storage()\n\n\n\ndef index():\n    if auth.is_logged_in() :\n        return "You get the blue pills"\n    else :\n        return dict(form=auth.login(),faq=URL(\'faq\'))\n\n\n\ndef ensurefirstuser(Surnom, email, password):\n  users = db(db.auth_user.email == email).select()\n  if users:\n    user_id = users[0].id\n    created = False\n    if settings.debug_ensure_first_user == True:\n      print (\'found user_id so created equals %s\') % created\n    return (user_id, created)\n\n  else:\n    my_crypt = CRYPT(key=auth.settings.hmac_key)\n    crypt_pass = my_crypt(password)[0]    \n    id_user = db.auth_user.insert(\n                   Surnom=Surnom,\n                   email=email,\n                   Items = None,\n                   Skills = None,\n                   password=crypt_pass,\n                                   )\n    created = True\n    if settings.debug_ensure_first_user == True:\n      print (\'creating user_id\')\n    return (id_user, created)\n\n    \n\n\ndef ensure_users():\n  user_id, created = _ensure_user(\'first\', \'last\', \'email@address.com\', \'UserPassword12345\')\n  if settings.debug_ensure_users == True:\n    print (\'user id %i\') % user_id\n    print (\'created %s\') % created\n\ndef ensure_group_role(role, description):\n  if not auth.id_group(role=role):  \n    auth.add_group(role=role, description=description)  \n    if settings.debug_ensure_group_role == True:\n      print (\'created role %s\') % (role)\n\ndef ensure_membership(group_id, user_id):\n  return_group_id = auth.add_membership(role=role, user_id=user_id)\n  if settings.debug_ensure_membership == True:\n    print (\'made user_id member of %s\') % (role)\n  return return_group_id\n \ndef ensure_permissions(role, description, user_id):\n  ensure_group_role(role, description)\n  return_group_id = ensure_membership(group_id, user_id)\n  if settings.debug_ensure_permissions == True:\n    print return_group_id\n\ndef generate_invitation(number,word=4,num=1,numdigit=5):\n    code = [\n[\'BELCHER\', \'FIX\', \'EEL\', \'PANZERBOY\', \'DESK_JOCKEY\', \'CHILLED\', \'ENFORCER\', \'CHERRY_PICKING\', \'COUNTRY_CLUB\', \'BOMBSHELL\', \'PLUGGED_IN\', \'FINI\', \'LEGIT\', \'JAM\', \'BONED_OUT\', \'BLADE\', \'ROUST\', \'SAMURAI\', \'DISK\', \'INPUT\', \'POST_TIME\', \'SOUNDS\', \'SKIP\', \'FLATBACKER\', \'WILSON\', \'SHOEMAKER\', \'DELTA_SIERRA\', \'HEART\', \'CROAK\', \'HEAD_HUNTER\', \'HOSHO_KAISHA\', "DELTA\'D", "\'FACE_(also,_FACE,_EYE-FACE,_I-FACE)", \'WEEFLE\', \'DIRTGIRL\', \'KEYBOARD\', \'BRAIN_BUCKET\', \'DRYING_OUT\', \'OVERCOOK\', \'PIG\', \'COLD_TEA\', \'RECONFIG\', \'PAD\', \'LIT_UP\', \'WRAITH\', \'HANDLE\', \'L.P.\', \'PINCH\', \'TAKE_A_CAB\', \'SPILL\', \'ACE_KOOL\', \'DO\', \'BIZ\', \'BROWNIE\', \'CANDLE_AND_BLOOD\', \'BLUEBOY\', \'UP_ON_IT\', \'BURN\', \'USER_INTERFACE\', \'HOB\', \'GYRO\', \'STUFFIT\', \'THATCH\', \'ICEBREAKER\', \'ZIP_GUN\', \'PETERMAN\', \'PLAY_DOUGH\', \'TREY-EIGHT\', \'SETTLE\', "CHIPPIN\'_IN", \'MEATBALL\', \'RAFFLES\', \'YUBITSUME\', \'CROAKER\', \'SUCKER_POCKETS\', \'L.A.M.A.\', \'GEEK\', \'BUTTONHEAD\'],\n[\'TAKE\', \'TEKIYA\', \'KURUMAKU\', \'BLOC\', \'GAT\', \'JOHATSU\', \'CRYSTAL\', \'A.I.\', \'ZEROED\', \'OVER_THE_SHOULDER\', \'GRAB_GEE\', \'PANZER\', \'GO_LEO\', \'WASHED\', \'I.C.E.\', \'COPSHOP\', \'COLLATERAL_DAMAGE\', \'BIG_DARK\', \'DOUBLE-DEUCE\', \'ZONEDANCE\', \'MARK\', \'COBBERS\', \'CHIMPIRA\', \'TRIADS\', \'SHANK\', \'FRAG\', \'BREATH_VAC\', "CHARLIE\'S_ANGEL", \'MULE\', \'BURNER\', "PACKIN\'", \'HOTDOGGER\', \'BOSOZOKU\', \'RIPPERDOC\', \'THIRDMAN\', \'MAXIMUM,_MAX\', \'CHOOH2_("CHOO")\', \'CRYO_MAX\', \'HEATER\', \'SHARK\', \'JOYGIRL\', \'GURENTAI\', \'BANDIT\', \'VENICE\', \'MIZU_SHOBAI\', \'PASTA_BOYS\', \'SQUID\', \'CYBERED_UP\', \'DEAD_RECKONING\', \'POPSICLE\', \'FAUST\', \'COLLARBOY\', \'SHOES\', \'TORCH\', \'DELTAJOCK\', \'BUTTERFLY_MAN\', \'WISE_GUYS\', \'BOOST\', \'CAIN\', \'FOUR-FIVE\', \'BREAK-DOWN\', \'POLYMER_ONE-SHOT\', \'FLAG\', \'CALL_GIRL\', \'IN_THE_HUNT\', \'HYDRO\', \'DOCK\', \'FENCE\', \'SHAIKUJIN\', \'GOMI\', \'FILTER\', \'SAINT_NICK\', \'LINEFOOT\', \'CAVALRY\', \'PUKE\', \'CONVERSION\', \'FINGER\', \'CONTRACT\'],\n[\'PLASTIC\', \'CRYSTALJOCKEY,_CRYSTALJOCK\', \'SCREW\', \'TOYSTORE\', \'DREAM_TIME\', \'EXOTIC\', \'WALKABOUT\', \'DIAMOND_SEASON\', \'SARAKIN\', \'CHRISTMAS_BUNDLES\', \'SHADES\', \'BUTTON_MAN\', \'FOXTROT_UNIFORM\', \'KAI\', \'UNDER_THE_PAINT\', \'MINIMUM\', \'TRIPLE_A\', \'PIG_ON_A_WHEEL\', \'BAG_MAN\', \'DIP\', \'PIGEONS\', \'MAN\', \'ADAM_HENRY\', \'HIGH\', \'HEAT\', \'NINJO\', \'KNIFE_FIGHT\', \'MOUTHPIECE\', \'AGRIPLEX\', \'DATA_TERM\', \'LIZ\', \'CHROMER\', \'OUTPUT\', \'N.O.E.\', \'CLOSE_A_CONTRACT\', \'LASSIE\', \'FLATLINE\', \'CHIV\', \'SING\', \'AMMO\', \'RAT\', \'MATCHBOX\', \'PULL_AN_ASH\', \'BORYOKUDAN\', \'SQUEEZE\', \'RONIN\', \'HIT\', \'RAGS\', \'TAKE_OUT\', \'BEAT_THE_RAP\', \'GIRI\', \'RUNNING_THE_LINE\', \'HARNESS\', \'GRAVEROBBER\', \'DROP_A_DIME\', \'BADGE_ON_A_BEAVER\', \'FLETCHER\', \'AMPED-OUT\', \'NEUTRALIZE\', \'PETER\', \'CONFIG\', \'HARDFIRE\', \'B.A.M.A.\', \'CHROMATIC_ROCK\', \'MOLDED\', \'RAD\', \'CREASED\', \'CHATTER_BOX\', \'HAND_CANNON\', \'NIPPERS\', \'SIERRA_HOTEL\', \'HOOK_UP\', \'-JOCKEY,_-JOCK\', \'BUG\', \'BATMAN_AND_ROBIN\', \'BLACK_OPERATIONS\', "D.C.\'S", \'SO_KA\'],\n[\'_A.A.A.\', \'HOME_PLATE\', \'LITEJACK\', \'PINEAPPLE\', \'MAKE\', \'THE_STREET\', \'SITREP\', \'HANGING_PAPER\', \'PAINT_BOYS\', \'WETWORK\', \'NINER\', \'BOOKIE\', \'WHIPLASH\', \'TORPEDO\', \'HEATWAVE\', \'SOLAR_WIND\', \'QUIFF\', \'BIKE\', \'TRAFFIC\', \'WIRE_ROOM\', \'OYABUN\', \'COWBOY\', \'KOBUN\', \'MUDBOY\', \'COP_OUT\', \'SOKAIYA\', "\'DORPH", \'JOYBOY\', \'DIRTY\', \'BOAT\', \'DROP\', \'GRAV_or_GEE\', \'APOGEE\', \'BOOSTER\', \'BOOK\', \'FRY\', \'PULLING_TEETH\', \'ONE_LARGE\', \'COMBAT_DRUGS\', \'THRASH\', \'DO_A_GHOST\', \'DELTA\', \'RIN_TIN_TIN\', \'DROP_OUT\', \'GUMI\', \'ROCKERBOY/GIRL\', \'BULLET\', \'DEB\', \'THREADING_THE_NEEDLE\', \'MOTOR\', \'BLEEDER\', \'ARC\', \'BOPPER\', \'WASTE\', \'_DEMUKAI\', \'BREAK\', \'HOLDING_DOWN\', \'FEDS\', \'GAP\', \'RABBI\', \'BAKUTO\', \'CHOMBATTA_(CHOOMBA)\', \'BIG_HATS\', \'MR._JOHNSON\', \'EXEC\', \'BULL\', \'BULLSEYE\', \'POSERGANG\', \'CHAOL\', \'GEISHA\', \'SLAMMIT_ON\', \'POP_CAPS\', \'HARD_TIME\', \'BENJI\', \'MAKING_BANK\', \'PAPERHANGER\', \'NETRUN\', \'BOGEY\'],\n]     \n    i = 0\n    invits = []\n    print number\n    while (i < number):\n        invit = ""\n        j = 0\n        while (j < word):\n            debut = random.randint(0,len(code)-1)\n            codepick = code[debut][random.randint(0,len(code[debut])-1)]\n            j += 1\n            invit += codepick+"-"\n        j = 0\n        while (j < num):\n            invit += randomdig(numdigit)+"-"\n            j += 1\n        i+= 1\n        invit = invit[:-1]\n        if invit not in invits :\n            invits.append(invit[:-1])\n            print invit\n    return invits\n        \ndef randomdig(number):\n    max = "9"*number\n    max = int(max)\n    rand =  random.randint(0,max)\n    rand = str(rand)\n    rand = "0"*(number-len(rand))+rand\n    return rand\n\n@auth.requires_login()\ndef inscription():\n    form = SQLFORM(db[auth.settings.table_user_name])\n    return dict(form=form)\n\ndef liste_invitations():\n    return dict(rows = db().select(db.Invitation.ALL))\n\n#@auth.requires_membership(\'manager\')\ndef generate_invitationpage():\n   form=FORM("Nombre d\'invit a g\xc3\xa9n\xc3\xa9rer:", INPUT(_name=\'nmbreinvit\'), INPUT(_type=\'submit\'))\n   if form.process().accepted and form.vars.nmbreinvit != None :\n       i = form.vars.nmbreinvit\n       invitsgenere = generate_invitation(int(i))\n       for invit in invitsgenere :\n           db.Invitation.insert(Code=invit)\n           db.commit()\n       session.flash = \'invitation inserted\'\n       form=FORM("Nombre d\'invit a g\xc3\xa9n\xc3\xa9rer:", INPUT(_name=\'nmbreinvit\'), INPUT(_type=\'submit\'))\n       #db.Invitation.insert(Code="Toto-5542")\n       db.commit()\n   return dict(form=form)\n\ndef verif_invitation(form):\n    print form.vars.invitation\n    if db.Invitation(db.Invitation.Code==form.vars.invitation) == None :\n        form.errors.invitation = \'code invitation incorrect\'\n        print "mauvais"\n    else :\n        print "bon"\n\n\ndef invitation():\n    form=FORM("Code Invitation :", INPUT(_name=\'invitation\'),"<Email :",INPUT(_name=\'email\'),  INPUT(_type=\'submit\'))\n    if form.process(onvalidation=verif_invitation).accepted and  form.vars.invitation != None  :\n        print "toto"\n        user = ensurefirstuser("john_doe",form.vars.email,form.vars.invitation)\n        auth.user = Storage(auth.settings.table_user._filter_fields(user, id=True))\n        auth.environment.session.auth = Storage(user=user, last_visit=request.now,\n                                            expiration=auth.settings.expiration)\n        redirect(URL(\'inscription\'))\n    return dict(form=form)\n\ndef faq():\n\n    return dict()\ndef user():\n    """\n    exposes:\n    http://..../[app]/default/user/login\n    http://..../[app]/default/user/logout\n    http://..../[app]/default/user/register\n    http://..../[app]/default/user/profile\n    http://..../[app]/default/user/retrieve_password\n    http://..../[app]/default/user/change_password\n    use @auth.requires_login()\n        @auth.requires_membership(\'group name\')\n        @auth.requires_permission(\'read\',\'table name\',record_id)\n    to decorate functions that need access control\n    """\n    return dict(form=auth())\n\n\ndef download():\n    """\n    allows downloading of uploaded files\n    http://..../[app]/default/download/[filename]\n    """\n    return response.download(request,db)\n\n\ndef call():\n    """\n    exposes services. for example:\n    http://..../[app]/default/call/jsonrpc\n    decorate with @services.jsonrpc the functions to expose\n    supports xml, json, xmlrpc, jsonrpc, amfrpc, rss, csv\n    """\n    return service()\n\n\n@auth.requires_signature()\ndef data():\n    """\n    http://..../[app]/default/data/tables\n    http://..../[app]/default/data/create/[table]\n    http://..../[app]/default/data/read/[table]/[id]\n    http://..../[app]/default/data/update/[table]/[id]\n    http://..../[app]/default/data/delete/[table]/[id]\n    http://..../[app]/default/data/select/[table]\n    http://..../[app]/default/data/search/[table]\n    but URLs must be signed, i.e. linked with\n      A(\'table\',_href=URL(\'data/tables\',user_signature=True))\n    or with the signed load operator\n      LOAD(\'default\',\'data.load\',args=\'tables\',ajax=True,user_signature=True)\n    """\n    return dict(form=crud())\n\nresponse._vars=response._caller(invitation)\n'
p7
sS'snapshot'
p8
(dp9
S'exception'
p10
(dp11
S'__hash__'
p12
S"<method-wrapper '__hash__' of exceptions.AttributeError object at 0x075E53F0>"
p13
sS'__setattr__'
p14
S"<method-wrapper '__setattr__' of exceptions.AttributeError object at 0x075E53F0>"
p15
sS'__reduce_ex__'
p16
S'<built-in method __reduce_ex__ of exceptions.AttributeError object at 0x075E53F0>'
p17
sS'__getslice__'
p18
S"<method-wrapper '__getslice__' of exceptions.AttributeError object at 0x075E53F0>"
p19
sS'__getitem__'
p20
S"<method-wrapper '__getitem__' of exceptions.AttributeError object at 0x075E53F0>"
p21
sS'__setstate__'
p22
S'<built-in method __setstate__ of exceptions.AttributeError object at 0x075E53F0>'
p23
sS'__reduce__'
p24
S'<built-in method __reduce__ of exceptions.AttributeError object at 0x075E53F0>'
p25
sS'__str__'
p26
S"<method-wrapper '__str__' of exceptions.AttributeError object at 0x075E53F0>"
p27
sS'args'
p28
S'("\'tuple\' object has no attribute \'items\'",)'
p29
sS'__getattribute__'
p30
S"<method-wrapper '__getattribute__' of exceptions.AttributeError object at 0x075E53F0>"
p31
sS'__class__'
p32
S"<type 'exceptions.AttributeError'>"
p33
sS'__delattr__'
p34
S"<method-wrapper '__delattr__' of exceptions.AttributeError object at 0x075E53F0>"
p35
sS'__repr__'
p36
S"<method-wrapper '__repr__' of exceptions.AttributeError object at 0x075E53F0>"
p37
sS'__dict__'
p38
S'{}'
p39
sS'__doc__'
p40
S"'Attribute not found.'"
p41
sS'__init__'
p42
S"<method-wrapper '__init__' of exceptions.AttributeError object at 0x075E53F0>"
p43
sS'__new__'
p44
S'<built-in method __new__ of type object at 0x1E1CDA68>'
p45
ssS'evalue'
p46
S"'tuple' object has no attribute 'items'"
p47
sS'request'
p48
ccopy_reg
_reconstructor
p49
(cgluon.html
BEAUTIFY
p50
c__builtin__
object
p51
NtRp52
(dp53
S'attributes'
p54
(dp55
sS'components'
p56
(lp57
g49
(cgluon.html
TABLE
p58
g51
NtRp59
(dp60
g54
(dp61
S'level'
p62
I5
ssS'parent'
p63
Nsg56
(lp64
g49
(cgluon.html
TR
p65
g51
NtRp66
(dp67
g54
(dp68
sg63
g59
sg56
(lp69
g49
(cgluon.html
TD
p70
g51
NtRp71
(dp72
g54
(dp73
S'_style'
p74
S'font-weight:bold;vertical-align:top'
p75
ssg63
g66
sg56
(lp76
S'ajax'
p77
asbag49
(g70
g51
NtRp78
(dp79
g54
(dp80
S'_valign'
p81
S'top'
p82
ssg63
g66
sg56
(lp83
S':'
asbag49
(g70
g51
NtRp84
(dp85
g54
(dp86
sg63
g66
sg56
(lp87
g49
(g50
g51
NtRp88
(dp89
g54
(dp90
g62
I5
ssg63
g84
sg56
(lp91
S'False'
p92
asbasbasbag49
(g65
g51
NtRp93
(dp94
g54
(dp95
sg63
g59
sg56
(lp96
g49
(g70
g51
NtRp97
(dp98
g54
(dp99
g74
g75
ssg63
g93
sg56
(lp100
S'application'
p101
asbag49
(g70
g51
NtRp102
(dp103
g54
(dp104
g81
g82
ssg63
g93
sg56
(lp105
S':'
asbag49
(g70
g51
NtRp106
(dp107
g54
(dp108
sg63
g93
sg56
(lp109
g49
(g50
g51
NtRp110
(dp111
g54
(dp112
g62
I5
ssg63
g106
sg56
(lp113
S'init'
p114
asbasbasbag49
(g65
g51
NtRp115
(dp116
g54
(dp117
sg63
g59
sg56
(lp118
g49
(g70
g51
NtRp119
(dp120
g54
(dp121
g74
g75
ssg63
g115
sg56
(lp122
g28
asbag49
(g70
g51
NtRp123
(dp124
g54
(dp125
g81
g82
ssg63
g115
sg56
(lp126
S':'
asbag49
(g70
g51
NtRp127
(dp128
g54
(dp129
sg63
g115
sg56
(lp130
g49
(g50
g51
NtRp131
(dp132
g54
(dp133
g62
I5
ssg63
g127
sg56
(lp134
g49
(g58
g51
NtRp135
(dp136
g54
(dp137
g62
I4
ssg63
Nsg56
(lp138
sbasbasbasbag49
(g65
g51
NtRp139
(dp140
g54
(dp141
sg63
g59
sg56
(lp142
g49
(g70
g51
NtRp143
(dp144
g54
(dp145
g74
g75
ssg63
g139
sg56
(lp146
S'body'
p147
asbag49
(g70
g51
NtRp148
(dp149
g54
(dp150
g81
g82
ssg63
g139
sg56
(lp151
S':'
asbag49
(g70
g51
NtRp152
(dp153
g54
(dp154
sg63
g139
sg56
(lp155
g49
(g50
g51
NtRp156
(dp157
g54
(dp158
g62
I5
ssg63
g152
sg56
(lp159
S"<open file '<fdopen>', mode 'w+b' at 0x0757BDE8>"
p160
asbasbasbag49
(g65
g51
NtRp161
(dp162
g54
(dp163
sg63
g59
sg56
(lp164
g49
(g70
g51
NtRp165
(dp166
g54
(dp167
g74
g75
ssg63
g161
sg56
(lp168
S'client'
p169
asbag49
(g70
g51
NtRp170
(dp171
g54
(dp172
g81
g82
ssg63
g161
sg56
(lp173
S':'
asbag49
(g70
g51
NtRp174
(dp175
g54
(dp176
sg63
g161
sg56
(lp177
g49
(g50
g51
NtRp178
(dp179
g54
(dp180
g62
I5
ssg63
g174
sg56
(lp181
S'127.0.0.1'
p182
asbasbasbag49
(g65
g51
NtRp183
(dp184
g54
(dp185
sg63
g59
sg56
(lp186
g49
(g70
g51
NtRp187
(dp188
g54
(dp189
g74
g75
ssg63
g183
sg56
(lp190
S'controller'
p191
asbag49
(g70
g51
NtRp192
(dp193
g54
(dp194
g81
g82
ssg63
g183
sg56
(lp195
S':'
asbag49
(g70
g51
NtRp196
(dp197
g54
(dp198
sg63
g183
sg56
(lp199
g49
(g50
g51
NtRp200
(dp201
g54
(dp202
g62
I5
ssg63
g196
sg56
(lp203
S'default'
p204
asbasbasbag49
(g65
g51
NtRp205
(dp206
g54
(dp207
sg63
g59
sg56
(lp208
g49
(g70
g51
NtRp209
(dp210
g54
(dp211
g74
g75
ssg63
g205
sg56
(lp212
S'cookies'
p213
asbag49
(g70
g51
NtRp214
(dp215
g54
(dp216
g81
g82
ssg63
g205
sg56
(lp217
S':'
asbag49
(g70
g51
NtRp218
(dp219
g54
(dp220
sg63
g205
sg56
(lp221
g49
(g50
g51
NtRp222
(dp223
g54
(dp224
g62
I5
ssg63
g218
sg56
(lp225
g49
(g58
g51
NtRp226
(dp227
g54
(dp228
g62
I4
ssg63
Nsg56
(lp229
g49
(g65
g51
NtRp230
(dp231
g54
(dp232
sg63
g226
sg56
(lp233
g49
(g70
g51
NtRp234
(dp235
g54
(dp236
g74
g75
ssg63
g230
sg56
(lp237
S'session_id_admin'
p238
asbag49
(g70
g51
NtRp239
(dp240
g54
(dp241
g81
g82
ssg63
g230
sg56
(lp242
S':'
asbag49
(g70
g51
NtRp243
(dp244
g54
(dp245
sg63
g230
sg56
(lp246
g49
(g50
g51
NtRp247
(dp248
g54
(dp249
g62
I4
ssg63
g243
sg56
(lp250
g49
(g58
g51
NtRp251
(dp252
g54
(dp253
g62
I3
ssg63
Nsg56
(lp254
g49
(g65
g51
NtRp255
(dp256
g54
(dp257
sg63
g251
sg56
(lp258
g49
(g70
g51
NtRp259
(dp260
g54
(dp261
g74
g75
ssg63
g255
sg56
(lp262
S'comment'
p263
asbag49
(g70
g51
NtRp264
(dp265
g54
(dp266
g81
g82
ssg63
g255
sg56
(lp267
S':'
asbag49
(g70
g51
NtRp268
(dp269
g54
(dp270
sg63
g255
sg56
(lp271
g49
(g50
g51
NtRp272
(dp273
g54
(dp274
g62
I3
ssg63
g268
sg56
(lp275
S''
asbasbasbag49
(g65
g51
NtRp276
(dp277
g54
(dp278
sg63
g251
sg56
(lp279
g49
(g70
g51
NtRp280
(dp281
g54
(dp282
g74
g75
ssg63
g276
sg56
(lp283
S'domain'
p284
asbag49
(g70
g51
NtRp285
(dp286
g54
(dp287
g81
g82
ssg63
g276
sg56
(lp288
S':'
asbag49
(g70
g51
NtRp289
(dp290
g54
(dp291
sg63
g276
sg56
(lp292
g49
(g50
g51
NtRp293
(dp294
g54
(dp295
g62
I3
ssg63
g289
sg56
(lp296
S''
asbasbasbag49
(g65
g51
NtRp297
(dp298
g54
(dp299
sg63
g251
sg56
(lp300
g49
(g70
g51
NtRp301
(dp302
g54
(dp303
g74
g75
ssg63
g297
sg56
(lp304
S'expires'
p305
asbag49
(g70
g51
NtRp306
(dp307
g54
(dp308
g81
g82
ssg63
g297
sg56
(lp309
S':'
asbag49
(g70
g51
NtRp310
(dp311
g54
(dp312
sg63
g297
sg56
(lp313
g49
(g50
g51
NtRp314
(dp315
g54
(dp316
g62
I3
ssg63
g310
sg56
(lp317
S''
asbasbasbag49
(g65
g51
NtRp318
(dp319
g54
(dp320
sg63
g251
sg56
(lp321
g49
(g70
g51
NtRp322
(dp323
g54
(dp324
g74
g75
ssg63
g318
sg56
(lp325
S'max-age'
p326
asbag49
(g70
g51
NtRp327
(dp328
g54
(dp329
g81
g82
ssg63
g318
sg56
(lp330
S':'
asbag49
(g70
g51
NtRp331
(dp332
g54
(dp333
sg63
g318
sg56
(lp334
g49
(g50
g51
NtRp335
(dp336
g54
(dp337
g62
I3
ssg63
g331
sg56
(lp338
S''
asbasbasbag49
(g65
g51
NtRp339
(dp340
g54
(dp341
sg63
g251
sg56
(lp342
g49
(g70
g51
NtRp343
(dp344
g54
(dp345
g74
g75
ssg63
g339
sg56
(lp346
S'path'
p347
asbag49
(g70
g51
NtRp348
(dp349
g54
(dp350
g81
g82
ssg63
g339
sg56
(lp351
S':'
asbag49
(g70
g51
NtRp352
(dp353
g54
(dp354
sg63
g339
sg56
(lp355
g49
(g50
g51
NtRp356
(dp357
g54
(dp358
g62
I3
ssg63
g352
sg56
(lp359
S''
asbasbasbag49
(g65
g51
NtRp360
(dp361
g54
(dp362
sg63
g251
sg56
(lp363
g49
(g70
g51
NtRp364
(dp365
g54
(dp366
g74
g75
ssg63
g360
sg56
(lp367
S'secure'
p368
asbag49
(g70
g51
NtRp369
(dp370
g54
(dp371
g81
g82
ssg63
g360
sg56
(lp372
S':'
asbag49
(g70
g51
NtRp373
(dp374
g54
(dp375
sg63
g360
sg56
(lp376
g49
(g50
g51
NtRp377
(dp378
g54
(dp379
g62
I3
ssg63
g373
sg56
(lp380
S''
asbasbasbag49
(g65
g51
NtRp381
(dp382
g54
(dp383
sg63
g251
sg56
(lp384
g49
(g70
g51
NtRp385
(dp386
g54
(dp387
g74
g75
ssg63
g381
sg56
(lp388
S'version'
p389
asbag49
(g70
g51
NtRp390
(dp391
g54
(dp392
g81
g82
ssg63
g381
sg56
(lp393
S':'
asbag49
(g70
g51
NtRp394
(dp395
g54
(dp396
sg63
g381
sg56
(lp397
g49
(g50
g51
NtRp398
(dp399
g54
(dp400
g62
I3
ssg63
g394
sg56
(lp401
S''
asbasbasbasbasbasbasbag49
(g65
g51
NtRp402
(dp403
g54
(dp404
sg63
g226
sg56
(lp405
g49
(g70
g51
NtRp406
(dp407
g54
(dp408
g74
g75
ssg63
g402
sg56
(lp409
S'session_id_init'
p410
asbag49
(g70
g51
NtRp411
(dp412
g54
(dp413
g81
g82
ssg63
g402
sg56
(lp414
S':'
asbag49
(g70
g51
NtRp415
(dp416
g54
(dp417
sg63
g402
sg56
(lp418
g49
(g50
g51
NtRp419
(dp420
g54
(dp421
g62
I4
ssg63
g415
sg56
(lp422
g49
(g58
g51
NtRp423
(dp424
g54
(dp425
g62
I3
ssg63
Nsg56
(lp426
g49
(g65
g51
NtRp427
(dp428
g54
(dp429
sg63
g423
sg56
(lp430
g49
(g70
g51
NtRp431
(dp432
g54
(dp433
g74
g75
ssg63
g427
sg56
(lp434
g263
asbag49
(g70
g51
NtRp435
(dp436
g54
(dp437
g81
g82
ssg63
g427
sg56
(lp438
S':'
asbag49
(g70
g51
NtRp439
(dp440
g54
(dp441
sg63
g427
sg56
(lp442
g49
(g50
g51
NtRp443
(dp444
g54
(dp445
g62
I3
ssg63
g439
sg56
(lp446
S''
asbasbasbag49
(g65
g51
NtRp447
(dp448
g54
(dp449
sg63
g423
sg56
(lp450
g49
(g70
g51
NtRp451
(dp452
g54
(dp453
g74
g75
ssg63
g447
sg56
(lp454
g284
asbag49
(g70
g51
NtRp455
(dp456
g54
(dp457
g81
g82
ssg63
g447
sg56
(lp458
S':'
asbag49
(g70
g51
NtRp459
(dp460
g54
(dp461
sg63
g447
sg56
(lp462
g49
(g50
g51
NtRp463
(dp464
g54
(dp465
g62
I3
ssg63
g459
sg56
(lp466
S''
asbasbasbag49
(g65
g51
NtRp467
(dp468
g54
(dp469
sg63
g423
sg56
(lp470
g49
(g70
g51
NtRp471
(dp472
g54
(dp473
g74
g75
ssg63
g467
sg56
(lp474
g305
asbag49
(g70
g51
NtRp475
(dp476
g54
(dp477
g81
g82
ssg63
g467
sg56
(lp478
S':'
asbag49
(g70
g51
NtRp479
(dp480
g54
(dp481
sg63
g467
sg56
(lp482
g49
(g50
g51
NtRp483
(dp484
g54
(dp485
g62
I3
ssg63
g479
sg56
(lp486
S''
asbasbasbag49
(g65
g51
NtRp487
(dp488
g54
(dp489
sg63
g423
sg56
(lp490
g49
(g70
g51
NtRp491
(dp492
g54
(dp493
g74
g75
ssg63
g487
sg56
(lp494
g326
asbag49
(g70
g51
NtRp495
(dp496
g54
(dp497
g81
g82
ssg63
g487
sg56
(lp498
S':'
asbag49
(g70
g51
NtRp499
(dp500
g54
(dp501
sg63
g487
sg56
(lp502
g49
(g50
g51
NtRp503
(dp504
g54
(dp505
g62
I3
ssg63
g499
sg56
(lp506
S''
asbasbasbag49
(g65
g51
NtRp507
(dp508
g54
(dp509
sg63
g423
sg56
(lp510
g49
(g70
g51
NtRp511
(dp512
g54
(dp513
g74
g75
ssg63
g507
sg56
(lp514
g347
asbag49
(g70
g51
NtRp515
(dp516
g54
(dp517
g81
g82
ssg63
g507
sg56
(lp518
S':'
asbag49
(g70
g51
NtRp519
(dp520
g54
(dp521
sg63
g507
sg56
(lp522
g49
(g50
g51
NtRp523
(dp524
g54
(dp525
g62
I3
ssg63
g519
sg56
(lp526
S''
asbasbasbag49
(g65
g51
NtRp527
(dp528
g54
(dp529
sg63
g423
sg56
(lp530
g49
(g70
g51
NtRp531
(dp532
g54
(dp533
g74
g75
ssg63
g527
sg56
(lp534
g368
asbag49
(g70
g51
NtRp535
(dp536
g54
(dp537
g81
g82
ssg63
g527
sg56
(lp538
S':'
asbag49
(g70
g51
NtRp539
(dp540
g54
(dp541
sg63
g527
sg56
(lp542
g49
(g50
g51
NtRp543
(dp544
g54
(dp545
g62
I3
ssg63
g539
sg56
(lp546
S''
asbasbasbag49
(g65
g51
NtRp547
(dp548
g54
(dp549
sg63
g423
sg56
(lp550
g49
(g70
g51
NtRp551
(dp552
g54
(dp553
g74
g75
ssg63
g547
sg56
(lp554
g389
asbag49
(g70
g51
NtRp555
(dp556
g54
(dp557
g81
g82
ssg63
g547
sg56
(lp558
S':'
asbag49
(g70
g51
NtRp559
(dp560
g54
(dp561
sg63
g547
sg56
(lp562
g49
(g50
g51
NtRp563
(dp564
g54
(dp565
g62
I3
ssg63
g559
sg56
(lp566
S''
asbasbasbasbasbasbasbasbasbasbasbag49
(g65
g51
NtRp567
(dp568
g54
(dp569
sg63
g59
sg56
(lp570
g49
(g70
g51
NtRp571
(dp572
g54
(dp573
g74
g75
ssg63
g567
sg56
(lp574
S'env'
p575
asbag49
(g70
g51
NtRp576
(dp577
g54
(dp578
g81
g82
ssg63
g567
sg56
(lp579
S':'
asbag49
(g70
g51
NtRp580
(dp581
g54
(dp582
sg63
g567
sg56
(lp583
g49
(g50
g51
NtRp584
(dp585
g54
(dp586
g62
I5
ssg63
g580
sg56
(lp587
g49
(g58
g51
NtRp588
(dp589
g54
(dp590
g62
I4
ssg63
Nsg56
(lp591
g49
(g65
g51
NtRp592
(dp593
g54
(dp594
sg63
g588
sg56
(lp595
g49
(g70
g51
NtRp596
(dp597
g54
(dp598
g74
g75
ssg63
g592
sg56
(lp599
S'app_folders'
p600
asbag49
(g70
g51
NtRp601
(dp602
g54
(dp603
g81
g82
ssg63
g592
sg56
(lp604
S':'
asbag49
(g70
g51
NtRp605
(dp606
g54
(dp607
sg63
g592
sg56
(lp608
g49
(g50
g51
NtRp609
(dp610
g54
(dp611
g62
I4
ssg63
g605
sg56
(lp612
S"set(['C:\\\\Users\\\\Bussiere\\\\Dropbox\\\\Projets\\\\jackpoint\\\\web2py\\\\applications\\\\init\\\\', 'C:\\\\Users\\\\Bussiere\\\\Dropbox\\\\Projets\\\\jackpoint\\\\web2py\\\\applications\\\\admin\\\\'])"
p613
asbasbasbag49
(g65
g51
NtRp614
(dp615
g54
(dp616
sg63
g588
sg56
(lp617
g49
(g70
g51
NtRp618
(dp619
g54
(dp620
g74
g75
ssg63
g614
sg56
(lp621
S'applications_parent'
p622
asbag49
(g70
g51
NtRp623
(dp624
g54
(dp625
g81
g82
ssg63
g614
sg56
(lp626
S':'
asbag49
(g70
g51
NtRp627
(dp628
g54
(dp629
sg63
g614
sg56
(lp630
g49
(g50
g51
NtRp631
(dp632
g54
(dp633
g62
I4
ssg63
g627
sg56
(lp634
S'C:\\Users\\Bussiere\\Dropbox\\Projets\\jackpoint\\web2py'
p635
asbasbasbag49
(g65
g51
NtRp636
(dp637
g54
(dp638
sg63
g588
sg56
(lp639
g49
(g70
g51
NtRp640
(dp641
g54
(dp642
g74
g75
ssg63
g636
sg56
(lp643
S'cmd_args'
p644
asbag49
(g70
g51
NtRp645
(dp646
g54
(dp647
g81
g82
ssg63
g636
sg56
(lp648
S':'
asbag49
(g70
g51
NtRp649
(dp650
g54
(dp651
sg63
g636
sg56
(lp652
g49
(g50
g51
NtRp653
(dp654
g54
(dp655
g62
I4
ssg63
g649
sg56
(lp656
g49
(g58
g51
NtRp657
(dp658
g54
(dp659
g62
I3
ssg63
Nsg56
(lp660
sbasbasbasbag49
(g65
g51
NtRp661
(dp662
g54
(dp663
sg63
g588
sg56
(lp664
g49
(g70
g51
NtRp665
(dp666
g54
(dp667
g74
g75
ssg63
g661
sg56
(lp668
S'cmd_options'
p669
asbag49
(g70
g51
NtRp670
(dp671
g54
(dp672
g81
g82
ssg63
g661
sg56
(lp673
S':'
asbag49
(g70
g51
NtRp674
(dp675
g54
(dp676
sg63
g661
sg56
(lp677
g49
(g50
g51
NtRp678
(dp679
g54
(dp680
g62
I4
ssg63
g674
sg56
(lp681
S"<Values at 0x3be5fa8: {'verbose': False, 'ip': '127.0.0.1', 'shutdown_timeout': 5, 'taskbar': False, 'nocron': False, 'pid_filename': 'httpserver.pid', 'maxthreads': None, 'softcron': False, 'server_name': 'Batou', 'bpython': False, 'nogui': False, 'port': 8000, 'extcron': False, 'debuglevel': 30, 'test': None, 'folder': 'C:\\\\Users\\\\Bussiere\\\\Dropbox\\\\Projets\\\\jackpoint\\\\web2py', 'config': '', 'import_models': False, 'winservice': '', 'shell': None, 'run': '', 'log_filename': 'httpserver.log', 'args': [''], 'socket_timeout': 5, 'ssl_ca_certificate': None, 'scheduler': None, 'profiler_filename': None, 'ssl_private_key': '', 'password': '<ask>', 'request_queue_size': 5, 'ssl_certificate': '', 'cronjob': False, 'numthreads': None, 'quiet': False, 'interfaces': None, 'minthreads': None, 'timeout': 10, 'plain': False, 'nobanner': False}>"
p682
asbasbasbag49
(g65
g51
NtRp683
(dp684
g54
(dp685
sg63
g588
sg56
(lp686
g49
(g70
g51
NtRp687
(dp688
g54
(dp689
g74
g75
ssg63
g683
sg56
(lp690
S'content_length'
p691
asbag49
(g70
g51
NtRp692
(dp693
g54
(dp694
g81
g82
ssg63
g683
sg56
(lp695
S':'
asbag49
(g70
g51
NtRp696
(dp697
g54
(dp698
sg63
g683
sg56
(lp699
g49
(g50
g51
NtRp700
(dp701
g54
(dp702
g62
I4
ssg63
g696
sg56
(lp703
S'494'
p704
asbasbasbag49
(g65
g51
NtRp705
(dp706
g54
(dp707
sg63
g588
sg56
(lp708
g49
(g70
g51
NtRp709
(dp710
g54
(dp711
g74
g75
ssg63
g705
sg56
(lp712
S'content_type'
p713
asbag49
(g70
g51
NtRp714
(dp715
g54
(dp716
g81
g82
ssg63
g705
sg56
(lp717
S':'
asbag49
(g70
g51
NtRp718
(dp719
g54
(dp720
sg63
g705
sg56
(lp721
g49
(g50
g51
NtRp722
(dp723
g54
(dp724
g62
I4
ssg63
g718
sg56
(lp725
S'multipart/form-data; boundary=----WebKitFormBoundarynWBT6gUQWfK5SZvF'
p726
asbasbasbag49
(g65
g51
NtRp727
(dp728
g54
(dp729
sg63
g588
sg56
(lp730
g49
(g70
g51
NtRp731
(dp732
g54
(dp733
g74
g75
ssg63
g727
sg56
(lp734
S'db_sessions'
p735
asbag49
(g70
g51
NtRp736
(dp737
g54
(dp738
g81
g82
ssg63
g727
sg56
(lp739
S':'
asbag49
(g70
g51
NtRp740
(dp741
g54
(dp742
sg63
g727
sg56
(lp743
g49
(g50
g51
NtRp744
(dp745
g54
(dp746
g62
I4
ssg63
g740
sg56
(lp747
S"set(['init'])"
p748
asbasbasbag49
(g65
g51
NtRp749
(dp750
g54
(dp751
sg63
g588
sg56
(lp752
g49
(g70
g51
NtRp753
(dp754
g54
(dp755
g74
g75
ssg63
g749
sg56
(lp756
S'debugging'
p757
asbag49
(g70
g51
NtRp758
(dp759
g54
(dp760
g81
g82
ssg63
g749
sg56
(lp761
S':'
asbag49
(g70
g51
NtRp762
(dp763
g54
(dp764
sg63
g749
sg56
(lp765
g49
(g50
g51
NtRp766
(dp767
g54
(dp768
g62
I4
ssg63
g762
sg56
(lp769
S'True'
p770
asbasbasbag49
(g65
g51
NtRp771
(dp772
g54
(dp773
sg63
g588
sg56
(lp774
g49
(g70
g51
NtRp775
(dp776
g54
(dp777
g74
g75
ssg63
g771
sg56
(lp778
S'gluon_parent'
p779
asbag49
(g70
g51
NtRp780
(dp781
g54
(dp782
g81
g82
ssg63
g771
sg56
(lp783
S':'
asbag49
(g70
g51
NtRp784
(dp785
g54
(dp786
sg63
g771
sg56
(lp787
g49
(g50
g51
NtRp788
(dp789
g54
(dp790
g62
I4
ssg63
g784
sg56
(lp791
S'C:\\Users\\Bussiere\\Dropbox\\Projets\\jackpoint\\web2py'
p792
asbasbasbag49
(g65
g51
NtRp793
(dp794
g54
(dp795
sg63
g588
sg56
(lp796
g49
(g70
g51
NtRp797
(dp798
g54
(dp799
g74
g75
ssg63
g793
sg56
(lp800
S'http_accept'
p801
asbag49
(g70
g51
NtRp802
(dp803
g54
(dp804
g81
g82
ssg63
g793
sg56
(lp805
S':'
asbag49
(g70
g51
NtRp806
(dp807
g54
(dp808
sg63
g793
sg56
(lp809
g49
(g50
g51
NtRp810
(dp811
g54
(dp812
g62
I4
ssg63
g806
sg56
(lp813
S'text/html,application/xhtml+xml,application/xml;q=0.9,*/*;q=0.8'
p814
asbasbasbag49
(g65
g51
NtRp815
(dp816
g54
(dp817
sg63
g588
sg56
(lp818
g49
(g70
g51
NtRp819
(dp820
g54
(dp821
g74
g75
ssg63
g815
sg56
(lp822
S'http_accept_charset'
p823
asbag49
(g70
g51
NtRp824
(dp825
g54
(dp826
g81
g82
ssg63
g815
sg56
(lp827
S':'
asbag49
(g70
g51
NtRp828
(dp829
g54
(dp830
sg63
g815
sg56
(lp831
g49
(g50
g51
NtRp832
(dp833
g54
(dp834
g62
I4
ssg63
g828
sg56
(lp835
S'ISO-8859-1,utf-8;q=0.7,*;q=0.3'
p836
asbasbasbag49
(g65
g51
NtRp837
(dp838
g54
(dp839
sg63
g588
sg56
(lp840
g49
(g70
g51
NtRp841
(dp842
g54
(dp843
g74
g75
ssg63
g837
sg56
(lp844
S'http_accept_encoding'
p845
asbag49
(g70
g51
NtRp846
(dp847
g54
(dp848
g81
g82
ssg63
g837
sg56
(lp849
S':'
asbag49
(g70
g51
NtRp850
(dp851
g54
(dp852
sg63
g837
sg56
(lp853
g49
(g50
g51
NtRp854
(dp855
g54
(dp856
g62
I4
ssg63
g850
sg56
(lp857
S'gzip,deflate,sdch'
p858
asbasbasbag49
(g65
g51
NtRp859
(dp860
g54
(dp861
sg63
g588
sg56
(lp862
g49
(g70
g51
NtRp863
(dp864
g54
(dp865
g74
g75
ssg63
g859
sg56
(lp866
S'http_accept_language'
p867
asbag49
(g70
g51
NtRp868
(dp869
g54
(dp870
g81
g82
ssg63
g859
sg56
(lp871
S':'
asbag49
(g70
g51
NtRp872
(dp873
g54
(dp874
sg63
g859
sg56
(lp875
g49
(g50
g51
NtRp876
(dp877
g54
(dp878
g62
I4
ssg63
g872
sg56
(lp879
S'en-US,en;q=0.8'
p880
asbasbasbag49
(g65
g51
NtRp881
(dp882
g54
(dp883
sg63
g588
sg56
(lp884
g49
(g70
g51
NtRp885
(dp886
g54
(dp887
g74
g75
ssg63
g881
sg56
(lp888
S'http_cache_control'
p889
asbag49
(g70
g51
NtRp890
(dp891
g54
(dp892
g81
g82
ssg63
g881
sg56
(lp893
S':'
asbag49
(g70
g51
NtRp894
(dp895
g54
(dp896
sg63
g881
sg56
(lp897
g49
(g50
g51
NtRp898
(dp899
g54
(dp900
g62
I4
ssg63
g894
sg56
(lp901
S'max-age=0'
p902
asbasbasbag49
(g65
g51
NtRp903
(dp904
g54
(dp905
sg63
g588
sg56
(lp906
g49
(g70
g51
NtRp907
(dp908
g54
(dp909
g74
g75
ssg63
g903
sg56
(lp910
S'http_connection'
p911
asbag49
(g70
g51
NtRp912
(dp913
g54
(dp914
g81
g82
ssg63
g903
sg56
(lp915
S':'
asbag49
(g70
g51
NtRp916
(dp917
g54
(dp918
sg63
g903
sg56
(lp919
g49
(g50
g51
NtRp920
(dp921
g54
(dp922
g62
I4
ssg63
g916
sg56
(lp923
S'keep-alive'
p924
asbasbasbag49
(g65
g51
NtRp925
(dp926
g54
(dp927
sg63
g588
sg56
(lp928
g49
(g70
g51
NtRp929
(dp930
g54
(dp931
g74
g75
ssg63
g925
sg56
(lp932
S'http_content_length'
p933
asbag49
(g70
g51
NtRp934
(dp935
g54
(dp936
g81
g82
ssg63
g925
sg56
(lp937
S':'
asbag49
(g70
g51
NtRp938
(dp939
g54
(dp940
sg63
g925
sg56
(lp941
g49
(g50
g51
NtRp942
(dp943
g54
(dp944
g62
I4
ssg63
g938
sg56
(lp945
g704
asbasbasbag49
(g65
g51
NtRp946
(dp947
g54
(dp948
sg63
g588
sg56
(lp949
g49
(g70
g51
NtRp950
(dp951
g54
(dp952
g74
g75
ssg63
g946
sg56
(lp953
S'http_content_type'
p954
asbag49
(g70
g51
NtRp955
(dp956
g54
(dp957
g81
g82
ssg63
g946
sg56
(lp958
S':'
asbag49
(g70
g51
NtRp959
(dp960
g54
(dp961
sg63
g946
sg56
(lp962
g49
(g50
g51
NtRp963
(dp964
g54
(dp965
g62
I4
ssg63
g959
sg56
(lp966
g726
asbasbasbag49
(g65
g51
NtRp967
(dp968
g54
(dp969
sg63
g588
sg56
(lp970
g49
(g70
g51
NtRp971
(dp972
g54
(dp973
g74
g75
ssg63
g967
sg56
(lp974
S'http_cookie'
p975
asbag49
(g70
g51
NtRp976
(dp977
g54
(dp978
g81
g82
ssg63
g967
sg56
(lp979
S':'
asbag49
(g70
g51
NtRp980
(dp981
g54
(dp982
sg63
g967
sg56
(lp983
g49
(g50
g51
NtRp984
(dp985
g54
(dp986
g62
I4
ssg63
g980
sg56
(lp987
S'session_id_init="11:795a76ab-b396-4cc5-8c57-3e2ec1f6de7f"; session_id_admin=127.0.0.1-b63258fa-6077-46d8-8b2a-33ffbf471e85'
p988
asbasbasbag49
(g65
g51
NtRp989
(dp990
g54
(dp991
sg63
g588
sg56
(lp992
g49
(g70
g51
NtRp993
(dp994
g54
(dp995
g74
g75
ssg63
g989
sg56
(lp996
S'http_host'
p997
asbag49
(g70
g51
NtRp998
(dp999
g54
(dp1000
g81
g82
ssg63
g989
sg56
(lp1001
S':'
asbag49
(g70
g51
NtRp1002
(dp1003
g54
(dp1004
sg63
g989
sg56
(lp1005
g49
(g50
g51
NtRp1006
(dp1007
g54
(dp1008
g62
I4
ssg63
g1002
sg56
(lp1009
S'127.0.0.1:8000'
p1010
asbasbasbag49
(g65
g51
NtRp1011
(dp1012
g54
(dp1013
sg63
g588
sg56
(lp1014
g49
(g70
g51
NtRp1015
(dp1016
g54
(dp1017
g74
g75
ssg63
g1011
sg56
(lp1018
S'http_origin'
p1019
asbag49
(g70
g51
NtRp1020
(dp1021
g54
(dp1022
g81
g82
ssg63
g1011
sg56
(lp1023
S':'
asbag49
(g70
g51
NtRp1024
(dp1025
g54
(dp1026
sg63
g1011
sg56
(lp1027
g49
(g50
g51
NtRp1028
(dp1029
g54
(dp1030
g62
I4
ssg63
g1024
sg56
(lp1031
S'http://127.0.0.1:8000'
p1032
asbasbasbag49
(g65
g51
NtRp1033
(dp1034
g54
(dp1035
sg63
g588
sg56
(lp1036
g49
(g70
g51
NtRp1037
(dp1038
g54
(dp1039
g74
g75
ssg63
g1033
sg56
(lp1040
S'http_referer'
p1041
asbag49
(g70
g51
NtRp1042
(dp1043
g54
(dp1044
g81
g82
ssg63
g1033
sg56
(lp1045
S':'
asbag49
(g70
g51
NtRp1046
(dp1047
g54
(dp1048
sg63
g1033
sg56
(lp1049
g49
(g50
g51
NtRp1050
(dp1051
g54
(dp1052
g62
I4
ssg63
g1046
sg56
(lp1053
S'http://127.0.0.1:8000/init/default/invitation'
p1054
asbasbasbag49
(g65
g51
NtRp1055
(dp1056
g54
(dp1057
sg63
g588
sg56
(lp1058
g49
(g70
g51
NtRp1059
(dp1060
g54
(dp1061
g74
g75
ssg63
g1055
sg56
(lp1062
S'http_user_agent'
p1063
asbag49
(g70
g51
NtRp1064
(dp1065
g54
(dp1066
g81
g82
ssg63
g1055
sg56
(lp1067
S':'
asbag49
(g70
g51
NtRp1068
(dp1069
g54
(dp1070
sg63
g1055
sg56
(lp1071
g49
(g50
g51
NtRp1072
(dp1073
g54
(dp1074
g62
I4
ssg63
g1068
sg56
(lp1075
S'Mozilla/5.0 (Windows NT 6.1; WOW64) AppleWebKit/535.18 (KHTML, like Gecko) Chrome/18.0.1011.0 Safari/535.18'
p1076
asbasbasbag49
(g65
g51
NtRp1077
(dp1078
g54
(dp1079
sg63
g588
sg56
(lp1080
g49
(g70
g51
NtRp1081
(dp1082
g54
(dp1083
g74
g75
ssg63
g1077
sg56
(lp1084
S'is_jython'
p1085
asbag49
(g70
g51
NtRp1086
(dp1087
g54
(dp1088
g81
g82
ssg63
g1077
sg56
(lp1089
S':'
asbag49
(g70
g51
NtRp1090
(dp1091
g54
(dp1092
sg63
g1077
sg56
(lp1093
g49
(g50
g51
NtRp1094
(dp1095
g54
(dp1096
g62
I4
ssg63
g1090
sg56
(lp1097
g92
asbasbasbag49
(g65
g51
NtRp1098
(dp1099
g54
(dp1100
sg63
g588
sg56
(lp1101
g49
(g70
g51
NtRp1102
(dp1103
g54
(dp1104
g74
g75
ssg63
g1098
sg56
(lp1105
S'is_pypy'
p1106
asbag49
(g70
g51
NtRp1107
(dp1108
g54
(dp1109
g81
g82
ssg63
g1098
sg56
(lp1110
S':'
asbag49
(g70
g51
NtRp1111
(dp1112
g54
(dp1113
sg63
g1098
sg56
(lp1114
g49
(g50
g51
NtRp1115
(dp1116
g54
(dp1117
g62
I4
ssg63
g1111
sg56
(lp1118
g92
asbasbasbag49
(g65
g51
NtRp1119
(dp1120
g54
(dp1121
sg63
g588
sg56
(lp1122
g49
(g70
g51
NtRp1123
(dp1124
g54
(dp1125
g74
g75
ssg63
g1119
sg56
(lp1126
S'path_info'
p1127
asbag49
(g70
g51
NtRp1128
(dp1129
g54
(dp1130
g81
g82
ssg63
g1119
sg56
(lp1131
S':'
asbag49
(g70
g51
NtRp1132
(dp1133
g54
(dp1134
sg63
g1119
sg56
(lp1135
g49
(g50
g51
NtRp1136
(dp1137
g54
(dp1138
g62
I4
ssg63
g1132
sg56
(lp1139
S'/init/default/invitation'
p1140
asbasbasbag49
(g65
g51
NtRp1141
(dp1142
g54
(dp1143
sg63
g588
sg56
(lp1144
g49
(g70
g51
NtRp1145
(dp1146
g54
(dp1147
g74
g75
ssg63
g1141
sg56
(lp1148
S'query_string'
p1149
asbag49
(g70
g51
NtRp1150
(dp1151
g54
(dp1152
g81
g82
ssg63
g1141
sg56
(lp1153
S':'
asbag49
(g70
g51
NtRp1154
(dp1155
g54
(dp1156
sg63
g1141
sg56
(lp1157
g49
(g50
g51
NtRp1158
(dp1159
g54
(dp1160
g62
I4
ssg63
g1154
sg56
(lp1161
S''
asbasbasbag49
(g65
g51
NtRp1162
(dp1163
g54
(dp1164
sg63
g588
sg56
(lp1165
g49
(g70
g51
NtRp1166
(dp1167
g54
(dp1168
g74
g75
ssg63
g1162
sg56
(lp1169
S'remote_addr'
p1170
asbag49
(g70
g51
NtRp1171
(dp1172
g54
(dp1173
g81
g82
ssg63
g1162
sg56
(lp1174
S':'
asbag49
(g70
g51
NtRp1175
(dp1176
g54
(dp1177
sg63
g1162
sg56
(lp1178
g49
(g50
g51
NtRp1179
(dp1180
g54
(dp1181
g62
I4
ssg63
g1175
sg56
(lp1182
g182
asbasbasbag49
(g65
g51
NtRp1183
(dp1184
g54
(dp1185
sg63
g588
sg56
(lp1186
g49
(g70
g51
NtRp1187
(dp1188
g54
(dp1189
g74
g75
ssg63
g1183
sg56
(lp1190
S'remote_port'
p1191
asbag49
(g70
g51
NtRp1192
(dp1193
g54
(dp1194
g81
g82
ssg63
g1183
sg56
(lp1195
S':'
asbag49
(g70
g51
NtRp1196
(dp1197
g54
(dp1198
sg63
g1183
sg56
(lp1199
g49
(g50
g51
NtRp1200
(dp1201
g54
(dp1202
g62
I4
ssg63
g1196
sg56
(lp1203
S'60994'
p1204
asbasbasbag49
(g65
g51
NtRp1205
(dp1206
g54
(dp1207
sg63
g588
sg56
(lp1208
g49
(g70
g51
NtRp1209
(dp1210
g54
(dp1211
g74
g75
ssg63
g1205
sg56
(lp1212
S'request_method'
p1213
asbag49
(g70
g51
NtRp1214
(dp1215
g54
(dp1216
g81
g82
ssg63
g1205
sg56
(lp1217
S':'
asbag49
(g70
g51
NtRp1218
(dp1219
g54
(dp1220
sg63
g1205
sg56
(lp1221
g49
(g50
g51
NtRp1222
(dp1223
g54
(dp1224
g62
I4
ssg63
g1218
sg56
(lp1225
S'POST'
p1226
asbasbasbag49
(g65
g51
NtRp1227
(dp1228
g54
(dp1229
sg63
g588
sg56
(lp1230
g49
(g70
g51
NtRp1231
(dp1232
g54
(dp1233
g74
g75
ssg63
g1227
sg56
(lp1234
S'script_name'
p1235
asbag49
(g70
g51
NtRp1236
(dp1237
g54
(dp1238
g81
g82
ssg63
g1227
sg56
(lp1239
S':'
asbag49
(g70
g51
NtRp1240
(dp1241
g54
(dp1242
sg63
g1227
sg56
(lp1243
g49
(g50
g51
NtRp1244
(dp1245
g54
(dp1246
g62
I4
ssg63
g1240
sg56
(lp1247
S''
asbasbasbag49
(g65
g51
NtRp1248
(dp1249
g54
(dp1250
sg63
g588
sg56
(lp1251
g49
(g70
g51
NtRp1252
(dp1253
g54
(dp1254
g74
g75
ssg63
g1248
sg56
(lp1255
S'server_name'
p1256
asbag49
(g70
g51
NtRp1257
(dp1258
g54
(dp1259
g81
g82
ssg63
g1248
sg56
(lp1260
S':'
asbag49
(g70
g51
NtRp1261
(dp1262
g54
(dp1263
sg63
g1248
sg56
(lp1264
g49
(g50
g51
NtRp1265
(dp1266
g54
(dp1267
g62
I4
ssg63
g1261
sg56
(lp1268
S'Batou'
p1269
asbasbasbag49
(g65
g51
NtRp1270
(dp1271
g54
(dp1272
sg63
g588
sg56
(lp1273
g49
(g70
g51
NtRp1274
(dp1275
g54
(dp1276
g74
g75
ssg63
g1270
sg56
(lp1277
S'server_port'
p1278
asbag49
(g70
g51
NtRp1279
(dp1280
g54
(dp1281
g81
g82
ssg63
g1270
sg56
(lp1282
S':'
asbag49
(g70
g51
NtRp1283
(dp1284
g54
(dp1285
sg63
g1270
sg56
(lp1286
g49
(g50
g51
NtRp1287
(dp1288
g54
(dp1289
g62
I4
ssg63
g1283
sg56
(lp1290
S'8000'
p1291
asbasbasbag49
(g65
g51
NtRp1292
(dp1293
g54
(dp1294
sg63
g588
sg56
(lp1295
g49
(g70
g51
NtRp1296
(dp1297
g54
(dp1298
g74
g75
ssg63
g1292
sg56
(lp1299
S'server_protocol'
p1300
asbag49
(g70
g51
NtRp1301
(dp1302
g54
(dp1303
g81
g82
ssg63
g1292
sg56
(lp1304
S':'
asbag49
(g70
g51
NtRp1305
(dp1306
g54
(dp1307
sg63
g1292
sg56
(lp1308
g49
(g50
g51
NtRp1309
(dp1310
g54
(dp1311
g62
I4
ssg63
g1305
sg56
(lp1312
S'HTTP/1.1'
p1313
asbasbasbag49
(g65
g51
NtRp1314
(dp1315
g54
(dp1316
sg63
g588
sg56
(lp1317
g49
(g70
g51
NtRp1318
(dp1319
g54
(dp1320
g74
g75
ssg63
g1314
sg56
(lp1321
S'server_software'
p1322
asbag49
(g70
g51
NtRp1323
(dp1324
g54
(dp1325
g81
g82
ssg63
g1314
sg56
(lp1326
S':'
asbag49
(g70
g51
NtRp1327
(dp1328
g54
(dp1329
sg63
g1314
sg56
(lp1330
g49
(g50
g51
NtRp1331
(dp1332
g54
(dp1333
g62
I4
ssg63
g1327
sg56
(lp1334
S'Rocket 1.2.4'
p1335
asbasbasbag49
(g65
g51
NtRp1336
(dp1337
g54
(dp1338
sg63
g588
sg56
(lp1339
g49
(g70
g51
NtRp1340
(dp1341
g54
(dp1342
g74
g75
ssg63
g1336
sg56
(lp1343
S'web2py_crontype'
p1344
asbag49
(g70
g51
NtRp1345
(dp1346
g54
(dp1347
g81
g82
ssg63
g1336
sg56
(lp1348
S':'
asbag49
(g70
g51
NtRp1349
(dp1350
g54
(dp1351
sg63
g1336
sg56
(lp1352
g49
(g50
g51
NtRp1353
(dp1354
g54
(dp1355
g62
I4
ssg63
g1349
sg56
(lp1356
S'hard'
p1357
asbasbasbag49
(g65
g51
NtRp1358
(dp1359
g54
(dp1360
sg63
g588
sg56
(lp1361
g49
(g70
g51
NtRp1362
(dp1363
g54
(dp1364
g74
g75
ssg63
g1358
sg56
(lp1365
S'web2py_path'
p1366
asbag49
(g70
g51
NtRp1367
(dp1368
g54
(dp1369
g81
g82
ssg63
g1358
sg56
(lp1370
S':'
asbag49
(g70
g51
NtRp1371
(dp1372
g54
(dp1373
sg63
g1358
sg56
(lp1374
g49
(g50
g51
NtRp1375
(dp1376
g54
(dp1377
g62
I4
ssg63
g1371
sg56
(lp1378
g635
asbasbasbag49
(g65
g51
NtRp1379
(dp1380
g54
(dp1381
sg63
g588
sg56
(lp1382
g49
(g70
g51
NtRp1383
(dp1384
g54
(dp1385
g74
g75
ssg63
g1379
sg56
(lp1386
S'web2py_version'
p1387
asbag49
(g70
g51
NtRp1388
(dp1389
g54
(dp1390
g81
g82
ssg63
g1379
sg56
(lp1391
S':'
asbag49
(g70
g51
NtRp1392
(dp1393
g54
(dp1394
sg63
g1379
sg56
(lp1395
g49
(g50
g51
NtRp1396
(dp1397
g54
(dp1398
g62
I4
ssg63
g1392
sg56
(lp1399
g49
(g58
g51
NtRp1400
(dp1401
g54
(dp1402
g62
I3
ssg63
Nsg56
(lp1403
g49
(g65
g51
NtRp1404
(dp1405
g54
(dp1406
sg63
g1400
sg56
(lp1407
g49
(g70
g51
NtRp1408
(dp1409
g54
(dp1410
sg63
g1404
sg56
(lp1411
g49
(g50
g51
NtRp1412
(dp1413
g54
(dp1414
g62
I3
ssg63
g1408
sg56
(lp1415
S'1'
asbasbasbag49
(g65
g51
NtRp1416
(dp1417
g54
(dp1418
sg63
g1400
sg56
(lp1419
g49
(g70
g51
NtRp1420
(dp1421
g54
(dp1422
sg63
g1416
sg56
(lp1423
g49
(g50
g51
NtRp1424
(dp1425
g54
(dp1426
g62
I3
ssg63
g1420
sg56
(lp1427
S'99'
p1428
asbasbasbag49
(g65
g51
NtRp1429
(dp1430
g54
(dp1431
sg63
g1400
sg56
(lp1432
g49
(g70
g51
NtRp1433
(dp1434
g54
(dp1435
sg63
g1429
sg56
(lp1436
g49
(g50
g51
NtRp1437
(dp1438
g54
(dp1439
g62
I3
ssg63
g1433
sg56
(lp1440
S'7'
asbasbasbag49
(g65
g51
NtRp1441
(dp1442
g54
(dp1443
sg63
g1400
sg56
(lp1444
g49
(g70
g51
NtRp1445
(dp1446
g54
(dp1447
sg63
g1441
sg56
(lp1448
g49
(g50
g51
NtRp1449
(dp1450
g54
(dp1451
g62
I3
ssg63
g1445
sg56
(lp1452
S'datetime.datetime(2012, 3, 4, 22, 12, 8)'
p1453
asbasbasbag49
(g65
g51
NtRp1454
(dp1455
g54
(dp1456
sg63
g1400
sg56
(lp1457
g49
(g70
g51
NtRp1458
(dp1459
g54
(dp1460
sg63
g1454
sg56
(lp1461
g49
(g50
g51
NtRp1462
(dp1463
g54
(dp1464
g62
I3
ssg63
g1458
sg56
(lp1465
S'stable'
p1466
asbasbasbasbasbasbasbag49
(g65
g51
NtRp1467
(dp1468
g54
(dp1469
sg63
g588
sg56
(lp1470
g49
(g70
g51
NtRp1471
(dp1472
g54
(dp1473
g74
g75
ssg63
g1467
sg56
(lp1474
S'wsgi_errors'
p1475
asbag49
(g70
g51
NtRp1476
(dp1477
g54
(dp1478
g81
g82
ssg63
g1467
sg56
(lp1479
S':'
asbag49
(g70
g51
NtRp1480
(dp1481
g54
(dp1482
sg63
g1467
sg56
(lp1483
g49
(g50
g51
NtRp1484
(dp1485
g54
(dp1486
g62
I4
ssg63
g1480
sg56
(lp1487
S"<open file '<stderr>', mode 'w' at 0x002B00B0>"
p1488
asbasbasbag49
(g65
g51
NtRp1489
(dp1490
g54
(dp1491
sg63
g588
sg56
(lp1492
g49
(g70
g51
NtRp1493
(dp1494
g54
(dp1495
g74
g75
ssg63
g1489
sg56
(lp1496
S'wsgi_file_wrapper'
p1497
asbag49
(g70
g51
NtRp1498
(dp1499
g54
(dp1500
g81
g82
ssg63
g1489
sg56
(lp1501
S':'
asbag49
(g70
g51
NtRp1502
(dp1503
g54
(dp1504
sg63
g1489
sg56
(lp1505
g49
(g50
g51
NtRp1506
(dp1507
g54
(dp1508
g62
I4
ssg63
g1502
sg56
(lp1509
S'<class wsgiref.util.FileWrapper at 0x02BF4900>'
p1510
asbasbasbag49
(g65
g51
NtRp1511
(dp1512
g54
(dp1513
sg63
g588
sg56
(lp1514
g49
(g70
g51
NtRp1515
(dp1516
g54
(dp1517
g74
g75
ssg63
g1511
sg56
(lp1518
S'wsgi_input'
p1519
asbag49
(g70
g51
NtRp1520
(dp1521
g54
(dp1522
g81
g82
ssg63
g1511
sg56
(lp1523
S':'
asbag49
(g70
g51
NtRp1524
(dp1525
g54
(dp1526
sg63
g1511
sg56
(lp1527
g49
(g50
g51
NtRp1528
(dp1529
g54
(dp1530
g62
I4
ssg63
g1524
sg56
(lp1531
S'<socket._fileobject object at 0x047890F0>'
p1532
asbasbasbag49
(g65
g51
NtRp1533
(dp1534
g54
(dp1535
sg63
g588
sg56
(lp1536
g49
(g70
g51
NtRp1537
(dp1538
g54
(dp1539
g74
g75
ssg63
g1533
sg56
(lp1540
S'wsgi_multiprocess'
p1541
asbag49
(g70
g51
NtRp1542
(dp1543
g54
(dp1544
g81
g82
ssg63
g1533
sg56
(lp1545
S':'
asbag49
(g70
g51
NtRp1546
(dp1547
g54
(dp1548
sg63
g1533
sg56
(lp1549
g49
(g50
g51
NtRp1550
(dp1551
g54
(dp1552
g62
I4
ssg63
g1546
sg56
(lp1553
g92
asbasbasbag49
(g65
g51
NtRp1554
(dp1555
g54
(dp1556
sg63
g588
sg56
(lp1557
g49
(g70
g51
NtRp1558
(dp1559
g54
(dp1560
g74
g75
ssg63
g1554
sg56
(lp1561
S'wsgi_multithread'
p1562
asbag49
(g70
g51
NtRp1563
(dp1564
g54
(dp1565
g81
g82
ssg63
g1554
sg56
(lp1566
S':'
asbag49
(g70
g51
NtRp1567
(dp1568
g54
(dp1569
sg63
g1554
sg56
(lp1570
g49
(g50
g51
NtRp1571
(dp1572
g54
(dp1573
g62
I4
ssg63
g1567
sg56
(lp1574
g770
asbasbasbag49
(g65
g51
NtRp1575
(dp1576
g54
(dp1577
sg63
g588
sg56
(lp1578
g49
(g70
g51
NtRp1579
(dp1580
g54
(dp1581
g74
g75
ssg63
g1575
sg56
(lp1582
S'wsgi_run_once'
p1583
asbag49
(g70
g51
NtRp1584
(dp1585
g54
(dp1586
g81
g82
ssg63
g1575
sg56
(lp1587
S':'
asbag49
(g70
g51
NtRp1588
(dp1589
g54
(dp1590
sg63
g1575
sg56
(lp1591
g49
(g50
g51
NtRp1592
(dp1593
g54
(dp1594
g62
I4
ssg63
g1588
sg56
(lp1595
g92
asbasbasbag49
(g65
g51
NtRp1596
(dp1597
g54
(dp1598
sg63
g588
sg56
(lp1599
g49
(g70
g51
NtRp1600
(dp1601
g54
(dp1602
g74
g75
ssg63
g1596
sg56
(lp1603
S'wsgi_url_scheme'
p1604
asbag49
(g70
g51
NtRp1605
(dp1606
g54
(dp1607
g81
g82
ssg63
g1596
sg56
(lp1608
S':'
asbag49
(g70
g51
NtRp1609
(dp1610
g54
(dp1611
sg63
g1596
sg56
(lp1612
g49
(g50
g51
NtRp1613
(dp1614
g54
(dp1615
g62
I4
ssg63
g1609
sg56
(lp1616
S'http'
p1617
asbasbasbag49
(g65
g51
NtRp1618
(dp1619
g54
(dp1620
sg63
g588
sg56
(lp1621
g49
(g70
g51
NtRp1622
(dp1623
g54
(dp1624
g74
g75
ssg63
g1618
sg56
(lp1625
S'wsgi_version'
p1626
asbag49
(g70
g51
NtRp1627
(dp1628
g54
(dp1629
g81
g82
ssg63
g1618
sg56
(lp1630
S':'
asbag49
(g70
g51
NtRp1631
(dp1632
g54
(dp1633
sg63
g1618
sg56
(lp1634
g49
(g50
g51
NtRp1635
(dp1636
g54
(dp1637
g62
I4
ssg63
g1631
sg56
(lp1638
g49
(g58
g51
NtRp1639
(dp1640
g54
(dp1641
g62
I3
ssg63
Nsg56
(lp1642
g49
(g65
g51
NtRp1643
(dp1644
g54
(dp1645
sg63
g1639
sg56
(lp1646
g49
(g70
g51
NtRp1647
(dp1648
g54
(dp1649
sg63
g1643
sg56
(lp1650
g49
(g50
g51
NtRp1651
(dp1652
g54
(dp1653
g62
I3
ssg63
g1647
sg56
(lp1654
S'1'
asbasbasbag49
(g65
g51
NtRp1655
(dp1656
g54
(dp1657
sg63
g1639
sg56
(lp1658
g49
(g70
g51
NtRp1659
(dp1660
g54
(dp1661
sg63
g1655
sg56
(lp1662
g49
(g50
g51
NtRp1663
(dp1664
g54
(dp1665
g62
I3
ssg63
g1659
sg56
(lp1666
S'0'
asbasbasbasbasbasbasbasbasbasbasbag49
(g65
g51
NtRp1667
(dp1668
g54
(dp1669
sg63
g59
sg56
(lp1670
g49
(g70
g51
NtRp1671
(dp1672
g54
(dp1673
g74
g75
ssg63
g1667
sg56
(lp1674
S'extension'
p1675
asbag49
(g70
g51
NtRp1676
(dp1677
g54
(dp1678
g81
g82
ssg63
g1667
sg56
(lp1679
S':'
asbag49
(g70
g51
NtRp1680
(dp1681
g54
(dp1682
sg63
g1667
sg56
(lp1683
g49
(g50
g51
NtRp1684
(dp1685
g54
(dp1686
g62
I5
ssg63
g1680
sg56
(lp1687
S'html'
p1688
asbasbasbag49
(g65
g51
NtRp1689
(dp1690
g54
(dp1691
sg63
g59
sg56
(lp1692
g49
(g70
g51
NtRp1693
(dp1694
g54
(dp1695
g74
g75
ssg63
g1689
sg56
(lp1696
S'folder'
p1697
asbag49
(g70
g51
NtRp1698
(dp1699
g54
(dp1700
g81
g82
ssg63
g1689
sg56
(lp1701
S':'
asbag49
(g70
g51
NtRp1702
(dp1703
g54
(dp1704
sg63
g1689
sg56
(lp1705
g49
(g50
g51
NtRp1706
(dp1707
g54
(dp1708
g62
I5
ssg63
g1702
sg56
(lp1709
S'C:\\Users\\Bussiere\\Dropbox\\Projets\\jackpoint\\web2py\\applications\\init\\'
p1710
asbasbasbag49
(g65
g51
NtRp1711
(dp1712
g54
(dp1713
sg63
g59
sg56
(lp1714
g49
(g70
g51
NtRp1715
(dp1716
g54
(dp1717
g74
g75
ssg63
g1711
sg56
(lp1718
S'function'
p1719
asbag49
(g70
g51
NtRp1720
(dp1721
g54
(dp1722
g81
g82
ssg63
g1711
sg56
(lp1723
S':'
asbag49
(g70
g51
NtRp1724
(dp1725
g54
(dp1726
sg63
g1711
sg56
(lp1727
g49
(g50
g51
NtRp1728
(dp1729
g54
(dp1730
g62
I5
ssg63
g1724
sg56
(lp1731
S'invitation'
p1732
asbasbasbag49
(g65
g51
NtRp1733
(dp1734
g54
(dp1735
sg63
g59
sg56
(lp1736
g49
(g70
g51
NtRp1737
(dp1738
g54
(dp1739
g74
g75
ssg63
g1733
sg56
(lp1740
S'get_vars'
p1741
asbag49
(g70
g51
NtRp1742
(dp1743
g54
(dp1744
g81
g82
ssg63
g1733
sg56
(lp1745
S':'
asbag49
(g70
g51
NtRp1746
(dp1747
g54
(dp1748
sg63
g1733
sg56
(lp1749
g49
(g50
g51
NtRp1750
(dp1751
g54
(dp1752
g62
I5
ssg63
g1746
sg56
(lp1753
g49
(g58
g51
NtRp1754
(dp1755
g54
(dp1756
g62
I4
ssg63
Nsg56
(lp1757
sbasbasbasbag49
(g65
g51
NtRp1758
(dp1759
g54
(dp1760
sg63
g59
sg56
(lp1761
g49
(g70
g51
NtRp1762
(dp1763
g54
(dp1764
g74
g75
ssg63
g1758
sg56
(lp1765
S'global_settings'
p1766
asbag49
(g70
g51
NtRp1767
(dp1768
g54
(dp1769
g81
g82
ssg63
g1758
sg56
(lp1770
S':'
asbag49
(g70
g51
NtRp1771
(dp1772
g54
(dp1773
sg63
g1758
sg56
(lp1774
g49
(g50
g51
NtRp1775
(dp1776
g54
(dp1777
g62
I5
ssg63
g1771
sg56
(lp1778
g49
(g58
g51
NtRp1779
(dp1780
g54
(dp1781
g62
I4
ssg63
Nsg56
(lp1782
g49
(g65
g51
NtRp1783
(dp1784
g54
(dp1785
sg63
g1779
sg56
(lp1786
g49
(g70
g51
NtRp1787
(dp1788
g54
(dp1789
g74
g75
ssg63
g1783
sg56
(lp1790
g600
asbag49
(g70
g51
NtRp1791
(dp1792
g54
(dp1793
g81
g82
ssg63
g1783
sg56
(lp1794
S':'
asbag49
(g70
g51
NtRp1795
(dp1796
g54
(dp1797
sg63
g1783
sg56
(lp1798
g49
(g50
g51
NtRp1799
(dp1800
g54
(dp1801
g62
I4
ssg63
g1795
sg56
(lp1802
S"set(['C:\\\\Users\\\\Bussiere\\\\Dropbox\\\\Projets\\\\jackpoint\\\\web2py\\\\applications\\\\init\\\\', 'C:\\\\Users\\\\Bussiere\\\\Dropbox\\\\Projets\\\\jackpoint\\\\web2py\\\\applications\\\\admin\\\\'])"
p1803
asbasbasbag49
(g65
g51
NtRp1804
(dp1805
g54
(dp1806
sg63
g1779
sg56
(lp1807
g49
(g70
g51
NtRp1808
(dp1809
g54
(dp1810
g74
g75
ssg63
g1804
sg56
(lp1811
g622
asbag49
(g70
g51
NtRp1812
(dp1813
g54
(dp1814
g81
g82
ssg63
g1804
sg56
(lp1815
S':'
asbag49
(g70
g51
NtRp1816
(dp1817
g54
(dp1818
sg63
g1804
sg56
(lp1819
g49
(g50
g51
NtRp1820
(dp1821
g54
(dp1822
g62
I4
ssg63
g1816
sg56
(lp1823
g635
asbasbasbag49
(g65
g51
NtRp1824
(dp1825
g54
(dp1826
sg63
g1779
sg56
(lp1827
g49
(g70
g51
NtRp1828
(dp1829
g54
(dp1830
g74
g75
ssg63
g1824
sg56
(lp1831
g644
asbag49
(g70
g51
NtRp1832
(dp1833
g54
(dp1834
g81
g82
ssg63
g1824
sg56
(lp1835
S':'
asbag49
(g70
g51
NtRp1836
(dp1837
g54
(dp1838
sg63
g1824
sg56
(lp1839
g49
(g50
g51
NtRp1840
(dp1841
g54
(dp1842
g62
I4
ssg63
g1836
sg56
(lp1843
g49
(g58
g51
NtRp1844
(dp1845
g54
(dp1846
g62
I3
ssg63
Nsg56
(lp1847
sbasbasbasbag49
(g65
g51
NtRp1848
(dp1849
g54
(dp1850
sg63
g1779
sg56
(lp1851
g49
(g70
g51
NtRp1852
(dp1853
g54
(dp1854
g74
g75
ssg63
g1848
sg56
(lp1855
g669
asbag49
(g70
g51
NtRp1856
(dp1857
g54
(dp1858
g81
g82
ssg63
g1848
sg56
(lp1859
S':'
asbag49
(g70
g51
NtRp1860
(dp1861
g54
(dp1862
sg63
g1848
sg56
(lp1863
g49
(g50
g51
NtRp1864
(dp1865
g54
(dp1866
g62
I4
ssg63
g1860
sg56
(lp1867
S"<Values at 0x3be5fa8: {'verbose': False, 'ip': '127.0.0.1', 'shutdown_timeout': 5, 'taskbar': False, 'nocron': False, 'pid_filename': 'httpserver.pid', 'maxthreads': None, 'softcron': False, 'server_name': 'Batou', 'bpython': False, 'nogui': False, 'port': 8000, 'extcron': False, 'debuglevel': 30, 'test': None, 'folder': 'C:\\\\Users\\\\Bussiere\\\\Dropbox\\\\Projets\\\\jackpoint\\\\web2py', 'config': '', 'import_models': False, 'winservice': '', 'shell': None, 'run': '', 'log_filename': 'httpserver.log', 'args': [''], 'socket_timeout': 5, 'ssl_ca_certificate': None, 'scheduler': None, 'profiler_filename': None, 'ssl_private_key': '', 'password': '<ask>', 'request_queue_size': 5, 'ssl_certificate': '', 'cronjob': False, 'numthreads': None, 'quiet': False, 'interfaces': None, 'minthreads': None, 'timeout': 10, 'plain': False, 'nobanner': False}>"
p1868
asbasbasbag49
(g65
g51
NtRp1869
(dp1870
g54
(dp1871
sg63
g1779
sg56
(lp1872
g49
(g70
g51
NtRp1873
(dp1874
g54
(dp1875
g74
g75
ssg63
g1869
sg56
(lp1876
g735
asbag49
(g70
g51
NtRp1877
(dp1878
g54
(dp1879
g81
g82
ssg63
g1869
sg56
(lp1880
S':'
asbag49
(g70
g51
NtRp1881
(dp1882
g54
(dp1883
sg63
g1869
sg56
(lp1884
g49
(g50
g51
NtRp1885
(dp1886
g54
(dp1887
g62
I4
ssg63
g1881
sg56
(lp1888
S"set(['init'])"
p1889
asbasbasbag49
(g65
g51
NtRp1890
(dp1891
g54
(dp1892
sg63
g1779
sg56
(lp1893
g49
(g70
g51
NtRp1894
(dp1895
g54
(dp1896
g74
g75
ssg63
g1890
sg56
(lp1897
g757
asbag49
(g70
g51
NtRp1898
(dp1899
g54
(dp1900
g81
g82
ssg63
g1890
sg56
(lp1901
S':'
asbag49
(g70
g51
NtRp1902
(dp1903
g54
(dp1904
sg63
g1890
sg56
(lp1905
g49
(g50
g51
NtRp1906
(dp1907
g54
(dp1908
g62
I4
ssg63
g1902
sg56
(lp1909
g770
asbasbasbag49
(g65
g51
NtRp1910
(dp1911
g54
(dp1912
sg63
g1779
sg56
(lp1913
g49
(g70
g51
NtRp1914
(dp1915
g54
(dp1916
g74
g75
ssg63
g1910
sg56
(lp1917
g779
asbag49
(g70
g51
NtRp1918
(dp1919
g54
(dp1920
g81
g82
ssg63
g1910
sg56
(lp1921
S':'
asbag49
(g70
g51
NtRp1922
(dp1923
g54
(dp1924
sg63
g1910
sg56
(lp1925
g49
(g50
g51
NtRp1926
(dp1927
g54
(dp1928
g62
I4
ssg63
g1922
sg56
(lp1929
g792
asbasbasbag49
(g65
g51
NtRp1930
(dp1931
g54
(dp1932
sg63
g1779
sg56
(lp1933
g49
(g70
g51
NtRp1934
(dp1935
g54
(dp1936
g74
g75
ssg63
g1930
sg56
(lp1937
g1085
asbag49
(g70
g51
NtRp1938
(dp1939
g54
(dp1940
g81
g82
ssg63
g1930
sg56
(lp1941
S':'
asbag49
(g70
g51
NtRp1942
(dp1943
g54
(dp1944
sg63
g1930
sg56
(lp1945
g49
(g50
g51
NtRp1946
(dp1947
g54
(dp1948
g62
I4
ssg63
g1942
sg56
(lp1949
g92
asbasbasbag49
(g65
g51
NtRp1950
(dp1951
g54
(dp1952
sg63
g1779
sg56
(lp1953
g49
(g70
g51
NtRp1954
(dp1955
g54
(dp1956
g74
g75
ssg63
g1950
sg56
(lp1957
g1106
asbag49
(g70
g51
NtRp1958
(dp1959
g54
(dp1960
g81
g82
ssg63
g1950
sg56
(lp1961
S':'
asbag49
(g70
g51
NtRp1962
(dp1963
g54
(dp1964
sg63
g1950
sg56
(lp1965
g49
(g50
g51
NtRp1966
(dp1967
g54
(dp1968
g62
I4
ssg63
g1962
sg56
(lp1969
g92
asbasbasbag49
(g65
g51
NtRp1970
(dp1971
g54
(dp1972
sg63
g1779
sg56
(lp1973
g49
(g70
g51
NtRp1974
(dp1975
g54
(dp1976
g74
g75
ssg63
g1970
sg56
(lp1977
g1344
asbag49
(g70
g51
NtRp1978
(dp1979
g54
(dp1980
g81
g82
ssg63
g1970
sg56
(lp1981
S':'
asbag49
(g70
g51
NtRp1982
(dp1983
g54
(dp1984
sg63
g1970
sg56
(lp1985
g49
(g50
g51
NtRp1986
(dp1987
g54
(dp1988
g62
I4
ssg63
g1982
sg56
(lp1989
g1357
asbasbasbag49
(g65
g51
NtRp1990
(dp1991
g54
(dp1992
sg63
g1779
sg56
(lp1993
g49
(g70
g51
NtRp1994
(dp1995
g54
(dp1996
g74
g75
ssg63
g1990
sg56
(lp1997
g1387
asbag49
(g70
g51
NtRp1998
(dp1999
g54
(dp2000
g81
g82
ssg63
g1990
sg56
(lp2001
S':'
asbag49
(g70
g51
NtRp2002
(dp2003
g54
(dp2004
sg63
g1990
sg56
(lp2005
g49
(g50
g51
NtRp2006
(dp2007
g54
(dp2008
g62
I4
ssg63
g2002
sg56
(lp2009
g49
(g58
g51
NtRp2010
(dp2011
g54
(dp2012
g62
I3
ssg63
Nsg56
(lp2013
g49
(g65
g51
NtRp2014
(dp2015
g54
(dp2016
sg63
g2010
sg56
(lp2017
g49
(g70
g51
NtRp2018
(dp2019
g54
(dp2020
sg63
g2014
sg56
(lp2021
g49
(g50
g51
NtRp2022
(dp2023
g54
(dp2024
g62
I3
ssg63
g2018
sg56
(lp2025
S'1'
asbasbasbag49
(g65
g51
NtRp2026
(dp2027
g54
(dp2028
sg63
g2010
sg56
(lp2029
g49
(g70
g51
NtRp2030
(dp2031
g54
(dp2032
sg63
g2026
sg56
(lp2033
g49
(g50
g51
NtRp2034
(dp2035
g54
(dp2036
g62
I3
ssg63
g2030
sg56
(lp2037
S'99'
p2038
asbasbasbag49
(g65
g51
NtRp2039
(dp2040
g54
(dp2041
sg63
g2010
sg56
(lp2042
g49
(g70
g51
NtRp2043
(dp2044
g54
(dp2045
sg63
g2039
sg56
(lp2046
g49
(g50
g51
NtRp2047
(dp2048
g54
(dp2049
g62
I3
ssg63
g2043
sg56
(lp2050
S'7'
asbasbasbag49
(g65
g51
NtRp2051
(dp2052
g54
(dp2053
sg63
g2010
sg56
(lp2054
g49
(g70
g51
NtRp2055
(dp2056
g54
(dp2057
sg63
g2051
sg56
(lp2058
g49
(g50
g51
NtRp2059
(dp2060
g54
(dp2061
g62
I3
ssg63
g2055
sg56
(lp2062
S'datetime.datetime(2012, 3, 4, 22, 12, 8)'
p2063
asbasbasbag49
(g65
g51
NtRp2064
(dp2065
g54
(dp2066
sg63
g2010
sg56
(lp2067
g49
(g70
g51
NtRp2068
(dp2069
g54
(dp2070
sg63
g2064
sg56
(lp2071
g49
(g50
g51
NtRp2072
(dp2073
g54
(dp2074
g62
I3
ssg63
g2068
sg56
(lp2075
g1466
asbasbasbasbasbasbasbasbasbasbasbag49
(g65
g51
NtRp2076
(dp2077
g54
(dp2078
sg63
g59
sg56
(lp2079
g49
(g70
g51
NtRp2080
(dp2081
g54
(dp2082
g74
g75
ssg63
g2076
sg56
(lp2083
S'is_https'
p2084
asbag49
(g70
g51
NtRp2085
(dp2086
g54
(dp2087
g81
g82
ssg63
g2076
sg56
(lp2088
S':'
asbag49
(g70
g51
NtRp2089
(dp2090
g54
(dp2091
sg63
g2076
sg56
(lp2092
g49
(g50
g51
NtRp2093
(dp2094
g54
(dp2095
g62
I5
ssg63
g2089
sg56
(lp2096
g92
asbasbasbag49
(g65
g51
NtRp2097
(dp2098
g54
(dp2099
sg63
g59
sg56
(lp2100
g49
(g70
g51
NtRp2101
(dp2102
g54
(dp2103
g74
g75
ssg63
g2097
sg56
(lp2104
S'is_local'
p2105
asbag49
(g70
g51
NtRp2106
(dp2107
g54
(dp2108
g81
g82
ssg63
g2097
sg56
(lp2109
S':'
asbag49
(g70
g51
NtRp2110
(dp2111
g54
(dp2112
sg63
g2097
sg56
(lp2113
g49
(g50
g51
NtRp2114
(dp2115
g54
(dp2116
g62
I5
ssg63
g2110
sg56
(lp2117
g770
asbasbasbag49
(g65
g51
NtRp2118
(dp2119
g54
(dp2120
sg63
g59
sg56
(lp2121
g49
(g70
g51
NtRp2122
(dp2123
g54
(dp2124
g74
g75
ssg63
g2118
sg56
(lp2125
S'is_restful'
p2126
asbag49
(g70
g51
NtRp2127
(dp2128
g54
(dp2129
g81
g82
ssg63
g2118
sg56
(lp2130
S':'
asbag49
(g70
g51
NtRp2131
(dp2132
g54
(dp2133
sg63
g2118
sg56
(lp2134
g49
(g50
g51
NtRp2135
(dp2136
g54
(dp2137
g62
I5
ssg63
g2131
sg56
(lp2138
g92
asbasbasbag49
(g65
g51
NtRp2139
(dp2140
g54
(dp2141
sg63
g59
sg56
(lp2142
g49
(g70
g51
NtRp2143
(dp2144
g54
(dp2145
g74
g75
ssg63
g2139
sg56
(lp2146
S'now'
p2147
asbag49
(g70
g51
NtRp2148
(dp2149
g54
(dp2150
g81
g82
ssg63
g2139
sg56
(lp2151
S':'
asbag49
(g70
g51
NtRp2152
(dp2153
g54
(dp2154
sg63
g2139
sg56
(lp2155
g49
(g50
g51
NtRp2156
(dp2157
g54
(dp2158
g62
I5
ssg63
g2152
sg56
(lp2159
S'datetime.datetime(2012, 3, 24, 15, 28, 40, 930000)'
p2160
asbasbasbag49
(g65
g51
NtRp2161
(dp2162
g54
(dp2163
sg63
g59
sg56
(lp2164
g49
(g70
g51
NtRp2165
(dp2166
g54
(dp2167
g74
g75
ssg63
g2161
sg56
(lp2168
S'post_vars'
p2169
asbag49
(g70
g51
NtRp2170
(dp2171
g54
(dp2172
g81
g82
ssg63
g2161
sg56
(lp2173
S':'
asbag49
(g70
g51
NtRp2174
(dp2175
g54
(dp2176
sg63
g2161
sg56
(lp2177
g49
(g50
g51
NtRp2178
(dp2179
g54
(dp2180
g62
I5
ssg63
g2174
sg56
(lp2181
g49
(g58
g51
NtRp2182
(dp2183
g54
(dp2184
g62
I4
ssg63
Nsg56
(lp2185
g49
(g65
g51
NtRp2186
(dp2187
g54
(dp2188
sg63
g2182
sg56
(lp2189
g49
(g70
g51
NtRp2190
(dp2191
g54
(dp2192
g74
g75
ssg63
g2186
sg56
(lp2193
S'email'
p2194
asbag49
(g70
g51
NtRp2195
(dp2196
g54
(dp2197
g81
g82
ssg63
g2186
sg56
(lp2198
S':'
asbag49
(g70
g51
NtRp2199
(dp2200
g54
(dp2201
sg63
g2186
sg56
(lp2202
g49
(g50
g51
NtRp2203
(dp2204
g54
(dp2205
g62
I4
ssg63
g2199
sg56
(lp2206
S'bussiere@gmail.com'
p2207
asbasbasbag49
(g65
g51
NtRp2208
(dp2209
g54
(dp2210
sg63
g2182
sg56
(lp2211
g49
(g70
g51
NtRp2212
(dp2213
g54
(dp2214
g74
g75
ssg63
g2208
sg56
(lp2215
S'invitation'
p2216
asbag49
(g70
g51
NtRp2217
(dp2218
g54
(dp2219
g81
g82
ssg63
g2208
sg56
(lp2220
S':'
asbag49
(g70
g51
NtRp2221
(dp2222
g54
(dp2223
sg63
g2208
sg56
(lp2224
g49
(g50
g51
NtRp2225
(dp2226
g54
(dp2227
g62
I4
ssg63
g2221
sg56
(lp2228
S'Toto-5542'
p2229
asbasbasbasbasbasbasbag49
(g65
g51
NtRp2230
(dp2231
g54
(dp2232
sg63
g59
sg56
(lp2233
g49
(g70
g51
NtRp2234
(dp2235
g54
(dp2236
g74
g75
ssg63
g2230
sg56
(lp2237
S'url'
p2238
asbag49
(g70
g51
NtRp2239
(dp2240
g54
(dp2241
g81
g82
ssg63
g2230
sg56
(lp2242
S':'
asbag49
(g70
g51
NtRp2243
(dp2244
g54
(dp2245
sg63
g2230
sg56
(lp2246
g49
(g50
g51
NtRp2247
(dp2248
g54
(dp2249
g62
I5
ssg63
g2243
sg56
(lp2250
S'/init/default/invitation'
p2251
asbasbasbag49
(g65
g51
NtRp2252
(dp2253
g54
(dp2254
sg63
g59
sg56
(lp2255
g49
(g70
g51
NtRp2256
(dp2257
g54
(dp2258
g74
g75
ssg63
g2252
sg56
(lp2259
S'utcnow'
p2260
asbag49
(g70
g51
NtRp2261
(dp2262
g54
(dp2263
g81
g82
ssg63
g2252
sg56
(lp2264
S':'
asbag49
(g70
g51
NtRp2265
(dp2266
g54
(dp2267
sg63
g2252
sg56
(lp2268
g49
(g50
g51
NtRp2269
(dp2270
g54
(dp2271
g62
I5
ssg63
g2265
sg56
(lp2272
S'datetime.datetime(2012, 3, 24, 14, 28, 40, 931000)'
p2273
asbasbasbag49
(g65
g51
NtRp2274
(dp2275
g54
(dp2276
sg63
g59
sg56
(lp2277
g49
(g70
g51
NtRp2278
(dp2279
g54
(dp2280
g74
g75
ssg63
g2274
sg56
(lp2281
S'uuid'
p2282
asbag49
(g70
g51
NtRp2283
(dp2284
g54
(dp2285
g81
g82
ssg63
g2274
sg56
(lp2286
S':'
asbag49
(g70
g51
NtRp2287
(dp2288
g54
(dp2289
sg63
g2274
sg56
(lp2290
g49
(g50
g51
NtRp2291
(dp2292
g54
(dp2293
g62
I5
ssg63
g2287
sg56
(lp2294
S'init/127.0.0.1.2012-03-24.15-28-40.412231f4-1b59-4e37-9640-8c32a0dc1a70'
p2295
asbasbasbag49
(g65
g51
NtRp2296
(dp2297
g54
(dp2298
sg63
g59
sg56
(lp2299
g49
(g70
g51
NtRp2300
(dp2301
g54
(dp2302
g74
g75
ssg63
g2296
sg56
(lp2303
S'vars'
p2304
asbag49
(g70
g51
NtRp2305
(dp2306
g54
(dp2307
g81
g82
ssg63
g2296
sg56
(lp2308
S':'
asbag49
(g70
g51
NtRp2309
(dp2310
g54
(dp2311
sg63
g2296
sg56
(lp2312
g49
(g50
g51
NtRp2313
(dp2314
g54
(dp2315
g62
I5
ssg63
g2309
sg56
(lp2316
g49
(g58
g51
NtRp2317
(dp2318
g54
(dp2319
g62
I4
ssg63
Nsg56
(lp2320
g49
(g65
g51
NtRp2321
(dp2322
g54
(dp2323
sg63
g2317
sg56
(lp2324
g49
(g70
g51
NtRp2325
(dp2326
g54
(dp2327
g74
g75
ssg63
g2321
sg56
(lp2328
g2194
asbag49
(g70
g51
NtRp2329
(dp2330
g54
(dp2331
g81
g82
ssg63
g2321
sg56
(lp2332
S':'
asbag49
(g70
g51
NtRp2333
(dp2334
g54
(dp2335
sg63
g2321
sg56
(lp2336
g49
(g50
g51
NtRp2337
(dp2338
g54
(dp2339
g62
I4
ssg63
g2333
sg56
(lp2340
g2207
asbasbasbag49
(g65
g51
NtRp2341
(dp2342
g54
(dp2343
sg63
g2317
sg56
(lp2344
g49
(g70
g51
NtRp2345
(dp2346
g54
(dp2347
g74
g75
ssg63
g2341
sg56
(lp2348
g2216
asbag49
(g70
g51
NtRp2349
(dp2350
g54
(dp2351
g81
g82
ssg63
g2341
sg56
(lp2352
S':'
asbag49
(g70
g51
NtRp2353
(dp2354
g54
(dp2355
sg63
g2341
sg56
(lp2356
g49
(g50
g51
NtRp2357
(dp2358
g54
(dp2359
g62
I4
ssg63
g2353
sg56
(lp2360
g2229
asbasbasbasbasbasbasbag49
(g65
g51
NtRp2361
(dp2362
g54
(dp2363
sg63
g59
sg56
(lp2364
g49
(g70
g51
NtRp2365
(dp2366
g54
(dp2367
g74
g75
ssg63
g2361
sg56
(lp2368
S'wsgi'
p2369
asbag49
(g70
g51
NtRp2370
(dp2371
g54
(dp2372
g81
g82
ssg63
g2361
sg56
(lp2373
S':'
asbag49
(g70
g51
NtRp2374
(dp2375
g54
(dp2376
sg63
g2361
sg56
(lp2377
g49
(g50
g51
NtRp2378
(dp2379
g54
(dp2380
g62
I5
ssg63
g2374
sg56
(lp2381
g49
(g58
g51
NtRp2382
(dp2383
g54
(dp2384
g62
I4
ssg63
Nsg56
(lp2385
g49
(g65
g51
NtRp2386
(dp2387
g54
(dp2388
sg63
g2382
sg56
(lp2389
g49
(g70
g51
NtRp2390
(dp2391
g54
(dp2392
g74
g75
ssg63
g2386
sg56
(lp2393
S'environ'
p2394
asbag49
(g70
g51
NtRp2395
(dp2396
g54
(dp2397
g81
g82
ssg63
g2386
sg56
(lp2398
S':'
asbag49
(g70
g51
NtRp2399
(dp2400
g54
(dp2401
sg63
g2386
sg56
(lp2402
g49
(g50
g51
NtRp2403
(dp2404
g54
(dp2405
g62
I4
ssg63
g2399
sg56
(lp2406
g49
(g58
g51
NtRp2407
(dp2408
g54
(dp2409
g62
I3
ssg63
Nsg56
(lp2410
g49
(g65
g51
NtRp2411
(dp2412
g54
(dp2413
sg63
g2407
sg56
(lp2414
g49
(g70
g51
NtRp2415
(dp2416
g54
(dp2417
g74
g75
ssg63
g2411
sg56
(lp2418
S'CONTENT_LENGTH'
p2419
asbag49
(g70
g51
NtRp2420
(dp2421
g54
(dp2422
g81
g82
ssg63
g2411
sg56
(lp2423
S':'
asbag49
(g70
g51
NtRp2424
(dp2425
g54
(dp2426
sg63
g2411
sg56
(lp2427
g49
(g50
g51
NtRp2428
(dp2429
g54
(dp2430
g62
I3
ssg63
g2424
sg56
(lp2431
g704
asbasbasbag49
(g65
g51
NtRp2432
(dp2433
g54
(dp2434
sg63
g2407
sg56
(lp2435
g49
(g70
g51
NtRp2436
(dp2437
g54
(dp2438
g74
g75
ssg63
g2432
sg56
(lp2439
S'CONTENT_TYPE'
p2440
asbag49
(g70
g51
NtRp2441
(dp2442
g54
(dp2443
g81
g82
ssg63
g2432
sg56
(lp2444
S':'
asbag49
(g70
g51
NtRp2445
(dp2446
g54
(dp2447
sg63
g2432
sg56
(lp2448
g49
(g50
g51
NtRp2449
(dp2450
g54
(dp2451
g62
I3
ssg63
g2445
sg56
(lp2452
g726
asbasbasbag49
(g65
g51
NtRp2453
(dp2454
g54
(dp2455
sg63
g2407
sg56
(lp2456
g49
(g70
g51
NtRp2457
(dp2458
g54
(dp2459
g74
g75
ssg63
g2453
sg56
(lp2460
S'HTTP_ACCEPT'
p2461
asbag49
(g70
g51
NtRp2462
(dp2463
g54
(dp2464
g81
g82
ssg63
g2453
sg56
(lp2465
S':'
asbag49
(g70
g51
NtRp2466
(dp2467
g54
(dp2468
sg63
g2453
sg56
(lp2469
g49
(g50
g51
NtRp2470
(dp2471
g54
(dp2472
g62
I3
ssg63
g2466
sg56
(lp2473
g814
asbasbasbag49
(g65
g51
NtRp2474
(dp2475
g54
(dp2476
sg63
g2407
sg56
(lp2477
g49
(g70
g51
NtRp2478
(dp2479
g54
(dp2480
g74
g75
ssg63
g2474
sg56
(lp2481
S'HTTP_ACCEPT_CHARSET'
p2482
asbag49
(g70
g51
NtRp2483
(dp2484
g54
(dp2485
g81
g82
ssg63
g2474
sg56
(lp2486
S':'
asbag49
(g70
g51
NtRp2487
(dp2488
g54
(dp2489
sg63
g2474
sg56
(lp2490
g49
(g50
g51
NtRp2491
(dp2492
g54
(dp2493
g62
I3
ssg63
g2487
sg56
(lp2494
g836
asbasbasbag49
(g65
g51
NtRp2495
(dp2496
g54
(dp2497
sg63
g2407
sg56
(lp2498
g49
(g70
g51
NtRp2499
(dp2500
g54
(dp2501
g74
g75
ssg63
g2495
sg56
(lp2502
S'HTTP_ACCEPT_ENCODING'
p2503
asbag49
(g70
g51
NtRp2504
(dp2505
g54
(dp2506
g81
g82
ssg63
g2495
sg56
(lp2507
S':'
asbag49
(g70
g51
NtRp2508
(dp2509
g54
(dp2510
sg63
g2495
sg56
(lp2511
g49
(g50
g51
NtRp2512
(dp2513
g54
(dp2514
g62
I3
ssg63
g2508
sg56
(lp2515
g858
asbasbasbag49
(g65
g51
NtRp2516
(dp2517
g54
(dp2518
sg63
g2407
sg56
(lp2519
g49
(g70
g51
NtRp2520
(dp2521
g54
(dp2522
g74
g75
ssg63
g2516
sg56
(lp2523
S'HTTP_ACCEPT_LANGUAGE'
p2524
asbag49
(g70
g51
NtRp2525
(dp2526
g54
(dp2527
g81
g82
ssg63
g2516
sg56
(lp2528
S':'
asbag49
(g70
g51
NtRp2529
(dp2530
g54
(dp2531
sg63
g2516
sg56
(lp2532
g49
(g50
g51
NtRp2533
(dp2534
g54
(dp2535
g62
I3
ssg63
g2529
sg56
(lp2536
g880
asbasbasbag49
(g65
g51
NtRp2537
(dp2538
g54
(dp2539
sg63
g2407
sg56
(lp2540
g49
(g70
g51
NtRp2541
(dp2542
g54
(dp2543
g74
g75
ssg63
g2537
sg56
(lp2544
S'HTTP_CACHE_CONTROL'
p2545
asbag49
(g70
g51
NtRp2546
(dp2547
g54
(dp2548
g81
g82
ssg63
g2537
sg56
(lp2549
S':'
asbag49
(g70
g51
NtRp2550
(dp2551
g54
(dp2552
sg63
g2537
sg56
(lp2553
g49
(g50
g51
NtRp2554
(dp2555
g54
(dp2556
g62
I3
ssg63
g2550
sg56
(lp2557
g902
asbasbasbag49
(g65
g51
NtRp2558
(dp2559
g54
(dp2560
sg63
g2407
sg56
(lp2561
g49
(g70
g51
NtRp2562
(dp2563
g54
(dp2564
g74
g75
ssg63
g2558
sg56
(lp2565
S'HTTP_CONNECTION'
p2566
asbag49
(g70
g51
NtRp2567
(dp2568
g54
(dp2569
g81
g82
ssg63
g2558
sg56
(lp2570
S':'
asbag49
(g70
g51
NtRp2571
(dp2572
g54
(dp2573
sg63
g2558
sg56
(lp2574
g49
(g50
g51
NtRp2575
(dp2576
g54
(dp2577
g62
I3
ssg63
g2571
sg56
(lp2578
g924
asbasbasbag49
(g65
g51
NtRp2579
(dp2580
g54
(dp2581
sg63
g2407
sg56
(lp2582
g49
(g70
g51
NtRp2583
(dp2584
g54
(dp2585
g74
g75
ssg63
g2579
sg56
(lp2586
S'HTTP_CONTENT_LENGTH'
p2587
asbag49
(g70
g51
NtRp2588
(dp2589
g54
(dp2590
g81
g82
ssg63
g2579
sg56
(lp2591
S':'
asbag49
(g70
g51
NtRp2592
(dp2593
g54
(dp2594
sg63
g2579
sg56
(lp2595
g49
(g50
g51
NtRp2596
(dp2597
g54
(dp2598
g62
I3
ssg63
g2592
sg56
(lp2599
g704
asbasbasbag49
(g65
g51
NtRp2600
(dp2601
g54
(dp2602
sg63
g2407
sg56
(lp2603
g49
(g70
g51
NtRp2604
(dp2605
g54
(dp2606
g74
g75
ssg63
g2600
sg56
(lp2607
S'HTTP_CONTENT_TYPE'
p2608
asbag49
(g70
g51
NtRp2609
(dp2610
g54
(dp2611
g81
g82
ssg63
g2600
sg56
(lp2612
S':'
asbag49
(g70
g51
NtRp2613
(dp2614
g54
(dp2615
sg63
g2600
sg56
(lp2616
g49
(g50
g51
NtRp2617
(dp2618
g54
(dp2619
g62
I3
ssg63
g2613
sg56
(lp2620
g726
asbasbasbag49
(g65
g51
NtRp2621
(dp2622
g54
(dp2623
sg63
g2407
sg56
(lp2624
g49
(g70
g51
NtRp2625
(dp2626
g54
(dp2627
g74
g75
ssg63
g2621
sg56
(lp2628
S'HTTP_COOKIE'
p2629
asbag49
(g70
g51
NtRp2630
(dp2631
g54
(dp2632
g81
g82
ssg63
g2621
sg56
(lp2633
S':'
asbag49
(g70
g51
NtRp2634
(dp2635
g54
(dp2636
sg63
g2621
sg56
(lp2637
g49
(g50
g51
NtRp2638
(dp2639
g54
(dp2640
g62
I3
ssg63
g2634
sg56
(lp2641
g988
asbasbasbag49
(g65
g51
NtRp2642
(dp2643
g54
(dp2644
sg63
g2407
sg56
(lp2645
g49
(g70
g51
NtRp2646
(dp2647
g54
(dp2648
g74
g75
ssg63
g2642
sg56
(lp2649
S'HTTP_HOST'
p2650
asbag49
(g70
g51
NtRp2651
(dp2652
g54
(dp2653
g81
g82
ssg63
g2642
sg56
(lp2654
S':'
asbag49
(g70
g51
NtRp2655
(dp2656
g54
(dp2657
sg63
g2642
sg56
(lp2658
g49
(g50
g51
NtRp2659
(dp2660
g54
(dp2661
g62
I3
ssg63
g2655
sg56
(lp2662
g1010
asbasbasbag49
(g65
g51
NtRp2663
(dp2664
g54
(dp2665
sg63
g2407
sg56
(lp2666
g49
(g70
g51
NtRp2667
(dp2668
g54
(dp2669
g74
g75
ssg63
g2663
sg56
(lp2670
S'HTTP_ORIGIN'
p2671
asbag49
(g70
g51
NtRp2672
(dp2673
g54
(dp2674
g81
g82
ssg63
g2663
sg56
(lp2675
S':'
asbag49
(g70
g51
NtRp2676
(dp2677
g54
(dp2678
sg63
g2663
sg56
(lp2679
g49
(g50
g51
NtRp2680
(dp2681
g54
(dp2682
g62
I3
ssg63
g2676
sg56
(lp2683
g1032
asbasbasbag49
(g65
g51
NtRp2684
(dp2685
g54
(dp2686
sg63
g2407
sg56
(lp2687
g49
(g70
g51
NtRp2688
(dp2689
g54
(dp2690
g74
g75
ssg63
g2684
sg56
(lp2691
S'HTTP_REFERER'
p2692
asbag49
(g70
g51
NtRp2693
(dp2694
g54
(dp2695
g81
g82
ssg63
g2684
sg56
(lp2696
S':'
asbag49
(g70
g51
NtRp2697
(dp2698
g54
(dp2699
sg63
g2684
sg56
(lp2700
g49
(g50
g51
NtRp2701
(dp2702
g54
(dp2703
g62
I3
ssg63
g2697
sg56
(lp2704
g1054
asbasbasbag49
(g65
g51
NtRp2705
(dp2706
g54
(dp2707
sg63
g2407
sg56
(lp2708
g49
(g70
g51
NtRp2709
(dp2710
g54
(dp2711
g74
g75
ssg63
g2705
sg56
(lp2712
S'HTTP_USER_AGENT'
p2713
asbag49
(g70
g51
NtRp2714
(dp2715
g54
(dp2716
g81
g82
ssg63
g2705
sg56
(lp2717
S':'
asbag49
(g70
g51
NtRp2718
(dp2719
g54
(dp2720
sg63
g2705
sg56
(lp2721
g49
(g50
g51
NtRp2722
(dp2723
g54
(dp2724
g62
I3
ssg63
g2718
sg56
(lp2725
g1076
asbasbasbag49
(g65
g51
NtRp2726
(dp2727
g54
(dp2728
sg63
g2407
sg56
(lp2729
g49
(g70
g51
NtRp2730
(dp2731
g54
(dp2732
g74
g75
ssg63
g2726
sg56
(lp2733
S'PATH_INFO'
p2734
asbag49
(g70
g51
NtRp2735
(dp2736
g54
(dp2737
g81
g82
ssg63
g2726
sg56
(lp2738
S':'
asbag49
(g70
g51
NtRp2739
(dp2740
g54
(dp2741
sg63
g2726
sg56
(lp2742
g49
(g50
g51
NtRp2743
(dp2744
g54
(dp2745
g62
I3
ssg63
g2739
sg56
(lp2746
g1140
asbasbasbag49
(g65
g51
NtRp2747
(dp2748
g54
(dp2749
sg63
g2407
sg56
(lp2750
g49
(g70
g51
NtRp2751
(dp2752
g54
(dp2753
g74
g75
ssg63
g2747
sg56
(lp2754
S'QUERY_STRING'
p2755
asbag49
(g70
g51
NtRp2756
(dp2757
g54
(dp2758
g81
g82
ssg63
g2747
sg56
(lp2759
S':'
asbag49
(g70
g51
NtRp2760
(dp2761
g54
(dp2762
sg63
g2747
sg56
(lp2763
g49
(g50
g51
NtRp2764
(dp2765
g54
(dp2766
g62
I3
ssg63
g2760
sg56
(lp2767
S''
asbasbasbag49
(g65
g51
NtRp2768
(dp2769
g54
(dp2770
sg63
g2407
sg56
(lp2771
g49
(g70
g51
NtRp2772
(dp2773
g54
(dp2774
g74
g75
ssg63
g2768
sg56
(lp2775
S'REMOTE_ADDR'
p2776
asbag49
(g70
g51
NtRp2777
(dp2778
g54
(dp2779
g81
g82
ssg63
g2768
sg56
(lp2780
S':'
asbag49
(g70
g51
NtRp2781
(dp2782
g54
(dp2783
sg63
g2768
sg56
(lp2784
g49
(g50
g51
NtRp2785
(dp2786
g54
(dp2787
g62
I3
ssg63
g2781
sg56
(lp2788
g182
asbasbasbag49
(g65
g51
NtRp2789
(dp2790
g54
(dp2791
sg63
g2407
sg56
(lp2792
g49
(g70
g51
NtRp2793
(dp2794
g54
(dp2795
g74
g75
ssg63
g2789
sg56
(lp2796
S'REMOTE_PORT'
p2797
asbag49
(g70
g51
NtRp2798
(dp2799
g54
(dp2800
g81
g82
ssg63
g2789
sg56
(lp2801
S':'
asbag49
(g70
g51
NtRp2802
(dp2803
g54
(dp2804
sg63
g2789
sg56
(lp2805
g49
(g50
g51
NtRp2806
(dp2807
g54
(dp2808
g62
I3
ssg63
g2802
sg56
(lp2809
g1204
asbasbasbag49
(g65
g51
NtRp2810
(dp2811
g54
(dp2812
sg63
g2407
sg56
(lp2813
g49
(g70
g51
NtRp2814
(dp2815
g54
(dp2816
g74
g75
ssg63
g2810
sg56
(lp2817
S'REQUEST_METHOD'
p2818
asbag49
(g70
g51
NtRp2819
(dp2820
g54
(dp2821
g81
g82
ssg63
g2810
sg56
(lp2822
S':'
asbag49
(g70
g51
NtRp2823
(dp2824
g54
(dp2825
sg63
g2810
sg56
(lp2826
g49
(g50
g51
NtRp2827
(dp2828
g54
(dp2829
g62
I3
ssg63
g2823
sg56
(lp2830
g1226
asbasbasbag49
(g65
g51
NtRp2831
(dp2832
g54
(dp2833
sg63
g2407
sg56
(lp2834
g49
(g70
g51
NtRp2835
(dp2836
g54
(dp2837
g74
g75
ssg63
g2831
sg56
(lp2838
S'SCRIPT_NAME'
p2839
asbag49
(g70
g51
NtRp2840
(dp2841
g54
(dp2842
g81
g82
ssg63
g2831
sg56
(lp2843
S':'
asbag49
(g70
g51
NtRp2844
(dp2845
g54
(dp2846
sg63
g2831
sg56
(lp2847
g49
(g50
g51
NtRp2848
(dp2849
g54
(dp2850
g62
I3
ssg63
g2844
sg56
(lp2851
S''
asbasbasbag49
(g65
g51
NtRp2852
(dp2853
g54
(dp2854
sg63
g2407
sg56
(lp2855
g49
(g70
g51
NtRp2856
(dp2857
g54
(dp2858
g74
g75
ssg63
g2852
sg56
(lp2859
S'SERVER_NAME'
p2860
asbag49
(g70
g51
NtRp2861
(dp2862
g54
(dp2863
g81
g82
ssg63
g2852
sg56
(lp2864
S':'
asbag49
(g70
g51
NtRp2865
(dp2866
g54
(dp2867
sg63
g2852
sg56
(lp2868
g49
(g50
g51
NtRp2869
(dp2870
g54
(dp2871
g62
I3
ssg63
g2865
sg56
(lp2872
g1269
asbasbasbag49
(g65
g51
NtRp2873
(dp2874
g54
(dp2875
sg63
g2407
sg56
(lp2876
g49
(g70
g51
NtRp2877
(dp2878
g54
(dp2879
g74
g75
ssg63
g2873
sg56
(lp2880
S'SERVER_PORT'
p2881
asbag49
(g70
g51
NtRp2882
(dp2883
g54
(dp2884
g81
g82
ssg63
g2873
sg56
(lp2885
S':'
asbag49
(g70
g51
NtRp2886
(dp2887
g54
(dp2888
sg63
g2873
sg56
(lp2889
g49
(g50
g51
NtRp2890
(dp2891
g54
(dp2892
g62
I3
ssg63
g2886
sg56
(lp2893
g1291
asbasbasbag49
(g65
g51
NtRp2894
(dp2895
g54
(dp2896
sg63
g2407
sg56
(lp2897
g49
(g70
g51
NtRp2898
(dp2899
g54
(dp2900
g74
g75
ssg63
g2894
sg56
(lp2901
S'SERVER_PROTOCOL'
p2902
asbag49
(g70
g51
NtRp2903
(dp2904
g54
(dp2905
g81
g82
ssg63
g2894
sg56
(lp2906
S':'
asbag49
(g70
g51
NtRp2907
(dp2908
g54
(dp2909
sg63
g2894
sg56
(lp2910
g49
(g50
g51
NtRp2911
(dp2912
g54
(dp2913
g62
I3
ssg63
g2907
sg56
(lp2914
g1313
asbasbasbag49
(g65
g51
NtRp2915
(dp2916
g54
(dp2917
sg63
g2407
sg56
(lp2918
g49
(g70
g51
NtRp2919
(dp2920
g54
(dp2921
g74
g75
ssg63
g2915
sg56
(lp2922
S'SERVER_SOFTWARE'
p2923
asbag49
(g70
g51
NtRp2924
(dp2925
g54
(dp2926
g81
g82
ssg63
g2915
sg56
(lp2927
S':'
asbag49
(g70
g51
NtRp2928
(dp2929
g54
(dp2930
sg63
g2915
sg56
(lp2931
g49
(g50
g51
NtRp2932
(dp2933
g54
(dp2934
g62
I3
ssg63
g2928
sg56
(lp2935
g1335
asbasbasbag49
(g65
g51
NtRp2936
(dp2937
g54
(dp2938
sg63
g2407
sg56
(lp2939
g49
(g70
g51
NtRp2940
(dp2941
g54
(dp2942
g74
g75
ssg63
g2936
sg56
(lp2943
S'wsgi.errors'
p2944
asbag49
(g70
g51
NtRp2945
(dp2946
g54
(dp2947
g81
g82
ssg63
g2936
sg56
(lp2948
S':'
asbag49
(g70
g51
NtRp2949
(dp2950
g54
(dp2951
sg63
g2936
sg56
(lp2952
g49
(g50
g51
NtRp2953
(dp2954
g54
(dp2955
g62
I3
ssg63
g2949
sg56
(lp2956
S"<open file '<stderr>', mode 'w' at 0x002B00B0>"
p2957
asbasbasbag49
(g65
g51
NtRp2958
(dp2959
g54
(dp2960
sg63
g2407
sg56
(lp2961
g49
(g70
g51
NtRp2962
(dp2963
g54
(dp2964
g74
g75
ssg63
g2958
sg56
(lp2965
S'wsgi.file_wrapper'
p2966
asbag49
(g70
g51
NtRp2967
(dp2968
g54
(dp2969
g81
g82
ssg63
g2958
sg56
(lp2970
S':'
asbag49
(g70
g51
NtRp2971
(dp2972
g54
(dp2973
sg63
g2958
sg56
(lp2974
g49
(g50
g51
NtRp2975
(dp2976
g54
(dp2977
g62
I3
ssg63
g2971
sg56
(lp2978
S'<class wsgiref.util.FileWrapper at 0x02BF4900>'
p2979
asbasbasbag49
(g65
g51
NtRp2980
(dp2981
g54
(dp2982
sg63
g2407
sg56
(lp2983
g49
(g70
g51
NtRp2984
(dp2985
g54
(dp2986
g74
g75
ssg63
g2980
sg56
(lp2987
S'wsgi.input'
p2988
asbag49
(g70
g51
NtRp2989
(dp2990
g54
(dp2991
g81
g82
ssg63
g2980
sg56
(lp2992
S':'
asbag49
(g70
g51
NtRp2993
(dp2994
g54
(dp2995
sg63
g2980
sg56
(lp2996
g49
(g50
g51
NtRp2997
(dp2998
g54
(dp2999
g62
I3
ssg63
g2993
sg56
(lp3000
S"<open file '<fdopen>', mode 'w+b' at 0x0757BDE8>"
p3001
asbasbasbag49
(g65
g51
NtRp3002
(dp3003
g54
(dp3004
sg63
g2407
sg56
(lp3005
g49
(g70
g51
NtRp3006
(dp3007
g54
(dp3008
g74
g75
ssg63
g3002
sg56
(lp3009
S'wsgi.multiprocess'
p3010
asbag49
(g70
g51
NtRp3011
(dp3012
g54
(dp3013
g81
g82
ssg63
g3002
sg56
(lp3014
S':'
asbag49
(g70
g51
NtRp3015
(dp3016
g54
(dp3017
sg63
g3002
sg56
(lp3018
g49
(g50
g51
NtRp3019
(dp3020
g54
(dp3021
g62
I3
ssg63
g3015
sg56
(lp3022
g92
asbasbasbag49
(g65
g51
NtRp3023
(dp3024
g54
(dp3025
sg63
g2407
sg56
(lp3026
g49
(g70
g51
NtRp3027
(dp3028
g54
(dp3029
g74
g75
ssg63
g3023
sg56
(lp3030
S'wsgi.multithread'
p3031
asbag49
(g70
g51
NtRp3032
(dp3033
g54
(dp3034
g81
g82
ssg63
g3023
sg56
(lp3035
S':'
asbag49
(g70
g51
NtRp3036
(dp3037
g54
(dp3038
sg63
g3023
sg56
(lp3039
g49
(g50
g51
NtRp3040
(dp3041
g54
(dp3042
g62
I3
ssg63
g3036
sg56
(lp3043
g770
asbasbasbag49
(g65
g51
NtRp3044
(dp3045
g54
(dp3046
sg63
g2407
sg56
(lp3047
g49
(g70
g51
NtRp3048
(dp3049
g54
(dp3050
g74
g75
ssg63
g3044
sg56
(lp3051
S'wsgi.run_once'
p3052
asbag49
(g70
g51
NtRp3053
(dp3054
g54
(dp3055
g81
g82
ssg63
g3044
sg56
(lp3056
S':'
asbag49
(g70
g51
NtRp3057
(dp3058
g54
(dp3059
sg63
g3044
sg56
(lp3060
g49
(g50
g51
NtRp3061
(dp3062
g54
(dp3063
g62
I3
ssg63
g3057
sg56
(lp3064
g92
asbasbasbag49
(g65
g51
NtRp3065
(dp3066
g54
(dp3067
sg63
g2407
sg56
(lp3068
g49
(g70
g51
NtRp3069
(dp3070
g54
(dp3071
g74
g75
ssg63
g3065
sg56
(lp3072
S'wsgi.url_scheme'
p3073
asbag49
(g70
g51
NtRp3074
(dp3075
g54
(dp3076
g81
g82
ssg63
g3065
sg56
(lp3077
S':'
asbag49
(g70
g51
NtRp3078
(dp3079
g54
(dp3080
sg63
g3065
sg56
(lp3081
g49
(g50
g51
NtRp3082
(dp3083
g54
(dp3084
g62
I3
ssg63
g3078
sg56
(lp3085
g1617
asbasbasbag49
(g65
g51
NtRp3086
(dp3087
g54
(dp3088
sg63
g2407
sg56
(lp3089
g49
(g70
g51
NtRp3090
(dp3091
g54
(dp3092
g74
g75
ssg63
g3086
sg56
(lp3093
S'wsgi.version'
p3094
asbag49
(g70
g51
NtRp3095
(dp3096
g54
(dp3097
g81
g82
ssg63
g3086
sg56
(lp3098
S':'
asbag49
(g70
g51
NtRp3099
(dp3100
g54
(dp3101
sg63
g3086
sg56
(lp3102
g49
(g50
g51
NtRp3103
(dp3104
g54
(dp3105
g62
I3
ssg63
g3099
sg56
(lp3106
S'1'
asbasbasbasbasbasbasbasbasbasbasbasbasbsS'frames'
p3107
(lp3108
(dp3109
S'file'
p3110
S'C:\\Users\\Bussiere\\Dropbox\\Projets\\jackpoint\\web2py\\gluon\\restricted.py'
p3111
sS'dump'
p3112
(dp3113
sS'lnum'
p3114
I205
sS'lines'
p3115
(dp3116
I200
S'    try:'
p3117
sI201
S'        if type(code) == types.CodeType:'
p3118
sI202
S'            ccode = code'
p3119
sI203
S'        else:'
p3120
sI204
S'            ccode = compile2(code,layer)'
p3121
sI205
S'        exec ccode in environment'
p3122
sI206
S'    except HTTP:'
p3123
sI207
S'        raise'
p3124
sI208
S'    except RestrictedError:'
p3125
sI209
S'        # do not encapsulate (obfuscate) the original RestrictedError'
p3126
ssS'call'
p3127
S"(code='# -*- coding: utf-8 -*-\\n# this file is released ...())\\n\\nresponse._vars=response._caller(invitation)\\n', environment={'A': <class 'gluon.html.A'>, 'Auth': <class 'gluon.tools.Auth'>, 'AutocompleteWidget': <class 'gluon.sqlhtml.AutocompleteWidget'>, 'B': <class 'gluon.html.B'>, 'BEAUTIFY': <class 'gluon.html.BEAUTIFY'>, 'BODY': <class 'gluon.html.BODY'>, 'BR': <class 'gluon.html.BR'>, 'BUTTON': <class 'gluon.html.BUTTON'>, 'BooleanWidget': <class 'gluon.sqlhtml.BooleanWidget'>, 'CALLABLETYPES': (<type 'function'>, <type 'function'>, <type 'builtin_function_or_method'>, <type 'instancemethod'>, <type 'builtin_function_or_method'>), ...}, layer=r'C:\\Users\\Bussiere\\Dropbox\\Projets\\jackpoint\\web2py\\applications\\init\\controllers/default.py')"
p3128
sS'func'
p3129
S'restricted'
p3130
sa(dp3131
g3110
S'C:\\Users\\Bussiere\\Dropbox\\Projets\\jackpoint\\web2py\\applications\\init\\controllers\\default.py'
p3132
sg3112
(dp3133
sg3114
I338
sg3115
(dp3134
I327
S'    http://..../[app]/default/data/update/[table]/[id]'
p3135
sI328
S'    http://..../[app]/default/data/delete/[table]/[id]'
p3136
sI329
S'    http://..../[app]/default/data/select/[table]'
p3137
sI330
S'    http://..../[app]/default/data/search/[table]'
p3138
sI331
S'    but URLs must be signed, i.e. linked with'
p3139
sI332
S"      A('table',_href=URL('data/tables',user_signature=True))"
p3140
sI333
S'    or with the signed load operator'
p3141
sI334
S"      LOAD('default','data.load',args='tables',ajax=True,user_signature=True)"
p3142
sI335
S'    """'
p3143
sI336
S'    return dict(form=crud())'
p3144
ssg3127
S'()'
p3145
sg3129
S'<module>'
p3146
sa(dp3147
g3110
S'C:\\Users\\Bussiere\\Dropbox\\Projets\\jackpoint\\web2py\\gluon\\globals.py'
p3148
sg3112
(dp3149
sg3114
I173
sg3115
(dp3150
I168
S'        self.menu = []             # used by the default view layout'
p3151
sI169
S'        self.files = []            # used by web2py_ajax.html'
p3152
sI170
S'        self.generic_patterns = [] # patterns to allow generic views'
p3153
sI171
S"        self.delimiters = ('{{','}}')"
p3154
sI172
S'        self._vars = None'
p3155
sI173
S'        self._caller = lambda f: f()'
p3156
sI174
S'        self._view_environment = None'
p3157
sI175
S'        self._custom_commit = None'
p3158
sI176
S'        self._custom_rollback = None'
p3159
sI177
S''
ssg3127
S'(f=<function invitation at 0x0798D2B0>)'
p3160
sg3129
S'<lambda>'
p3161
sa(dp3162
g3110
S'C:\\Users\\Bussiere\\Dropbox\\Projets\\jackpoint\\web2py\\applications\\init\\controllers\\default.py'
p3163
sg3112
(dp3164
sg3114
I277
sg3115
(dp3165
I272
S'def invitation():'
p3166
sI273
S'    form=FORM("Code Invitation :", INPUT(_name=\'invitation\'),"<Email :",INPUT(_name=\'email\'),  INPUT(_type=\'submit\'))'
p3167
sI274
S'    if form.process(onvalidation=verif_invitation).accepted and  form.vars.invitation != None  :'
p3168
sI275
S'        print "toto"'
p3169
sI276
S'        user = ensurefirstuser("john_doe",form.vars.email,form.vars.invitation)'
p3170
sI277
S'        auth.user = Storage(auth.settings.table_user._filter_fields(user, id=True))'
p3171
sI278
S'        auth.environment.session.auth = Storage(user=user, last_visit=request.now,'
p3172
sI279
S'                                            expiration=auth.settings.expiration)'
p3173
sI280
S"        redirect(URL('inscription'))"
p3174
sI281
S'    return dict(form=form)'
p3175
ssg3127
S'()'
p3176
sg3129
S'invitation'
p3177
sa(dp3178
g3110
S'C:\\Users\\Bussiere\\Dropbox\\Projets\\jackpoint\\web2py\\gluon\\dal.py'
p3179
sg3112
(dp3180
sg3114
I6683
sg3115
(dp3181
I6678
S'                rtable._referenced_by.append((self._tablename, field.name))'
p3182
sI6679
S'        for referee in pr.get(self._tablename,[]):'
p3183
sI6680
S'            self._referenced_by.append((referee._tablename,referee.name))'
p3184
sI6681
S''
sI6682
S'    def _filter_fields(self, record, id=False):'
p3185
sI6683
S'        return dict([(k, v) for (k, v) in record.items() if k'
p3186
sI6684
S"                     in self.fields and (self[k].type!='id' or id)])"
p3187
sI6685
S''
sI6686
S'    def _build_query(self,key):'
p3188
sI6687
S'        """ for keyed table only """'
p3189
ssg3127
S"(self=<Table {'_db': <DAL {'auth_event': <Table {'orig...on_key': <gluon.dal.Field object at 0x077AB330>}>, record=(1, True), id=True)"
p3190
sg3129
S'_filter_fields'
p3191
sasS'pyver'
p3192
S'Python 2.5.4: C:\\Users\\Bussiere\\Dropbox\\Projets\\jackpoint\\web2py\\web2py.exe'
p3193
sS'session'
p3194
g49
(g50
g51
NtRp3195
(dp3196
g54
(dp3197
sg56
(lp3198
g49
(g58
g51
NtRp3199
(dp3200
g54
(dp3201
g62
I5
ssg63
Nsg56
(lp3202
sbasbsS'etype'
p3203
S"<type 'exceptions.AttributeError'>"
p3204
sS'date'
p3205
S'Sat Mar 24 15:28:41 2012'
p3206
sS'response'
p3207
g49
(g50
g51
NtRp3208
(dp3209
g54
(dp3210
sg56
(lp3211
g49
(g58
g51
NtRp3212
(dp3213
g54
(dp3214
g62
I5
ssg63
Nsg56
(lp3215
g49
(g65
g51
NtRp3216
(dp3217
g54
(dp3218
sg63
g3212
sg56
(lp3219
g49
(g70
g51
NtRp3220
(dp3221
g54
(dp3222
g74
g75
ssg63
g3216
sg56
(lp3223
g147
asbag49
(g70
g51
NtRp3224
(dp3225
g54
(dp3226
g81
g82
ssg63
g3216
sg56
(lp3227
S':'
asbag49
(g70
g51
NtRp3228
(dp3229
g54
(dp3230
sg63
g3216
sg56
(lp3231
g49
(g50
g51
NtRp3232
(dp3233
g54
(dp3234
g62
I5
ssg63
g3228
sg56
(lp3235
S'<cStringIO.StringO object at 0x07AA1660>'
p3236
asbasbasbag49
(g65
g51
NtRp3237
(dp3238
g54
(dp3239
sg63
g3212
sg56
(lp3240
g49
(g70
g51
NtRp3241
(dp3242
g54
(dp3243
g74
g75
ssg63
g3237
sg56
(lp3244
g213
asbag49
(g70
g51
NtRp3245
(dp3246
g54
(dp3247
g81
g82
ssg63
g3237
sg56
(lp3248
S':'
asbag49
(g70
g51
NtRp3249
(dp3250
g54
(dp3251
sg63
g3237
sg56
(lp3252
g49
(g50
g51
NtRp3253
(dp3254
g54
(dp3255
g62
I5
ssg63
g3249
sg56
(lp3256
g49
(g58
g51
NtRp3257
(dp3258
g54
(dp3259
g62
I4
ssg63
Nsg56
(lp3260
g49
(g65
g51
NtRp3261
(dp3262
g54
(dp3263
sg63
g3257
sg56
(lp3264
g49
(g70
g51
NtRp3265
(dp3266
g54
(dp3267
g74
g75
ssg63
g3261
sg56
(lp3268
S'session_id_init'
p3269
asbag49
(g70
g51
NtRp3270
(dp3271
g54
(dp3272
g81
g82
ssg63
g3261
sg56
(lp3273
S':'
asbag49
(g70
g51
NtRp3274
(dp3275
g54
(dp3276
sg63
g3261
sg56
(lp3277
g49
(g50
g51
NtRp3278
(dp3279
g54
(dp3280
g62
I4
ssg63
g3274
sg56
(lp3281
g49
(g58
g51
NtRp3282
(dp3283
g54
(dp3284
g62
I3
ssg63
Nsg56
(lp3285
g49
(g65
g51
NtRp3286
(dp3287
g54
(dp3288
sg63
g3282
sg56
(lp3289
g49
(g70
g51
NtRp3290
(dp3291
g54
(dp3292
g74
g75
ssg63
g3286
sg56
(lp3293
g263
asbag49
(g70
g51
NtRp3294
(dp3295
g54
(dp3296
g81
g82
ssg63
g3286
sg56
(lp3297
S':'
asbag49
(g70
g51
NtRp3298
(dp3299
g54
(dp3300
sg63
g3286
sg56
(lp3301
g49
(g50
g51
NtRp3302
(dp3303
g54
(dp3304
g62
I3
ssg63
g3298
sg56
(lp3305
S''
asbasbasbag49
(g65
g51
NtRp3306
(dp3307
g54
(dp3308
sg63
g3282
sg56
(lp3309
g49
(g70
g51
NtRp3310
(dp3311
g54
(dp3312
g74
g75
ssg63
g3306
sg56
(lp3313
g284
asbag49
(g70
g51
NtRp3314
(dp3315
g54
(dp3316
g81
g82
ssg63
g3306
sg56
(lp3317
S':'
asbag49
(g70
g51
NtRp3318
(dp3319
g54
(dp3320
sg63
g3306
sg56
(lp3321
g49
(g50
g51
NtRp3322
(dp3323
g54
(dp3324
g62
I3
ssg63
g3318
sg56
(lp3325
S''
asbasbasbag49
(g65
g51
NtRp3326
(dp3327
g54
(dp3328
sg63
g3282
sg56
(lp3329
g49
(g70
g51
NtRp3330
(dp3331
g54
(dp3332
g74
g75
ssg63
g3326
sg56
(lp3333
g305
asbag49
(g70
g51
NtRp3334
(dp3335
g54
(dp3336
g81
g82
ssg63
g3326
sg56
(lp3337
S':'
asbag49
(g70
g51
NtRp3338
(dp3339
g54
(dp3340
sg63
g3326
sg56
(lp3341
g49
(g50
g51
NtRp3342
(dp3343
g54
(dp3344
g62
I3
ssg63
g3338
sg56
(lp3345
S''
asbasbasbag49
(g65
g51
NtRp3346
(dp3347
g54
(dp3348
sg63
g3282
sg56
(lp3349
g49
(g70
g51
NtRp3350
(dp3351
g54
(dp3352
g74
g75
ssg63
g3346
sg56
(lp3353
g326
asbag49
(g70
g51
NtRp3354
(dp3355
g54
(dp3356
g81
g82
ssg63
g3346
sg56
(lp3357
S':'
asbag49
(g70
g51
NtRp3358
(dp3359
g54
(dp3360
sg63
g3346
sg56
(lp3361
g49
(g50
g51
NtRp3362
(dp3363
g54
(dp3364
g62
I3
ssg63
g3358
sg56
(lp3365
S''
asbasbasbag49
(g65
g51
NtRp3366
(dp3367
g54
(dp3368
sg63
g3282
sg56
(lp3369
g49
(g70
g51
NtRp3370
(dp3371
g54
(dp3372
g74
g75
ssg63
g3366
sg56
(lp3373
g347
asbag49
(g70
g51
NtRp3374
(dp3375
g54
(dp3376
g81
g82
ssg63
g3366
sg56
(lp3377
S':'
asbag49
(g70
g51
NtRp3378
(dp3379
g54
(dp3380
sg63
g3366
sg56
(lp3381
g49
(g50
g51
NtRp3382
(dp3383
g54
(dp3384
g62
I3
ssg63
g3378
sg56
(lp3385
S'/'
asbasbasbag49
(g65
g51
NtRp3386
(dp3387
g54
(dp3388
sg63
g3282
sg56
(lp3389
g49
(g70
g51
NtRp3390
(dp3391
g54
(dp3392
g74
g75
ssg63
g3386
sg56
(lp3393
g368
asbag49
(g70
g51
NtRp3394
(dp3395
g54
(dp3396
g81
g82
ssg63
g3386
sg56
(lp3397
S':'
asbag49
(g70
g51
NtRp3398
(dp3399
g54
(dp3400
sg63
g3386
sg56
(lp3401
g49
(g50
g51
NtRp3402
(dp3403
g54
(dp3404
g62
I3
ssg63
g3398
sg56
(lp3405
S''
asbasbasbag49
(g65
g51
NtRp3406
(dp3407
g54
(dp3408
sg63
g3282
sg56
(lp3409
g49
(g70
g51
NtRp3410
(dp3411
g54
(dp3412
g74
g75
ssg63
g3406
sg56
(lp3413
g389
asbag49
(g70
g51
NtRp3414
(dp3415
g54
(dp3416
g81
g82
ssg63
g3406
sg56
(lp3417
S':'
asbag49
(g70
g51
NtRp3418
(dp3419
g54
(dp3420
sg63
g3406
sg56
(lp3421
g49
(g50
g51
NtRp3422
(dp3423
g54
(dp3424
g62
I3
ssg63
g3418
sg56
(lp3425
S''
asbasbasbasbasbasbasbasbasbasbasbag49
(g65
g51
NtRp3426
(dp3427
g54
(dp3428
sg63
g3212
sg56
(lp3429
g49
(g70
g51
NtRp3430
(dp3431
g54
(dp3432
g74
g75
ssg63
g3426
sg56
(lp3433
S'delimiters'
p3434
asbag49
(g70
g51
NtRp3435
(dp3436
g54
(dp3437
g81
g82
ssg63
g3426
sg56
(lp3438
S':'
asbag49
(g70
g51
NtRp3439
(dp3440
g54
(dp3441
sg63
g3426
sg56
(lp3442
g49
(g50
g51
NtRp3443
(dp3444
g54
(dp3445
g62
I5
ssg63
g3439
sg56
(lp3446
g49
(g58
g51
NtRp3447
(dp3448
g54
(dp3449
g62
I4
ssg63
Nsg56
(lp3450
g49
(g65
g51
NtRp3451
(dp3452
g54
(dp3453
sg63
g3447
sg56
(lp3454
g49
(g70
g51
NtRp3455
(dp3456
g54
(dp3457
sg63
g3451
sg56
(lp3458
g49
(g50
g51
NtRp3459
(dp3460
g54
(dp3461
g62
I4
ssg63
g3455
sg56
(lp3462
S'{{'
p3463
asbasbasbag49
(g65
g51
NtRp3464
(dp3465
g54
(dp3466
sg63
g3447
sg56
(lp3467
g49
(g70
g51
NtRp3468
(dp3469
g54
(dp3470
sg63
g3464
sg56
(lp3471
g49
(g50
g51
NtRp3472
(dp3473
g54
(dp3474
g62
I4
ssg63
g3468
sg56
(lp3475
S'}}'
p3476
asbasbasbasbasbasbasbag49
(g65
g51
NtRp3477
(dp3478
g54
(dp3479
sg63
g3212
sg56
(lp3480
g49
(g70
g51
NtRp3481
(dp3482
g54
(dp3483
g74
g75
ssg63
g3477
sg56
(lp3484
S'files'
p3485
asbag49
(g70
g51
NtRp3486
(dp3487
g54
(dp3488
g81
g82
ssg63
g3477
sg56
(lp3489
S':'
asbag49
(g70
g51
NtRp3490
(dp3491
g54
(dp3492
sg63
g3477
sg56
(lp3493
g49
(g50
g51
NtRp3494
(dp3495
g54
(dp3496
g62
I5
ssg63
g3490
sg56
(lp3497
g49
(g58
g51
NtRp3498
(dp3499
g54
(dp3500
g62
I4
ssg63
Nsg56
(lp3501
sbasbasbasbag49
(g65
g51
NtRp3502
(dp3503
g54
(dp3504
sg63
g3212
sg56
(lp3505
g49
(g70
g51
NtRp3506
(dp3507
g54
(dp3508
g74
g75
ssg63
g3502
sg56
(lp3509
S'flash'
p3510
asbag49
(g70
g51
NtRp3511
(dp3512
g54
(dp3513
g81
g82
ssg63
g3502
sg56
(lp3514
S':'
asbag49
(g70
g51
NtRp3515
(dp3516
g54
(dp3517
sg63
g3502
sg56
(lp3518
g49
(g50
g51
NtRp3519
(dp3520
g54
(dp3521
g62
I5
ssg63
g3515
sg56
(lp3522
cgluon.languages
lazyT_unpickle
p3523
(S's\x08\x00\x00\x00Success!'
tRp3524
asbasbasbag49
(g65
g51
NtRp3525
(dp3526
g54
(dp3527
sg63
g3212
sg56
(lp3528
g49
(g70
g51
NtRp3529
(dp3530
g54
(dp3531
g74
g75
ssg63
g3525
sg56
(lp3532
S'generic_patterns'
p3533
asbag49
(g70
g51
NtRp3534
(dp3535
g54
(dp3536
g81
g82
ssg63
g3525
sg56
(lp3537
S':'
asbag49
(g70
g51
NtRp3538
(dp3539
g54
(dp3540
sg63
g3525
sg56
(lp3541
g49
(g50
g51
NtRp3542
(dp3543
g54
(dp3544
g62
I5
ssg63
g3538
sg56
(lp3545
g49
(g58
g51
NtRp3546
(dp3547
g54
(dp3548
g62
I4
ssg63
Nsg56
(lp3549
g49
(g65
g51
NtRp3550
(dp3551
g54
(dp3552
sg63
g3546
sg56
(lp3553
g49
(g70
g51
NtRp3554
(dp3555
g54
(dp3556
sg63
g3550
sg56
(lp3557
g49
(g50
g51
NtRp3558
(dp3559
g54
(dp3560
g62
I4
ssg63
g3554
sg56
(lp3561
S'*'
asbasbasbasbasbasbasbag49
(g65
g51
NtRp3562
(dp3563
g54
(dp3564
sg63
g3212
sg56
(lp3565
g49
(g70
g51
NtRp3566
(dp3567
g54
(dp3568
g74
g75
ssg63
g3562
sg56
(lp3569
S'headers'
p3570
asbag49
(g70
g51
NtRp3571
(dp3572
g54
(dp3573
g81
g82
ssg63
g3562
sg56
(lp3574
S':'
asbag49
(g70
g51
NtRp3575
(dp3576
g54
(dp3577
sg63
g3562
sg56
(lp3578
g49
(g50
g51
NtRp3579
(dp3580
g54
(dp3581
g62
I5
ssg63
g3575
sg56
(lp3582
g49
(g58
g51
NtRp3583
(dp3584
g54
(dp3585
g62
I4
ssg63
Nsg56
(lp3586
g49
(g65
g51
NtRp3587
(dp3588
g54
(dp3589
sg63
g3583
sg56
(lp3590
g49
(g70
g51
NtRp3591
(dp3592
g54
(dp3593
g74
g75
ssg63
g3587
sg56
(lp3594
S'Cache-Control'
p3595
asbag49
(g70
g51
NtRp3596
(dp3597
g54
(dp3598
g81
g82
ssg63
g3587
sg56
(lp3599
S':'
asbag49
(g70
g51
NtRp3600
(dp3601
g54
(dp3602
sg63
g3587
sg56
(lp3603
g49
(g50
g51
NtRp3604
(dp3605
g54
(dp3606
g62
I4
ssg63
g3600
sg56
(lp3607
S'no-store, no-cache, must-revalidate, post-check=0, pre-check=0'
p3608
asbasbasbag49
(g65
g51
NtRp3609
(dp3610
g54
(dp3611
sg63
g3583
sg56
(lp3612
g49
(g70
g51
NtRp3613
(dp3614
g54
(dp3615
g74
g75
ssg63
g3609
sg56
(lp3616
S'Content-Type'
p3617
asbag49
(g70
g51
NtRp3618
(dp3619
g54
(dp3620
g81
g82
ssg63
g3609
sg56
(lp3621
S':'
asbag49
(g70
g51
NtRp3622
(dp3623
g54
(dp3624
sg63
g3609
sg56
(lp3625
g49
(g50
g51
NtRp3626
(dp3627
g54
(dp3628
g62
I4
ssg63
g3622
sg56
(lp3629
S'text/html; charset=utf-8'
p3630
asbasbasbag49
(g65
g51
NtRp3631
(dp3632
g54
(dp3633
sg63
g3583
sg56
(lp3634
g49
(g70
g51
NtRp3635
(dp3636
g54
(dp3637
g74
g75
ssg63
g3631
sg56
(lp3638
S'Expires'
p3639
asbag49
(g70
g51
NtRp3640
(dp3641
g54
(dp3642
g81
g82
ssg63
g3631
sg56
(lp3643
S':'
asbag49
(g70
g51
NtRp3644
(dp3645
g54
(dp3646
sg63
g3631
sg56
(lp3647
g49
(g50
g51
NtRp3648
(dp3649
g54
(dp3650
g62
I4
ssg63
g3644
sg56
(lp3651
S'Sat, 24 Mar 2012 14:28:40 GMT'
p3652
asbasbasbag49
(g65
g51
NtRp3653
(dp3654
g54
(dp3655
sg63
g3583
sg56
(lp3656
g49
(g70
g51
NtRp3657
(dp3658
g54
(dp3659
g74
g75
ssg63
g3653
sg56
(lp3660
S'Pragma'
p3661
asbag49
(g70
g51
NtRp3662
(dp3663
g54
(dp3664
g81
g82
ssg63
g3653
sg56
(lp3665
S':'
asbag49
(g70
g51
NtRp3666
(dp3667
g54
(dp3668
sg63
g3653
sg56
(lp3669
g49
(g50
g51
NtRp3670
(dp3671
g54
(dp3672
g62
I4
ssg63
g3666
sg56
(lp3673
S'no-cache'
p3674
asbasbasbag49
(g65
g51
NtRp3675
(dp3676
g54
(dp3677
sg63
g3583
sg56
(lp3678
g49
(g70
g51
NtRp3679
(dp3680
g54
(dp3681
g74
g75
ssg63
g3675
sg56
(lp3682
S'X-Powered-By'
p3683
asbag49
(g70
g51
NtRp3684
(dp3685
g54
(dp3686
g81
g82
ssg63
g3675
sg56
(lp3687
S':'
asbag49
(g70
g51
NtRp3688
(dp3689
g54
(dp3690
sg63
g3675
sg56
(lp3691
g49
(g50
g51
NtRp3692
(dp3693
g54
(dp3694
g62
I4
ssg63
g3688
sg56
(lp3695
S'web2py'
p3696
asbasbasbasbasbasbasbag49
(g65
g51
NtRp3697
(dp3698
g54
(dp3699
sg63
g3212
sg56
(lp3700
g49
(g70
g51
NtRp3701
(dp3702
g54
(dp3703
g74
g75
ssg63
g3697
sg56
(lp3704
S'menu'
p3705
asbag49
(g70
g51
NtRp3706
(dp3707
g54
(dp3708
g81
g82
ssg63
g3697
sg56
(lp3709
S':'
asbag49
(g70
g51
NtRp3710
(dp3711
g54
(dp3712
sg63
g3697
sg56
(lp3713
g49
(g50
g51
NtRp3714
(dp3715
g54
(dp3716
g62
I5
ssg63
g3710
sg56
(lp3717
g49
(g58
g51
NtRp3718
(dp3719
g54
(dp3720
g62
I4
ssg63
Nsg56
(lp3721
g49
(g65
g51
NtRp3722
(dp3723
g54
(dp3724
sg63
g3718
sg56
(lp3725
g49
(g70
g51
NtRp3726
(dp3727
g54
(dp3728
sg63
g3722
sg56
(lp3729
g49
(g50
g51
NtRp3730
(dp3731
g54
(dp3732
g62
I4
ssg63
g3726
sg56
(lp3733
g49
(g58
g51
NtRp3734
(dp3735
g54
(dp3736
g62
I3
ssg63
Nsg56
(lp3737
g49
(g65
g51
NtRp3738
(dp3739
g54
(dp3740
sg63
g3734
sg56
(lp3741
g49
(g70
g51
NtRp3742
(dp3743
g54
(dp3744
sg63
g3738
sg56
(lp3745
g49
(g50
g51
NtRp3746
(dp3747
g54
(dp3748
g62
I3
ssg63
g3742
sg56
(lp3749
g3523
(S's\x04\x00\x00\x00Home'
tRp3750
asbasbasbag49
(g65
g51
NtRp3751
(dp3752
g54
(dp3753
sg63
g3734
sg56
(lp3754
g49
(g70
g51
NtRp3755
(dp3756
g54
(dp3757
sg63
g3751
sg56
(lp3758
g49
(g50
g51
NtRp3759
(dp3760
g54
(dp3761
g62
I3
ssg63
g3755
sg56
(lp3762
g92
asbasbasbag49
(g65
g51
NtRp3763
(dp3764
g54
(dp3765
sg63
g3734
sg56
(lp3766
g49
(g70
g51
NtRp3767
(dp3768
g54
(dp3769
sg63
g3763
sg56
(lp3770
g49
(g50
g51
NtRp3771
(dp3772
g54
(dp3773
g62
I3
ssg63
g3767
sg56
(lp3774
S'/init/default/index'
p3775
asbasbasbag49
(g65
g51
NtRp3776
(dp3777
g54
(dp3778
sg63
g3734
sg56
(lp3779
g49
(g70
g51
NtRp3780
(dp3781
g54
(dp3782
sg63
g3776
sg56
(lp3783
g49
(g50
g51
NtRp3784
(dp3785
g54
(dp3786
g62
I3
ssg63
g3780
sg56
(lp3787
g49
(g58
g51
NtRp3788
(dp3789
g54
(dp3790
g62
I2
ssg63
Nsg56
(lp3791
sbasbasbasbasbasbasbasbag49
(g65
g51
NtRp3792
(dp3793
g54
(dp3794
sg63
g3718
sg56
(lp3795
g49
(g70
g51
NtRp3796
(dp3797
g54
(dp3798
sg63
g3792
sg56
(lp3799
g49
(g50
g51
NtRp3800
(dp3801
g54
(dp3802
g62
I4
ssg63
g3796
sg56
(lp3803
g49
(g58
g51
NtRp3804
(dp3805
g54
(dp3806
g62
I3
ssg63
Nsg56
(lp3807
g49
(g65
g51
NtRp3808
(dp3809
g54
(dp3810
sg63
g3804
sg56
(lp3811
g49
(g70
g51
NtRp3812
(dp3813
g54
(dp3814
sg63
g3808
sg56
(lp3815
g49
(g50
g51
NtRp3816
(dp3817
g54
(dp3818
g62
I3
ssg63
g3812
sg56
(lp3819
g49
(cgluon.html
SPAN
p3820
g51
NtRp3821
(dp3822
g54
(dp3823
g74
S'color:yellow'
p3824
ssg63
Nsg56
(lp3825
g3696
asbasbasbasbag49
(g65
g51
NtRp3826
(dp3827
g54
(dp3828
sg63
g3804
sg56
(lp3829
g49
(g70
g51
NtRp3830
(dp3831
g54
(dp3832
sg63
g3826
sg56
(lp3833
g49
(g50
g51
NtRp3834
(dp3835
g54
(dp3836
g62
I3
ssg63
g3830
sg56
(lp3837
g92
asbasbasbag49
(g65
g51
NtRp3838
(dp3839
g54
(dp3840
sg63
g3804
sg56
(lp3841
g49
(g70
g51
NtRp3842
(dp3843
g54
(dp3844
sg63
g3838
sg56
(lp3845
g49
(g50
g51
NtRp3846
(dp3847
g54
(dp3848
g62
I3
ssg63
g3842
sg56
(lp3849
S'None'
p3850
asbasbasbag49
(g65
g51
NtRp3851
(dp3852
g54
(dp3853
sg63
g3804
sg56
(lp3854
g49
(g70
g51
NtRp3855
(dp3856
g54
(dp3857
sg63
g3851
sg56
(lp3858
g49
(g50
g51
NtRp3859
(dp3860
g54
(dp3861
g62
I3
ssg63
g3855
sg56
(lp3862
g49
(g58
g51
NtRp3863
(dp3864
g54
(dp3865
g62
I2
ssg63
Nsg56
(lp3866
g49
(g65
g51
NtRp3867
(dp3868
g54
(dp3869
sg63
g3863
sg56
(lp3870
g49
(g70
g51
NtRp3871
(dp3872
g54
(dp3873
sg63
g3867
sg56
(lp3874
g49
(g50
g51
NtRp3875
(dp3876
g54
(dp3877
g62
I2
ssg63
g3871
sg56
(lp3878
g49
(g58
g51
NtRp3879
(dp3880
g54
(dp3881
g62
I1
ssg63
Nsg56
(lp3882
g49
(g65
g51
NtRp3883
(dp3884
g54
(dp3885
sg63
g3879
sg56
(lp3886
g49
(g70
g51
NtRp3887
(dp3888
g54
(dp3889
sg63
g3883
sg56
(lp3890
g49
(g50
g51
NtRp3891
(dp3892
g54
(dp3893
g62
I1
ssg63
g3887
sg56
(lp3894
g3523
(S's\x08\x00\x00\x00My Sites'
tRp3895
asbasbasbag49
(g65
g51
NtRp3896
(dp3897
g54
(dp3898
sg63
g3879
sg56
(lp3899
g49
(g70
g51
NtRp3900
(dp3901
g54
(dp3902
sg63
g3896
sg56
(lp3903
g49
(g50
g51
NtRp3904
(dp3905
g54
(dp3906
g62
I1
ssg63
g3900
sg56
(lp3907
I00
asbasbasbag49
(g65
g51
NtRp3908
(dp3909
g54
(dp3910
sg63
g3879
sg56
(lp3911
g49
(g70
g51
NtRp3912
(dp3913
g54
(dp3914
sg63
g3908
sg56
(lp3915
g49
(g50
g51
NtRp3916
(dp3917
g54
(dp3918
g62
I1
ssg63
g3912
sg56
(lp3919
S'/admin/default/site'
p3920
asbasbasbasbasbasbasbag49
(g65
g51
NtRp3921
(dp3922
g54
(dp3923
sg63
g3863
sg56
(lp3924
g49
(g70
g51
NtRp3925
(dp3926
g54
(dp3927
sg63
g3921
sg56
(lp3928
g49
(g50
g51
NtRp3929
(dp3930
g54
(dp3931
g62
I2
ssg63
g3925
sg56
(lp3932
g49
(g58
g51
NtRp3933
(dp3934
g54
(dp3935
g62
I1
ssg63
Nsg56
(lp3936
g49
(g65
g51
NtRp3937
(dp3938
g54
(dp3939
sg63
g3933
sg56
(lp3940
g49
(g70
g51
NtRp3941
(dp3942
g54
(dp3943
sg63
g3937
sg56
(lp3944
g49
(g50
g51
NtRp3945
(dp3946
g54
(dp3947
g62
I1
ssg63
g3941
sg56
(lp3948
g3523
(S's\x08\x00\x00\x00This App'
tRp3949
asbasbasbag49
(g65
g51
NtRp3950
(dp3951
g54
(dp3952
sg63
g3933
sg56
(lp3953
g49
(g70
g51
NtRp3954
(dp3955
g54
(dp3956
sg63
g3950
sg56
(lp3957
g49
(g50
g51
NtRp3958
(dp3959
g54
(dp3960
g62
I1
ssg63
g3954
sg56
(lp3961
I00
asbasbasbag49
(g65
g51
NtRp3962
(dp3963
g54
(dp3964
sg63
g3933
sg56
(lp3965
g49
(g70
g51
NtRp3966
(dp3967
g54
(dp3968
sg63
g3962
sg56
(lp3969
g49
(g50
g51
NtRp3970
(dp3971
g54
(dp3972
g62
I1
ssg63
g3966
sg56
(lp3973
S'/admin/default/design/init'
p3974
asbasbasbag49
(g65
g51
NtRp3975
(dp3976
g54
(dp3977
sg63
g3933
sg56
(lp3978
g49
(g70
g51
NtRp3979
(dp3980
g54
(dp3981
sg63
g3975
sg56
(lp3982
g49
(g50
g51
NtRp3983
(dp3984
g54
(dp3985
g62
I1
ssg63
g3979
sg56
(lp3986
(lp3987
(g3523
(S's\n\x00\x00\x00Controller'
tRp3988
I00
S'/admin/default/edit/init/controllers/default.py'
tp3989
a(g3523
(S's\x04\x00\x00\x00View'
tRp3990
I00
S'/admin/default/edit/init/views/default/invitation.html'
tp3991
a(g3523
(S's\x06\x00\x00\x00Layout'
tRp3992
I00
S'/admin/default/edit/init/views/layout.html'
tp3993
a(g3523
(S's\n\x00\x00\x00Stylesheet'
tRp3994
I00
S'/admin/default/edit/init/static/css/web2py.css'
tp3995
a(g3523
(S's\x08\x00\x00\x00DB Model'
tRp3996
I00
S'/admin/default/edit/init/models/db.py'
tp3997
a(g3523
(S's\n\x00\x00\x00Menu Model'
tRp3998
I00
S'/admin/default/edit/init/models/menu.py'
tp3999
a(g3523
(S's\x08\x00\x00\x00Database'
tRp4000
I00
S'/init/appadmin/index'
tp4001
a(g3523
(S's\x06\x00\x00\x00Errors'
tRp4002
I00
S'/admin/default/errors/init'
tp4003
a(g3523
(S's\x05\x00\x00\x00About'
tRp4004
I00
S'/admin/default/about/init'
tp4005
aasbasbasbasbasbasbasbag49
(g65
g51
NtRp4006
(dp4007
g54
(dp4008
sg63
g3863
sg56
(lp4009
g49
(g70
g51
NtRp4010
(dp4011
g54
(dp4012
sg63
g4006
sg56
(lp4013
g49
(g50
g51
NtRp4014
(dp4015
g54
(dp4016
g62
I2
ssg63
g4010
sg56
(lp4017
g49
(g58
g51
NtRp4018
(dp4019
g54
(dp4020
g62
I1
ssg63
Nsg56
(lp4021
g49
(g65
g51
NtRp4022
(dp4023
g54
(dp4024
sg63
g4018
sg56
(lp4025
g49
(g70
g51
NtRp4026
(dp4027
g54
(dp4028
sg63
g4022
sg56
(lp4029
g49
(g50
g51
NtRp4030
(dp4031
g54
(dp4032
g62
I1
ssg63
g4026
sg56
(lp4033
S'web2py.com'
p4034
asbasbasbag49
(g65
g51
NtRp4035
(dp4036
g54
(dp4037
sg63
g4018
sg56
(lp4038
g49
(g70
g51
NtRp4039
(dp4040
g54
(dp4041
sg63
g4035
sg56
(lp4042
g49
(g50
g51
NtRp4043
(dp4044
g54
(dp4045
g62
I1
ssg63
g4039
sg56
(lp4046
I00
asbasbasbag49
(g65
g51
NtRp4047
(dp4048
g54
(dp4049
sg63
g4018
sg56
(lp4050
g49
(g70
g51
NtRp4051
(dp4052
g54
(dp4053
sg63
g4047
sg56
(lp4054
g49
(g50
g51
NtRp4055
(dp4056
g54
(dp4057
g62
I1
ssg63
g4051
sg56
(lp4058
S'http://www.web2py.com'
p4059
asbasbasbag49
(g65
g51
NtRp4060
(dp4061
g54
(dp4062
sg63
g4018
sg56
(lp4063
g49
(g70
g51
NtRp4064
(dp4065
g54
(dp4066
sg63
g4060
sg56
(lp4067
g49
(g50
g51
NtRp4068
(dp4069
g54
(dp4070
g62
I1
ssg63
g4064
sg56
(lp4071
(lp4072
(g3523
(S's\x08\x00\x00\x00Download'
tRp4073
I00
S'http://www.web2py.com/examples/default/download'
p4074
tp4075
a(g3523
(S's\x07\x00\x00\x00Support'
tRp4076
I00
S'http://www.web2py.com/examples/default/support'
p4077
tp4078
a(g3523
(S's\x04\x00\x00\x00Demo'
tRp4079
I00
S'http://web2py.com/demo_admin'
p4080
tp4081
a(g3523
(S's\x0e\x00\x00\x00Quick Examples'
tRp4082
I00
S'http://web2py.com/examples/default/examples'
p4083
tp4084
a(g3523
(S's\x03\x00\x00\x00FAQ'
tRp4085
I00
S'http://web2py.com/AlterEgo'
p4086
tp4087
a(g3523
(S's\x06\x00\x00\x00Videos'
tRp4088
I00
S'http://www.web2py.com/examples/default/videos/'
p4089
tp4090
a(g3523
(S's\x11\x00\x00\x00Free Applications'
tRp4091
I00
S'http://web2py.com/appliances'
p4092
tp4093
a(g3523
(S's\x07\x00\x00\x00Plugins'
tRp4094
I00
S'http://web2py.com/plugins'
p4095
tp4096
a(g3523
(S's\x07\x00\x00\x00Layouts'
tRp4097
I00
S'http://web2py.com/layouts'
p4098
tp4099
a(g3523
(S's\x07\x00\x00\x00Recipes'
tRp4100
I00
S'http://web2pyslices.com/'
p4101
tp4102
a(g3523
(S's\x08\x00\x00\x00Semantic'
tRp4103
I00
S'http://web2py.com/semantic'
p4104
tp4105
aasbasbasbasbasbasbasbag49
(g65
g51
NtRp4106
(dp4107
g54
(dp4108
sg63
g3863
sg56
(lp4109
g49
(g70
g51
NtRp4110
(dp4111
g54
(dp4112
sg63
g4106
sg56
(lp4113
g49
(g50
g51
NtRp4114
(dp4115
g54
(dp4116
g62
I2
ssg63
g4110
sg56
(lp4117
g49
(g58
g51
NtRp4118
(dp4119
g54
(dp4120
g62
I1
ssg63
Nsg56
(lp4121
g49
(g65
g51
NtRp4122
(dp4123
g54
(dp4124
sg63
g4118
sg56
(lp4125
g49
(g70
g51
NtRp4126
(dp4127
g54
(dp4128
sg63
g4122
sg56
(lp4129
g49
(g50
g51
NtRp4130
(dp4131
g54
(dp4132
g62
I1
ssg63
g4126
sg56
(lp4133
g3523
(S's\r\x00\x00\x00Documentation'
tRp4134
asbasbasbag49
(g65
g51
NtRp4135
(dp4136
g54
(dp4137
sg63
g4118
sg56
(lp4138
g49
(g70
g51
NtRp4139
(dp4140
g54
(dp4141
sg63
g4135
sg56
(lp4142
g49
(g50
g51
NtRp4143
(dp4144
g54
(dp4145
g62
I1
ssg63
g4139
sg56
(lp4146
I00
asbasbasbag49
(g65
g51
NtRp4147
(dp4148
g54
(dp4149
sg63
g4118
sg56
(lp4150
g49
(g70
g51
NtRp4151
(dp4152
g54
(dp4153
sg63
g4147
sg56
(lp4154
g49
(g50
g51
NtRp4155
(dp4156
g54
(dp4157
g62
I1
ssg63
g4151
sg56
(lp4158
S'http://www.web2py.com/book'
p4159
asbasbasbag49
(g65
g51
NtRp4160
(dp4161
g54
(dp4162
sg63
g4118
sg56
(lp4163
g49
(g70
g51
NtRp4164
(dp4165
g54
(dp4166
sg63
g4160
sg56
(lp4167
g49
(g50
g51
NtRp4168
(dp4169
g54
(dp4170
g62
I1
ssg63
g4164
sg56
(lp4171
(lp4172
(g3523
(S's\x07\x00\x00\x00Preface'
tRp4173
I00
S'http://www.web2py.com/book/default/chapter/00'
p4174
tp4175
a(g3523
(S's\x0c\x00\x00\x00Introduction'
tRp4176
I00
S'http://www.web2py.com/book/default/chapter/01'
p4177
tp4178
a(g3523
(S's\x06\x00\x00\x00Python'
tRp4179
I00
S'http://www.web2py.com/book/default/chapter/02'
p4180
tp4181
a(g3523
(S's\x08\x00\x00\x00Overview'
tRp4182
I00
S'http://www.web2py.com/book/default/chapter/03'
p4183
tp4184
a(g3523
(S's\x08\x00\x00\x00The Core'
tRp4185
I00
S'http://www.web2py.com/book/default/chapter/04'
p4186
tp4187
a(g3523
(S's\t\x00\x00\x00The Views'
tRp4188
I00
S'http://www.web2py.com/book/default/chapter/05'
p4189
tp4190
a(g3523
(S's\x08\x00\x00\x00Database'
tRp4191
I00
S'http://www.web2py.com/book/default/chapter/06'
p4192
tp4193
a(g3523
(S's\x14\x00\x00\x00Forms and Validators'
tRp4194
I00
S'http://www.web2py.com/book/default/chapter/07'
p4195
tp4196
a(g3523
(S's\r\x00\x00\x00Email and SMS'
tRp4197
I00
S'http://www.web2py.com/book/default/chapter/08'
p4198
tp4199
a(g3523
(S's\x0e\x00\x00\x00Access Control'
tRp4200
I00
S'http://www.web2py.com/book/default/chapter/09'
p4201
tp4202
a(g3523
(S's\x08\x00\x00\x00Services'
tRp4203
I00
S'http://www.web2py.com/book/default/chapter/10'
p4204
tp4205
a(g3523
(S's\x0c\x00\x00\x00Ajax Recipes'
tRp4206
I00
S'http://www.web2py.com/book/default/chapter/11'
p4207
tp4208
a(g3523
(S's\x16\x00\x00\x00Components and Plugins'
tRp4209
I00
S'http://www.web2py.com/book/default/chapter/12'
p4210
tp4211
a(g3523
(S's\x12\x00\x00\x00Deployment Recipes'
tRp4212
I00
S'http://www.web2py.com/book/default/chapter/13'
p4213
tp4214
a(g3523
(S's\r\x00\x00\x00Other Recipes'
tRp4215
I00
S'http://www.web2py.com/book/default/chapter/14'
p4216
tp4217
a(g3523
(S's\r\x00\x00\x00Buy this book'
tRp4218
I00
S'http://stores.lulu.com/web2py'
p4219
tp4220
aasbasbasbasbasbasbasbag49
(g65
g51
NtRp4221
(dp4222
g54
(dp4223
sg63
g3863
sg56
(lp4224
g49
(g70
g51
NtRp4225
(dp4226
g54
(dp4227
sg63
g4221
sg56
(lp4228
g49
(g50
g51
NtRp4229
(dp4230
g54
(dp4231
g62
I2
ssg63
g4225
sg56
(lp4232
g49
(g58
g51
NtRp4233
(dp4234
g54
(dp4235
g62
I1
ssg63
Nsg56
(lp4236
g49
(g65
g51
NtRp4237
(dp4238
g54
(dp4239
sg63
g4233
sg56
(lp4240
g49
(g70
g51
NtRp4241
(dp4242
g54
(dp4243
sg63
g4237
sg56
(lp4244
g49
(g50
g51
NtRp4245
(dp4246
g54
(dp4247
g62
I1
ssg63
g4241
sg56
(lp4248
g3523
(S's\t\x00\x00\x00Community'
tRp4249
asbasbasbag49
(g65
g51
NtRp4250
(dp4251
g54
(dp4252
sg63
g4233
sg56
(lp4253
g49
(g70
g51
NtRp4254
(dp4255
g54
(dp4256
sg63
g4250
sg56
(lp4257
g49
(g50
g51
NtRp4258
(dp4259
g54
(dp4260
g62
I1
ssg63
g4254
sg56
(lp4261
I00
asbasbasbag49
(g65
g51
NtRp4262
(dp4263
g54
(dp4264
sg63
g4233
sg56
(lp4265
g49
(g70
g51
NtRp4266
(dp4267
g54
(dp4268
sg63
g4262
sg56
(lp4269
g49
(g50
g51
NtRp4270
(dp4271
g54
(dp4272
g62
I1
ssg63
g4266
sg56
(lp4273
Nasbasbasbag49
(g65
g51
NtRp4274
(dp4275
g54
(dp4276
sg63
g4233
sg56
(lp4277
g49
(g70
g51
NtRp4278
(dp4279
g54
(dp4280
sg63
g4274
sg56
(lp4281
g49
(g50
g51
NtRp4282
(dp4283
g54
(dp4284
g62
I1
ssg63
g4278
sg56
(lp4285
(lp4286
(g3523
(S's\x06\x00\x00\x00Groups'
tRp4287
I00
S'http://www.web2py.com/examples/default/usergroups'
p4288
tp4289
a(g3523
(S's\x07\x00\x00\x00Twitter'
tRp4290
I00
S'http://twitter.com/web2py'
p4291
tp4292
a(g3523
(S's\t\x00\x00\x00Live Chat'
tRp4293
I00
S'http://webchat.freenode.net/?channels=web2py'
p4294
tp4295
aasbasbasbasbasbasbasbag49
(g65
g51
NtRp4296
(dp4297
g54
(dp4298
sg63
g3863
sg56
(lp4299
g49
(g70
g51
NtRp4300
(dp4301
g54
(dp4302
sg63
g4296
sg56
(lp4303
g49
(g50
g51
NtRp4304
(dp4305
g54
(dp4306
g62
I2
ssg63
g4300
sg56
(lp4307
g49
(g58
g51
NtRp4308
(dp4309
g54
(dp4310
g62
I1
ssg63
Nsg56
(lp4311
g49
(g65
g51
NtRp4312
(dp4313
g54
(dp4314
sg63
g4308
sg56
(lp4315
g49
(g70
g51
NtRp4316
(dp4317
g54
(dp4318
sg63
g4312
sg56
(lp4319
g49
(g50
g51
NtRp4320
(dp4321
g54
(dp4322
g62
I1
ssg63
g4316
sg56
(lp4323
g3523
(S's\x07\x00\x00\x00Plugins'
tRp4324
asbasbasbag49
(g65
g51
NtRp4325
(dp4326
g54
(dp4327
sg63
g4308
sg56
(lp4328
g49
(g70
g51
NtRp4329
(dp4330
g54
(dp4331
sg63
g4325
sg56
(lp4332
g49
(g50
g51
NtRp4333
(dp4334
g54
(dp4335
g62
I1
ssg63
g4329
sg56
(lp4336
I00
asbasbasbag49
(g65
g51
NtRp4337
(dp4338
g54
(dp4339
sg63
g4308
sg56
(lp4340
g49
(g70
g51
NtRp4341
(dp4342
g54
(dp4343
sg63
g4337
sg56
(lp4344
g49
(g50
g51
NtRp4345
(dp4346
g54
(dp4347
g62
I1
ssg63
g4341
sg56
(lp4348
Nasbasbasbag49
(g65
g51
NtRp4349
(dp4350
g54
(dp4351
sg63
g4308
sg56
(lp4352
g49
(g70
g51
NtRp4353
(dp4354
g54
(dp4355
sg63
g4349
sg56
(lp4356
g49
(g50
g51
NtRp4357
(dp4358
g54
(dp4359
g62
I1
ssg63
g4353
sg56
(lp4360
(lp4361
(S'plugin_wiki'
p4362
I00
S'http://web2py.com/examples/default/download'
p4363
tp4364
a(g3523
(S's\r\x00\x00\x00Other Plugins'
tRp4365
I00
g4095
tp4366
a(g3523
(S's\x0e\x00\x00\x00Layout Plugins'
tRp4367
I00
g4098
tp4368
aasbasbasbasbasbasbasbasbasbasbasbasbasbasbasbasbasbasbasbag49
(g65
g51
NtRp4369
(dp4370
g54
(dp4371
sg63
g3212
sg56
(lp4372
g49
(g70
g51
NtRp4373
(dp4374
g54
(dp4375
g74
g75
ssg63
g4369
sg56
(lp4376
S'meta'
p4377
asbag49
(g70
g51
NtRp4378
(dp4379
g54
(dp4380
g81
g82
ssg63
g4369
sg56
(lp4381
S':'
asbag49
(g70
g51
NtRp4382
(dp4383
g54
(dp4384
sg63
g4369
sg56
(lp4385
g49
(g50
g51
NtRp4386
(dp4387
g54
(dp4388
g62
I5
ssg63
g4382
sg56
(lp4389
g49
(g58
g51
NtRp4390
(dp4391
g54
(dp4392
g62
I4
ssg63
Nsg56
(lp4393
g49
(g65
g51
NtRp4394
(dp4395
g54
(dp4396
sg63
g4390
sg56
(lp4397
g49
(g70
g51
NtRp4398
(dp4399
g54
(dp4400
g74
g75
ssg63
g4394
sg56
(lp4401
S'author'
p4402
asbag49
(g70
g51
NtRp4403
(dp4404
g54
(dp4405
g81
g82
ssg63
g4394
sg56
(lp4406
S':'
asbag49
(g70
g51
NtRp4407
(dp4408
g54
(dp4409
sg63
g4394
sg56
(lp4410
g49
(g50
g51
NtRp4411
(dp4412
g54
(dp4413
g62
I4
ssg63
g4407
sg56
(lp4414
S'Your Name <you@example.com>'
p4415
asbasbasbag49
(g65
g51
NtRp4416
(dp4417
g54
(dp4418
sg63
g4390
sg56
(lp4419
g49
(g70
g51
NtRp4420
(dp4421
g54
(dp4422
g74
g75
ssg63
g4416
sg56
(lp4423
S'copyright'
p4424
asbag49
(g70
g51
NtRp4425
(dp4426
g54
(dp4427
g81
g82
ssg63
g4416
sg56
(lp4428
S':'
asbag49
(g70
g51
NtRp4429
(dp4430
g54
(dp4431
sg63
g4416
sg56
(lp4432
g49
(g50
g51
NtRp4433
(dp4434
g54
(dp4435
g62
I4
ssg63
g4429
sg56
(lp4436
S'Copyright 2011'
p4437
asbasbasbag49
(g65
g51
NtRp4438
(dp4439
g54
(dp4440
sg63
g4390
sg56
(lp4441
g49
(g70
g51
NtRp4442
(dp4443
g54
(dp4444
g74
g75
ssg63
g4438
sg56
(lp4445
S'description'
p4446
asbag49
(g70
g51
NtRp4447
(dp4448
g54
(dp4449
g81
g82
ssg63
g4438
sg56
(lp4450
S':'
asbag49
(g70
g51
NtRp4451
(dp4452
g54
(dp4453
sg63
g4438
sg56
(lp4454
g49
(g50
g51
NtRp4455
(dp4456
g54
(dp4457
g62
I4
ssg63
g4451
sg56
(lp4458
S'a cool new app'
p4459
asbasbasbag49
(g65
g51
NtRp4460
(dp4461
g54
(dp4462
sg63
g4390
sg56
(lp4463
g49
(g70
g51
NtRp4464
(dp4465
g54
(dp4466
g74
g75
ssg63
g4460
sg56
(lp4467
S'generator'
p4468
asbag49
(g70
g51
NtRp4469
(dp4470
g54
(dp4471
g81
g82
ssg63
g4460
sg56
(lp4472
S':'
asbag49
(g70
g51
NtRp4473
(dp4474
g54
(dp4475
sg63
g4460
sg56
(lp4476
g49
(g50
g51
NtRp4477
(dp4478
g54
(dp4479
g62
I4
ssg63
g4473
sg56
(lp4480
S'Web2py Web Framework'
p4481
asbasbasbag49
(g65
g51
NtRp4482
(dp4483
g54
(dp4484
sg63
g4390
sg56
(lp4485
g49
(g70
g51
NtRp4486
(dp4487
g54
(dp4488
g74
g75
ssg63
g4482
sg56
(lp4489
S'keywords'
p4490
asbag49
(g70
g51
NtRp4491
(dp4492
g54
(dp4493
g81
g82
ssg63
g4482
sg56
(lp4494
S':'
asbag49
(g70
g51
NtRp4495
(dp4496
g54
(dp4497
sg63
g4482
sg56
(lp4498
g49
(g50
g51
NtRp4499
(dp4500
g54
(dp4501
g62
I4
ssg63
g4495
sg56
(lp4502
S'web2py, python, framework'
p4503
asbasbasbasbasbasbasbag49
(g65
g51
NtRp4504
(dp4505
g54
(dp4506
sg63
g3212
sg56
(lp4507
g49
(g70
g51
NtRp4508
(dp4509
g54
(dp4510
g74
g75
ssg63
g4504
sg56
(lp4511
S'postprocessing'
p4512
asbag49
(g70
g51
NtRp4513
(dp4514
g54
(dp4515
g81
g82
ssg63
g4504
sg56
(lp4516
S':'
asbag49
(g70
g51
NtRp4517
(dp4518
g54
(dp4519
sg63
g4504
sg56
(lp4520
g49
(g50
g51
NtRp4521
(dp4522
g54
(dp4523
g62
I5
ssg63
g4517
sg56
(lp4524
g49
(g58
g51
NtRp4525
(dp4526
g54
(dp4527
g62
I4
ssg63
Nsg56
(lp4528
sbasbasbasbag49
(g65
g51
NtRp4529
(dp4530
g54
(dp4531
sg63
g3212
sg56
(lp4532
g49
(g70
g51
NtRp4533
(dp4534
g54
(dp4535
g74
g75
ssg63
g4529
sg56
(lp4536
S'session_db'
p4537
asbag49
(g70
g51
NtRp4538
(dp4539
g54
(dp4540
g81
g82
ssg63
g4529
sg56
(lp4541
S':'
asbag49
(g70
g51
NtRp4542
(dp4543
g54
(dp4544
sg63
g4529
sg56
(lp4545
g49
(g50
g51
NtRp4546
(dp4547
g54
(dp4548
g62
I5
ssg63
g4542
sg56
(lp4549
g770
asbasbasbag49
(g65
g51
NtRp4550
(dp4551
g54
(dp4552
sg63
g3212
sg56
(lp4553
g49
(g70
g51
NtRp4554
(dp4555
g54
(dp4556
g74
g75
ssg63
g4550
sg56
(lp4557
S'session_id'
p4558
asbag49
(g70
g51
NtRp4559
(dp4560
g54
(dp4561
g81
g82
ssg63
g4550
sg56
(lp4562
S':'
asbag49
(g70
g51
NtRp4563
(dp4564
g54
(dp4565
sg63
g4550
sg56
(lp4566
g49
(g50
g51
NtRp4567
(dp4568
g54
(dp4569
g62
I5
ssg63
g4563
sg56
(lp4570
S'11:795a76ab-b396-4cc5-8c57-3e2ec1f6de7f'
p4571
asbasbasbag49
(g65
g51
NtRp4572
(dp4573
g54
(dp4574
sg63
g3212
sg56
(lp4575
g49
(g70
g51
NtRp4576
(dp4577
g54
(dp4578
g74
g75
ssg63
g4572
sg56
(lp4579
S'session_id_name'
p4580
asbag49
(g70
g51
NtRp4581
(dp4582
g54
(dp4583
g81
g82
ssg63
g4572
sg56
(lp4584
S':'
asbag49
(g70
g51
NtRp4585
(dp4586
g54
(dp4587
sg63
g4572
sg56
(lp4588
g49
(g50
g51
NtRp4589
(dp4590
g54
(dp4591
g62
I5
ssg63
g4585
sg56
(lp4592
S'session_id_init'
p4593
asbasbasbag49
(g65
g51
NtRp4594
(dp4595
g54
(dp4596
sg63
g3212
sg56
(lp4597
g49
(g70
g51
NtRp4598
(dp4599
g54
(dp4600
g74
g75
ssg63
g4594
sg56
(lp4601
S'status'
p4602
asbag49
(g70
g51
NtRp4603
(dp4604
g54
(dp4605
g81
g82
ssg63
g4594
sg56
(lp4606
S':'
asbag49
(g70
g51
NtRp4607
(dp4608
g54
(dp4609
sg63
g4594
sg56
(lp4610
g49
(g50
g51
NtRp4611
(dp4612
g54
(dp4613
g62
I5
ssg63
g4607
sg56
(lp4614
S'200'
p4615
asbasbasbag49
(g65
g51
NtRp4616
(dp4617
g54
(dp4618
sg63
g3212
sg56
(lp4619
g49
(g70
g51
NtRp4620
(dp4621
g54
(dp4622
g74
g75
ssg63
g4616
sg56
(lp4623
S'subtitle'
p4624
asbag49
(g70
g51
NtRp4625
(dp4626
g54
(dp4627
g81
g82
ssg63
g4616
sg56
(lp4628
S':'
asbag49
(g70
g51
NtRp4629
(dp4630
g54
(dp4631
sg63
g4616
sg56
(lp4632
g49
(g50
g51
NtRp4633
(dp4634
g54
(dp4635
g62
I5
ssg63
g4629
sg56
(lp4636
g3523
(S's\r\x00\x00\x00customize me!'
tRp4637
asbasbasbag49
(g65
g51
NtRp4638
(dp4639
g54
(dp4640
sg63
g3212
sg56
(lp4641
g49
(g70
g51
NtRp4642
(dp4643
g54
(dp4644
g74
g75
ssg63
g4638
sg56
(lp4645
S'title'
p4646
asbag49
(g70
g51
NtRp4647
(dp4648
g54
(dp4649
g81
g82
ssg63
g4638
sg56
(lp4650
S':'
asbag49
(g70
g51
NtRp4651
(dp4652
g54
(dp4653
sg63
g4638
sg56
(lp4654
g49
(g50
g51
NtRp4655
(dp4656
g54
(dp4657
g62
I5
ssg63
g4651
sg56
(lp4658
S'Init'
p4659
asbasbasbag49
(g65
g51
NtRp4660
(dp4661
g54
(dp4662
sg63
g3212
sg56
(lp4663
g49
(g70
g51
NtRp4664
(dp4665
g54
(dp4666
g74
g75
ssg63
g4660
sg56
(lp4667
g2282
asbag49
(g70
g51
NtRp4668
(dp4669
g54
(dp4670
g81
g82
ssg63
g4660
sg56
(lp4671
S':'
asbag49
(g70
g51
NtRp4672
(dp4673
g54
(dp4674
sg63
g4660
sg56
(lp4675
g49
(g50
g51
NtRp4676
(dp4677
g54
(dp4678
g62
I5
ssg63
g4672
sg56
(lp4679
g2295
asbasbasbag49
(g65
g51
NtRp4680
(dp4681
g54
(dp4682
sg63
g3212
sg56
(lp4683
g49
(g70
g51
NtRp4684
(dp4685
g54
(dp4686
g74
g75
ssg63
g4680
sg56
(lp4687
S'view'
p4688
asbag49
(g70
g51
NtRp4689
(dp4690
g54
(dp4691
g81
g82
ssg63
g4680
sg56
(lp4692
S':'
asbag49
(g70
g51
NtRp4693
(dp4694
g54
(dp4695
sg63
g4680
sg56
(lp4696
g49
(g50
g51
NtRp4697
(dp4698
g54
(dp4699
g62
I5
ssg63
g4693
sg56
(lp4700
S'default/invitation.html'
p4701
asbasbasbasbasbsS'locals'
p4702
(dp4703
S'_[1]'
p4704
S'[]'
p4705
sS'record'
p4706
S'(1, True)'
p4707
sS'self'
p4708
S"<Table {'_db': <DAL {'auth_event': <Table {'orig...on_key': <gluon.dal.Field object at 0x077AB330>}>"
p4709
sS'id'
p4710
g770
sssS'traceback'
p4711
S'Traceback (most recent call last):\n  File "gluon/restricted.py", line 205, in restricted\n  File "C:\\Users\\Bussiere\\Dropbox\\Projets\\jackpoint\\web2py\\applications\\init\\controllers/default.py", line 338, in <module>\n  File "gluon/globals.py", line 173, in <lambda>\n  File "C:\\Users\\Bussiere\\Dropbox\\Projets\\jackpoint\\web2py\\applications\\init\\controllers/default.py", line 277, in invitation\n  File "gluon/dal.py", line 6683, in _filter_fields\nAttributeError: \'tuple\' object has no attribute \'items\'\n'
p4712
s.