(dp1
S'output'
p2
S"<type 'exceptions.TypeError'> 'Field' object is not callable"
p3
sS'layer'
p4
S'C:\\Users\\Bussiere\\Dropbox\\Projets\\jackpoint\\web2py\\applications\\init\\controllers/default.py'
p5
sS'code'
p6
S'\xef\xbb\xbf# -*- coding: utf-8 -*-\n# this file is released under public domain and you can use without limitations\n\n#########################################################################\n## This is a samples controller\n## - index is the default action of any application\n## - user is required for authentication and authorization\n## - download is for downloading files uploaded in the db (does streaming)\n## - call exposes all registered services (none by default)\n#########################################################################\n# Static analyzer import helpers: (STATIC_IMPORT_MARK)\nif 0: \n    import gluon\n    global cache; cache = gluon.cache.Cache()\n    global LOAD; LOAD  = gluon.compileapp.LoadFactory()\n    import gluon.compileapp.local_import_aux as local_import #@UnusedImport\n    from gluon.contrib.gql import GQLDB #@UnusedImport\n    from gluon.dal import Field #@UnusedImport\n    global request; request = gluon.globals.Request()\n    global response; response = gluon.globals.Response()\n    global session; session = gluon.globals.Session()\n    from gluon.html import A #@UnusedImport\n    from gluon.html import B #@UnusedImport\n    from gluon.html import BEAUTIFY #@UnusedImport\n    from gluon.html import BODY #@UnusedImport\n    from gluon.html import BR #@UnusedImport\n    from gluon.html import CENTER #@UnusedImport\n    from gluon.html import CODE #@UnusedImport\n    from gluon.html import DIV #@UnusedImport\n    from gluon.html import EM #@UnusedImport\n    from gluon.html import EMBED #@UnusedImport\n    from gluon.html import embed64 #@UnusedImport\n    from gluon.html import FIELDSET #@UnusedImport\n    from gluon.html import FORM #@UnusedImport\n    from gluon.html import H1 #@UnusedImport\n    from gluon.html import H2 #@UnusedImport\n    from gluon.html import H3 #@UnusedImport\n    from gluon.html import H4 #@UnusedImport\n    from gluon.html import H5 #@UnusedImport\n    from gluon.html import H6 #@UnusedImport\n    from gluon.html import HEAD #@UnusedImport\n    from gluon.html import HR #@UnusedImport\n    from gluon.html import HTML #@UnusedImport\n    from gluon.html import I #@UnusedImport\n    from gluon.html import IFRAME #@UnusedImport\n    from gluon.html import IMG #@UnusedImport\n    from gluon.html import INPUT #@UnusedImport\n    from gluon.html import LABEL #@UnusedImport\n    from gluon.html import LEGEND #@UnusedImport\n    from gluon.html import LI #@UnusedImport\n    from gluon.html import LINK #@UnusedImport\n    from gluon.html import MARKMIN #@UnusedImport\n    from gluon.html import MENU #@UnusedImport\n    from gluon.html import META #@UnusedImport\n    from gluon.html import OBJECT #@UnusedImport\n    from gluon.html import OL #@UnusedImport\n    from gluon.html import ON #@UnusedImport\n    from gluon.html import OPTGROUP #@UnusedImport\n    from gluon.html import OPTION #@UnusedImport\n    from gluon.html import P #@UnusedImport\n    from gluon.html import PRE #@UnusedImport\n    from gluon.html import STYLE #@UnusedImport\n    from gluon.html import SCRIPT #@UnusedImport\n    from gluon.html import SELECT #@UnusedImport\n    from gluon.html import SPAN #@UnusedImport\n    from gluon.html import TABLE #@UnusedImport\n    from gluon.html import TAG #@UnusedImport\n    from gluon.html import TBODY #@UnusedImport\n    from gluon.html import TD #@UnusedImport\n    from gluon.html import TEXTAREA #@UnusedImport\n    from gluon.html import TFOOT #@UnusedImport\n    from gluon.html import TH  #@UnusedImport\n    from gluon.html import THEAD #@UnusedImport\n    from gluon.html import TITLE #@UnusedImport\n    from gluon.html import TR #@UnusedImport\n    from gluon.html import TT #@UnusedImport\n    from gluon.html import UL #@UnusedImport\n    from gluon.html import URL #@UnusedImport\n    from gluon.html import XHTML #@UnusedImport\n    from gluon.html import XML #@UnusedImport\n    from gluon.html import xmlescape #@UnusedImport\n    from gluon.http import HTTP #@UnusedImport\n    from gluon.http import redirect #@UnusedImport\n    import gluon.languages.translator as T #@UnusedImport\n    from gluon.sql import DAL\n    global db; db = DAL()\n    from gluon.sql import SQLDB #@UnusedImport\n    from gluon.sql import SQLField #@UnusedImport\n    from gluon.sqlhtml import SQLFORM #@UnusedImport\n    from gluon.sqlhtml import SQLTABLE #@UnusedImport\n    from gluon.tools import  Auth\n    global auth; auth = Auth()\n    from gluon.tools import Crud\n    global crud; crud = Crud()\n    from gluon.tools import fetch #@UnusedImport\n    from gluon.tools import geocode #@UnusedImport\n    from gluon.tools import Mail\n    global mail; mail = Mail()\n    from gluon.tools import PluginManager\n    global plugins; plugins = PluginManager()\n    from gluon.tools import prettydate #@UnusedImport\n    from gluon.tools import Recaptcha #@UnusedImport\n    from gluon.tools import Service\n    global service; service = Service()\n    from gluon.validators import CLEANUP  #@UnusedImport\n    from gluon.validators import CRYPT #@UnusedImport\n    from gluon.validators import IS_ALPHANUMERIC #@UnusedImport\n    from gluon.validators import IS_DATE #@UnusedImport\n    from gluon.validators import IS_DATE_IN_RANGE #@UnusedImport\n    from gluon.validators import IS_DATETIME #@UnusedImport\n    from gluon.validators import IS_DATETIME_IN_RANGE #@UnusedImport\n    from gluon.validators import IS_DECIMAL_IN_RANGE #@UnusedImport\n    from gluon.validators import IS_EMAIL #@UnusedImport\n    from gluon.validators import IS_EMPTY_OR #@UnusedImport\n    from gluon.validators import IS_EQUAL_TO #@UnusedImport\n    from gluon.validators import IS_EXPR #@UnusedImport\n    from gluon.validators import IS_FLOAT_IN_RANGE #@UnusedImport\n    from gluon.validators import IS_IMAGE #@UnusedImport\n    from gluon.validators import IS_IN_DB #@UnusedImport\n    from gluon.validators import IS_IN_SET #@UnusedImport\n    from gluon.validators import IS_INT_IN_RANGE #@UnusedImport\n    from gluon.validators import IS_IPV4 #@UnusedImport\n    from gluon.validators import IS_LENGTH #@UnusedImport\n    from gluon.validators import IS_LIST_OF #@UnusedImport\n    from gluon.validators import IS_LOWER #@UnusedImport\n    from gluon.validators import IS_MATCH #@UnusedImport\n    from gluon.validators import IS_NOT_EMPTY #@UnusedImport\n    from gluon.validators import IS_NOT_IN_DB #@UnusedImport\n    from gluon.validators import IS_NULL_OR #@UnusedImport\n    from gluon.validators import IS_SLUG #@UnusedImport\n    from gluon.validators import IS_STRONG  #@UnusedImport\n    from gluon.validators import IS_TIME #@UnusedImport\n    from gluon.validators import IS_UPLOAD_FILENAME #@UnusedImport\n    from gluon.validators import IS_UPPER #@UnusedImpor\n\n\nimport random\nfrom uuid import uuid4\nfrom gluon.storage import Storage\nsettings = Storage()\n\n\ndef logout():\n    return auth.logout()\n\n\ndef index():\n    if auth.is_logged_in() :\n        return "You get the blue pills"\n    else :\n        return dict(form=auth.login(),faq=URL(\'faq\'))\n\n\n\ndef ensurefirstuser(Surnom, email, password):\n  users = db(db.auth_user.email == email).select()\n  if users:\n    user_id = users[0].id\n    created = False\n    print (\'found user_id so created equals %s\') % created\n    if settings.debug_ensure_first_user == True:\n      print (\'found user_id so created equals %s\') % created\n    return (user_id, created)\n\n  else:\n    my_crypt = CRYPT(key=auth.settings.hmac_key)\n    crypt_pass = my_crypt(password)[0]    \n    id_user = db.auth_user.insert(\n                   Surnom=Surnom,\n                   email=email,\n                   username=email,\n                   Items = None,\n                   Skills = None,\n                   password=crypt_pass,\n                                   )\n    db.commit()\n    created = True\n    print (\'creating user_id\')\n    if settings.debug_ensure_first_user == True:\n      print (\'creating user_id\')\n    return (id_user, created)\n\n    \n\n\ndef ensure_users():\n  user_id, created = _ensure_user(\'first\', \'last\', \'email@address.com\', \'UserPassword12345\')\n  if settings.debug_ensure_users == True:\n    print (\'user id %i\') % user_id\n    print (\'created %s\') % created\n\ndef ensure_group_role(role, description):\n  if not auth.id_group(role=role):  \n    auth.add_group(role=role, description=description)  \n    if settings.debug_ensure_group_role == True:\n      print (\'created role %s\') % (role)\n\ndef ensure_membership(group_id, user_id):\n  return_group_id = auth.add_membership(role=role, user_id=user_id)\n  if settings.debug_ensure_membership == True:\n    print (\'made user_id member of %s\') % (role)\n  return return_group_id\n \ndef ensure_permissions(role, description, user_id):\n  ensure_group_role(role, description)\n  return_group_id = ensure_membership(group_id, user_id)\n  if settings.debug_ensure_permissions == True:\n    print return_group_id\n\ndef generate_invitation(number,word=4,num=1,numdigit=5):\n    code = [\n[\'BELCHER\', \'FIX\', \'EEL\', \'PANZERBOY\', \'DESK_JOCKEY\', \'CHILLED\', \'ENFORCER\', \'CHERRY_PICKING\', \'COUNTRY_CLUB\', \'BOMBSHELL\', \'PLUGGED_IN\', \'FINI\', \'LEGIT\', \'JAM\', \'BONED_OUT\', \'BLADE\', \'ROUST\', \'SAMURAI\', \'DISK\', \'INPUT\', \'POST_TIME\', \'SOUNDS\', \'SKIP\', \'FLATBACKER\', \'WILSON\', \'SHOEMAKER\', \'DELTA_SIERRA\', \'HEART\', \'CROAK\', \'HEAD_HUNTER\', \'HOSHO_KAISHA\', "DELTA\'D", "\'FACE_(also,_FACE,_EYE-FACE,_I-FACE)", \'WEEFLE\', \'DIRTGIRL\', \'KEYBOARD\', \'BRAIN_BUCKET\', \'DRYING_OUT\', \'OVERCOOK\', \'PIG\', \'COLD_TEA\', \'RECONFIG\', \'PAD\', \'LIT_UP\', \'WRAITH\', \'HANDLE\', \'L.P.\', \'PINCH\', \'TAKE_A_CAB\', \'SPILL\', \'ACE_KOOL\', \'DO\', \'BIZ\', \'BROWNIE\', \'CANDLE_AND_BLOOD\', \'BLUEBOY\', \'UP_ON_IT\', \'BURN\', \'USER_INTERFACE\', \'HOB\', \'GYRO\', \'STUFFIT\', \'THATCH\', \'ICEBREAKER\', \'ZIP_GUN\', \'PETERMAN\', \'PLAY_DOUGH\', \'TREY-EIGHT\', \'SETTLE\', "CHIPPIN\'_IN", \'MEATBALL\', \'RAFFLES\', \'YUBITSUME\', \'CROAKER\', \'SUCKER_POCKETS\', \'L.A.M.A.\', \'GEEK\', \'BUTTONHEAD\'],\n[\'TAKE\', \'TEKIYA\', \'KURUMAKU\', \'BLOC\', \'GAT\', \'JOHATSU\', \'CRYSTAL\', \'A.I.\', \'ZEROED\', \'OVER_THE_SHOULDER\', \'GRAB_GEE\', \'PANZER\', \'GO_LEO\', \'WASHED\', \'I.C.E.\', \'COPSHOP\', \'COLLATERAL_DAMAGE\', \'BIG_DARK\', \'DOUBLE-DEUCE\', \'ZONEDANCE\', \'MARK\', \'COBBERS\', \'CHIMPIRA\', \'TRIADS\', \'SHANK\', \'FRAG\', \'BREATH_VAC\', "CHARLIE\'S_ANGEL", \'MULE\', \'BURNER\', "PACKIN\'", \'HOTDOGGER\', \'BOSOZOKU\', \'RIPPERDOC\', \'THIRDMAN\', \'MAXIMUM,_MAX\', \'CHOOH2_("CHOO")\', \'CRYO_MAX\', \'HEATER\', \'SHARK\', \'JOYGIRL\', \'GURENTAI\', \'BANDIT\', \'VENICE\', \'MIZU_SHOBAI\', \'PASTA_BOYS\', \'SQUID\', \'CYBERED_UP\', \'DEAD_RECKONING\', \'POPSICLE\', \'FAUST\', \'COLLARBOY\', \'SHOES\', \'TORCH\', \'DELTAJOCK\', \'BUTTERFLY_MAN\', \'WISE_GUYS\', \'BOOST\', \'CAIN\', \'FOUR-FIVE\', \'BREAK-DOWN\', \'POLYMER_ONE-SHOT\', \'FLAG\', \'CALL_GIRL\', \'IN_THE_HUNT\', \'HYDRO\', \'DOCK\', \'FENCE\', \'SHAIKUJIN\', \'GOMI\', \'FILTER\', \'SAINT_NICK\', \'LINEFOOT\', \'CAVALRY\', \'PUKE\', \'CONVERSION\', \'FINGER\', \'CONTRACT\'],\n[\'PLASTIC\', \'CRYSTALJOCKEY,_CRYSTALJOCK\', \'SCREW\', \'TOYSTORE\', \'DREAM_TIME\', \'EXOTIC\', \'WALKABOUT\', \'DIAMOND_SEASON\', \'SARAKIN\', \'CHRISTMAS_BUNDLES\', \'SHADES\', \'BUTTON_MAN\', \'FOXTROT_UNIFORM\', \'KAI\', \'UNDER_THE_PAINT\', \'MINIMUM\', \'TRIPLE_A\', \'PIG_ON_A_WHEEL\', \'BAG_MAN\', \'DIP\', \'PIGEONS\', \'MAN\', \'ADAM_HENRY\', \'HIGH\', \'HEAT\', \'NINJO\', \'KNIFE_FIGHT\', \'MOUTHPIECE\', \'AGRIPLEX\', \'DATA_TERM\', \'LIZ\', \'CHROMER\', \'OUTPUT\', \'N.O.E.\', \'CLOSE_A_CONTRACT\', \'LASSIE\', \'FLATLINE\', \'CHIV\', \'SING\', \'AMMO\', \'RAT\', \'MATCHBOX\', \'PULL_AN_ASH\', \'BORYOKUDAN\', \'SQUEEZE\', \'RONIN\', \'HIT\', \'RAGS\', \'TAKE_OUT\', \'BEAT_THE_RAP\', \'GIRI\', \'RUNNING_THE_LINE\', \'HARNESS\', \'GRAVEROBBER\', \'DROP_A_DIME\', \'BADGE_ON_A_BEAVER\', \'FLETCHER\', \'AMPED-OUT\', \'NEUTRALIZE\', \'PETER\', \'CONFIG\', \'HARDFIRE\', \'B.A.M.A.\', \'CHROMATIC_ROCK\', \'MOLDED\', \'RAD\', \'CREASED\', \'CHATTER_BOX\', \'HAND_CANNON\', \'NIPPERS\', \'SIERRA_HOTEL\', \'HOOK_UP\', \'-JOCKEY,_-JOCK\', \'BUG\', \'BATMAN_AND_ROBIN\', \'BLACK_OPERATIONS\', "D.C.\'S", \'SO_KA\'],\n[\'_A.A.A.\', \'HOME_PLATE\', \'LITEJACK\', \'PINEAPPLE\', \'MAKE\', \'THE_STREET\', \'SITREP\', \'HANGING_PAPER\', \'PAINT_BOYS\', \'WETWORK\', \'NINER\', \'BOOKIE\', \'WHIPLASH\', \'TORPEDO\', \'HEATWAVE\', \'SOLAR_WIND\', \'QUIFF\', \'BIKE\', \'TRAFFIC\', \'WIRE_ROOM\', \'OYABUN\', \'COWBOY\', \'KOBUN\', \'MUDBOY\', \'COP_OUT\', \'SOKAIYA\', "\'DORPH", \'JOYBOY\', \'DIRTY\', \'BOAT\', \'DROP\', \'GRAV_or_GEE\', \'APOGEE\', \'BOOSTER\', \'BOOK\', \'FRY\', \'PULLING_TEETH\', \'ONE_LARGE\', \'COMBAT_DRUGS\', \'THRASH\', \'DO_A_GHOST\', \'DELTA\', \'RIN_TIN_TIN\', \'DROP_OUT\', \'GUMI\', \'ROCKERBOY/GIRL\', \'BULLET\', \'DEB\', \'THREADING_THE_NEEDLE\', \'MOTOR\', \'BLEEDER\', \'ARC\', \'BOPPER\', \'WASTE\', \'_DEMUKAI\', \'BREAK\', \'HOLDING_DOWN\', \'FEDS\', \'GAP\', \'RABBI\', \'BAKUTO\', \'CHOMBATTA_(CHOOMBA)\', \'BIG_HATS\', \'MR._JOHNSON\', \'EXEC\', \'BULL\', \'BULLSEYE\', \'POSERGANG\', \'CHAOL\', \'GEISHA\', \'SLAMMIT_ON\', \'POP_CAPS\', \'HARD_TIME\', \'BENJI\', \'MAKING_BANK\', \'PAPERHANGER\', \'NETRUN\', \'BOGEY\'],\n]     \n    i = 0\n    invits = []\n    print number\n    while (i < number):\n        invit = ""\n        j = 0\n        while (j < word):\n            debut = random.randint(0,len(code)-1)\n            codepick = code[debut][random.randint(0,len(code[debut])-1)]\n            j += 1\n            invit += codepick+"-"\n        j = 0\n        while (j < num):\n            invit += randomdig(numdigit)+"-"\n            j += 1\n        i+= 1\n        invit = invit[:-1]\n        if invit not in invits :\n            invits.append(invit[:-1])\n            print invit\n    return invits\n        \ndef randomdig(number):\n    max = "9"*number\n    max = int(max)\n    rand =  random.randint(0,max)\n    rand = str(rand)\n    rand = "0"*(number-len(rand))+rand\n    return rand\n\n@auth.requires_login()\ndef inscriptioninvit():\n    user = auth.environment.session.auth.user\n    caracs = db().select(db.Carac.ALL)\n    form=TABLE(\n        TR(\n            TD(\n                TABLE(\n        TR(\n\n                TD(\n                    LABEL(\'Username : \')\n                    ),\n                TD( \n                    INPUT(_name=\'Username\')\n                    )\n            ),\n    TR(\n        TD(\n            LABEL(\'Email: \')\n            ), \n        TD(\n            INPUT(_name=\'email\',_value=user.email)\n            )\n        ),\n             \n    TR(\n        TD(\n            LABEL(\'Password : \')\n            ), \n        TD(\n            INPUT(_name=\'password1\',_type=\'password\')\n            )\n        ),\n\n     TR(\n        TD(\n            LABEL(\'Password verification : \')\n            ), \n        TD(\n            INPUT(_name=\'password2\',_type=\'password\')\n            )\n        ),\n    \n    \n    )\n                )\n            )\n        )\n            \n\n\n    \n    form.append(TR(LABEL(\'1 = mauvais, 2 = bof, 3 = Moyen,4 = Bon , 5 = Tres Bon\')))\n    for carac in caracs :\n        form.append(\n            TR(\n\n                TD(LABEL(\'%s : \'%carac.Nom)),\n                TD(INPUT(_type=\'radio\',_name=\'%s\'%carac.Nom,_value=\'1\',value=\'1\'),"1 "),\n                TD(INPUT(_type=\'radio\',_name=\'%s\'%carac.Nom,_value=\'2\'),"2 "),\n                TD(INPUT(_type=\'radio\',_name=\'%s\'%carac.Nom,_value=\'3\'),"3 "),\n                TD(INPUT(_type=\'radio\',_name=\'%s\'%carac.Nom,_value=\'4\'),"4 "),\n                TD(INPUT(_type=\'radio\',_name=\'%s\'%carac.Nom,_value=\'5\'),"5        "),\n\n                TD(LABEL(\'Private: \')),\n                TD(INPUT(_type=\'radio\',_name=\'%s_private\'%carac.Nom,_value=\'1\'),"oui "),\n                TD(INPUT(_type=\'radio\',_name=\'%s_private\'%carac.Nom,_value=\'0\',value=\'0\'),"non ")\n                )\n        )\n \n    # form.insert(-1, TR(LABEL(\'titi : \'),INPUT(_name=\'titi\',_value=\'titi\'))\n    # form.insert(-1, TR(LABEL(\'toto : \'),INPUT(_name=\'toto\',_value=\'toto\'))\n\n    form.append(TR(LABEL(\'0 = Inconnu, 1 = mauvais, 2 = bof, 3 = Moyen,4 = Bon , 5 = Moyen\')))\n    \n    #TODO a revoir algo crade :\n    skills1 = db(db.SkillLevel.Level==0).select()\n    skills2 = db(db.SkillLevel.Level==1).select()\n    skills3 = db(db.SkillLevel.Level==2).select()\n    skills4 = db(db.SkillLevel.Level==3).select()\n    skills5 = db(db.SkillLevel.Level==4).select()\n    Listeskill = UL()\n    for skill1 in skills1 :\n        Nom1 = db.Skill(skill1.Skill.id).Nom\n        retour1 = skillstab(Nom1)\n        for skill2 in skills2 :\n            if (skill2.Parent.id == skill1.Skill.id) :\n                Nom2 = db.Skill(skill2.Skill.id).Nom\n                retour2 = skillstab(Nom2)\n                for skill3 in skills3 :\n                    if (skill3.Parent.id == skill2.Skill.id) :\n                        Nom3 = db.Skill(skill3.Skill.id).Nom\n                        retour3 = skillstab(Nom3)\n                        for skill4 in skills4 :\n                            if (skill4.Parent.id == skill3.Skill.id) :\n                                Nom4 = db.Skill(skill4.Skill.id).Nom\n                                retour4 = skillstab(Nom4)\n                                for skill5 in skills5 :\n                                    if (skill5.Parent.id == skill4.Skill.id) :\n                                        Nom5 = db.Skill(skill5.Skill.id).Nom\n                                        retour5 = skillstab(Nom5)\n                                        retour4.append(UL(retour5))\n                                retour3.append(UL(retour4))\n                        retour2.append(UL(retour3))\n                retour1.append(UL(retour2))\n        Listeskill.append(retour1)\n       \n\n\n\n    form.append(TR(Listeskill))\n    form.append(TR(INPUT(_type=\'submit\')))\n    form = FORM(TABLE(form)) \n    return dict(form=form)\n\n\ndef skillstab(Nom) :\n    tab =  LI( Nom," : ",TABLE(\n                    TR(\n                TD(INPUT(_type=\'radio\',_name=\'%s\'%Nom,_value=\'0\',value=\'0\'),"0 "),\n                TD(INPUT(_type=\'radio\',_name=\'%s\'%Nom,_value=\'1\'),"1 "),\n                TD(INPUT(_type=\'radio\',_name=\'%s\'%Nom,_value=\'2\'),"2 "),\n                TD(INPUT(_type=\'radio\',_name=\'%s\'%Nom,_value=\'3\'),"3 "),\n                TD(INPUT(_type=\'radio\',_name=\'%s\'%Nom,_value=\'4\'),"4 "),\n                TD(INPUT(_type=\'radio\',_name=\'%s\'%Nom,_value=\'5\'),"5        "),\n\n                TD(LABEL(\'Private: \')),\n                TD(INPUT(_type=\'radio\',_name=\'%s_private\'%Nom,_value=\'1\'),"oui "),\n                TD(INPUT(_type=\'radio\',_name=\'%s_private\'%Nom,_value=\'0\',value=\'0\'),"non ")\n                )\n\n                )\n    )\n    return tab\n\ndef userstuff():\n    return dict(rows1 = db().select(db.Carac.ALL),rows2 = db().select(db.SkillLevel.ALL) )\n\ndef initdbjack():\n    if db(db.auth_user.username == "bussiere").count() == 0:\n            password= "titi" \n            my_crypt = CRYPT(key=auth.settings.hmac_key)\n            crypt_pass = my_crypt(password)[0]  \n            buss = db.auth_user.insert(\n               email= "bussiere2@gmail.com",\n               username="bussiere",\n               password=crypt_pass,\n            )\n            jack = auth.add_group(\'Jack\', \'Jack master of none\')\n            auth.add_membership(jack, buss)\n            db.commit()  \n    db.commit() \n    carac = ["Force","Logique","Volonte","Charisme","Apparence","Dexterite"]\n    skills = { \n    "Physique":{\n                "Sport":{\n                         "Capoeira" :{ \n                                      "bengale":{}\n                                      },\n                        "Karate":{\n                                  "Nord" : {},\n                                  "Sud" : {},\n                                 },\n                         },\n            },\n\n\n    "Technique":{\n                "Mettalerrie" : {\n                                 "Forge" : {},\n                                  \n                                  },\n                 "Couture" : {\n                                  \n                                  },\n                "Conduite" : {\n                                  \n                                  },\n                 \n    },\n\n    "Savoir":{\n              "Informatique" : {\n                                   "Programmation" :{\n                                                     "Python" :{\n                                                                 "Django" : {} ,\n                                                                  "Web2py" : {}\n                                                                },\n                                                     "Methode" :{\n                                                                 "Uml":{},\n                                                                  "Merise": {}\n                                                                },\n                                                     },\n                                   },\n\n            },\n    }\n\n    for c in carac :\n        if db(db.Carac.Nom == c).count() == 0:\n            db.Carac.insert(Nom=c)\n\n    for level1 in skills.keys() :\n        i = 0\n        if db(db.Skill.Nom == level1).count() == 0:\n            Skill1 = db.SkillLevel.insert(Skill = (db.Skill.insert(Nom=level1)),Level = i)\n\n            for level2 in skills[level1].keys() :\n                i = 1\n                if db(db.Skill.Nom == level2).count() == 0:\n                    #Todo\n                    # c\'est crade a revoir :\n                    for row in db((db.Skill.Nom==level1) & (db.Skill.id)).select() :\n                        parent = row.id\n                    #fin du truc a revoir\n                    Skill2 = db.SkillLevel.insert(Skill = (db.Skill.insert(Nom=level2)),Level = i,Parent = parent )\n                    for level3 in skills[level1][level2].keys() :\n                        i = 2\n                        if db(db.Skill.Nom == level3).count() == 0:\n                            #Todo\n                            # c\'est crade a revoir :\n                            for row in db((db.Skill.Nom==level2) & (db.Skill.id)).select() :\n                                parent = row.id\n                            #fin du truc a revoir\n                            Skill3 = db.SkillLevel.insert(Skill = (db.Skill.insert(Nom=level3)),Level = i,Parent = parent)\n                            for level4 in skills[level1][level2][level3].keys() :\n                                i = 3\n                                if db(db.Skill.Nom == level4).count() == 0:\n                                #Todo\n                                # c\'est crade a revoir :\n                                    for row in db((db.Skill.Nom==level3) & (db.Skill.id)).select() :\n                                        parent = row.id\n                                #fin du truc a revoir\n                                    Skill3 = db.SkillLevel.insert(Skill = (db.Skill.insert(Nom=level4)),Level = i,Parent = parent)\n                                    for level5 in skills[level1][level2][level3][level4].keys() :\n                                        i = 4\n                                        if db(db.Skill.Nom == level5).count() == 0:\n                                        #Todo\n                                        # c\'est crade a revoir :\n                                            for row in db((db.Skill.Nom==level4) & (db.Skill.id)).select() :\n                                                parent = row.id\n                                        #fin du truc a revoir\n                                            Skill4 = db.SkillLevel.insert(Skill = (db.Skill.insert(Nom=level5)),Level = i,Parent = parent)\n\n\n\n    Item = {\n    "Machine a Coudre" : "Couture",\n    "Voiture" : "Conduite",\n    "Decoupeuse a plasma" : "Mettalerrie",\n    }\n\n\n    for row in Item.keys() :\n        if db(db.Item.Nom == Item[row]).count() == 0:\n            db.Item.insert(Nom=row,Skill=db.Skill.Nom(Item[row]))                                       \n    db.commit() \n\n\n\n\n\n\n\ndef liste_invitations():\n    return dict(rows = db().select(db.Invitation.ALL))\n\ndef liste_user():\n    return dict(rows = db().select(db.auth_user.ALL))\n\n#@auth.requires_membership(\'manager\')\ndef generate_invitationpage():\n   form=FORM("Nombre d\'invit a generer:", INPUT(_name=\'nmbreinvit\'), INPUT(_type=\'submit\'))\n   if form.process().accepted and form.vars.nmbreinvit != None :\n       i = form.vars.nmbreinvit\n       invitsgenere = generate_invitation(int(i))\n       for invit in invitsgenere :\n           db.Invitation.insert(Code=invit)\n           db.commit()\n       session.flash = \'invitation inserted\'\n       form=FORM("Nombre d\'invit a generer:", INPUT(_name=\'nmbreinvit\'), INPUT(_type=\'submit\'))\n       #db.Invitation.insert(Code="Toto-5542")\n       db.commit()\n   return dict(form=form)\n\ndef verif_invitation(form):\n    print form.vars.invitation\n    if db.Invitation(db.Invitation.Code==form.vars.invitation) == None :\n        form.errors.invitation = \'code invitation incorrect\'\n        print "mauvais"\n    else :\n        print "bon"\n\ndef invitation():\n    form=FORM("Code Invitation :", INPUT(_name=\'invitation\'),"<Email :",INPUT(_name=\'email\'),  INPUT(_type=\'submit\'))\n    if form.process(onvalidation=verif_invitation).accepted and  form.vars.invitation != None  :\n        email = form.vars.email\n        if db(db.auth_user.email == email).count() == 0:\n            password= form.vars.invitation  \n            my_crypt = CRYPT(key=auth.settings.hmac_key)\n            crypt_pass = my_crypt(password)[0]  \n            db.auth_user.insert(\n               email= email,\n               username="John_Doe",\n               password=crypt_pass,\n            )\n            db.commit()  \n            user = db(db.auth_user.email==email).select().first()\n            auth.user = Storage(auth.settings.table_user._filter_fields(user, id=True))\n            auth.environment.session.auth = Storage(user=user, last_visit=request.now,\n                                                expiration=auth.settings.expiration)\n            redirect(URL(\'inscriptioninvit\'))\n    return dict(form=form)\n\ndef faq():\n\n    return dict()\ndef user():\n    """\n    exposes:\n    http://..../[app]/default/user/login\n    http://..../[app]/default/user/logout\n    http://..../[app]/default/user/register\n    http://..../[app]/default/user/profile\n    http://..../[app]/default/user/retrieve_password\n    http://..../[app]/default/user/change_password\n    use @auth.requires_login()\n        @auth.requires_membership(\'group name\')\n        @auth.requires_permission(\'read\',\'table name\',record_id)\n    to decorate functions that need access control\n    """\n    return dict(form=auth())\n\n\ndef download():\n    """\n    allows downloading of uploaded files\n    http://..../[app]/default/download/[filename]\n    """\n    return response.download(request,db)\n\n\ndef call():\n    """\n    exposes services. for example:\n    http://..../[app]/default/call/jsonrpc\n    decorate with @services.jsonrpc the functions to expose\n    supports xml, json, xmlrpc, jsonrpc, amfrpc, rss, csv\n    """\n    return service()\n\n\n@auth.requires_signature()\ndef data():\n    """\n    http://..../[app]/default/data/tables\n    http://..../[app]/default/data/create/[table]\n    http://..../[app]/default/data/read/[table]/[id]\n    http://..../[app]/default/data/update/[table]/[id]\n    http://..../[app]/default/data/delete/[table]/[id]\n    http://..../[app]/default/data/select/[table]\n    http://..../[app]/default/data/search/[table]\n    but URLs must be signed, i.e. linked with\n      A(\'table\',_href=URL(\'data/tables\',user_signature=True))\n    or with the signed load operator\n      LOAD(\'default\',\'data.load\',args=\'tables\',ajax=True,user_signature=True)\n    """\n    return dict(form=crud())\n\nresponse._vars=response._caller(initdbjack)\n'
p7
sS'snapshot'
p8
(dp9
S'exception'
p10
(dp11
S'__hash__'
p12
S"<method-wrapper '__hash__' of exceptions.TypeError object at 0x03E2F260>"
p13
sS'__setattr__'
p14
S"<method-wrapper '__setattr__' of exceptions.TypeError object at 0x03E2F260>"
p15
sS'__reduce_ex__'
p16
S'<built-in method __reduce_ex__ of exceptions.TypeError object at 0x03E2F260>'
p17
sS'__getslice__'
p18
S"<method-wrapper '__getslice__' of exceptions.TypeError object at 0x03E2F260>"
p19
sS'__getitem__'
p20
S"<method-wrapper '__getitem__' of exceptions.TypeError object at 0x03E2F260>"
p21
sS'__setstate__'
p22
S'<built-in method __setstate__ of exceptions.TypeError object at 0x03E2F260>'
p23
sS'__reduce__'
p24
S'<built-in method __reduce__ of exceptions.TypeError object at 0x03E2F260>'
p25
sS'__str__'
p26
S"<method-wrapper '__str__' of exceptions.TypeError object at 0x03E2F260>"
p27
sS'args'
p28
S'("\'Field\' object is not callable",)'
p29
sS'__getattribute__'
p30
S"<method-wrapper '__getattribute__' of exceptions.TypeError object at 0x03E2F260>"
p31
sS'__class__'
p32
S"<type 'exceptions.TypeError'>"
p33
sS'__delattr__'
p34
S"<method-wrapper '__delattr__' of exceptions.TypeError object at 0x03E2F260>"
p35
sS'__repr__'
p36
S"<method-wrapper '__repr__' of exceptions.TypeError object at 0x03E2F260>"
p37
sS'__dict__'
p38
S'{}'
p39
sS'__doc__'
p40
S"'Inappropriate argument type.'"
p41
sS'__init__'
p42
S"<method-wrapper '__init__' of exceptions.TypeError object at 0x03E2F260>"
p43
sS'__new__'
p44
S'<built-in method __new__ of type object at 0x1E1CCD78>'
p45
ssS'evalue'
p46
S"'Field' object is not callable"
p47
sS'request'
p48
ccopy_reg
_reconstructor
p49
(cgluon.html
BEAUTIFY
p50
c__builtin__
object
p51
NtRp52
(dp53
S'attributes'
p54
(dp55
sS'components'
p56
(lp57
g49
(cgluon.html
TABLE
p58
g51
NtRp59
(dp60
g54
(dp61
S'level'
p62
I5
ssS'parent'
p63
Nsg56
(lp64
g49
(cgluon.html
TR
p65
g51
NtRp66
(dp67
g54
(dp68
sg63
g59
sg56
(lp69
g49
(cgluon.html
TD
p70
g51
NtRp71
(dp72
g54
(dp73
S'_style'
p74
S'font-weight:bold;vertical-align:top'
p75
ssg63
g66
sg56
(lp76
S'ajax'
p77
asbag49
(g70
g51
NtRp78
(dp79
g54
(dp80
S'_valign'
p81
S'top'
p82
ssg63
g66
sg56
(lp83
S':'
asbag49
(g70
g51
NtRp84
(dp85
g54
(dp86
sg63
g66
sg56
(lp87
g49
(g50
g51
NtRp88
(dp89
g54
(dp90
g62
I5
ssg63
g84
sg56
(lp91
S'False'
p92
asbasbasbag49
(g65
g51
NtRp93
(dp94
g54
(dp95
sg63
g59
sg56
(lp96
g49
(g70
g51
NtRp97
(dp98
g54
(dp99
g74
g75
ssg63
g93
sg56
(lp100
S'application'
p101
asbag49
(g70
g51
NtRp102
(dp103
g54
(dp104
g81
g82
ssg63
g93
sg56
(lp105
S':'
asbag49
(g70
g51
NtRp106
(dp107
g54
(dp108
sg63
g93
sg56
(lp109
g49
(g50
g51
NtRp110
(dp111
g54
(dp112
g62
I5
ssg63
g106
sg56
(lp113
S'init'
p114
asbasbasbag49
(g65
g51
NtRp115
(dp116
g54
(dp117
sg63
g59
sg56
(lp118
g49
(g70
g51
NtRp119
(dp120
g54
(dp121
g74
g75
ssg63
g115
sg56
(lp122
g28
asbag49
(g70
g51
NtRp123
(dp124
g54
(dp125
g81
g82
ssg63
g115
sg56
(lp126
S':'
asbag49
(g70
g51
NtRp127
(dp128
g54
(dp129
sg63
g115
sg56
(lp130
g49
(g50
g51
NtRp131
(dp132
g54
(dp133
g62
I5
ssg63
g127
sg56
(lp134
g49
(g58
g51
NtRp135
(dp136
g54
(dp137
g62
I4
ssg63
Nsg56
(lp138
sbasbasbasbag49
(g65
g51
NtRp139
(dp140
g54
(dp141
sg63
g59
sg56
(lp142
g49
(g70
g51
NtRp143
(dp144
g54
(dp145
g74
g75
ssg63
g139
sg56
(lp146
S'body'
p147
asbag49
(g70
g51
NtRp148
(dp149
g54
(dp150
g81
g82
ssg63
g139
sg56
(lp151
S':'
asbag49
(g70
g51
NtRp152
(dp153
g54
(dp154
sg63
g139
sg56
(lp155
g49
(g50
g51
NtRp156
(dp157
g54
(dp158
g62
I5
ssg63
g152
sg56
(lp159
S'<cStringIO.StringO object at 0x045FE8E0>'
p160
asbasbasbag49
(g65
g51
NtRp161
(dp162
g54
(dp163
sg63
g59
sg56
(lp164
g49
(g70
g51
NtRp165
(dp166
g54
(dp167
g74
g75
ssg63
g161
sg56
(lp168
S'client'
p169
asbag49
(g70
g51
NtRp170
(dp171
g54
(dp172
g81
g82
ssg63
g161
sg56
(lp173
S':'
asbag49
(g70
g51
NtRp174
(dp175
g54
(dp176
sg63
g161
sg56
(lp177
g49
(g50
g51
NtRp178
(dp179
g54
(dp180
g62
I5
ssg63
g174
sg56
(lp181
S'127.0.0.1'
p182
asbasbasbag49
(g65
g51
NtRp183
(dp184
g54
(dp185
sg63
g59
sg56
(lp186
g49
(g70
g51
NtRp187
(dp188
g54
(dp189
g74
g75
ssg63
g183
sg56
(lp190
S'controller'
p191
asbag49
(g70
g51
NtRp192
(dp193
g54
(dp194
g81
g82
ssg63
g183
sg56
(lp195
S':'
asbag49
(g70
g51
NtRp196
(dp197
g54
(dp198
sg63
g183
sg56
(lp199
g49
(g50
g51
NtRp200
(dp201
g54
(dp202
g62
I5
ssg63
g196
sg56
(lp203
S'default'
p204
asbasbasbag49
(g65
g51
NtRp205
(dp206
g54
(dp207
sg63
g59
sg56
(lp208
g49
(g70
g51
NtRp209
(dp210
g54
(dp211
g74
g75
ssg63
g205
sg56
(lp212
S'cookies'
p213
asbag49
(g70
g51
NtRp214
(dp215
g54
(dp216
g81
g82
ssg63
g205
sg56
(lp217
S':'
asbag49
(g70
g51
NtRp218
(dp219
g54
(dp220
sg63
g205
sg56
(lp221
g49
(g50
g51
NtRp222
(dp223
g54
(dp224
g62
I5
ssg63
g218
sg56
(lp225
g49
(g58
g51
NtRp226
(dp227
g54
(dp228
g62
I4
ssg63
Nsg56
(lp229
g49
(g65
g51
NtRp230
(dp231
g54
(dp232
sg63
g226
sg56
(lp233
g49
(g70
g51
NtRp234
(dp235
g54
(dp236
g74
g75
ssg63
g230
sg56
(lp237
S'session_id_admin'
p238
asbag49
(g70
g51
NtRp239
(dp240
g54
(dp241
g81
g82
ssg63
g230
sg56
(lp242
S':'
asbag49
(g70
g51
NtRp243
(dp244
g54
(dp245
sg63
g230
sg56
(lp246
g49
(g50
g51
NtRp247
(dp248
g54
(dp249
g62
I4
ssg63
g243
sg56
(lp250
g49
(g58
g51
NtRp251
(dp252
g54
(dp253
g62
I3
ssg63
Nsg56
(lp254
g49
(g65
g51
NtRp255
(dp256
g54
(dp257
sg63
g251
sg56
(lp258
g49
(g70
g51
NtRp259
(dp260
g54
(dp261
g74
g75
ssg63
g255
sg56
(lp262
S'comment'
p263
asbag49
(g70
g51
NtRp264
(dp265
g54
(dp266
g81
g82
ssg63
g255
sg56
(lp267
S':'
asbag49
(g70
g51
NtRp268
(dp269
g54
(dp270
sg63
g255
sg56
(lp271
g49
(g50
g51
NtRp272
(dp273
g54
(dp274
g62
I3
ssg63
g268
sg56
(lp275
S''
asbasbasbag49
(g65
g51
NtRp276
(dp277
g54
(dp278
sg63
g251
sg56
(lp279
g49
(g70
g51
NtRp280
(dp281
g54
(dp282
g74
g75
ssg63
g276
sg56
(lp283
S'domain'
p284
asbag49
(g70
g51
NtRp285
(dp286
g54
(dp287
g81
g82
ssg63
g276
sg56
(lp288
S':'
asbag49
(g70
g51
NtRp289
(dp290
g54
(dp291
sg63
g276
sg56
(lp292
g49
(g50
g51
NtRp293
(dp294
g54
(dp295
g62
I3
ssg63
g289
sg56
(lp296
S''
asbasbasbag49
(g65
g51
NtRp297
(dp298
g54
(dp299
sg63
g251
sg56
(lp300
g49
(g70
g51
NtRp301
(dp302
g54
(dp303
g74
g75
ssg63
g297
sg56
(lp304
S'expires'
p305
asbag49
(g70
g51
NtRp306
(dp307
g54
(dp308
g81
g82
ssg63
g297
sg56
(lp309
S':'
asbag49
(g70
g51
NtRp310
(dp311
g54
(dp312
sg63
g297
sg56
(lp313
g49
(g50
g51
NtRp314
(dp315
g54
(dp316
g62
I3
ssg63
g310
sg56
(lp317
S''
asbasbasbag49
(g65
g51
NtRp318
(dp319
g54
(dp320
sg63
g251
sg56
(lp321
g49
(g70
g51
NtRp322
(dp323
g54
(dp324
g74
g75
ssg63
g318
sg56
(lp325
S'max-age'
p326
asbag49
(g70
g51
NtRp327
(dp328
g54
(dp329
g81
g82
ssg63
g318
sg56
(lp330
S':'
asbag49
(g70
g51
NtRp331
(dp332
g54
(dp333
sg63
g318
sg56
(lp334
g49
(g50
g51
NtRp335
(dp336
g54
(dp337
g62
I3
ssg63
g331
sg56
(lp338
S''
asbasbasbag49
(g65
g51
NtRp339
(dp340
g54
(dp341
sg63
g251
sg56
(lp342
g49
(g70
g51
NtRp343
(dp344
g54
(dp345
g74
g75
ssg63
g339
sg56
(lp346
S'path'
p347
asbag49
(g70
g51
NtRp348
(dp349
g54
(dp350
g81
g82
ssg63
g339
sg56
(lp351
S':'
asbag49
(g70
g51
NtRp352
(dp353
g54
(dp354
sg63
g339
sg56
(lp355
g49
(g50
g51
NtRp356
(dp357
g54
(dp358
g62
I3
ssg63
g352
sg56
(lp359
S''
asbasbasbag49
(g65
g51
NtRp360
(dp361
g54
(dp362
sg63
g251
sg56
(lp363
g49
(g70
g51
NtRp364
(dp365
g54
(dp366
g74
g75
ssg63
g360
sg56
(lp367
S'secure'
p368
asbag49
(g70
g51
NtRp369
(dp370
g54
(dp371
g81
g82
ssg63
g360
sg56
(lp372
S':'
asbag49
(g70
g51
NtRp373
(dp374
g54
(dp375
sg63
g360
sg56
(lp376
g49
(g50
g51
NtRp377
(dp378
g54
(dp379
g62
I3
ssg63
g373
sg56
(lp380
S''
asbasbasbag49
(g65
g51
NtRp381
(dp382
g54
(dp383
sg63
g251
sg56
(lp384
g49
(g70
g51
NtRp385
(dp386
g54
(dp387
g74
g75
ssg63
g381
sg56
(lp388
S'version'
p389
asbag49
(g70
g51
NtRp390
(dp391
g54
(dp392
g81
g82
ssg63
g381
sg56
(lp393
S':'
asbag49
(g70
g51
NtRp394
(dp395
g54
(dp396
sg63
g381
sg56
(lp397
g49
(g50
g51
NtRp398
(dp399
g54
(dp400
g62
I3
ssg63
g394
sg56
(lp401
S''
asbasbasbasbasbasbasbag49
(g65
g51
NtRp402
(dp403
g54
(dp404
sg63
g226
sg56
(lp405
g49
(g70
g51
NtRp406
(dp407
g54
(dp408
g74
g75
ssg63
g402
sg56
(lp409
S'session_id_init'
p410
asbag49
(g70
g51
NtRp411
(dp412
g54
(dp413
g81
g82
ssg63
g402
sg56
(lp414
S':'
asbag49
(g70
g51
NtRp415
(dp416
g54
(dp417
sg63
g402
sg56
(lp418
g49
(g50
g51
NtRp419
(dp420
g54
(dp421
g62
I4
ssg63
g415
sg56
(lp422
g49
(g58
g51
NtRp423
(dp424
g54
(dp425
g62
I3
ssg63
Nsg56
(lp426
g49
(g65
g51
NtRp427
(dp428
g54
(dp429
sg63
g423
sg56
(lp430
g49
(g70
g51
NtRp431
(dp432
g54
(dp433
g74
g75
ssg63
g427
sg56
(lp434
g263
asbag49
(g70
g51
NtRp435
(dp436
g54
(dp437
g81
g82
ssg63
g427
sg56
(lp438
S':'
asbag49
(g70
g51
NtRp439
(dp440
g54
(dp441
sg63
g427
sg56
(lp442
g49
(g50
g51
NtRp443
(dp444
g54
(dp445
g62
I3
ssg63
g439
sg56
(lp446
S''
asbasbasbag49
(g65
g51
NtRp447
(dp448
g54
(dp449
sg63
g423
sg56
(lp450
g49
(g70
g51
NtRp451
(dp452
g54
(dp453
g74
g75
ssg63
g447
sg56
(lp454
g284
asbag49
(g70
g51
NtRp455
(dp456
g54
(dp457
g81
g82
ssg63
g447
sg56
(lp458
S':'
asbag49
(g70
g51
NtRp459
(dp460
g54
(dp461
sg63
g447
sg56
(lp462
g49
(g50
g51
NtRp463
(dp464
g54
(dp465
g62
I3
ssg63
g459
sg56
(lp466
S''
asbasbasbag49
(g65
g51
NtRp467
(dp468
g54
(dp469
sg63
g423
sg56
(lp470
g49
(g70
g51
NtRp471
(dp472
g54
(dp473
g74
g75
ssg63
g467
sg56
(lp474
g305
asbag49
(g70
g51
NtRp475
(dp476
g54
(dp477
g81
g82
ssg63
g467
sg56
(lp478
S':'
asbag49
(g70
g51
NtRp479
(dp480
g54
(dp481
sg63
g467
sg56
(lp482
g49
(g50
g51
NtRp483
(dp484
g54
(dp485
g62
I3
ssg63
g479
sg56
(lp486
S''
asbasbasbag49
(g65
g51
NtRp487
(dp488
g54
(dp489
sg63
g423
sg56
(lp490
g49
(g70
g51
NtRp491
(dp492
g54
(dp493
g74
g75
ssg63
g487
sg56
(lp494
g326
asbag49
(g70
g51
NtRp495
(dp496
g54
(dp497
g81
g82
ssg63
g487
sg56
(lp498
S':'
asbag49
(g70
g51
NtRp499
(dp500
g54
(dp501
sg63
g487
sg56
(lp502
g49
(g50
g51
NtRp503
(dp504
g54
(dp505
g62
I3
ssg63
g499
sg56
(lp506
S''
asbasbasbag49
(g65
g51
NtRp507
(dp508
g54
(dp509
sg63
g423
sg56
(lp510
g49
(g70
g51
NtRp511
(dp512
g54
(dp513
g74
g75
ssg63
g507
sg56
(lp514
g347
asbag49
(g70
g51
NtRp515
(dp516
g54
(dp517
g81
g82
ssg63
g507
sg56
(lp518
S':'
asbag49
(g70
g51
NtRp519
(dp520
g54
(dp521
sg63
g507
sg56
(lp522
g49
(g50
g51
NtRp523
(dp524
g54
(dp525
g62
I3
ssg63
g519
sg56
(lp526
S''
asbasbasbag49
(g65
g51
NtRp527
(dp528
g54
(dp529
sg63
g423
sg56
(lp530
g49
(g70
g51
NtRp531
(dp532
g54
(dp533
g74
g75
ssg63
g527
sg56
(lp534
g368
asbag49
(g70
g51
NtRp535
(dp536
g54
(dp537
g81
g82
ssg63
g527
sg56
(lp538
S':'
asbag49
(g70
g51
NtRp539
(dp540
g54
(dp541
sg63
g527
sg56
(lp542
g49
(g50
g51
NtRp543
(dp544
g54
(dp545
g62
I3
ssg63
g539
sg56
(lp546
S''
asbasbasbag49
(g65
g51
NtRp547
(dp548
g54
(dp549
sg63
g423
sg56
(lp550
g49
(g70
g51
NtRp551
(dp552
g54
(dp553
g74
g75
ssg63
g547
sg56
(lp554
g389
asbag49
(g70
g51
NtRp555
(dp556
g54
(dp557
g81
g82
ssg63
g547
sg56
(lp558
S':'
asbag49
(g70
g51
NtRp559
(dp560
g54
(dp561
sg63
g547
sg56
(lp562
g49
(g50
g51
NtRp563
(dp564
g54
(dp565
g62
I3
ssg63
g559
sg56
(lp566
S''
asbasbasbasbasbasbasbasbasbasbasbag49
(g65
g51
NtRp567
(dp568
g54
(dp569
sg63
g59
sg56
(lp570
g49
(g70
g51
NtRp571
(dp572
g54
(dp573
g74
g75
ssg63
g567
sg56
(lp574
S'env'
p575
asbag49
(g70
g51
NtRp576
(dp577
g54
(dp578
g81
g82
ssg63
g567
sg56
(lp579
S':'
asbag49
(g70
g51
NtRp580
(dp581
g54
(dp582
sg63
g567
sg56
(lp583
g49
(g50
g51
NtRp584
(dp585
g54
(dp586
g62
I5
ssg63
g580
sg56
(lp587
g49
(g58
g51
NtRp588
(dp589
g54
(dp590
g62
I4
ssg63
Nsg56
(lp591
g49
(g65
g51
NtRp592
(dp593
g54
(dp594
sg63
g588
sg56
(lp595
g49
(g70
g51
NtRp596
(dp597
g54
(dp598
g74
g75
ssg63
g592
sg56
(lp599
S'app_folders'
p600
asbag49
(g70
g51
NtRp601
(dp602
g54
(dp603
g81
g82
ssg63
g592
sg56
(lp604
S':'
asbag49
(g70
g51
NtRp605
(dp606
g54
(dp607
sg63
g592
sg56
(lp608
g49
(g50
g51
NtRp609
(dp610
g54
(dp611
g62
I4
ssg63
g605
sg56
(lp612
S"set(['C:\\\\Users\\\\Bussiere\\\\Dropbox\\\\Projets\\\\jackpoint\\\\web2py\\\\applications\\\\init\\\\', 'C:\\\\Users\\\\Bussiere\\\\Dropbox\\\\Projets\\\\jackpoint\\\\web2py\\\\applications\\\\admin\\\\'])"
p613
asbasbasbag49
(g65
g51
NtRp614
(dp615
g54
(dp616
sg63
g588
sg56
(lp617
g49
(g70
g51
NtRp618
(dp619
g54
(dp620
g74
g75
ssg63
g614
sg56
(lp621
S'applications_parent'
p622
asbag49
(g70
g51
NtRp623
(dp624
g54
(dp625
g81
g82
ssg63
g614
sg56
(lp626
S':'
asbag49
(g70
g51
NtRp627
(dp628
g54
(dp629
sg63
g614
sg56
(lp630
g49
(g50
g51
NtRp631
(dp632
g54
(dp633
g62
I4
ssg63
g627
sg56
(lp634
S'C:\\Users\\Bussiere\\Dropbox\\Projets\\jackpoint\\web2py'
p635
asbasbasbag49
(g65
g51
NtRp636
(dp637
g54
(dp638
sg63
g588
sg56
(lp639
g49
(g70
g51
NtRp640
(dp641
g54
(dp642
g74
g75
ssg63
g636
sg56
(lp643
S'cmd_args'
p644
asbag49
(g70
g51
NtRp645
(dp646
g54
(dp647
g81
g82
ssg63
g636
sg56
(lp648
S':'
asbag49
(g70
g51
NtRp649
(dp650
g54
(dp651
sg63
g636
sg56
(lp652
g49
(g50
g51
NtRp653
(dp654
g54
(dp655
g62
I4
ssg63
g649
sg56
(lp656
g49
(g58
g51
NtRp657
(dp658
g54
(dp659
g62
I3
ssg63
Nsg56
(lp660
sbasbasbasbag49
(g65
g51
NtRp661
(dp662
g54
(dp663
sg63
g588
sg56
(lp664
g49
(g70
g51
NtRp665
(dp666
g54
(dp667
g74
g75
ssg63
g661
sg56
(lp668
S'cmd_options'
p669
asbag49
(g70
g51
NtRp670
(dp671
g54
(dp672
g81
g82
ssg63
g661
sg56
(lp673
S':'
asbag49
(g70
g51
NtRp674
(dp675
g54
(dp676
sg63
g661
sg56
(lp677
g49
(g50
g51
NtRp678
(dp679
g54
(dp680
g62
I4
ssg63
g674
sg56
(lp681
S"<Values at 0x3ca5fa8: {'verbose': False, 'ip': '127.0.0.1', 'shutdown_timeout': 5, 'taskbar': False, 'nocron': False, 'pid_filename': 'httpserver.pid', 'maxthreads': None, 'softcron': False, 'server_name': 'Batou', 'bpython': False, 'nogui': False, 'port': 8000, 'extcron': False, 'debuglevel': 30, 'test': None, 'folder': 'C:\\\\Users\\\\Bussiere\\\\Dropbox\\\\Projets\\\\jackpoint\\\\web2py', 'config': '', 'import_models': False, 'winservice': '', 'shell': None, 'run': '', 'log_filename': 'httpserver.log', 'args': [''], 'socket_timeout': 5, 'ssl_ca_certificate': None, 'scheduler': None, 'profiler_filename': None, 'ssl_private_key': '', 'password': '<ask>', 'request_queue_size': 5, 'ssl_certificate': '', 'cronjob': False, 'numthreads': None, 'quiet': False, 'interfaces': None, 'minthreads': None, 'timeout': 10, 'plain': False, 'nobanner': False}>"
p682
asbasbasbag49
(g65
g51
NtRp683
(dp684
g54
(dp685
sg63
g588
sg56
(lp686
g49
(g70
g51
NtRp687
(dp688
g54
(dp689
g74
g75
ssg63
g683
sg56
(lp690
S'db_sessions'
p691
asbag49
(g70
g51
NtRp692
(dp693
g54
(dp694
g81
g82
ssg63
g683
sg56
(lp695
S':'
asbag49
(g70
g51
NtRp696
(dp697
g54
(dp698
sg63
g683
sg56
(lp699
g49
(g50
g51
NtRp700
(dp701
g54
(dp702
g62
I4
ssg63
g696
sg56
(lp703
S"set(['init'])"
p704
asbasbasbag49
(g65
g51
NtRp705
(dp706
g54
(dp707
sg63
g588
sg56
(lp708
g49
(g70
g51
NtRp709
(dp710
g54
(dp711
g74
g75
ssg63
g705
sg56
(lp712
S'debugging'
p713
asbag49
(g70
g51
NtRp714
(dp715
g54
(dp716
g81
g82
ssg63
g705
sg56
(lp717
S':'
asbag49
(g70
g51
NtRp718
(dp719
g54
(dp720
sg63
g705
sg56
(lp721
g49
(g50
g51
NtRp722
(dp723
g54
(dp724
g62
I4
ssg63
g718
sg56
(lp725
S'True'
p726
asbasbasbag49
(g65
g51
NtRp727
(dp728
g54
(dp729
sg63
g588
sg56
(lp730
g49
(g70
g51
NtRp731
(dp732
g54
(dp733
g74
g75
ssg63
g727
sg56
(lp734
S'gluon_parent'
p735
asbag49
(g70
g51
NtRp736
(dp737
g54
(dp738
g81
g82
ssg63
g727
sg56
(lp739
S':'
asbag49
(g70
g51
NtRp740
(dp741
g54
(dp742
sg63
g727
sg56
(lp743
g49
(g50
g51
NtRp744
(dp745
g54
(dp746
g62
I4
ssg63
g740
sg56
(lp747
S'C:\\Users\\Bussiere\\Dropbox\\Projets\\jackpoint\\web2py'
p748
asbasbasbag49
(g65
g51
NtRp749
(dp750
g54
(dp751
sg63
g588
sg56
(lp752
g49
(g70
g51
NtRp753
(dp754
g54
(dp755
g74
g75
ssg63
g749
sg56
(lp756
S'http_accept'
p757
asbag49
(g70
g51
NtRp758
(dp759
g54
(dp760
g81
g82
ssg63
g749
sg56
(lp761
S':'
asbag49
(g70
g51
NtRp762
(dp763
g54
(dp764
sg63
g749
sg56
(lp765
g49
(g50
g51
NtRp766
(dp767
g54
(dp768
g62
I4
ssg63
g762
sg56
(lp769
S'text/html,application/xhtml+xml,application/xml;q=0.9,*/*;q=0.8'
p770
asbasbasbag49
(g65
g51
NtRp771
(dp772
g54
(dp773
sg63
g588
sg56
(lp774
g49
(g70
g51
NtRp775
(dp776
g54
(dp777
g74
g75
ssg63
g771
sg56
(lp778
S'http_accept_charset'
p779
asbag49
(g70
g51
NtRp780
(dp781
g54
(dp782
g81
g82
ssg63
g771
sg56
(lp783
S':'
asbag49
(g70
g51
NtRp784
(dp785
g54
(dp786
sg63
g771
sg56
(lp787
g49
(g50
g51
NtRp788
(dp789
g54
(dp790
g62
I4
ssg63
g784
sg56
(lp791
S'ISO-8859-1,utf-8;q=0.7,*;q=0.3'
p792
asbasbasbag49
(g65
g51
NtRp793
(dp794
g54
(dp795
sg63
g588
sg56
(lp796
g49
(g70
g51
NtRp797
(dp798
g54
(dp799
g74
g75
ssg63
g793
sg56
(lp800
S'http_accept_encoding'
p801
asbag49
(g70
g51
NtRp802
(dp803
g54
(dp804
g81
g82
ssg63
g793
sg56
(lp805
S':'
asbag49
(g70
g51
NtRp806
(dp807
g54
(dp808
sg63
g793
sg56
(lp809
g49
(g50
g51
NtRp810
(dp811
g54
(dp812
g62
I4
ssg63
g806
sg56
(lp813
S'gzip,deflate,sdch'
p814
asbasbasbag49
(g65
g51
NtRp815
(dp816
g54
(dp817
sg63
g588
sg56
(lp818
g49
(g70
g51
NtRp819
(dp820
g54
(dp821
g74
g75
ssg63
g815
sg56
(lp822
S'http_accept_language'
p823
asbag49
(g70
g51
NtRp824
(dp825
g54
(dp826
g81
g82
ssg63
g815
sg56
(lp827
S':'
asbag49
(g70
g51
NtRp828
(dp829
g54
(dp830
sg63
g815
sg56
(lp831
g49
(g50
g51
NtRp832
(dp833
g54
(dp834
g62
I4
ssg63
g828
sg56
(lp835
S'en-US,en;q=0.8'
p836
asbasbasbag49
(g65
g51
NtRp837
(dp838
g54
(dp839
sg63
g588
sg56
(lp840
g49
(g70
g51
NtRp841
(dp842
g54
(dp843
g74
g75
ssg63
g837
sg56
(lp844
S'http_cache_control'
p845
asbag49
(g70
g51
NtRp846
(dp847
g54
(dp848
g81
g82
ssg63
g837
sg56
(lp849
S':'
asbag49
(g70
g51
NtRp850
(dp851
g54
(dp852
sg63
g837
sg56
(lp853
g49
(g50
g51
NtRp854
(dp855
g54
(dp856
g62
I4
ssg63
g850
sg56
(lp857
S'max-age=0'
p858
asbasbasbag49
(g65
g51
NtRp859
(dp860
g54
(dp861
sg63
g588
sg56
(lp862
g49
(g70
g51
NtRp863
(dp864
g54
(dp865
g74
g75
ssg63
g859
sg56
(lp866
S'http_connection'
p867
asbag49
(g70
g51
NtRp868
(dp869
g54
(dp870
g81
g82
ssg63
g859
sg56
(lp871
S':'
asbag49
(g70
g51
NtRp872
(dp873
g54
(dp874
sg63
g859
sg56
(lp875
g49
(g50
g51
NtRp876
(dp877
g54
(dp878
g62
I4
ssg63
g872
sg56
(lp879
S'keep-alive'
p880
asbasbasbag49
(g65
g51
NtRp881
(dp882
g54
(dp883
sg63
g588
sg56
(lp884
g49
(g70
g51
NtRp885
(dp886
g54
(dp887
g74
g75
ssg63
g881
sg56
(lp888
S'http_cookie'
p889
asbag49
(g70
g51
NtRp890
(dp891
g54
(dp892
g81
g82
ssg63
g881
sg56
(lp893
S':'
asbag49
(g70
g51
NtRp894
(dp895
g54
(dp896
sg63
g881
sg56
(lp897
g49
(g50
g51
NtRp898
(dp899
g54
(dp900
g62
I4
ssg63
g894
sg56
(lp901
S'session_id_init="22:916ef1c2-7902-46d9-bbc5-80f0afcec41d"; session_id_admin=127.0.0.1-0bfa24bd-fd8c-4100-9bfe-4a468b383bac'
p902
asbasbasbag49
(g65
g51
NtRp903
(dp904
g54
(dp905
sg63
g588
sg56
(lp906
g49
(g70
g51
NtRp907
(dp908
g54
(dp909
g74
g75
ssg63
g903
sg56
(lp910
S'http_host'
p911
asbag49
(g70
g51
NtRp912
(dp913
g54
(dp914
g81
g82
ssg63
g903
sg56
(lp915
S':'
asbag49
(g70
g51
NtRp916
(dp917
g54
(dp918
sg63
g903
sg56
(lp919
g49
(g50
g51
NtRp920
(dp921
g54
(dp922
g62
I4
ssg63
g916
sg56
(lp923
S'localhost:8000'
p924
asbasbasbag49
(g65
g51
NtRp925
(dp926
g54
(dp927
sg63
g588
sg56
(lp928
g49
(g70
g51
NtRp929
(dp930
g54
(dp931
g74
g75
ssg63
g925
sg56
(lp932
S'http_user_agent'
p933
asbag49
(g70
g51
NtRp934
(dp935
g54
(dp936
g81
g82
ssg63
g925
sg56
(lp937
S':'
asbag49
(g70
g51
NtRp938
(dp939
g54
(dp940
sg63
g925
sg56
(lp941
g49
(g50
g51
NtRp942
(dp943
g54
(dp944
g62
I4
ssg63
g938
sg56
(lp945
S'Mozilla/5.0 (Windows NT 6.1; WOW64) AppleWebKit/535.18 (KHTML, like Gecko) Chrome/18.0.1011.0 Safari/535.18'
p946
asbasbasbag49
(g65
g51
NtRp947
(dp948
g54
(dp949
sg63
g588
sg56
(lp950
g49
(g70
g51
NtRp951
(dp952
g54
(dp953
g74
g75
ssg63
g947
sg56
(lp954
S'is_jython'
p955
asbag49
(g70
g51
NtRp956
(dp957
g54
(dp958
g81
g82
ssg63
g947
sg56
(lp959
S':'
asbag49
(g70
g51
NtRp960
(dp961
g54
(dp962
sg63
g947
sg56
(lp963
g49
(g50
g51
NtRp964
(dp965
g54
(dp966
g62
I4
ssg63
g960
sg56
(lp967
g92
asbasbasbag49
(g65
g51
NtRp968
(dp969
g54
(dp970
sg63
g588
sg56
(lp971
g49
(g70
g51
NtRp972
(dp973
g54
(dp974
g74
g75
ssg63
g968
sg56
(lp975
S'is_pypy'
p976
asbag49
(g70
g51
NtRp977
(dp978
g54
(dp979
g81
g82
ssg63
g968
sg56
(lp980
S':'
asbag49
(g70
g51
NtRp981
(dp982
g54
(dp983
sg63
g968
sg56
(lp984
g49
(g50
g51
NtRp985
(dp986
g54
(dp987
g62
I4
ssg63
g981
sg56
(lp988
g92
asbasbasbag49
(g65
g51
NtRp989
(dp990
g54
(dp991
sg63
g588
sg56
(lp992
g49
(g70
g51
NtRp993
(dp994
g54
(dp995
g74
g75
ssg63
g989
sg56
(lp996
S'path_info'
p997
asbag49
(g70
g51
NtRp998
(dp999
g54
(dp1000
g81
g82
ssg63
g989
sg56
(lp1001
S':'
asbag49
(g70
g51
NtRp1002
(dp1003
g54
(dp1004
sg63
g989
sg56
(lp1005
g49
(g50
g51
NtRp1006
(dp1007
g54
(dp1008
g62
I4
ssg63
g1002
sg56
(lp1009
S'/init/default/initdbjack'
p1010
asbasbasbag49
(g65
g51
NtRp1011
(dp1012
g54
(dp1013
sg63
g588
sg56
(lp1014
g49
(g70
g51
NtRp1015
(dp1016
g54
(dp1017
g74
g75
ssg63
g1011
sg56
(lp1018
S'query_string'
p1019
asbag49
(g70
g51
NtRp1020
(dp1021
g54
(dp1022
g81
g82
ssg63
g1011
sg56
(lp1023
S':'
asbag49
(g70
g51
NtRp1024
(dp1025
g54
(dp1026
sg63
g1011
sg56
(lp1027
g49
(g50
g51
NtRp1028
(dp1029
g54
(dp1030
g62
I4
ssg63
g1024
sg56
(lp1031
S''
asbasbasbag49
(g65
g51
NtRp1032
(dp1033
g54
(dp1034
sg63
g588
sg56
(lp1035
g49
(g70
g51
NtRp1036
(dp1037
g54
(dp1038
g74
g75
ssg63
g1032
sg56
(lp1039
S'remote_addr'
p1040
asbag49
(g70
g51
NtRp1041
(dp1042
g54
(dp1043
g81
g82
ssg63
g1032
sg56
(lp1044
S':'
asbag49
(g70
g51
NtRp1045
(dp1046
g54
(dp1047
sg63
g1032
sg56
(lp1048
g49
(g50
g51
NtRp1049
(dp1050
g54
(dp1051
g62
I4
ssg63
g1045
sg56
(lp1052
g182
asbasbasbag49
(g65
g51
NtRp1053
(dp1054
g54
(dp1055
sg63
g588
sg56
(lp1056
g49
(g70
g51
NtRp1057
(dp1058
g54
(dp1059
g74
g75
ssg63
g1053
sg56
(lp1060
S'remote_port'
p1061
asbag49
(g70
g51
NtRp1062
(dp1063
g54
(dp1064
g81
g82
ssg63
g1053
sg56
(lp1065
S':'
asbag49
(g70
g51
NtRp1066
(dp1067
g54
(dp1068
sg63
g1053
sg56
(lp1069
g49
(g50
g51
NtRp1070
(dp1071
g54
(dp1072
g62
I4
ssg63
g1066
sg56
(lp1073
S'56644'
p1074
asbasbasbag49
(g65
g51
NtRp1075
(dp1076
g54
(dp1077
sg63
g588
sg56
(lp1078
g49
(g70
g51
NtRp1079
(dp1080
g54
(dp1081
g74
g75
ssg63
g1075
sg56
(lp1082
S'request_method'
p1083
asbag49
(g70
g51
NtRp1084
(dp1085
g54
(dp1086
g81
g82
ssg63
g1075
sg56
(lp1087
S':'
asbag49
(g70
g51
NtRp1088
(dp1089
g54
(dp1090
sg63
g1075
sg56
(lp1091
g49
(g50
g51
NtRp1092
(dp1093
g54
(dp1094
g62
I4
ssg63
g1088
sg56
(lp1095
S'GET'
p1096
asbasbasbag49
(g65
g51
NtRp1097
(dp1098
g54
(dp1099
sg63
g588
sg56
(lp1100
g49
(g70
g51
NtRp1101
(dp1102
g54
(dp1103
g74
g75
ssg63
g1097
sg56
(lp1104
S'script_name'
p1105
asbag49
(g70
g51
NtRp1106
(dp1107
g54
(dp1108
g81
g82
ssg63
g1097
sg56
(lp1109
S':'
asbag49
(g70
g51
NtRp1110
(dp1111
g54
(dp1112
sg63
g1097
sg56
(lp1113
g49
(g50
g51
NtRp1114
(dp1115
g54
(dp1116
g62
I4
ssg63
g1110
sg56
(lp1117
S''
asbasbasbag49
(g65
g51
NtRp1118
(dp1119
g54
(dp1120
sg63
g588
sg56
(lp1121
g49
(g70
g51
NtRp1122
(dp1123
g54
(dp1124
g74
g75
ssg63
g1118
sg56
(lp1125
S'server_name'
p1126
asbag49
(g70
g51
NtRp1127
(dp1128
g54
(dp1129
g81
g82
ssg63
g1118
sg56
(lp1130
S':'
asbag49
(g70
g51
NtRp1131
(dp1132
g54
(dp1133
sg63
g1118
sg56
(lp1134
g49
(g50
g51
NtRp1135
(dp1136
g54
(dp1137
g62
I4
ssg63
g1131
sg56
(lp1138
S'Batou'
p1139
asbasbasbag49
(g65
g51
NtRp1140
(dp1141
g54
(dp1142
sg63
g588
sg56
(lp1143
g49
(g70
g51
NtRp1144
(dp1145
g54
(dp1146
g74
g75
ssg63
g1140
sg56
(lp1147
S'server_port'
p1148
asbag49
(g70
g51
NtRp1149
(dp1150
g54
(dp1151
g81
g82
ssg63
g1140
sg56
(lp1152
S':'
asbag49
(g70
g51
NtRp1153
(dp1154
g54
(dp1155
sg63
g1140
sg56
(lp1156
g49
(g50
g51
NtRp1157
(dp1158
g54
(dp1159
g62
I4
ssg63
g1153
sg56
(lp1160
S'8000'
p1161
asbasbasbag49
(g65
g51
NtRp1162
(dp1163
g54
(dp1164
sg63
g588
sg56
(lp1165
g49
(g70
g51
NtRp1166
(dp1167
g54
(dp1168
g74
g75
ssg63
g1162
sg56
(lp1169
S'server_protocol'
p1170
asbag49
(g70
g51
NtRp1171
(dp1172
g54
(dp1173
g81
g82
ssg63
g1162
sg56
(lp1174
S':'
asbag49
(g70
g51
NtRp1175
(dp1176
g54
(dp1177
sg63
g1162
sg56
(lp1178
g49
(g50
g51
NtRp1179
(dp1180
g54
(dp1181
g62
I4
ssg63
g1175
sg56
(lp1182
S'HTTP/1.1'
p1183
asbasbasbag49
(g65
g51
NtRp1184
(dp1185
g54
(dp1186
sg63
g588
sg56
(lp1187
g49
(g70
g51
NtRp1188
(dp1189
g54
(dp1190
g74
g75
ssg63
g1184
sg56
(lp1191
S'server_software'
p1192
asbag49
(g70
g51
NtRp1193
(dp1194
g54
(dp1195
g81
g82
ssg63
g1184
sg56
(lp1196
S':'
asbag49
(g70
g51
NtRp1197
(dp1198
g54
(dp1199
sg63
g1184
sg56
(lp1200
g49
(g50
g51
NtRp1201
(dp1202
g54
(dp1203
g62
I4
ssg63
g1197
sg56
(lp1204
S'Rocket 1.2.4'
p1205
asbasbasbag49
(g65
g51
NtRp1206
(dp1207
g54
(dp1208
sg63
g588
sg56
(lp1209
g49
(g70
g51
NtRp1210
(dp1211
g54
(dp1212
g74
g75
ssg63
g1206
sg56
(lp1213
S'web2py_crontype'
p1214
asbag49
(g70
g51
NtRp1215
(dp1216
g54
(dp1217
g81
g82
ssg63
g1206
sg56
(lp1218
S':'
asbag49
(g70
g51
NtRp1219
(dp1220
g54
(dp1221
sg63
g1206
sg56
(lp1222
g49
(g50
g51
NtRp1223
(dp1224
g54
(dp1225
g62
I4
ssg63
g1219
sg56
(lp1226
S'hard'
p1227
asbasbasbag49
(g65
g51
NtRp1228
(dp1229
g54
(dp1230
sg63
g588
sg56
(lp1231
g49
(g70
g51
NtRp1232
(dp1233
g54
(dp1234
g74
g75
ssg63
g1228
sg56
(lp1235
S'web2py_path'
p1236
asbag49
(g70
g51
NtRp1237
(dp1238
g54
(dp1239
g81
g82
ssg63
g1228
sg56
(lp1240
S':'
asbag49
(g70
g51
NtRp1241
(dp1242
g54
(dp1243
sg63
g1228
sg56
(lp1244
g49
(g50
g51
NtRp1245
(dp1246
g54
(dp1247
g62
I4
ssg63
g1241
sg56
(lp1248
g635
asbasbasbag49
(g65
g51
NtRp1249
(dp1250
g54
(dp1251
sg63
g588
sg56
(lp1252
g49
(g70
g51
NtRp1253
(dp1254
g54
(dp1255
g74
g75
ssg63
g1249
sg56
(lp1256
S'web2py_version'
p1257
asbag49
(g70
g51
NtRp1258
(dp1259
g54
(dp1260
g81
g82
ssg63
g1249
sg56
(lp1261
S':'
asbag49
(g70
g51
NtRp1262
(dp1263
g54
(dp1264
sg63
g1249
sg56
(lp1265
g49
(g50
g51
NtRp1266
(dp1267
g54
(dp1268
g62
I4
ssg63
g1262
sg56
(lp1269
g49
(g58
g51
NtRp1270
(dp1271
g54
(dp1272
g62
I3
ssg63
Nsg56
(lp1273
g49
(g65
g51
NtRp1274
(dp1275
g54
(dp1276
sg63
g1270
sg56
(lp1277
g49
(g70
g51
NtRp1278
(dp1279
g54
(dp1280
sg63
g1274
sg56
(lp1281
g49
(g50
g51
NtRp1282
(dp1283
g54
(dp1284
g62
I3
ssg63
g1278
sg56
(lp1285
S'1'
asbasbasbag49
(g65
g51
NtRp1286
(dp1287
g54
(dp1288
sg63
g1270
sg56
(lp1289
g49
(g70
g51
NtRp1290
(dp1291
g54
(dp1292
sg63
g1286
sg56
(lp1293
g49
(g50
g51
NtRp1294
(dp1295
g54
(dp1296
g62
I3
ssg63
g1290
sg56
(lp1297
S'99'
p1298
asbasbasbag49
(g65
g51
NtRp1299
(dp1300
g54
(dp1301
sg63
g1270
sg56
(lp1302
g49
(g70
g51
NtRp1303
(dp1304
g54
(dp1305
sg63
g1299
sg56
(lp1306
g49
(g50
g51
NtRp1307
(dp1308
g54
(dp1309
g62
I3
ssg63
g1303
sg56
(lp1310
S'7'
asbasbasbag49
(g65
g51
NtRp1311
(dp1312
g54
(dp1313
sg63
g1270
sg56
(lp1314
g49
(g70
g51
NtRp1315
(dp1316
g54
(dp1317
sg63
g1311
sg56
(lp1318
g49
(g50
g51
NtRp1319
(dp1320
g54
(dp1321
g62
I3
ssg63
g1315
sg56
(lp1322
S'datetime.datetime(2012, 3, 4, 22, 12, 8)'
p1323
asbasbasbag49
(g65
g51
NtRp1324
(dp1325
g54
(dp1326
sg63
g1270
sg56
(lp1327
g49
(g70
g51
NtRp1328
(dp1329
g54
(dp1330
sg63
g1324
sg56
(lp1331
g49
(g50
g51
NtRp1332
(dp1333
g54
(dp1334
g62
I3
ssg63
g1328
sg56
(lp1335
S'stable'
p1336
asbasbasbasbasbasbasbag49
(g65
g51
NtRp1337
(dp1338
g54
(dp1339
sg63
g588
sg56
(lp1340
g49
(g70
g51
NtRp1341
(dp1342
g54
(dp1343
g74
g75
ssg63
g1337
sg56
(lp1344
S'wsgi_errors'
p1345
asbag49
(g70
g51
NtRp1346
(dp1347
g54
(dp1348
g81
g82
ssg63
g1337
sg56
(lp1349
S':'
asbag49
(g70
g51
NtRp1350
(dp1351
g54
(dp1352
sg63
g1337
sg56
(lp1353
g49
(g50
g51
NtRp1354
(dp1355
g54
(dp1356
g62
I4
ssg63
g1350
sg56
(lp1357
S"<open file '<stderr>', mode 'w' at 0x004300B0>"
p1358
asbasbasbag49
(g65
g51
NtRp1359
(dp1360
g54
(dp1361
sg63
g588
sg56
(lp1362
g49
(g70
g51
NtRp1363
(dp1364
g54
(dp1365
g74
g75
ssg63
g1359
sg56
(lp1366
S'wsgi_file_wrapper'
p1367
asbag49
(g70
g51
NtRp1368
(dp1369
g54
(dp1370
g81
g82
ssg63
g1359
sg56
(lp1371
S':'
asbag49
(g70
g51
NtRp1372
(dp1373
g54
(dp1374
sg63
g1359
sg56
(lp1375
g49
(g50
g51
NtRp1376
(dp1377
g54
(dp1378
g62
I4
ssg63
g1372
sg56
(lp1379
S'<class wsgiref.util.FileWrapper at 0x02C44900>'
p1380
asbasbasbag49
(g65
g51
NtRp1381
(dp1382
g54
(dp1383
sg63
g588
sg56
(lp1384
g49
(g70
g51
NtRp1385
(dp1386
g54
(dp1387
g74
g75
ssg63
g1381
sg56
(lp1388
S'wsgi_input'
p1389
asbag49
(g70
g51
NtRp1390
(dp1391
g54
(dp1392
g81
g82
ssg63
g1381
sg56
(lp1393
S':'
asbag49
(g70
g51
NtRp1394
(dp1395
g54
(dp1396
sg63
g1381
sg56
(lp1397
g49
(g50
g51
NtRp1398
(dp1399
g54
(dp1400
g62
I4
ssg63
g1394
sg56
(lp1401
S'<socket._fileobject object at 0x03CA3CB0>'
p1402
asbasbasbag49
(g65
g51
NtRp1403
(dp1404
g54
(dp1405
sg63
g588
sg56
(lp1406
g49
(g70
g51
NtRp1407
(dp1408
g54
(dp1409
g74
g75
ssg63
g1403
sg56
(lp1410
S'wsgi_multiprocess'
p1411
asbag49
(g70
g51
NtRp1412
(dp1413
g54
(dp1414
g81
g82
ssg63
g1403
sg56
(lp1415
S':'
asbag49
(g70
g51
NtRp1416
(dp1417
g54
(dp1418
sg63
g1403
sg56
(lp1419
g49
(g50
g51
NtRp1420
(dp1421
g54
(dp1422
g62
I4
ssg63
g1416
sg56
(lp1423
g92
asbasbasbag49
(g65
g51
NtRp1424
(dp1425
g54
(dp1426
sg63
g588
sg56
(lp1427
g49
(g70
g51
NtRp1428
(dp1429
g54
(dp1430
g74
g75
ssg63
g1424
sg56
(lp1431
S'wsgi_multithread'
p1432
asbag49
(g70
g51
NtRp1433
(dp1434
g54
(dp1435
g81
g82
ssg63
g1424
sg56
(lp1436
S':'
asbag49
(g70
g51
NtRp1437
(dp1438
g54
(dp1439
sg63
g1424
sg56
(lp1440
g49
(g50
g51
NtRp1441
(dp1442
g54
(dp1443
g62
I4
ssg63
g1437
sg56
(lp1444
g726
asbasbasbag49
(g65
g51
NtRp1445
(dp1446
g54
(dp1447
sg63
g588
sg56
(lp1448
g49
(g70
g51
NtRp1449
(dp1450
g54
(dp1451
g74
g75
ssg63
g1445
sg56
(lp1452
S'wsgi_run_once'
p1453
asbag49
(g70
g51
NtRp1454
(dp1455
g54
(dp1456
g81
g82
ssg63
g1445
sg56
(lp1457
S':'
asbag49
(g70
g51
NtRp1458
(dp1459
g54
(dp1460
sg63
g1445
sg56
(lp1461
g49
(g50
g51
NtRp1462
(dp1463
g54
(dp1464
g62
I4
ssg63
g1458
sg56
(lp1465
g92
asbasbasbag49
(g65
g51
NtRp1466
(dp1467
g54
(dp1468
sg63
g588
sg56
(lp1469
g49
(g70
g51
NtRp1470
(dp1471
g54
(dp1472
g74
g75
ssg63
g1466
sg56
(lp1473
S'wsgi_url_scheme'
p1474
asbag49
(g70
g51
NtRp1475
(dp1476
g54
(dp1477
g81
g82
ssg63
g1466
sg56
(lp1478
S':'
asbag49
(g70
g51
NtRp1479
(dp1480
g54
(dp1481
sg63
g1466
sg56
(lp1482
g49
(g50
g51
NtRp1483
(dp1484
g54
(dp1485
g62
I4
ssg63
g1479
sg56
(lp1486
S'http'
p1487
asbasbasbag49
(g65
g51
NtRp1488
(dp1489
g54
(dp1490
sg63
g588
sg56
(lp1491
g49
(g70
g51
NtRp1492
(dp1493
g54
(dp1494
g74
g75
ssg63
g1488
sg56
(lp1495
S'wsgi_version'
p1496
asbag49
(g70
g51
NtRp1497
(dp1498
g54
(dp1499
g81
g82
ssg63
g1488
sg56
(lp1500
S':'
asbag49
(g70
g51
NtRp1501
(dp1502
g54
(dp1503
sg63
g1488
sg56
(lp1504
g49
(g50
g51
NtRp1505
(dp1506
g54
(dp1507
g62
I4
ssg63
g1501
sg56
(lp1508
g49
(g58
g51
NtRp1509
(dp1510
g54
(dp1511
g62
I3
ssg63
Nsg56
(lp1512
g49
(g65
g51
NtRp1513
(dp1514
g54
(dp1515
sg63
g1509
sg56
(lp1516
g49
(g70
g51
NtRp1517
(dp1518
g54
(dp1519
sg63
g1513
sg56
(lp1520
g49
(g50
g51
NtRp1521
(dp1522
g54
(dp1523
g62
I3
ssg63
g1517
sg56
(lp1524
S'1'
asbasbasbag49
(g65
g51
NtRp1525
(dp1526
g54
(dp1527
sg63
g1509
sg56
(lp1528
g49
(g70
g51
NtRp1529
(dp1530
g54
(dp1531
sg63
g1525
sg56
(lp1532
g49
(g50
g51
NtRp1533
(dp1534
g54
(dp1535
g62
I3
ssg63
g1529
sg56
(lp1536
S'0'
asbasbasbasbasbasbasbasbasbasbasbag49
(g65
g51
NtRp1537
(dp1538
g54
(dp1539
sg63
g59
sg56
(lp1540
g49
(g70
g51
NtRp1541
(dp1542
g54
(dp1543
g74
g75
ssg63
g1537
sg56
(lp1544
S'extension'
p1545
asbag49
(g70
g51
NtRp1546
(dp1547
g54
(dp1548
g81
g82
ssg63
g1537
sg56
(lp1549
S':'
asbag49
(g70
g51
NtRp1550
(dp1551
g54
(dp1552
sg63
g1537
sg56
(lp1553
g49
(g50
g51
NtRp1554
(dp1555
g54
(dp1556
g62
I5
ssg63
g1550
sg56
(lp1557
S'html'
p1558
asbasbasbag49
(g65
g51
NtRp1559
(dp1560
g54
(dp1561
sg63
g59
sg56
(lp1562
g49
(g70
g51
NtRp1563
(dp1564
g54
(dp1565
g74
g75
ssg63
g1559
sg56
(lp1566
S'folder'
p1567
asbag49
(g70
g51
NtRp1568
(dp1569
g54
(dp1570
g81
g82
ssg63
g1559
sg56
(lp1571
S':'
asbag49
(g70
g51
NtRp1572
(dp1573
g54
(dp1574
sg63
g1559
sg56
(lp1575
g49
(g50
g51
NtRp1576
(dp1577
g54
(dp1578
g62
I5
ssg63
g1572
sg56
(lp1579
S'C:\\Users\\Bussiere\\Dropbox\\Projets\\jackpoint\\web2py\\applications\\init\\'
p1580
asbasbasbag49
(g65
g51
NtRp1581
(dp1582
g54
(dp1583
sg63
g59
sg56
(lp1584
g49
(g70
g51
NtRp1585
(dp1586
g54
(dp1587
g74
g75
ssg63
g1581
sg56
(lp1588
S'function'
p1589
asbag49
(g70
g51
NtRp1590
(dp1591
g54
(dp1592
g81
g82
ssg63
g1581
sg56
(lp1593
S':'
asbag49
(g70
g51
NtRp1594
(dp1595
g54
(dp1596
sg63
g1581
sg56
(lp1597
g49
(g50
g51
NtRp1598
(dp1599
g54
(dp1600
g62
I5
ssg63
g1594
sg56
(lp1601
S'initdbjack'
p1602
asbasbasbag49
(g65
g51
NtRp1603
(dp1604
g54
(dp1605
sg63
g59
sg56
(lp1606
g49
(g70
g51
NtRp1607
(dp1608
g54
(dp1609
g74
g75
ssg63
g1603
sg56
(lp1610
S'get_vars'
p1611
asbag49
(g70
g51
NtRp1612
(dp1613
g54
(dp1614
g81
g82
ssg63
g1603
sg56
(lp1615
S':'
asbag49
(g70
g51
NtRp1616
(dp1617
g54
(dp1618
sg63
g1603
sg56
(lp1619
g49
(g50
g51
NtRp1620
(dp1621
g54
(dp1622
g62
I5
ssg63
g1616
sg56
(lp1623
g49
(g58
g51
NtRp1624
(dp1625
g54
(dp1626
g62
I4
ssg63
Nsg56
(lp1627
sbasbasbasbag49
(g65
g51
NtRp1628
(dp1629
g54
(dp1630
sg63
g59
sg56
(lp1631
g49
(g70
g51
NtRp1632
(dp1633
g54
(dp1634
g74
g75
ssg63
g1628
sg56
(lp1635
S'global_settings'
p1636
asbag49
(g70
g51
NtRp1637
(dp1638
g54
(dp1639
g81
g82
ssg63
g1628
sg56
(lp1640
S':'
asbag49
(g70
g51
NtRp1641
(dp1642
g54
(dp1643
sg63
g1628
sg56
(lp1644
g49
(g50
g51
NtRp1645
(dp1646
g54
(dp1647
g62
I5
ssg63
g1641
sg56
(lp1648
g49
(g58
g51
NtRp1649
(dp1650
g54
(dp1651
g62
I4
ssg63
Nsg56
(lp1652
g49
(g65
g51
NtRp1653
(dp1654
g54
(dp1655
sg63
g1649
sg56
(lp1656
g49
(g70
g51
NtRp1657
(dp1658
g54
(dp1659
g74
g75
ssg63
g1653
sg56
(lp1660
g600
asbag49
(g70
g51
NtRp1661
(dp1662
g54
(dp1663
g81
g82
ssg63
g1653
sg56
(lp1664
S':'
asbag49
(g70
g51
NtRp1665
(dp1666
g54
(dp1667
sg63
g1653
sg56
(lp1668
g49
(g50
g51
NtRp1669
(dp1670
g54
(dp1671
g62
I4
ssg63
g1665
sg56
(lp1672
S"set(['C:\\\\Users\\\\Bussiere\\\\Dropbox\\\\Projets\\\\jackpoint\\\\web2py\\\\applications\\\\init\\\\', 'C:\\\\Users\\\\Bussiere\\\\Dropbox\\\\Projets\\\\jackpoint\\\\web2py\\\\applications\\\\admin\\\\'])"
p1673
asbasbasbag49
(g65
g51
NtRp1674
(dp1675
g54
(dp1676
sg63
g1649
sg56
(lp1677
g49
(g70
g51
NtRp1678
(dp1679
g54
(dp1680
g74
g75
ssg63
g1674
sg56
(lp1681
g622
asbag49
(g70
g51
NtRp1682
(dp1683
g54
(dp1684
g81
g82
ssg63
g1674
sg56
(lp1685
S':'
asbag49
(g70
g51
NtRp1686
(dp1687
g54
(dp1688
sg63
g1674
sg56
(lp1689
g49
(g50
g51
NtRp1690
(dp1691
g54
(dp1692
g62
I4
ssg63
g1686
sg56
(lp1693
g635
asbasbasbag49
(g65
g51
NtRp1694
(dp1695
g54
(dp1696
sg63
g1649
sg56
(lp1697
g49
(g70
g51
NtRp1698
(dp1699
g54
(dp1700
g74
g75
ssg63
g1694
sg56
(lp1701
g644
asbag49
(g70
g51
NtRp1702
(dp1703
g54
(dp1704
g81
g82
ssg63
g1694
sg56
(lp1705
S':'
asbag49
(g70
g51
NtRp1706
(dp1707
g54
(dp1708
sg63
g1694
sg56
(lp1709
g49
(g50
g51
NtRp1710
(dp1711
g54
(dp1712
g62
I4
ssg63
g1706
sg56
(lp1713
g49
(g58
g51
NtRp1714
(dp1715
g54
(dp1716
g62
I3
ssg63
Nsg56
(lp1717
sbasbasbasbag49
(g65
g51
NtRp1718
(dp1719
g54
(dp1720
sg63
g1649
sg56
(lp1721
g49
(g70
g51
NtRp1722
(dp1723
g54
(dp1724
g74
g75
ssg63
g1718
sg56
(lp1725
g669
asbag49
(g70
g51
NtRp1726
(dp1727
g54
(dp1728
g81
g82
ssg63
g1718
sg56
(lp1729
S':'
asbag49
(g70
g51
NtRp1730
(dp1731
g54
(dp1732
sg63
g1718
sg56
(lp1733
g49
(g50
g51
NtRp1734
(dp1735
g54
(dp1736
g62
I4
ssg63
g1730
sg56
(lp1737
S"<Values at 0x3ca5fa8: {'verbose': False, 'ip': '127.0.0.1', 'shutdown_timeout': 5, 'taskbar': False, 'nocron': False, 'pid_filename': 'httpserver.pid', 'maxthreads': None, 'softcron': False, 'server_name': 'Batou', 'bpython': False, 'nogui': False, 'port': 8000, 'extcron': False, 'debuglevel': 30, 'test': None, 'folder': 'C:\\\\Users\\\\Bussiere\\\\Dropbox\\\\Projets\\\\jackpoint\\\\web2py', 'config': '', 'import_models': False, 'winservice': '', 'shell': None, 'run': '', 'log_filename': 'httpserver.log', 'args': [''], 'socket_timeout': 5, 'ssl_ca_certificate': None, 'scheduler': None, 'profiler_filename': None, 'ssl_private_key': '', 'password': '<ask>', 'request_queue_size': 5, 'ssl_certificate': '', 'cronjob': False, 'numthreads': None, 'quiet': False, 'interfaces': None, 'minthreads': None, 'timeout': 10, 'plain': False, 'nobanner': False}>"
p1738
asbasbasbag49
(g65
g51
NtRp1739
(dp1740
g54
(dp1741
sg63
g1649
sg56
(lp1742
g49
(g70
g51
NtRp1743
(dp1744
g54
(dp1745
g74
g75
ssg63
g1739
sg56
(lp1746
g691
asbag49
(g70
g51
NtRp1747
(dp1748
g54
(dp1749
g81
g82
ssg63
g1739
sg56
(lp1750
S':'
asbag49
(g70
g51
NtRp1751
(dp1752
g54
(dp1753
sg63
g1739
sg56
(lp1754
g49
(g50
g51
NtRp1755
(dp1756
g54
(dp1757
g62
I4
ssg63
g1751
sg56
(lp1758
S"set(['init'])"
p1759
asbasbasbag49
(g65
g51
NtRp1760
(dp1761
g54
(dp1762
sg63
g1649
sg56
(lp1763
g49
(g70
g51
NtRp1764
(dp1765
g54
(dp1766
g74
g75
ssg63
g1760
sg56
(lp1767
g713
asbag49
(g70
g51
NtRp1768
(dp1769
g54
(dp1770
g81
g82
ssg63
g1760
sg56
(lp1771
S':'
asbag49
(g70
g51
NtRp1772
(dp1773
g54
(dp1774
sg63
g1760
sg56
(lp1775
g49
(g50
g51
NtRp1776
(dp1777
g54
(dp1778
g62
I4
ssg63
g1772
sg56
(lp1779
g726
asbasbasbag49
(g65
g51
NtRp1780
(dp1781
g54
(dp1782
sg63
g1649
sg56
(lp1783
g49
(g70
g51
NtRp1784
(dp1785
g54
(dp1786
g74
g75
ssg63
g1780
sg56
(lp1787
g735
asbag49
(g70
g51
NtRp1788
(dp1789
g54
(dp1790
g81
g82
ssg63
g1780
sg56
(lp1791
S':'
asbag49
(g70
g51
NtRp1792
(dp1793
g54
(dp1794
sg63
g1780
sg56
(lp1795
g49
(g50
g51
NtRp1796
(dp1797
g54
(dp1798
g62
I4
ssg63
g1792
sg56
(lp1799
g748
asbasbasbag49
(g65
g51
NtRp1800
(dp1801
g54
(dp1802
sg63
g1649
sg56
(lp1803
g49
(g70
g51
NtRp1804
(dp1805
g54
(dp1806
g74
g75
ssg63
g1800
sg56
(lp1807
g955
asbag49
(g70
g51
NtRp1808
(dp1809
g54
(dp1810
g81
g82
ssg63
g1800
sg56
(lp1811
S':'
asbag49
(g70
g51
NtRp1812
(dp1813
g54
(dp1814
sg63
g1800
sg56
(lp1815
g49
(g50
g51
NtRp1816
(dp1817
g54
(dp1818
g62
I4
ssg63
g1812
sg56
(lp1819
g92
asbasbasbag49
(g65
g51
NtRp1820
(dp1821
g54
(dp1822
sg63
g1649
sg56
(lp1823
g49
(g70
g51
NtRp1824
(dp1825
g54
(dp1826
g74
g75
ssg63
g1820
sg56
(lp1827
g976
asbag49
(g70
g51
NtRp1828
(dp1829
g54
(dp1830
g81
g82
ssg63
g1820
sg56
(lp1831
S':'
asbag49
(g70
g51
NtRp1832
(dp1833
g54
(dp1834
sg63
g1820
sg56
(lp1835
g49
(g50
g51
NtRp1836
(dp1837
g54
(dp1838
g62
I4
ssg63
g1832
sg56
(lp1839
g92
asbasbasbag49
(g65
g51
NtRp1840
(dp1841
g54
(dp1842
sg63
g1649
sg56
(lp1843
g49
(g70
g51
NtRp1844
(dp1845
g54
(dp1846
g74
g75
ssg63
g1840
sg56
(lp1847
g1214
asbag49
(g70
g51
NtRp1848
(dp1849
g54
(dp1850
g81
g82
ssg63
g1840
sg56
(lp1851
S':'
asbag49
(g70
g51
NtRp1852
(dp1853
g54
(dp1854
sg63
g1840
sg56
(lp1855
g49
(g50
g51
NtRp1856
(dp1857
g54
(dp1858
g62
I4
ssg63
g1852
sg56
(lp1859
g1227
asbasbasbag49
(g65
g51
NtRp1860
(dp1861
g54
(dp1862
sg63
g1649
sg56
(lp1863
g49
(g70
g51
NtRp1864
(dp1865
g54
(dp1866
g74
g75
ssg63
g1860
sg56
(lp1867
g1257
asbag49
(g70
g51
NtRp1868
(dp1869
g54
(dp1870
g81
g82
ssg63
g1860
sg56
(lp1871
S':'
asbag49
(g70
g51
NtRp1872
(dp1873
g54
(dp1874
sg63
g1860
sg56
(lp1875
g49
(g50
g51
NtRp1876
(dp1877
g54
(dp1878
g62
I4
ssg63
g1872
sg56
(lp1879
g49
(g58
g51
NtRp1880
(dp1881
g54
(dp1882
g62
I3
ssg63
Nsg56
(lp1883
g49
(g65
g51
NtRp1884
(dp1885
g54
(dp1886
sg63
g1880
sg56
(lp1887
g49
(g70
g51
NtRp1888
(dp1889
g54
(dp1890
sg63
g1884
sg56
(lp1891
g49
(g50
g51
NtRp1892
(dp1893
g54
(dp1894
g62
I3
ssg63
g1888
sg56
(lp1895
S'1'
asbasbasbag49
(g65
g51
NtRp1896
(dp1897
g54
(dp1898
sg63
g1880
sg56
(lp1899
g49
(g70
g51
NtRp1900
(dp1901
g54
(dp1902
sg63
g1896
sg56
(lp1903
g49
(g50
g51
NtRp1904
(dp1905
g54
(dp1906
g62
I3
ssg63
g1900
sg56
(lp1907
S'99'
p1908
asbasbasbag49
(g65
g51
NtRp1909
(dp1910
g54
(dp1911
sg63
g1880
sg56
(lp1912
g49
(g70
g51
NtRp1913
(dp1914
g54
(dp1915
sg63
g1909
sg56
(lp1916
g49
(g50
g51
NtRp1917
(dp1918
g54
(dp1919
g62
I3
ssg63
g1913
sg56
(lp1920
S'7'
asbasbasbag49
(g65
g51
NtRp1921
(dp1922
g54
(dp1923
sg63
g1880
sg56
(lp1924
g49
(g70
g51
NtRp1925
(dp1926
g54
(dp1927
sg63
g1921
sg56
(lp1928
g49
(g50
g51
NtRp1929
(dp1930
g54
(dp1931
g62
I3
ssg63
g1925
sg56
(lp1932
S'datetime.datetime(2012, 3, 4, 22, 12, 8)'
p1933
asbasbasbag49
(g65
g51
NtRp1934
(dp1935
g54
(dp1936
sg63
g1880
sg56
(lp1937
g49
(g70
g51
NtRp1938
(dp1939
g54
(dp1940
sg63
g1934
sg56
(lp1941
g49
(g50
g51
NtRp1942
(dp1943
g54
(dp1944
g62
I3
ssg63
g1938
sg56
(lp1945
g1336
asbasbasbasbasbasbasbasbasbasbasbag49
(g65
g51
NtRp1946
(dp1947
g54
(dp1948
sg63
g59
sg56
(lp1949
g49
(g70
g51
NtRp1950
(dp1951
g54
(dp1952
g74
g75
ssg63
g1946
sg56
(lp1953
S'is_https'
p1954
asbag49
(g70
g51
NtRp1955
(dp1956
g54
(dp1957
g81
g82
ssg63
g1946
sg56
(lp1958
S':'
asbag49
(g70
g51
NtRp1959
(dp1960
g54
(dp1961
sg63
g1946
sg56
(lp1962
g49
(g50
g51
NtRp1963
(dp1964
g54
(dp1965
g62
I5
ssg63
g1959
sg56
(lp1966
g92
asbasbasbag49
(g65
g51
NtRp1967
(dp1968
g54
(dp1969
sg63
g59
sg56
(lp1970
g49
(g70
g51
NtRp1971
(dp1972
g54
(dp1973
g74
g75
ssg63
g1967
sg56
(lp1974
S'is_local'
p1975
asbag49
(g70
g51
NtRp1976
(dp1977
g54
(dp1978
g81
g82
ssg63
g1967
sg56
(lp1979
S':'
asbag49
(g70
g51
NtRp1980
(dp1981
g54
(dp1982
sg63
g1967
sg56
(lp1983
g49
(g50
g51
NtRp1984
(dp1985
g54
(dp1986
g62
I5
ssg63
g1980
sg56
(lp1987
g726
asbasbasbag49
(g65
g51
NtRp1988
(dp1989
g54
(dp1990
sg63
g59
sg56
(lp1991
g49
(g70
g51
NtRp1992
(dp1993
g54
(dp1994
g74
g75
ssg63
g1988
sg56
(lp1995
S'is_restful'
p1996
asbag49
(g70
g51
NtRp1997
(dp1998
g54
(dp1999
g81
g82
ssg63
g1988
sg56
(lp2000
S':'
asbag49
(g70
g51
NtRp2001
(dp2002
g54
(dp2003
sg63
g1988
sg56
(lp2004
g49
(g50
g51
NtRp2005
(dp2006
g54
(dp2007
g62
I5
ssg63
g2001
sg56
(lp2008
g92
asbasbasbag49
(g65
g51
NtRp2009
(dp2010
g54
(dp2011
sg63
g59
sg56
(lp2012
g49
(g70
g51
NtRp2013
(dp2014
g54
(dp2015
g74
g75
ssg63
g2009
sg56
(lp2016
S'now'
p2017
asbag49
(g70
g51
NtRp2018
(dp2019
g54
(dp2020
g81
g82
ssg63
g2009
sg56
(lp2021
S':'
asbag49
(g70
g51
NtRp2022
(dp2023
g54
(dp2024
sg63
g2009
sg56
(lp2025
g49
(g50
g51
NtRp2026
(dp2027
g54
(dp2028
g62
I5
ssg63
g2022
sg56
(lp2029
S'datetime.datetime(2012, 3, 29, 23, 27, 7, 262000)'
p2030
asbasbasbag49
(g65
g51
NtRp2031
(dp2032
g54
(dp2033
sg63
g59
sg56
(lp2034
g49
(g70
g51
NtRp2035
(dp2036
g54
(dp2037
g74
g75
ssg63
g2031
sg56
(lp2038
S'post_vars'
p2039
asbag49
(g70
g51
NtRp2040
(dp2041
g54
(dp2042
g81
g82
ssg63
g2031
sg56
(lp2043
S':'
asbag49
(g70
g51
NtRp2044
(dp2045
g54
(dp2046
sg63
g2031
sg56
(lp2047
g49
(g50
g51
NtRp2048
(dp2049
g54
(dp2050
g62
I5
ssg63
g2044
sg56
(lp2051
g49
(g58
g51
NtRp2052
(dp2053
g54
(dp2054
g62
I4
ssg63
Nsg56
(lp2055
sbasbasbasbag49
(g65
g51
NtRp2056
(dp2057
g54
(dp2058
sg63
g59
sg56
(lp2059
g49
(g70
g51
NtRp2060
(dp2061
g54
(dp2062
g74
g75
ssg63
g2056
sg56
(lp2063
S'url'
p2064
asbag49
(g70
g51
NtRp2065
(dp2066
g54
(dp2067
g81
g82
ssg63
g2056
sg56
(lp2068
S':'
asbag49
(g70
g51
NtRp2069
(dp2070
g54
(dp2071
sg63
g2056
sg56
(lp2072
g49
(g50
g51
NtRp2073
(dp2074
g54
(dp2075
g62
I5
ssg63
g2069
sg56
(lp2076
S'/init/default/initdbjack'
p2077
asbasbasbag49
(g65
g51
NtRp2078
(dp2079
g54
(dp2080
sg63
g59
sg56
(lp2081
g49
(g70
g51
NtRp2082
(dp2083
g54
(dp2084
g74
g75
ssg63
g2078
sg56
(lp2085
S'utcnow'
p2086
asbag49
(g70
g51
NtRp2087
(dp2088
g54
(dp2089
g81
g82
ssg63
g2078
sg56
(lp2090
S':'
asbag49
(g70
g51
NtRp2091
(dp2092
g54
(dp2093
sg63
g2078
sg56
(lp2094
g49
(g50
g51
NtRp2095
(dp2096
g54
(dp2097
g62
I5
ssg63
g2091
sg56
(lp2098
S'datetime.datetime(2012, 3, 29, 21, 27, 7, 262000)'
p2099
asbasbasbag49
(g65
g51
NtRp2100
(dp2101
g54
(dp2102
sg63
g59
sg56
(lp2103
g49
(g70
g51
NtRp2104
(dp2105
g54
(dp2106
g74
g75
ssg63
g2100
sg56
(lp2107
S'uuid'
p2108
asbag49
(g70
g51
NtRp2109
(dp2110
g54
(dp2111
g81
g82
ssg63
g2100
sg56
(lp2112
S':'
asbag49
(g70
g51
NtRp2113
(dp2114
g54
(dp2115
sg63
g2100
sg56
(lp2116
g49
(g50
g51
NtRp2117
(dp2118
g54
(dp2119
g62
I5
ssg63
g2113
sg56
(lp2120
S'init/127.0.0.1.2012-03-29.23-27-07.cc9963ba-77b4-41ca-919b-146d50e7dc10'
p2121
asbasbasbag49
(g65
g51
NtRp2122
(dp2123
g54
(dp2124
sg63
g59
sg56
(lp2125
g49
(g70
g51
NtRp2126
(dp2127
g54
(dp2128
g74
g75
ssg63
g2122
sg56
(lp2129
S'vars'
p2130
asbag49
(g70
g51
NtRp2131
(dp2132
g54
(dp2133
g81
g82
ssg63
g2122
sg56
(lp2134
S':'
asbag49
(g70
g51
NtRp2135
(dp2136
g54
(dp2137
sg63
g2122
sg56
(lp2138
g49
(g50
g51
NtRp2139
(dp2140
g54
(dp2141
g62
I5
ssg63
g2135
sg56
(lp2142
g49
(g58
g51
NtRp2143
(dp2144
g54
(dp2145
g62
I4
ssg63
Nsg56
(lp2146
sbasbasbasbag49
(g65
g51
NtRp2147
(dp2148
g54
(dp2149
sg63
g59
sg56
(lp2150
g49
(g70
g51
NtRp2151
(dp2152
g54
(dp2153
g74
g75
ssg63
g2147
sg56
(lp2154
S'wsgi'
p2155
asbag49
(g70
g51
NtRp2156
(dp2157
g54
(dp2158
g81
g82
ssg63
g2147
sg56
(lp2159
S':'
asbag49
(g70
g51
NtRp2160
(dp2161
g54
(dp2162
sg63
g2147
sg56
(lp2163
g49
(g50
g51
NtRp2164
(dp2165
g54
(dp2166
g62
I5
ssg63
g2160
sg56
(lp2167
g49
(g58
g51
NtRp2168
(dp2169
g54
(dp2170
g62
I4
ssg63
Nsg56
(lp2171
g49
(g65
g51
NtRp2172
(dp2173
g54
(dp2174
sg63
g2168
sg56
(lp2175
g49
(g70
g51
NtRp2176
(dp2177
g54
(dp2178
g74
g75
ssg63
g2172
sg56
(lp2179
S'environ'
p2180
asbag49
(g70
g51
NtRp2181
(dp2182
g54
(dp2183
g81
g82
ssg63
g2172
sg56
(lp2184
S':'
asbag49
(g70
g51
NtRp2185
(dp2186
g54
(dp2187
sg63
g2172
sg56
(lp2188
g49
(g50
g51
NtRp2189
(dp2190
g54
(dp2191
g62
I4
ssg63
g2185
sg56
(lp2192
g49
(g58
g51
NtRp2193
(dp2194
g54
(dp2195
g62
I3
ssg63
Nsg56
(lp2196
g49
(g65
g51
NtRp2197
(dp2198
g54
(dp2199
sg63
g2193
sg56
(lp2200
g49
(g70
g51
NtRp2201
(dp2202
g54
(dp2203
g74
g75
ssg63
g2197
sg56
(lp2204
S'HTTP_ACCEPT'
p2205
asbag49
(g70
g51
NtRp2206
(dp2207
g54
(dp2208
g81
g82
ssg63
g2197
sg56
(lp2209
S':'
asbag49
(g70
g51
NtRp2210
(dp2211
g54
(dp2212
sg63
g2197
sg56
(lp2213
g49
(g50
g51
NtRp2214
(dp2215
g54
(dp2216
g62
I3
ssg63
g2210
sg56
(lp2217
g770
asbasbasbag49
(g65
g51
NtRp2218
(dp2219
g54
(dp2220
sg63
g2193
sg56
(lp2221
g49
(g70
g51
NtRp2222
(dp2223
g54
(dp2224
g74
g75
ssg63
g2218
sg56
(lp2225
S'HTTP_ACCEPT_CHARSET'
p2226
asbag49
(g70
g51
NtRp2227
(dp2228
g54
(dp2229
g81
g82
ssg63
g2218
sg56
(lp2230
S':'
asbag49
(g70
g51
NtRp2231
(dp2232
g54
(dp2233
sg63
g2218
sg56
(lp2234
g49
(g50
g51
NtRp2235
(dp2236
g54
(dp2237
g62
I3
ssg63
g2231
sg56
(lp2238
g792
asbasbasbag49
(g65
g51
NtRp2239
(dp2240
g54
(dp2241
sg63
g2193
sg56
(lp2242
g49
(g70
g51
NtRp2243
(dp2244
g54
(dp2245
g74
g75
ssg63
g2239
sg56
(lp2246
S'HTTP_ACCEPT_ENCODING'
p2247
asbag49
(g70
g51
NtRp2248
(dp2249
g54
(dp2250
g81
g82
ssg63
g2239
sg56
(lp2251
S':'
asbag49
(g70
g51
NtRp2252
(dp2253
g54
(dp2254
sg63
g2239
sg56
(lp2255
g49
(g50
g51
NtRp2256
(dp2257
g54
(dp2258
g62
I3
ssg63
g2252
sg56
(lp2259
g814
asbasbasbag49
(g65
g51
NtRp2260
(dp2261
g54
(dp2262
sg63
g2193
sg56
(lp2263
g49
(g70
g51
NtRp2264
(dp2265
g54
(dp2266
g74
g75
ssg63
g2260
sg56
(lp2267
S'HTTP_ACCEPT_LANGUAGE'
p2268
asbag49
(g70
g51
NtRp2269
(dp2270
g54
(dp2271
g81
g82
ssg63
g2260
sg56
(lp2272
S':'
asbag49
(g70
g51
NtRp2273
(dp2274
g54
(dp2275
sg63
g2260
sg56
(lp2276
g49
(g50
g51
NtRp2277
(dp2278
g54
(dp2279
g62
I3
ssg63
g2273
sg56
(lp2280
g836
asbasbasbag49
(g65
g51
NtRp2281
(dp2282
g54
(dp2283
sg63
g2193
sg56
(lp2284
g49
(g70
g51
NtRp2285
(dp2286
g54
(dp2287
g74
g75
ssg63
g2281
sg56
(lp2288
S'HTTP_CACHE_CONTROL'
p2289
asbag49
(g70
g51
NtRp2290
(dp2291
g54
(dp2292
g81
g82
ssg63
g2281
sg56
(lp2293
S':'
asbag49
(g70
g51
NtRp2294
(dp2295
g54
(dp2296
sg63
g2281
sg56
(lp2297
g49
(g50
g51
NtRp2298
(dp2299
g54
(dp2300
g62
I3
ssg63
g2294
sg56
(lp2301
g858
asbasbasbag49
(g65
g51
NtRp2302
(dp2303
g54
(dp2304
sg63
g2193
sg56
(lp2305
g49
(g70
g51
NtRp2306
(dp2307
g54
(dp2308
g74
g75
ssg63
g2302
sg56
(lp2309
S'HTTP_CONNECTION'
p2310
asbag49
(g70
g51
NtRp2311
(dp2312
g54
(dp2313
g81
g82
ssg63
g2302
sg56
(lp2314
S':'
asbag49
(g70
g51
NtRp2315
(dp2316
g54
(dp2317
sg63
g2302
sg56
(lp2318
g49
(g50
g51
NtRp2319
(dp2320
g54
(dp2321
g62
I3
ssg63
g2315
sg56
(lp2322
g880
asbasbasbag49
(g65
g51
NtRp2323
(dp2324
g54
(dp2325
sg63
g2193
sg56
(lp2326
g49
(g70
g51
NtRp2327
(dp2328
g54
(dp2329
g74
g75
ssg63
g2323
sg56
(lp2330
S'HTTP_COOKIE'
p2331
asbag49
(g70
g51
NtRp2332
(dp2333
g54
(dp2334
g81
g82
ssg63
g2323
sg56
(lp2335
S':'
asbag49
(g70
g51
NtRp2336
(dp2337
g54
(dp2338
sg63
g2323
sg56
(lp2339
g49
(g50
g51
NtRp2340
(dp2341
g54
(dp2342
g62
I3
ssg63
g2336
sg56
(lp2343
g902
asbasbasbag49
(g65
g51
NtRp2344
(dp2345
g54
(dp2346
sg63
g2193
sg56
(lp2347
g49
(g70
g51
NtRp2348
(dp2349
g54
(dp2350
g74
g75
ssg63
g2344
sg56
(lp2351
S'HTTP_HOST'
p2352
asbag49
(g70
g51
NtRp2353
(dp2354
g54
(dp2355
g81
g82
ssg63
g2344
sg56
(lp2356
S':'
asbag49
(g70
g51
NtRp2357
(dp2358
g54
(dp2359
sg63
g2344
sg56
(lp2360
g49
(g50
g51
NtRp2361
(dp2362
g54
(dp2363
g62
I3
ssg63
g2357
sg56
(lp2364
g924
asbasbasbag49
(g65
g51
NtRp2365
(dp2366
g54
(dp2367
sg63
g2193
sg56
(lp2368
g49
(g70
g51
NtRp2369
(dp2370
g54
(dp2371
g74
g75
ssg63
g2365
sg56
(lp2372
S'HTTP_USER_AGENT'
p2373
asbag49
(g70
g51
NtRp2374
(dp2375
g54
(dp2376
g81
g82
ssg63
g2365
sg56
(lp2377
S':'
asbag49
(g70
g51
NtRp2378
(dp2379
g54
(dp2380
sg63
g2365
sg56
(lp2381
g49
(g50
g51
NtRp2382
(dp2383
g54
(dp2384
g62
I3
ssg63
g2378
sg56
(lp2385
g946
asbasbasbag49
(g65
g51
NtRp2386
(dp2387
g54
(dp2388
sg63
g2193
sg56
(lp2389
g49
(g70
g51
NtRp2390
(dp2391
g54
(dp2392
g74
g75
ssg63
g2386
sg56
(lp2393
S'PATH_INFO'
p2394
asbag49
(g70
g51
NtRp2395
(dp2396
g54
(dp2397
g81
g82
ssg63
g2386
sg56
(lp2398
S':'
asbag49
(g70
g51
NtRp2399
(dp2400
g54
(dp2401
sg63
g2386
sg56
(lp2402
g49
(g50
g51
NtRp2403
(dp2404
g54
(dp2405
g62
I3
ssg63
g2399
sg56
(lp2406
g1010
asbasbasbag49
(g65
g51
NtRp2407
(dp2408
g54
(dp2409
sg63
g2193
sg56
(lp2410
g49
(g70
g51
NtRp2411
(dp2412
g54
(dp2413
g74
g75
ssg63
g2407
sg56
(lp2414
S'QUERY_STRING'
p2415
asbag49
(g70
g51
NtRp2416
(dp2417
g54
(dp2418
g81
g82
ssg63
g2407
sg56
(lp2419
S':'
asbag49
(g70
g51
NtRp2420
(dp2421
g54
(dp2422
sg63
g2407
sg56
(lp2423
g49
(g50
g51
NtRp2424
(dp2425
g54
(dp2426
g62
I3
ssg63
g2420
sg56
(lp2427
S''
asbasbasbag49
(g65
g51
NtRp2428
(dp2429
g54
(dp2430
sg63
g2193
sg56
(lp2431
g49
(g70
g51
NtRp2432
(dp2433
g54
(dp2434
g74
g75
ssg63
g2428
sg56
(lp2435
S'REMOTE_ADDR'
p2436
asbag49
(g70
g51
NtRp2437
(dp2438
g54
(dp2439
g81
g82
ssg63
g2428
sg56
(lp2440
S':'
asbag49
(g70
g51
NtRp2441
(dp2442
g54
(dp2443
sg63
g2428
sg56
(lp2444
g49
(g50
g51
NtRp2445
(dp2446
g54
(dp2447
g62
I3
ssg63
g2441
sg56
(lp2448
g182
asbasbasbag49
(g65
g51
NtRp2449
(dp2450
g54
(dp2451
sg63
g2193
sg56
(lp2452
g49
(g70
g51
NtRp2453
(dp2454
g54
(dp2455
g74
g75
ssg63
g2449
sg56
(lp2456
S'REMOTE_PORT'
p2457
asbag49
(g70
g51
NtRp2458
(dp2459
g54
(dp2460
g81
g82
ssg63
g2449
sg56
(lp2461
S':'
asbag49
(g70
g51
NtRp2462
(dp2463
g54
(dp2464
sg63
g2449
sg56
(lp2465
g49
(g50
g51
NtRp2466
(dp2467
g54
(dp2468
g62
I3
ssg63
g2462
sg56
(lp2469
g1074
asbasbasbag49
(g65
g51
NtRp2470
(dp2471
g54
(dp2472
sg63
g2193
sg56
(lp2473
g49
(g70
g51
NtRp2474
(dp2475
g54
(dp2476
g74
g75
ssg63
g2470
sg56
(lp2477
S'REQUEST_METHOD'
p2478
asbag49
(g70
g51
NtRp2479
(dp2480
g54
(dp2481
g81
g82
ssg63
g2470
sg56
(lp2482
S':'
asbag49
(g70
g51
NtRp2483
(dp2484
g54
(dp2485
sg63
g2470
sg56
(lp2486
g49
(g50
g51
NtRp2487
(dp2488
g54
(dp2489
g62
I3
ssg63
g2483
sg56
(lp2490
g1096
asbasbasbag49
(g65
g51
NtRp2491
(dp2492
g54
(dp2493
sg63
g2193
sg56
(lp2494
g49
(g70
g51
NtRp2495
(dp2496
g54
(dp2497
g74
g75
ssg63
g2491
sg56
(lp2498
S'SCRIPT_NAME'
p2499
asbag49
(g70
g51
NtRp2500
(dp2501
g54
(dp2502
g81
g82
ssg63
g2491
sg56
(lp2503
S':'
asbag49
(g70
g51
NtRp2504
(dp2505
g54
(dp2506
sg63
g2491
sg56
(lp2507
g49
(g50
g51
NtRp2508
(dp2509
g54
(dp2510
g62
I3
ssg63
g2504
sg56
(lp2511
S''
asbasbasbag49
(g65
g51
NtRp2512
(dp2513
g54
(dp2514
sg63
g2193
sg56
(lp2515
g49
(g70
g51
NtRp2516
(dp2517
g54
(dp2518
g74
g75
ssg63
g2512
sg56
(lp2519
S'SERVER_NAME'
p2520
asbag49
(g70
g51
NtRp2521
(dp2522
g54
(dp2523
g81
g82
ssg63
g2512
sg56
(lp2524
S':'
asbag49
(g70
g51
NtRp2525
(dp2526
g54
(dp2527
sg63
g2512
sg56
(lp2528
g49
(g50
g51
NtRp2529
(dp2530
g54
(dp2531
g62
I3
ssg63
g2525
sg56
(lp2532
g1139
asbasbasbag49
(g65
g51
NtRp2533
(dp2534
g54
(dp2535
sg63
g2193
sg56
(lp2536
g49
(g70
g51
NtRp2537
(dp2538
g54
(dp2539
g74
g75
ssg63
g2533
sg56
(lp2540
S'SERVER_PORT'
p2541
asbag49
(g70
g51
NtRp2542
(dp2543
g54
(dp2544
g81
g82
ssg63
g2533
sg56
(lp2545
S':'
asbag49
(g70
g51
NtRp2546
(dp2547
g54
(dp2548
sg63
g2533
sg56
(lp2549
g49
(g50
g51
NtRp2550
(dp2551
g54
(dp2552
g62
I3
ssg63
g2546
sg56
(lp2553
g1161
asbasbasbag49
(g65
g51
NtRp2554
(dp2555
g54
(dp2556
sg63
g2193
sg56
(lp2557
g49
(g70
g51
NtRp2558
(dp2559
g54
(dp2560
g74
g75
ssg63
g2554
sg56
(lp2561
S'SERVER_PROTOCOL'
p2562
asbag49
(g70
g51
NtRp2563
(dp2564
g54
(dp2565
g81
g82
ssg63
g2554
sg56
(lp2566
S':'
asbag49
(g70
g51
NtRp2567
(dp2568
g54
(dp2569
sg63
g2554
sg56
(lp2570
g49
(g50
g51
NtRp2571
(dp2572
g54
(dp2573
g62
I3
ssg63
g2567
sg56
(lp2574
g1183
asbasbasbag49
(g65
g51
NtRp2575
(dp2576
g54
(dp2577
sg63
g2193
sg56
(lp2578
g49
(g70
g51
NtRp2579
(dp2580
g54
(dp2581
g74
g75
ssg63
g2575
sg56
(lp2582
S'SERVER_SOFTWARE'
p2583
asbag49
(g70
g51
NtRp2584
(dp2585
g54
(dp2586
g81
g82
ssg63
g2575
sg56
(lp2587
S':'
asbag49
(g70
g51
NtRp2588
(dp2589
g54
(dp2590
sg63
g2575
sg56
(lp2591
g49
(g50
g51
NtRp2592
(dp2593
g54
(dp2594
g62
I3
ssg63
g2588
sg56
(lp2595
g1205
asbasbasbag49
(g65
g51
NtRp2596
(dp2597
g54
(dp2598
sg63
g2193
sg56
(lp2599
g49
(g70
g51
NtRp2600
(dp2601
g54
(dp2602
g74
g75
ssg63
g2596
sg56
(lp2603
S'wsgi.errors'
p2604
asbag49
(g70
g51
NtRp2605
(dp2606
g54
(dp2607
g81
g82
ssg63
g2596
sg56
(lp2608
S':'
asbag49
(g70
g51
NtRp2609
(dp2610
g54
(dp2611
sg63
g2596
sg56
(lp2612
g49
(g50
g51
NtRp2613
(dp2614
g54
(dp2615
g62
I3
ssg63
g2609
sg56
(lp2616
S"<open file '<stderr>', mode 'w' at 0x004300B0>"
p2617
asbasbasbag49
(g65
g51
NtRp2618
(dp2619
g54
(dp2620
sg63
g2193
sg56
(lp2621
g49
(g70
g51
NtRp2622
(dp2623
g54
(dp2624
g74
g75
ssg63
g2618
sg56
(lp2625
S'wsgi.file_wrapper'
p2626
asbag49
(g70
g51
NtRp2627
(dp2628
g54
(dp2629
g81
g82
ssg63
g2618
sg56
(lp2630
S':'
asbag49
(g70
g51
NtRp2631
(dp2632
g54
(dp2633
sg63
g2618
sg56
(lp2634
g49
(g50
g51
NtRp2635
(dp2636
g54
(dp2637
g62
I3
ssg63
g2631
sg56
(lp2638
S'<class wsgiref.util.FileWrapper at 0x02C44900>'
p2639
asbasbasbag49
(g65
g51
NtRp2640
(dp2641
g54
(dp2642
sg63
g2193
sg56
(lp2643
g49
(g70
g51
NtRp2644
(dp2645
g54
(dp2646
g74
g75
ssg63
g2640
sg56
(lp2647
S'wsgi.input'
p2648
asbag49
(g70
g51
NtRp2649
(dp2650
g54
(dp2651
g81
g82
ssg63
g2640
sg56
(lp2652
S':'
asbag49
(g70
g51
NtRp2653
(dp2654
g54
(dp2655
sg63
g2640
sg56
(lp2656
g49
(g50
g51
NtRp2657
(dp2658
g54
(dp2659
g62
I3
ssg63
g2653
sg56
(lp2660
S'<cStringIO.StringO object at 0x045FE8E0>'
p2661
asbasbasbag49
(g65
g51
NtRp2662
(dp2663
g54
(dp2664
sg63
g2193
sg56
(lp2665
g49
(g70
g51
NtRp2666
(dp2667
g54
(dp2668
g74
g75
ssg63
g2662
sg56
(lp2669
S'wsgi.multiprocess'
p2670
asbag49
(g70
g51
NtRp2671
(dp2672
g54
(dp2673
g81
g82
ssg63
g2662
sg56
(lp2674
S':'
asbag49
(g70
g51
NtRp2675
(dp2676
g54
(dp2677
sg63
g2662
sg56
(lp2678
g49
(g50
g51
NtRp2679
(dp2680
g54
(dp2681
g62
I3
ssg63
g2675
sg56
(lp2682
g92
asbasbasbag49
(g65
g51
NtRp2683
(dp2684
g54
(dp2685
sg63
g2193
sg56
(lp2686
g49
(g70
g51
NtRp2687
(dp2688
g54
(dp2689
g74
g75
ssg63
g2683
sg56
(lp2690
S'wsgi.multithread'
p2691
asbag49
(g70
g51
NtRp2692
(dp2693
g54
(dp2694
g81
g82
ssg63
g2683
sg56
(lp2695
S':'
asbag49
(g70
g51
NtRp2696
(dp2697
g54
(dp2698
sg63
g2683
sg56
(lp2699
g49
(g50
g51
NtRp2700
(dp2701
g54
(dp2702
g62
I3
ssg63
g2696
sg56
(lp2703
g726
asbasbasbag49
(g65
g51
NtRp2704
(dp2705
g54
(dp2706
sg63
g2193
sg56
(lp2707
g49
(g70
g51
NtRp2708
(dp2709
g54
(dp2710
g74
g75
ssg63
g2704
sg56
(lp2711
S'wsgi.run_once'
p2712
asbag49
(g70
g51
NtRp2713
(dp2714
g54
(dp2715
g81
g82
ssg63
g2704
sg56
(lp2716
S':'
asbag49
(g70
g51
NtRp2717
(dp2718
g54
(dp2719
sg63
g2704
sg56
(lp2720
g49
(g50
g51
NtRp2721
(dp2722
g54
(dp2723
g62
I3
ssg63
g2717
sg56
(lp2724
g92
asbasbasbag49
(g65
g51
NtRp2725
(dp2726
g54
(dp2727
sg63
g2193
sg56
(lp2728
g49
(g70
g51
NtRp2729
(dp2730
g54
(dp2731
g74
g75
ssg63
g2725
sg56
(lp2732
S'wsgi.url_scheme'
p2733
asbag49
(g70
g51
NtRp2734
(dp2735
g54
(dp2736
g81
g82
ssg63
g2725
sg56
(lp2737
S':'
asbag49
(g70
g51
NtRp2738
(dp2739
g54
(dp2740
sg63
g2725
sg56
(lp2741
g49
(g50
g51
NtRp2742
(dp2743
g54
(dp2744
g62
I3
ssg63
g2738
sg56
(lp2745
g1487
asbasbasbag49
(g65
g51
NtRp2746
(dp2747
g54
(dp2748
sg63
g2193
sg56
(lp2749
g49
(g70
g51
NtRp2750
(dp2751
g54
(dp2752
g74
g75
ssg63
g2746
sg56
(lp2753
S'wsgi.version'
p2754
asbag49
(g70
g51
NtRp2755
(dp2756
g54
(dp2757
g81
g82
ssg63
g2746
sg56
(lp2758
S':'
asbag49
(g70
g51
NtRp2759
(dp2760
g54
(dp2761
sg63
g2746
sg56
(lp2762
g49
(g50
g51
NtRp2763
(dp2764
g54
(dp2765
g62
I3
ssg63
g2759
sg56
(lp2766
S'1'
asbasbasbasbasbasbasbasbasbasbasbasbasbsS'frames'
p2767
(lp2768
(dp2769
S'file'
p2770
S'C:\\Users\\Bussiere\\Dropbox\\Projets\\jackpoint\\web2py\\gluon\\restricted.py'
p2771
sS'dump'
p2772
(dp2773
sS'lnum'
p2774
I205
sS'lines'
p2775
(dp2776
I200
S'    try:'
p2777
sI201
S'        if type(code) == types.CodeType:'
p2778
sI202
S'            ccode = code'
p2779
sI203
S'        else:'
p2780
sI204
S'            ccode = compile2(code,layer)'
p2781
sI205
S'        exec ccode in environment'
p2782
sI206
S'    except HTTP:'
p2783
sI207
S'        raise'
p2784
sI208
S'    except RestrictedError:'
p2785
sI209
S'        # do not encapsulate (obfuscate) the original RestrictedError'
p2786
ssS'call'
p2787
S"(code='\\xef\\xbb\\xbf# -*- coding: utf-8 -*-\\n# this file is releas...())\\n\\nresponse._vars=response._caller(initdbjack)\\n', environment={'A': <class 'gluon.html.A'>, 'Auth': <class 'gluon.tools.Auth'>, 'AutocompleteWidget': <class 'gluon.sqlhtml.AutocompleteWidget'>, 'B': <class 'gluon.html.B'>, 'BEAUTIFY': <class 'gluon.html.BEAUTIFY'>, 'BODY': <class 'gluon.html.BODY'>, 'BR': <class 'gluon.html.BR'>, 'BUTTON': <class 'gluon.html.BUTTON'>, 'BooleanWidget': <class 'gluon.sqlhtml.BooleanWidget'>, 'CALLABLETYPES': (<type 'function'>, <type 'function'>, <type 'builtin_function_or_method'>, <type 'instancemethod'>, <type 'builtin_function_or_method'>), ...}, layer=r'C:\\Users\\Bussiere\\Dropbox\\Projets\\jackpoint\\web2py\\applications\\init\\controllers/default.py')"
p2788
sS'func'
p2789
S'restricted'
p2790
sa(dp2791
g2770
S'C:\\Users\\Bussiere\\Dropbox\\Projets\\jackpoint\\web2py\\applications\\init\\controllers\\default.py'
p2792
sg2772
(dp2793
sg2774
I617
sg2775
(dp2794
I608
S'    http://..../[app]/default/data/select/[table]'
p2795
sI609
S'    http://..../[app]/default/data/search/[table]'
p2796
sI610
S'    but URLs must be signed, i.e. linked with'
p2797
sI611
S"      A('table',_href=URL('data/tables',user_signature=True))"
p2798
sI612
S'    or with the signed load operator'
p2799
sI613
S"      LOAD('default','data.load',args='tables',ajax=True,user_signature=True)"
p2800
sI614
S'    """'
p2801
sI615
S'    return dict(form=crud())'
p2802
sI606
S'    http://..../[app]/default/data/update/[table]/[id]'
p2803
sI607
S'    http://..../[app]/default/data/delete/[table]/[id]'
p2804
ssg2787
S'()'
p2805
sg2789
S'<module>'
p2806
sa(dp2807
g2770
S'C:\\Users\\Bussiere\\Dropbox\\Projets\\jackpoint\\web2py\\gluon\\globals.py'
p2808
sg2772
(dp2809
sg2774
I173
sg2775
(dp2810
I168
S'        self.menu = []             # used by the default view layout'
p2811
sI169
S'        self.files = []            # used by web2py_ajax.html'
p2812
sI170
S'        self.generic_patterns = [] # patterns to allow generic views'
p2813
sI171
S"        self.delimiters = ('{{','}}')"
p2814
sI172
S'        self._vars = None'
p2815
sI173
S'        self._caller = lambda f: f()'
p2816
sI174
S'        self._view_environment = None'
p2817
sI175
S'        self._custom_commit = None'
p2818
sI176
S'        self._custom_rollback = None'
p2819
sI177
S''
ssg2787
S'(f=<function initdbjack at 0x08220E70>)'
p2820
sg2789
S'<lambda>'
p2821
sa(dp2822
g2770
S'C:\\Users\\Bussiere\\Dropbox\\Projets\\jackpoint\\web2py\\applications\\init\\controllers\\default.py'
p2823
sg2772
(dp2824
sg2774
I503
sg2775
(dp2825
I498
S'    }'
p2826
sI499
S''
sI500
S''
sI501
S'    for row in Item.keys() :'
p2827
sI502
S'        if db(db.Item.Nom == Item[row]).count() == 0:'
p2828
sI503
S'            db.Item.insert(Nom=row,Skill=db.Skill.Nom(Item[row]))'
p2829
sI504
S'    db.commit()'
p2830
sI505
S''
sI506
S''
sI507
S''
ssg2787
S'()'
p2831
sg2789
S'initdbjack'
p2832
sasS'pyver'
p2833
S'Python 2.5.4: C:\\Users\\Bussiere\\Dropbox\\Projets\\jackpoint\\web2py\\web2py.exe'
p2834
sS'session'
p2835
g49
(g50
g51
NtRp2836
(dp2837
g54
(dp2838
sg56
(lp2839
g49
(g58
g51
NtRp2840
(dp2841
g54
(dp2842
g62
I5
ssg63
Nsg56
(lp2843
sbasbsS'etype'
p2844
S"<type 'exceptions.TypeError'>"
p2845
sS'date'
p2846
S'Thu Mar 29 23:27:07 2012'
p2847
sS'response'
p2848
g49
(g50
g51
NtRp2849
(dp2850
g54
(dp2851
sg56
(lp2852
g49
(g58
g51
NtRp2853
(dp2854
g54
(dp2855
g62
I5
ssg63
Nsg56
(lp2856
g49
(g65
g51
NtRp2857
(dp2858
g54
(dp2859
sg63
g2853
sg56
(lp2860
g49
(g70
g51
NtRp2861
(dp2862
g54
(dp2863
g74
g75
ssg63
g2857
sg56
(lp2864
g147
asbag49
(g70
g51
NtRp2865
(dp2866
g54
(dp2867
g81
g82
ssg63
g2857
sg56
(lp2868
S':'
asbag49
(g70
g51
NtRp2869
(dp2870
g54
(dp2871
sg63
g2857
sg56
(lp2872
g49
(g50
g51
NtRp2873
(dp2874
g54
(dp2875
g62
I5
ssg63
g2869
sg56
(lp2876
S'<cStringIO.StringO object at 0x04326DA0>'
p2877
asbasbasbag49
(g65
g51
NtRp2878
(dp2879
g54
(dp2880
sg63
g2853
sg56
(lp2881
g49
(g70
g51
NtRp2882
(dp2883
g54
(dp2884
g74
g75
ssg63
g2878
sg56
(lp2885
g213
asbag49
(g70
g51
NtRp2886
(dp2887
g54
(dp2888
g81
g82
ssg63
g2878
sg56
(lp2889
S':'
asbag49
(g70
g51
NtRp2890
(dp2891
g54
(dp2892
sg63
g2878
sg56
(lp2893
g49
(g50
g51
NtRp2894
(dp2895
g54
(dp2896
g62
I5
ssg63
g2890
sg56
(lp2897
g49
(g58
g51
NtRp2898
(dp2899
g54
(dp2900
g62
I4
ssg63
Nsg56
(lp2901
g49
(g65
g51
NtRp2902
(dp2903
g54
(dp2904
sg63
g2898
sg56
(lp2905
g49
(g70
g51
NtRp2906
(dp2907
g54
(dp2908
g74
g75
ssg63
g2902
sg56
(lp2909
S'session_id_init'
p2910
asbag49
(g70
g51
NtRp2911
(dp2912
g54
(dp2913
g81
g82
ssg63
g2902
sg56
(lp2914
S':'
asbag49
(g70
g51
NtRp2915
(dp2916
g54
(dp2917
sg63
g2902
sg56
(lp2918
g49
(g50
g51
NtRp2919
(dp2920
g54
(dp2921
g62
I4
ssg63
g2915
sg56
(lp2922
g49
(g58
g51
NtRp2923
(dp2924
g54
(dp2925
g62
I3
ssg63
Nsg56
(lp2926
g49
(g65
g51
NtRp2927
(dp2928
g54
(dp2929
sg63
g2923
sg56
(lp2930
g49
(g70
g51
NtRp2931
(dp2932
g54
(dp2933
g74
g75
ssg63
g2927
sg56
(lp2934
g263
asbag49
(g70
g51
NtRp2935
(dp2936
g54
(dp2937
g81
g82
ssg63
g2927
sg56
(lp2938
S':'
asbag49
(g70
g51
NtRp2939
(dp2940
g54
(dp2941
sg63
g2927
sg56
(lp2942
g49
(g50
g51
NtRp2943
(dp2944
g54
(dp2945
g62
I3
ssg63
g2939
sg56
(lp2946
S''
asbasbasbag49
(g65
g51
NtRp2947
(dp2948
g54
(dp2949
sg63
g2923
sg56
(lp2950
g49
(g70
g51
NtRp2951
(dp2952
g54
(dp2953
g74
g75
ssg63
g2947
sg56
(lp2954
g284
asbag49
(g70
g51
NtRp2955
(dp2956
g54
(dp2957
g81
g82
ssg63
g2947
sg56
(lp2958
S':'
asbag49
(g70
g51
NtRp2959
(dp2960
g54
(dp2961
sg63
g2947
sg56
(lp2962
g49
(g50
g51
NtRp2963
(dp2964
g54
(dp2965
g62
I3
ssg63
g2959
sg56
(lp2966
S''
asbasbasbag49
(g65
g51
NtRp2967
(dp2968
g54
(dp2969
sg63
g2923
sg56
(lp2970
g49
(g70
g51
NtRp2971
(dp2972
g54
(dp2973
g74
g75
ssg63
g2967
sg56
(lp2974
g305
asbag49
(g70
g51
NtRp2975
(dp2976
g54
(dp2977
g81
g82
ssg63
g2967
sg56
(lp2978
S':'
asbag49
(g70
g51
NtRp2979
(dp2980
g54
(dp2981
sg63
g2967
sg56
(lp2982
g49
(g50
g51
NtRp2983
(dp2984
g54
(dp2985
g62
I3
ssg63
g2979
sg56
(lp2986
S''
asbasbasbag49
(g65
g51
NtRp2987
(dp2988
g54
(dp2989
sg63
g2923
sg56
(lp2990
g49
(g70
g51
NtRp2991
(dp2992
g54
(dp2993
g74
g75
ssg63
g2987
sg56
(lp2994
g326
asbag49
(g70
g51
NtRp2995
(dp2996
g54
(dp2997
g81
g82
ssg63
g2987
sg56
(lp2998
S':'
asbag49
(g70
g51
NtRp2999
(dp3000
g54
(dp3001
sg63
g2987
sg56
(lp3002
g49
(g50
g51
NtRp3003
(dp3004
g54
(dp3005
g62
I3
ssg63
g2999
sg56
(lp3006
S''
asbasbasbag49
(g65
g51
NtRp3007
(dp3008
g54
(dp3009
sg63
g2923
sg56
(lp3010
g49
(g70
g51
NtRp3011
(dp3012
g54
(dp3013
g74
g75
ssg63
g3007
sg56
(lp3014
g347
asbag49
(g70
g51
NtRp3015
(dp3016
g54
(dp3017
g81
g82
ssg63
g3007
sg56
(lp3018
S':'
asbag49
(g70
g51
NtRp3019
(dp3020
g54
(dp3021
sg63
g3007
sg56
(lp3022
g49
(g50
g51
NtRp3023
(dp3024
g54
(dp3025
g62
I3
ssg63
g3019
sg56
(lp3026
S'/'
asbasbasbag49
(g65
g51
NtRp3027
(dp3028
g54
(dp3029
sg63
g2923
sg56
(lp3030
g49
(g70
g51
NtRp3031
(dp3032
g54
(dp3033
g74
g75
ssg63
g3027
sg56
(lp3034
g368
asbag49
(g70
g51
NtRp3035
(dp3036
g54
(dp3037
g81
g82
ssg63
g3027
sg56
(lp3038
S':'
asbag49
(g70
g51
NtRp3039
(dp3040
g54
(dp3041
sg63
g3027
sg56
(lp3042
g49
(g50
g51
NtRp3043
(dp3044
g54
(dp3045
g62
I3
ssg63
g3039
sg56
(lp3046
S''
asbasbasbag49
(g65
g51
NtRp3047
(dp3048
g54
(dp3049
sg63
g2923
sg56
(lp3050
g49
(g70
g51
NtRp3051
(dp3052
g54
(dp3053
g74
g75
ssg63
g3047
sg56
(lp3054
g389
asbag49
(g70
g51
NtRp3055
(dp3056
g54
(dp3057
g81
g82
ssg63
g3047
sg56
(lp3058
S':'
asbag49
(g70
g51
NtRp3059
(dp3060
g54
(dp3061
sg63
g3047
sg56
(lp3062
g49
(g50
g51
NtRp3063
(dp3064
g54
(dp3065
g62
I3
ssg63
g3059
sg56
(lp3066
S''
asbasbasbasbasbasbasbasbasbasbasbag49
(g65
g51
NtRp3067
(dp3068
g54
(dp3069
sg63
g2853
sg56
(lp3070
g49
(g70
g51
NtRp3071
(dp3072
g54
(dp3073
g74
g75
ssg63
g3067
sg56
(lp3074
S'delimiters'
p3075
asbag49
(g70
g51
NtRp3076
(dp3077
g54
(dp3078
g81
g82
ssg63
g3067
sg56
(lp3079
S':'
asbag49
(g70
g51
NtRp3080
(dp3081
g54
(dp3082
sg63
g3067
sg56
(lp3083
g49
(g50
g51
NtRp3084
(dp3085
g54
(dp3086
g62
I5
ssg63
g3080
sg56
(lp3087
g49
(g58
g51
NtRp3088
(dp3089
g54
(dp3090
g62
I4
ssg63
Nsg56
(lp3091
g49
(g65
g51
NtRp3092
(dp3093
g54
(dp3094
sg63
g3088
sg56
(lp3095
g49
(g70
g51
NtRp3096
(dp3097
g54
(dp3098
sg63
g3092
sg56
(lp3099
g49
(g50
g51
NtRp3100
(dp3101
g54
(dp3102
g62
I4
ssg63
g3096
sg56
(lp3103
S'{{'
p3104
asbasbasbag49
(g65
g51
NtRp3105
(dp3106
g54
(dp3107
sg63
g3088
sg56
(lp3108
g49
(g70
g51
NtRp3109
(dp3110
g54
(dp3111
sg63
g3105
sg56
(lp3112
g49
(g50
g51
NtRp3113
(dp3114
g54
(dp3115
g62
I4
ssg63
g3109
sg56
(lp3116
S'}}'
p3117
asbasbasbasbasbasbasbag49
(g65
g51
NtRp3118
(dp3119
g54
(dp3120
sg63
g2853
sg56
(lp3121
g49
(g70
g51
NtRp3122
(dp3123
g54
(dp3124
g74
g75
ssg63
g3118
sg56
(lp3125
S'files'
p3126
asbag49
(g70
g51
NtRp3127
(dp3128
g54
(dp3129
g81
g82
ssg63
g3118
sg56
(lp3130
S':'
asbag49
(g70
g51
NtRp3131
(dp3132
g54
(dp3133
sg63
g3118
sg56
(lp3134
g49
(g50
g51
NtRp3135
(dp3136
g54
(dp3137
g62
I5
ssg63
g3131
sg56
(lp3138
g49
(g58
g51
NtRp3139
(dp3140
g54
(dp3141
g62
I4
ssg63
Nsg56
(lp3142
sbasbasbasbag49
(g65
g51
NtRp3143
(dp3144
g54
(dp3145
sg63
g2853
sg56
(lp3146
g49
(g70
g51
NtRp3147
(dp3148
g54
(dp3149
g74
g75
ssg63
g3143
sg56
(lp3150
S'flash'
p3151
asbag49
(g70
g51
NtRp3152
(dp3153
g54
(dp3154
g81
g82
ssg63
g3143
sg56
(lp3155
S':'
asbag49
(g70
g51
NtRp3156
(dp3157
g54
(dp3158
sg63
g3143
sg56
(lp3159
g49
(g50
g51
NtRp3160
(dp3161
g54
(dp3162
g62
I5
ssg63
g3156
sg56
(lp3163
S''
asbasbasbag49
(g65
g51
NtRp3164
(dp3165
g54
(dp3166
sg63
g2853
sg56
(lp3167
g49
(g70
g51
NtRp3168
(dp3169
g54
(dp3170
g74
g75
ssg63
g3164
sg56
(lp3171
S'generic_patterns'
p3172
asbag49
(g70
g51
NtRp3173
(dp3174
g54
(dp3175
g81
g82
ssg63
g3164
sg56
(lp3176
S':'
asbag49
(g70
g51
NtRp3177
(dp3178
g54
(dp3179
sg63
g3164
sg56
(lp3180
g49
(g50
g51
NtRp3181
(dp3182
g54
(dp3183
g62
I5
ssg63
g3177
sg56
(lp3184
g49
(g58
g51
NtRp3185
(dp3186
g54
(dp3187
g62
I4
ssg63
Nsg56
(lp3188
g49
(g65
g51
NtRp3189
(dp3190
g54
(dp3191
sg63
g3185
sg56
(lp3192
g49
(g70
g51
NtRp3193
(dp3194
g54
(dp3195
sg63
g3189
sg56
(lp3196
g49
(g50
g51
NtRp3197
(dp3198
g54
(dp3199
g62
I4
ssg63
g3193
sg56
(lp3200
S'*'
asbasbasbasbasbasbasbag49
(g65
g51
NtRp3201
(dp3202
g54
(dp3203
sg63
g2853
sg56
(lp3204
g49
(g70
g51
NtRp3205
(dp3206
g54
(dp3207
g74
g75
ssg63
g3201
sg56
(lp3208
S'headers'
p3209
asbag49
(g70
g51
NtRp3210
(dp3211
g54
(dp3212
g81
g82
ssg63
g3201
sg56
(lp3213
S':'
asbag49
(g70
g51
NtRp3214
(dp3215
g54
(dp3216
sg63
g3201
sg56
(lp3217
g49
(g50
g51
NtRp3218
(dp3219
g54
(dp3220
g62
I5
ssg63
g3214
sg56
(lp3221
g49
(g58
g51
NtRp3222
(dp3223
g54
(dp3224
g62
I4
ssg63
Nsg56
(lp3225
g49
(g65
g51
NtRp3226
(dp3227
g54
(dp3228
sg63
g3222
sg56
(lp3229
g49
(g70
g51
NtRp3230
(dp3231
g54
(dp3232
g74
g75
ssg63
g3226
sg56
(lp3233
S'Cache-Control'
p3234
asbag49
(g70
g51
NtRp3235
(dp3236
g54
(dp3237
g81
g82
ssg63
g3226
sg56
(lp3238
S':'
asbag49
(g70
g51
NtRp3239
(dp3240
g54
(dp3241
sg63
g3226
sg56
(lp3242
g49
(g50
g51
NtRp3243
(dp3244
g54
(dp3245
g62
I4
ssg63
g3239
sg56
(lp3246
S'no-store, no-cache, must-revalidate, post-check=0, pre-check=0'
p3247
asbasbasbag49
(g65
g51
NtRp3248
(dp3249
g54
(dp3250
sg63
g3222
sg56
(lp3251
g49
(g70
g51
NtRp3252
(dp3253
g54
(dp3254
g74
g75
ssg63
g3248
sg56
(lp3255
S'Content-Type'
p3256
asbag49
(g70
g51
NtRp3257
(dp3258
g54
(dp3259
g81
g82
ssg63
g3248
sg56
(lp3260
S':'
asbag49
(g70
g51
NtRp3261
(dp3262
g54
(dp3263
sg63
g3248
sg56
(lp3264
g49
(g50
g51
NtRp3265
(dp3266
g54
(dp3267
g62
I4
ssg63
g3261
sg56
(lp3268
S'text/html; charset=utf-8'
p3269
asbasbasbag49
(g65
g51
NtRp3270
(dp3271
g54
(dp3272
sg63
g3222
sg56
(lp3273
g49
(g70
g51
NtRp3274
(dp3275
g54
(dp3276
g74
g75
ssg63
g3270
sg56
(lp3277
S'Expires'
p3278
asbag49
(g70
g51
NtRp3279
(dp3280
g54
(dp3281
g81
g82
ssg63
g3270
sg56
(lp3282
S':'
asbag49
(g70
g51
NtRp3283
(dp3284
g54
(dp3285
sg63
g3270
sg56
(lp3286
g49
(g50
g51
NtRp3287
(dp3288
g54
(dp3289
g62
I4
ssg63
g3283
sg56
(lp3290
S'Thu, 29 Mar 2012 21:27:07 GMT'
p3291
asbasbasbag49
(g65
g51
NtRp3292
(dp3293
g54
(dp3294
sg63
g3222
sg56
(lp3295
g49
(g70
g51
NtRp3296
(dp3297
g54
(dp3298
g74
g75
ssg63
g3292
sg56
(lp3299
S'Pragma'
p3300
asbag49
(g70
g51
NtRp3301
(dp3302
g54
(dp3303
g81
g82
ssg63
g3292
sg56
(lp3304
S':'
asbag49
(g70
g51
NtRp3305
(dp3306
g54
(dp3307
sg63
g3292
sg56
(lp3308
g49
(g50
g51
NtRp3309
(dp3310
g54
(dp3311
g62
I4
ssg63
g3305
sg56
(lp3312
S'no-cache'
p3313
asbasbasbag49
(g65
g51
NtRp3314
(dp3315
g54
(dp3316
sg63
g3222
sg56
(lp3317
g49
(g70
g51
NtRp3318
(dp3319
g54
(dp3320
g74
g75
ssg63
g3314
sg56
(lp3321
S'X-Powered-By'
p3322
asbag49
(g70
g51
NtRp3323
(dp3324
g54
(dp3325
g81
g82
ssg63
g3314
sg56
(lp3326
S':'
asbag49
(g70
g51
NtRp3327
(dp3328
g54
(dp3329
sg63
g3314
sg56
(lp3330
g49
(g50
g51
NtRp3331
(dp3332
g54
(dp3333
g62
I4
ssg63
g3327
sg56
(lp3334
S'web2py'
p3335
asbasbasbasbasbasbasbag49
(g65
g51
NtRp3336
(dp3337
g54
(dp3338
sg63
g2853
sg56
(lp3339
g49
(g70
g51
NtRp3340
(dp3341
g54
(dp3342
g74
g75
ssg63
g3336
sg56
(lp3343
S'menu'
p3344
asbag49
(g70
g51
NtRp3345
(dp3346
g54
(dp3347
g81
g82
ssg63
g3336
sg56
(lp3348
S':'
asbag49
(g70
g51
NtRp3349
(dp3350
g54
(dp3351
sg63
g3336
sg56
(lp3352
g49
(g50
g51
NtRp3353
(dp3354
g54
(dp3355
g62
I5
ssg63
g3349
sg56
(lp3356
g49
(g58
g51
NtRp3357
(dp3358
g54
(dp3359
g62
I4
ssg63
Nsg56
(lp3360
g49
(g65
g51
NtRp3361
(dp3362
g54
(dp3363
sg63
g3357
sg56
(lp3364
g49
(g70
g51
NtRp3365
(dp3366
g54
(dp3367
sg63
g3361
sg56
(lp3368
g49
(g50
g51
NtRp3369
(dp3370
g54
(dp3371
g62
I4
ssg63
g3365
sg56
(lp3372
g49
(g58
g51
NtRp3373
(dp3374
g54
(dp3375
g62
I3
ssg63
Nsg56
(lp3376
g49
(g65
g51
NtRp3377
(dp3378
g54
(dp3379
sg63
g3373
sg56
(lp3380
g49
(g70
g51
NtRp3381
(dp3382
g54
(dp3383
sg63
g3377
sg56
(lp3384
g49
(g50
g51
NtRp3385
(dp3386
g54
(dp3387
g62
I3
ssg63
g3381
sg56
(lp3388
cgluon.languages
lazyT_unpickle
p3389
(S's\x04\x00\x00\x00Home'
tRp3390
asbasbasbag49
(g65
g51
NtRp3391
(dp3392
g54
(dp3393
sg63
g3373
sg56
(lp3394
g49
(g70
g51
NtRp3395
(dp3396
g54
(dp3397
sg63
g3391
sg56
(lp3398
g49
(g50
g51
NtRp3399
(dp3400
g54
(dp3401
g62
I3
ssg63
g3395
sg56
(lp3402
g92
asbasbasbag49
(g65
g51
NtRp3403
(dp3404
g54
(dp3405
sg63
g3373
sg56
(lp3406
g49
(g70
g51
NtRp3407
(dp3408
g54
(dp3409
sg63
g3403
sg56
(lp3410
g49
(g50
g51
NtRp3411
(dp3412
g54
(dp3413
g62
I3
ssg63
g3407
sg56
(lp3414
S'/init/default/index'
p3415
asbasbasbag49
(g65
g51
NtRp3416
(dp3417
g54
(dp3418
sg63
g3373
sg56
(lp3419
g49
(g70
g51
NtRp3420
(dp3421
g54
(dp3422
sg63
g3416
sg56
(lp3423
g49
(g50
g51
NtRp3424
(dp3425
g54
(dp3426
g62
I3
ssg63
g3420
sg56
(lp3427
g49
(g58
g51
NtRp3428
(dp3429
g54
(dp3430
g62
I2
ssg63
Nsg56
(lp3431
sbasbasbasbasbasbasbasbag49
(g65
g51
NtRp3432
(dp3433
g54
(dp3434
sg63
g3357
sg56
(lp3435
g49
(g70
g51
NtRp3436
(dp3437
g54
(dp3438
sg63
g3432
sg56
(lp3439
g49
(g50
g51
NtRp3440
(dp3441
g54
(dp3442
g62
I4
ssg63
g3436
sg56
(lp3443
g49
(g58
g51
NtRp3444
(dp3445
g54
(dp3446
g62
I3
ssg63
Nsg56
(lp3447
g49
(g65
g51
NtRp3448
(dp3449
g54
(dp3450
sg63
g3444
sg56
(lp3451
g49
(g70
g51
NtRp3452
(dp3453
g54
(dp3454
sg63
g3448
sg56
(lp3455
g49
(g50
g51
NtRp3456
(dp3457
g54
(dp3458
g62
I3
ssg63
g3452
sg56
(lp3459
g49
(cgluon.html
SPAN
p3460
g51
NtRp3461
(dp3462
g54
(dp3463
g74
S'color:yellow'
p3464
ssg63
Nsg56
(lp3465
g3335
asbasbasbasbag49
(g65
g51
NtRp3466
(dp3467
g54
(dp3468
sg63
g3444
sg56
(lp3469
g49
(g70
g51
NtRp3470
(dp3471
g54
(dp3472
sg63
g3466
sg56
(lp3473
g49
(g50
g51
NtRp3474
(dp3475
g54
(dp3476
g62
I3
ssg63
g3470
sg56
(lp3477
g92
asbasbasbag49
(g65
g51
NtRp3478
(dp3479
g54
(dp3480
sg63
g3444
sg56
(lp3481
g49
(g70
g51
NtRp3482
(dp3483
g54
(dp3484
sg63
g3478
sg56
(lp3485
g49
(g50
g51
NtRp3486
(dp3487
g54
(dp3488
g62
I3
ssg63
g3482
sg56
(lp3489
S'None'
p3490
asbasbasbag49
(g65
g51
NtRp3491
(dp3492
g54
(dp3493
sg63
g3444
sg56
(lp3494
g49
(g70
g51
NtRp3495
(dp3496
g54
(dp3497
sg63
g3491
sg56
(lp3498
g49
(g50
g51
NtRp3499
(dp3500
g54
(dp3501
g62
I3
ssg63
g3495
sg56
(lp3502
g49
(g58
g51
NtRp3503
(dp3504
g54
(dp3505
g62
I2
ssg63
Nsg56
(lp3506
g49
(g65
g51
NtRp3507
(dp3508
g54
(dp3509
sg63
g3503
sg56
(lp3510
g49
(g70
g51
NtRp3511
(dp3512
g54
(dp3513
sg63
g3507
sg56
(lp3514
g49
(g50
g51
NtRp3515
(dp3516
g54
(dp3517
g62
I2
ssg63
g3511
sg56
(lp3518
g49
(g58
g51
NtRp3519
(dp3520
g54
(dp3521
g62
I1
ssg63
Nsg56
(lp3522
g49
(g65
g51
NtRp3523
(dp3524
g54
(dp3525
sg63
g3519
sg56
(lp3526
g49
(g70
g51
NtRp3527
(dp3528
g54
(dp3529
sg63
g3523
sg56
(lp3530
g49
(g50
g51
NtRp3531
(dp3532
g54
(dp3533
g62
I1
ssg63
g3527
sg56
(lp3534
g3389
(S's\x08\x00\x00\x00My Sites'
tRp3535
asbasbasbag49
(g65
g51
NtRp3536
(dp3537
g54
(dp3538
sg63
g3519
sg56
(lp3539
g49
(g70
g51
NtRp3540
(dp3541
g54
(dp3542
sg63
g3536
sg56
(lp3543
g49
(g50
g51
NtRp3544
(dp3545
g54
(dp3546
g62
I1
ssg63
g3540
sg56
(lp3547
I00
asbasbasbag49
(g65
g51
NtRp3548
(dp3549
g54
(dp3550
sg63
g3519
sg56
(lp3551
g49
(g70
g51
NtRp3552
(dp3553
g54
(dp3554
sg63
g3548
sg56
(lp3555
g49
(g50
g51
NtRp3556
(dp3557
g54
(dp3558
g62
I1
ssg63
g3552
sg56
(lp3559
S'/admin/default/site'
p3560
asbasbasbasbasbasbasbag49
(g65
g51
NtRp3561
(dp3562
g54
(dp3563
sg63
g3503
sg56
(lp3564
g49
(g70
g51
NtRp3565
(dp3566
g54
(dp3567
sg63
g3561
sg56
(lp3568
g49
(g50
g51
NtRp3569
(dp3570
g54
(dp3571
g62
I2
ssg63
g3565
sg56
(lp3572
g49
(g58
g51
NtRp3573
(dp3574
g54
(dp3575
g62
I1
ssg63
Nsg56
(lp3576
g49
(g65
g51
NtRp3577
(dp3578
g54
(dp3579
sg63
g3573
sg56
(lp3580
g49
(g70
g51
NtRp3581
(dp3582
g54
(dp3583
sg63
g3577
sg56
(lp3584
g49
(g50
g51
NtRp3585
(dp3586
g54
(dp3587
g62
I1
ssg63
g3581
sg56
(lp3588
g3389
(S's\x08\x00\x00\x00This App'
tRp3589
asbasbasbag49
(g65
g51
NtRp3590
(dp3591
g54
(dp3592
sg63
g3573
sg56
(lp3593
g49
(g70
g51
NtRp3594
(dp3595
g54
(dp3596
sg63
g3590
sg56
(lp3597
g49
(g50
g51
NtRp3598
(dp3599
g54
(dp3600
g62
I1
ssg63
g3594
sg56
(lp3601
I00
asbasbasbag49
(g65
g51
NtRp3602
(dp3603
g54
(dp3604
sg63
g3573
sg56
(lp3605
g49
(g70
g51
NtRp3606
(dp3607
g54
(dp3608
sg63
g3602
sg56
(lp3609
g49
(g50
g51
NtRp3610
(dp3611
g54
(dp3612
g62
I1
ssg63
g3606
sg56
(lp3613
S'/admin/default/design/init'
p3614
asbasbasbag49
(g65
g51
NtRp3615
(dp3616
g54
(dp3617
sg63
g3573
sg56
(lp3618
g49
(g70
g51
NtRp3619
(dp3620
g54
(dp3621
sg63
g3615
sg56
(lp3622
g49
(g50
g51
NtRp3623
(dp3624
g54
(dp3625
g62
I1
ssg63
g3619
sg56
(lp3626
(lp3627
(g3389
(S's\n\x00\x00\x00Controller'
tRp3628
I00
S'/admin/default/edit/init/controllers/default.py'
tp3629
a(g3389
(S's\x04\x00\x00\x00View'
tRp3630
I00
S'/admin/default/edit/init/views/default/initdbjack.html'
tp3631
a(g3389
(S's\x06\x00\x00\x00Layout'
tRp3632
I00
S'/admin/default/edit/init/views/layout.html'
tp3633
a(g3389
(S's\n\x00\x00\x00Stylesheet'
tRp3634
I00
S'/admin/default/edit/init/static/css/web2py.css'
tp3635
a(g3389
(S's\x08\x00\x00\x00DB Model'
tRp3636
I00
S'/admin/default/edit/init/models/db.py'
tp3637
a(g3389
(S's\n\x00\x00\x00Menu Model'
tRp3638
I00
S'/admin/default/edit/init/models/menu.py'
tp3639
a(g3389
(S's\x08\x00\x00\x00Database'
tRp3640
I00
S'/init/appadmin/index'
tp3641
a(g3389
(S's\x06\x00\x00\x00Errors'
tRp3642
I00
S'/admin/default/errors/init'
tp3643
a(g3389
(S's\x05\x00\x00\x00About'
tRp3644
I00
S'/admin/default/about/init'
tp3645
aasbasbasbasbasbasbasbag49
(g65
g51
NtRp3646
(dp3647
g54
(dp3648
sg63
g3503
sg56
(lp3649
g49
(g70
g51
NtRp3650
(dp3651
g54
(dp3652
sg63
g3646
sg56
(lp3653
g49
(g50
g51
NtRp3654
(dp3655
g54
(dp3656
g62
I2
ssg63
g3650
sg56
(lp3657
g49
(g58
g51
NtRp3658
(dp3659
g54
(dp3660
g62
I1
ssg63
Nsg56
(lp3661
g49
(g65
g51
NtRp3662
(dp3663
g54
(dp3664
sg63
g3658
sg56
(lp3665
g49
(g70
g51
NtRp3666
(dp3667
g54
(dp3668
sg63
g3662
sg56
(lp3669
g49
(g50
g51
NtRp3670
(dp3671
g54
(dp3672
g62
I1
ssg63
g3666
sg56
(lp3673
S'web2py.com'
p3674
asbasbasbag49
(g65
g51
NtRp3675
(dp3676
g54
(dp3677
sg63
g3658
sg56
(lp3678
g49
(g70
g51
NtRp3679
(dp3680
g54
(dp3681
sg63
g3675
sg56
(lp3682
g49
(g50
g51
NtRp3683
(dp3684
g54
(dp3685
g62
I1
ssg63
g3679
sg56
(lp3686
I00
asbasbasbag49
(g65
g51
NtRp3687
(dp3688
g54
(dp3689
sg63
g3658
sg56
(lp3690
g49
(g70
g51
NtRp3691
(dp3692
g54
(dp3693
sg63
g3687
sg56
(lp3694
g49
(g50
g51
NtRp3695
(dp3696
g54
(dp3697
g62
I1
ssg63
g3691
sg56
(lp3698
S'http://www.web2py.com'
p3699
asbasbasbag49
(g65
g51
NtRp3700
(dp3701
g54
(dp3702
sg63
g3658
sg56
(lp3703
g49
(g70
g51
NtRp3704
(dp3705
g54
(dp3706
sg63
g3700
sg56
(lp3707
g49
(g50
g51
NtRp3708
(dp3709
g54
(dp3710
g62
I1
ssg63
g3704
sg56
(lp3711
(lp3712
(g3389
(S's\x08\x00\x00\x00Download'
tRp3713
I00
S'http://www.web2py.com/examples/default/download'
p3714
tp3715
a(g3389
(S's\x07\x00\x00\x00Support'
tRp3716
I00
S'http://www.web2py.com/examples/default/support'
p3717
tp3718
a(g3389
(S's\x04\x00\x00\x00Demo'
tRp3719
I00
S'http://web2py.com/demo_admin'
p3720
tp3721
a(g3389
(S's\x0e\x00\x00\x00Quick Examples'
tRp3722
I00
S'http://web2py.com/examples/default/examples'
p3723
tp3724
a(g3389
(S's\x03\x00\x00\x00FAQ'
tRp3725
I00
S'http://web2py.com/AlterEgo'
p3726
tp3727
a(g3389
(S's\x06\x00\x00\x00Videos'
tRp3728
I00
S'http://www.web2py.com/examples/default/videos/'
p3729
tp3730
a(g3389
(S's\x11\x00\x00\x00Free Applications'
tRp3731
I00
S'http://web2py.com/appliances'
p3732
tp3733
a(g3389
(S's\x07\x00\x00\x00Plugins'
tRp3734
I00
S'http://web2py.com/plugins'
p3735
tp3736
a(g3389
(S's\x07\x00\x00\x00Layouts'
tRp3737
I00
S'http://web2py.com/layouts'
p3738
tp3739
a(g3389
(S's\x07\x00\x00\x00Recipes'
tRp3740
I00
S'http://web2pyslices.com/'
p3741
tp3742
a(g3389
(S's\x08\x00\x00\x00Semantic'
tRp3743
I00
S'http://web2py.com/semantic'
p3744
tp3745
aasbasbasbasbasbasbasbag49
(g65
g51
NtRp3746
(dp3747
g54
(dp3748
sg63
g3503
sg56
(lp3749
g49
(g70
g51
NtRp3750
(dp3751
g54
(dp3752
sg63
g3746
sg56
(lp3753
g49
(g50
g51
NtRp3754
(dp3755
g54
(dp3756
g62
I2
ssg63
g3750
sg56
(lp3757
g49
(g58
g51
NtRp3758
(dp3759
g54
(dp3760
g62
I1
ssg63
Nsg56
(lp3761
g49
(g65
g51
NtRp3762
(dp3763
g54
(dp3764
sg63
g3758
sg56
(lp3765
g49
(g70
g51
NtRp3766
(dp3767
g54
(dp3768
sg63
g3762
sg56
(lp3769
g49
(g50
g51
NtRp3770
(dp3771
g54
(dp3772
g62
I1
ssg63
g3766
sg56
(lp3773
g3389
(S's\r\x00\x00\x00Documentation'
tRp3774
asbasbasbag49
(g65
g51
NtRp3775
(dp3776
g54
(dp3777
sg63
g3758
sg56
(lp3778
g49
(g70
g51
NtRp3779
(dp3780
g54
(dp3781
sg63
g3775
sg56
(lp3782
g49
(g50
g51
NtRp3783
(dp3784
g54
(dp3785
g62
I1
ssg63
g3779
sg56
(lp3786
I00
asbasbasbag49
(g65
g51
NtRp3787
(dp3788
g54
(dp3789
sg63
g3758
sg56
(lp3790
g49
(g70
g51
NtRp3791
(dp3792
g54
(dp3793
sg63
g3787
sg56
(lp3794
g49
(g50
g51
NtRp3795
(dp3796
g54
(dp3797
g62
I1
ssg63
g3791
sg56
(lp3798
S'http://www.web2py.com/book'
p3799
asbasbasbag49
(g65
g51
NtRp3800
(dp3801
g54
(dp3802
sg63
g3758
sg56
(lp3803
g49
(g70
g51
NtRp3804
(dp3805
g54
(dp3806
sg63
g3800
sg56
(lp3807
g49
(g50
g51
NtRp3808
(dp3809
g54
(dp3810
g62
I1
ssg63
g3804
sg56
(lp3811
(lp3812
(g3389
(S's\x07\x00\x00\x00Preface'
tRp3813
I00
S'http://www.web2py.com/book/default/chapter/00'
p3814
tp3815
a(g3389
(S's\x0c\x00\x00\x00Introduction'
tRp3816
I00
S'http://www.web2py.com/book/default/chapter/01'
p3817
tp3818
a(g3389
(S's\x06\x00\x00\x00Python'
tRp3819
I00
S'http://www.web2py.com/book/default/chapter/02'
p3820
tp3821
a(g3389
(S's\x08\x00\x00\x00Overview'
tRp3822
I00
S'http://www.web2py.com/book/default/chapter/03'
p3823
tp3824
a(g3389
(S's\x08\x00\x00\x00The Core'
tRp3825
I00
S'http://www.web2py.com/book/default/chapter/04'
p3826
tp3827
a(g3389
(S's\t\x00\x00\x00The Views'
tRp3828
I00
S'http://www.web2py.com/book/default/chapter/05'
p3829
tp3830
a(g3389
(S's\x08\x00\x00\x00Database'
tRp3831
I00
S'http://www.web2py.com/book/default/chapter/06'
p3832
tp3833
a(g3389
(S's\x14\x00\x00\x00Forms and Validators'
tRp3834
I00
S'http://www.web2py.com/book/default/chapter/07'
p3835
tp3836
a(g3389
(S's\r\x00\x00\x00Email and SMS'
tRp3837
I00
S'http://www.web2py.com/book/default/chapter/08'
p3838
tp3839
a(g3389
(S's\x0e\x00\x00\x00Access Control'
tRp3840
I00
S'http://www.web2py.com/book/default/chapter/09'
p3841
tp3842
a(g3389
(S's\x08\x00\x00\x00Services'
tRp3843
I00
S'http://www.web2py.com/book/default/chapter/10'
p3844
tp3845
a(g3389
(S's\x0c\x00\x00\x00Ajax Recipes'
tRp3846
I00
S'http://www.web2py.com/book/default/chapter/11'
p3847
tp3848
a(g3389
(S's\x16\x00\x00\x00Components and Plugins'
tRp3849
I00
S'http://www.web2py.com/book/default/chapter/12'
p3850
tp3851
a(g3389
(S's\x12\x00\x00\x00Deployment Recipes'
tRp3852
I00
S'http://www.web2py.com/book/default/chapter/13'
p3853
tp3854
a(g3389
(S's\r\x00\x00\x00Other Recipes'
tRp3855
I00
S'http://www.web2py.com/book/default/chapter/14'
p3856
tp3857
a(g3389
(S's\r\x00\x00\x00Buy this book'
tRp3858
I00
S'http://stores.lulu.com/web2py'
p3859
tp3860
aasbasbasbasbasbasbasbag49
(g65
g51
NtRp3861
(dp3862
g54
(dp3863
sg63
g3503
sg56
(lp3864
g49
(g70
g51
NtRp3865
(dp3866
g54
(dp3867
sg63
g3861
sg56
(lp3868
g49
(g50
g51
NtRp3869
(dp3870
g54
(dp3871
g62
I2
ssg63
g3865
sg56
(lp3872
g49
(g58
g51
NtRp3873
(dp3874
g54
(dp3875
g62
I1
ssg63
Nsg56
(lp3876
g49
(g65
g51
NtRp3877
(dp3878
g54
(dp3879
sg63
g3873
sg56
(lp3880
g49
(g70
g51
NtRp3881
(dp3882
g54
(dp3883
sg63
g3877
sg56
(lp3884
g49
(g50
g51
NtRp3885
(dp3886
g54
(dp3887
g62
I1
ssg63
g3881
sg56
(lp3888
g3389
(S's\t\x00\x00\x00Community'
tRp3889
asbasbasbag49
(g65
g51
NtRp3890
(dp3891
g54
(dp3892
sg63
g3873
sg56
(lp3893
g49
(g70
g51
NtRp3894
(dp3895
g54
(dp3896
sg63
g3890
sg56
(lp3897
g49
(g50
g51
NtRp3898
(dp3899
g54
(dp3900
g62
I1
ssg63
g3894
sg56
(lp3901
I00
asbasbasbag49
(g65
g51
NtRp3902
(dp3903
g54
(dp3904
sg63
g3873
sg56
(lp3905
g49
(g70
g51
NtRp3906
(dp3907
g54
(dp3908
sg63
g3902
sg56
(lp3909
g49
(g50
g51
NtRp3910
(dp3911
g54
(dp3912
g62
I1
ssg63
g3906
sg56
(lp3913
Nasbasbasbag49
(g65
g51
NtRp3914
(dp3915
g54
(dp3916
sg63
g3873
sg56
(lp3917
g49
(g70
g51
NtRp3918
(dp3919
g54
(dp3920
sg63
g3914
sg56
(lp3921
g49
(g50
g51
NtRp3922
(dp3923
g54
(dp3924
g62
I1
ssg63
g3918
sg56
(lp3925
(lp3926
(g3389
(S's\x06\x00\x00\x00Groups'
tRp3927
I00
S'http://www.web2py.com/examples/default/usergroups'
p3928
tp3929
a(g3389
(S's\x07\x00\x00\x00Twitter'
tRp3930
I00
S'http://twitter.com/web2py'
p3931
tp3932
a(g3389
(S's\t\x00\x00\x00Live Chat'
tRp3933
I00
S'http://webchat.freenode.net/?channels=web2py'
p3934
tp3935
aasbasbasbasbasbasbasbag49
(g65
g51
NtRp3936
(dp3937
g54
(dp3938
sg63
g3503
sg56
(lp3939
g49
(g70
g51
NtRp3940
(dp3941
g54
(dp3942
sg63
g3936
sg56
(lp3943
g49
(g50
g51
NtRp3944
(dp3945
g54
(dp3946
g62
I2
ssg63
g3940
sg56
(lp3947
g49
(g58
g51
NtRp3948
(dp3949
g54
(dp3950
g62
I1
ssg63
Nsg56
(lp3951
g49
(g65
g51
NtRp3952
(dp3953
g54
(dp3954
sg63
g3948
sg56
(lp3955
g49
(g70
g51
NtRp3956
(dp3957
g54
(dp3958
sg63
g3952
sg56
(lp3959
g49
(g50
g51
NtRp3960
(dp3961
g54
(dp3962
g62
I1
ssg63
g3956
sg56
(lp3963
g3389
(S's\x07\x00\x00\x00Plugins'
tRp3964
asbasbasbag49
(g65
g51
NtRp3965
(dp3966
g54
(dp3967
sg63
g3948
sg56
(lp3968
g49
(g70
g51
NtRp3969
(dp3970
g54
(dp3971
sg63
g3965
sg56
(lp3972
g49
(g50
g51
NtRp3973
(dp3974
g54
(dp3975
g62
I1
ssg63
g3969
sg56
(lp3976
I00
asbasbasbag49
(g65
g51
NtRp3977
(dp3978
g54
(dp3979
sg63
g3948
sg56
(lp3980
g49
(g70
g51
NtRp3981
(dp3982
g54
(dp3983
sg63
g3977
sg56
(lp3984
g49
(g50
g51
NtRp3985
(dp3986
g54
(dp3987
g62
I1
ssg63
g3981
sg56
(lp3988
Nasbasbasbag49
(g65
g51
NtRp3989
(dp3990
g54
(dp3991
sg63
g3948
sg56
(lp3992
g49
(g70
g51
NtRp3993
(dp3994
g54
(dp3995
sg63
g3989
sg56
(lp3996
g49
(g50
g51
NtRp3997
(dp3998
g54
(dp3999
g62
I1
ssg63
g3993
sg56
(lp4000
(lp4001
(S'plugin_wiki'
p4002
I00
S'http://web2py.com/examples/default/download'
p4003
tp4004
a(g3389
(S's\r\x00\x00\x00Other Plugins'
tRp4005
I00
g3735
tp4006
a(g3389
(S's\x0e\x00\x00\x00Layout Plugins'
tRp4007
I00
g3738
tp4008
aasbasbasbasbasbasbasbasbasbasbasbasbasbasbasbasbasbasbasbag49
(g65
g51
NtRp4009
(dp4010
g54
(dp4011
sg63
g2853
sg56
(lp4012
g49
(g70
g51
NtRp4013
(dp4014
g54
(dp4015
g74
g75
ssg63
g4009
sg56
(lp4016
S'meta'
p4017
asbag49
(g70
g51
NtRp4018
(dp4019
g54
(dp4020
g81
g82
ssg63
g4009
sg56
(lp4021
S':'
asbag49
(g70
g51
NtRp4022
(dp4023
g54
(dp4024
sg63
g4009
sg56
(lp4025
g49
(g50
g51
NtRp4026
(dp4027
g54
(dp4028
g62
I5
ssg63
g4022
sg56
(lp4029
g49
(g58
g51
NtRp4030
(dp4031
g54
(dp4032
g62
I4
ssg63
Nsg56
(lp4033
g49
(g65
g51
NtRp4034
(dp4035
g54
(dp4036
sg63
g4030
sg56
(lp4037
g49
(g70
g51
NtRp4038
(dp4039
g54
(dp4040
g74
g75
ssg63
g4034
sg56
(lp4041
S'author'
p4042
asbag49
(g70
g51
NtRp4043
(dp4044
g54
(dp4045
g81
g82
ssg63
g4034
sg56
(lp4046
S':'
asbag49
(g70
g51
NtRp4047
(dp4048
g54
(dp4049
sg63
g4034
sg56
(lp4050
g49
(g50
g51
NtRp4051
(dp4052
g54
(dp4053
g62
I4
ssg63
g4047
sg56
(lp4054
S'Your Name <you@example.com>'
p4055
asbasbasbag49
(g65
g51
NtRp4056
(dp4057
g54
(dp4058
sg63
g4030
sg56
(lp4059
g49
(g70
g51
NtRp4060
(dp4061
g54
(dp4062
g74
g75
ssg63
g4056
sg56
(lp4063
S'copyright'
p4064
asbag49
(g70
g51
NtRp4065
(dp4066
g54
(dp4067
g81
g82
ssg63
g4056
sg56
(lp4068
S':'
asbag49
(g70
g51
NtRp4069
(dp4070
g54
(dp4071
sg63
g4056
sg56
(lp4072
g49
(g50
g51
NtRp4073
(dp4074
g54
(dp4075
g62
I4
ssg63
g4069
sg56
(lp4076
S'Copyright 2011'
p4077
asbasbasbag49
(g65
g51
NtRp4078
(dp4079
g54
(dp4080
sg63
g4030
sg56
(lp4081
g49
(g70
g51
NtRp4082
(dp4083
g54
(dp4084
g74
g75
ssg63
g4078
sg56
(lp4085
S'description'
p4086
asbag49
(g70
g51
NtRp4087
(dp4088
g54
(dp4089
g81
g82
ssg63
g4078
sg56
(lp4090
S':'
asbag49
(g70
g51
NtRp4091
(dp4092
g54
(dp4093
sg63
g4078
sg56
(lp4094
g49
(g50
g51
NtRp4095
(dp4096
g54
(dp4097
g62
I4
ssg63
g4091
sg56
(lp4098
S'a cool new app'
p4099
asbasbasbag49
(g65
g51
NtRp4100
(dp4101
g54
(dp4102
sg63
g4030
sg56
(lp4103
g49
(g70
g51
NtRp4104
(dp4105
g54
(dp4106
g74
g75
ssg63
g4100
sg56
(lp4107
S'generator'
p4108
asbag49
(g70
g51
NtRp4109
(dp4110
g54
(dp4111
g81
g82
ssg63
g4100
sg56
(lp4112
S':'
asbag49
(g70
g51
NtRp4113
(dp4114
g54
(dp4115
sg63
g4100
sg56
(lp4116
g49
(g50
g51
NtRp4117
(dp4118
g54
(dp4119
g62
I4
ssg63
g4113
sg56
(lp4120
S'Web2py Web Framework'
p4121
asbasbasbag49
(g65
g51
NtRp4122
(dp4123
g54
(dp4124
sg63
g4030
sg56
(lp4125
g49
(g70
g51
NtRp4126
(dp4127
g54
(dp4128
g74
g75
ssg63
g4122
sg56
(lp4129
S'keywords'
p4130
asbag49
(g70
g51
NtRp4131
(dp4132
g54
(dp4133
g81
g82
ssg63
g4122
sg56
(lp4134
S':'
asbag49
(g70
g51
NtRp4135
(dp4136
g54
(dp4137
sg63
g4122
sg56
(lp4138
g49
(g50
g51
NtRp4139
(dp4140
g54
(dp4141
g62
I4
ssg63
g4135
sg56
(lp4142
S'web2py, python, framework'
p4143
asbasbasbasbasbasbasbag49
(g65
g51
NtRp4144
(dp4145
g54
(dp4146
sg63
g2853
sg56
(lp4147
g49
(g70
g51
NtRp4148
(dp4149
g54
(dp4150
g74
g75
ssg63
g4144
sg56
(lp4151
S'postprocessing'
p4152
asbag49
(g70
g51
NtRp4153
(dp4154
g54
(dp4155
g81
g82
ssg63
g4144
sg56
(lp4156
S':'
asbag49
(g70
g51
NtRp4157
(dp4158
g54
(dp4159
sg63
g4144
sg56
(lp4160
g49
(g50
g51
NtRp4161
(dp4162
g54
(dp4163
g62
I5
ssg63
g4157
sg56
(lp4164
g49
(g58
g51
NtRp4165
(dp4166
g54
(dp4167
g62
I4
ssg63
Nsg56
(lp4168
sbasbasbasbag49
(g65
g51
NtRp4169
(dp4170
g54
(dp4171
sg63
g2853
sg56
(lp4172
g49
(g70
g51
NtRp4173
(dp4174
g54
(dp4175
g74
g75
ssg63
g4169
sg56
(lp4176
S'session_db'
p4177
asbag49
(g70
g51
NtRp4178
(dp4179
g54
(dp4180
g81
g82
ssg63
g4169
sg56
(lp4181
S':'
asbag49
(g70
g51
NtRp4182
(dp4183
g54
(dp4184
sg63
g4169
sg56
(lp4185
g49
(g50
g51
NtRp4186
(dp4187
g54
(dp4188
g62
I5
ssg63
g4182
sg56
(lp4189
g726
asbasbasbag49
(g65
g51
NtRp4190
(dp4191
g54
(dp4192
sg63
g2853
sg56
(lp4193
g49
(g70
g51
NtRp4194
(dp4195
g54
(dp4196
g74
g75
ssg63
g4190
sg56
(lp4197
S'session_id'
p4198
asbag49
(g70
g51
NtRp4199
(dp4200
g54
(dp4201
g81
g82
ssg63
g4190
sg56
(lp4202
S':'
asbag49
(g70
g51
NtRp4203
(dp4204
g54
(dp4205
sg63
g4190
sg56
(lp4206
g49
(g50
g51
NtRp4207
(dp4208
g54
(dp4209
g62
I5
ssg63
g4203
sg56
(lp4210
S'22:916ef1c2-7902-46d9-bbc5-80f0afcec41d'
p4211
asbasbasbag49
(g65
g51
NtRp4212
(dp4213
g54
(dp4214
sg63
g2853
sg56
(lp4215
g49
(g70
g51
NtRp4216
(dp4217
g54
(dp4218
g74
g75
ssg63
g4212
sg56
(lp4219
S'session_id_name'
p4220
asbag49
(g70
g51
NtRp4221
(dp4222
g54
(dp4223
g81
g82
ssg63
g4212
sg56
(lp4224
S':'
asbag49
(g70
g51
NtRp4225
(dp4226
g54
(dp4227
sg63
g4212
sg56
(lp4228
g49
(g50
g51
NtRp4229
(dp4230
g54
(dp4231
g62
I5
ssg63
g4225
sg56
(lp4232
S'session_id_init'
p4233
asbasbasbag49
(g65
g51
NtRp4234
(dp4235
g54
(dp4236
sg63
g2853
sg56
(lp4237
g49
(g70
g51
NtRp4238
(dp4239
g54
(dp4240
g74
g75
ssg63
g4234
sg56
(lp4241
S'status'
p4242
asbag49
(g70
g51
NtRp4243
(dp4244
g54
(dp4245
g81
g82
ssg63
g4234
sg56
(lp4246
S':'
asbag49
(g70
g51
NtRp4247
(dp4248
g54
(dp4249
sg63
g4234
sg56
(lp4250
g49
(g50
g51
NtRp4251
(dp4252
g54
(dp4253
g62
I5
ssg63
g4247
sg56
(lp4254
S'200'
p4255
asbasbasbag49
(g65
g51
NtRp4256
(dp4257
g54
(dp4258
sg63
g2853
sg56
(lp4259
g49
(g70
g51
NtRp4260
(dp4261
g54
(dp4262
g74
g75
ssg63
g4256
sg56
(lp4263
S'subtitle'
p4264
asbag49
(g70
g51
NtRp4265
(dp4266
g54
(dp4267
g81
g82
ssg63
g4256
sg56
(lp4268
S':'
asbag49
(g70
g51
NtRp4269
(dp4270
g54
(dp4271
sg63
g4256
sg56
(lp4272
g49
(g50
g51
NtRp4273
(dp4274
g54
(dp4275
g62
I5
ssg63
g4269
sg56
(lp4276
g3389
(S's\r\x00\x00\x00customize me!'
tRp4277
asbasbasbag49
(g65
g51
NtRp4278
(dp4279
g54
(dp4280
sg63
g2853
sg56
(lp4281
g49
(g70
g51
NtRp4282
(dp4283
g54
(dp4284
g74
g75
ssg63
g4278
sg56
(lp4285
S'title'
p4286
asbag49
(g70
g51
NtRp4287
(dp4288
g54
(dp4289
g81
g82
ssg63
g4278
sg56
(lp4290
S':'
asbag49
(g70
g51
NtRp4291
(dp4292
g54
(dp4293
sg63
g4278
sg56
(lp4294
g49
(g50
g51
NtRp4295
(dp4296
g54
(dp4297
g62
I5
ssg63
g4291
sg56
(lp4298
S'Init'
p4299
asbasbasbag49
(g65
g51
NtRp4300
(dp4301
g54
(dp4302
sg63
g2853
sg56
(lp4303
g49
(g70
g51
NtRp4304
(dp4305
g54
(dp4306
g74
g75
ssg63
g4300
sg56
(lp4307
g2108
asbag49
(g70
g51
NtRp4308
(dp4309
g54
(dp4310
g81
g82
ssg63
g4300
sg56
(lp4311
S':'
asbag49
(g70
g51
NtRp4312
(dp4313
g54
(dp4314
sg63
g4300
sg56
(lp4315
g49
(g50
g51
NtRp4316
(dp4317
g54
(dp4318
g62
I5
ssg63
g4312
sg56
(lp4319
g2121
asbasbasbag49
(g65
g51
NtRp4320
(dp4321
g54
(dp4322
sg63
g2853
sg56
(lp4323
g49
(g70
g51
NtRp4324
(dp4325
g54
(dp4326
g74
g75
ssg63
g4320
sg56
(lp4327
S'view'
p4328
asbag49
(g70
g51
NtRp4329
(dp4330
g54
(dp4331
g81
g82
ssg63
g4320
sg56
(lp4332
S':'
asbag49
(g70
g51
NtRp4333
(dp4334
g54
(dp4335
sg63
g4320
sg56
(lp4336
g49
(g50
g51
NtRp4337
(dp4338
g54
(dp4339
g62
I5
ssg63
g4333
sg56
(lp4340
S'default/initdbjack.html'
p4341
asbasbasbasbasbsS'locals'
p4342
(dp4343
S'c'
S"'Dexterite'"
p4344
sS'Item'
p4345
S"{'Decoupeuse a plasma': 'Mettalerrie', 'Machine a Coudre': 'Couture', 'Voiture': 'Conduite'}"
p4346
sS'i'
S'0'
sS'level1'
p4347
S"'Savoir'"
p4348
sS'skills'
p4349
S"{'Physique': {'Sport': {'Capoeira': {'bengale': {}}, 'Karate': {'Nord': {}, 'Sud': {}}}}, 'Savoir': {'Informatique': {'Programmation': {'Methode': {'Merise': {}, 'Uml': {}}, 'Python': {'Django': {}, 'Web2py': {}}}}}, 'Technique': {'Conduite': {}, 'Couture': {}, 'Mettalerrie': {'Forge': {}}}}"
p4350
sS'carac'
p4351
S"['Force', 'Logique', 'Volonte', 'Charisme', 'Apparence', 'Dexterite']"
p4352
sS'row'
p4353
S"'Decoupeuse a plasma'"
p4354
sssS'traceback'
p4355
S'Traceback (most recent call last):\n  File "gluon/restricted.py", line 205, in restricted\n  File "C:\\Users\\Bussiere\\Dropbox\\Projets\\jackpoint\\web2py\\applications\\init\\controllers/default.py", line 617, in <module>\n  File "gluon/globals.py", line 173, in <lambda>\n  File "C:\\Users\\Bussiere\\Dropbox\\Projets\\jackpoint\\web2py\\applications\\init\\controllers/default.py", line 503, in initdbjack\nTypeError: \'Field\' object is not callable\n'
p4356
s.