(dp1
S'output'
p2
S"<type 'exceptions.KeyError'> 'auth_user'"
p3
sS'layer'
p4
S'D:\\Documents\\Workspace\\Jack\\web2py\\applications\\init\\models\\db.py'
p5
sS'code'
p6
S"# -*- coding: utf-8 -*-\n# Static analyzer import helpers:\nif 0: \n    import gluon\n    global cache; cache = gluon.cache.Cache()\n    global LOAD; LOAD  = gluon.compileapp.LoadFactory()\n    import gluon.compileapp.local_import_aux as local_import #@UnusedImport\n    from gluon.contrib.gql import GQLDB #@UnusedImport\n    from gluon.dal import Field #@UnusedImport\n    global request; request = gluon.globals.Request()\n    global response; response = gluon.globals.Response()\n    global session; session = gluon.globals.Session()\n    from gluon.html import A #@UnusedImport\n    from gluon.html import B #@UnusedImport\n    from gluon.html import BEAUTIFY #@UnusedImport\n    from gluon.html import BODY #@UnusedImport\n    from gluon.html import BR #@UnusedImport\n    from gluon.html import CENTER #@UnusedImport\n    from gluon.html import CODE #@UnusedImport\n    from gluon.html import DIV #@UnusedImport\n    from gluon.html import EM #@UnusedImport\n    from gluon.html import EMBED #@UnusedImport\n    from gluon.html import embed64 #@UnusedImport\n    from gluon.html import FIELDSET #@UnusedImport\n    from gluon.html import FORM #@UnusedImport\n    from gluon.html import H1 #@UnusedImport\n    from gluon.html import H2 #@UnusedImport\n    from gluon.html import H3 #@UnusedImport\n    from gluon.html import H4 #@UnusedImport\n    from gluon.html import H5 #@UnusedImport\n    from gluon.html import H6 #@UnusedImport\n    from gluon.html import HEAD #@UnusedImport\n    from gluon.html import HR #@UnusedImport\n    from gluon.html import HTML #@UnusedImport\n    from gluon.html import I #@UnusedImport\n    from gluon.html import IFRAME #@UnusedImport\n    from gluon.html import IMG #@UnusedImport\n    from gluon.html import INPUT #@UnusedImport\n    from gluon.html import LABEL #@UnusedImport\n    from gluon.html import LEGEND #@UnusedImport\n    from gluon.html import LI #@UnusedImport\n    from gluon.html import LINK #@UnusedImport\n    from gluon.html import MARKMIN #@UnusedImport\n    from gluon.html import MENU #@UnusedImport\n    from gluon.html import META #@UnusedImport\n    from gluon.html import OBJECT #@UnusedImport\n    from gluon.html import OL #@UnusedImport\n    from gluon.html import ON #@UnusedImport\n    from gluon.html import OPTGROUP #@UnusedImport\n    from gluon.html import OPTION #@UnusedImport\n    from gluon.html import P #@UnusedImport\n    from gluon.html import PRE #@UnusedImport\n    from gluon.html import STYLE #@UnusedImport\n    from gluon.html import SCRIPT #@UnusedImport\n    from gluon.html import SELECT #@UnusedImport\n    from gluon.html import SPAN #@UnusedImport\n    from gluon.html import TABLE #@UnusedImport\n    from gluon.html import TAG #@UnusedImport\n    from gluon.html import TBODY #@UnusedImport\n    from gluon.html import TD #@UnusedImport\n    from gluon.html import TEXTAREA #@UnusedImport\n    from gluon.html import TFOOT #@UnusedImport\n    from gluon.html import TH  #@UnusedImport\n    from gluon.html import THEAD #@UnusedImport\n    from gluon.html import TITLE #@UnusedImport\n    from gluon.html import TR #@UnusedImport\n    from gluon.html import TT #@UnusedImport\n    from gluon.html import UL #@UnusedImport\n    from gluon.html import URL #@UnusedImport\n    from gluon.html import XHTML #@UnusedImport\n    from gluon.html import XML #@UnusedImport\n    from gluon.html import xmlescape #@UnusedImport\n    from gluon.http import HTTP #@UnusedImport\n    from gluon.http import redirect #@UnusedImport\n    import gluon.languages.translator as T #@UnusedImport\n    from gluon.sql import DAL\n    global db; db = DAL()\n    from gluon.sql import SQLDB #@UnusedImport\n    from gluon.sql import SQLField #@UnusedImport\n    from gluon.sqlhtml import SQLFORM #@UnusedImport\n    from gluon.sqlhtml import SQLTABLE #@UnusedImport\n    from gluon.tools import  Auth\n    global auth; auth = Auth()\n    from gluon.tools import Crud\n    global crud; crud = Crud()\n    from gluon.tools import fetch #@UnusedImport\n    from gluon.tools import geocode #@UnusedImport\n    from gluon.tools import Mail\n    global mail; mail = Mail()\n    from gluon.tools import PluginManager\n    global plugins; plugins = PluginManager()\n    from gluon.tools import prettydate #@UnusedImport\n    from gluon.tools import Recaptcha #@UnusedImport\n    from gluon.tools import Service\n    global service; service = Service()\n    from gluon.validators import CLEANUP  #@UnusedImport\n    from gluon.validators import CRYPT #@UnusedImport\n    from gluon.validators import IS_ALPHANUMERIC #@UnusedImport\n    from gluon.validators import IS_DATE #@UnusedImport\n    from gluon.validators import IS_DATE_IN_RANGE #@UnusedImport\n    from gluon.validators import IS_DATETIME #@UnusedImport\n    from gluon.validators import IS_DATETIME_IN_RANGE #@UnusedImport\n    from gluon.validators import IS_DECIMAL_IN_RANGE #@UnusedImport\n    from gluon.validators import IS_EMAIL #@UnusedImport\n    from gluon.validators import IS_EMPTY_OR #@UnusedImport\n    from gluon.validators import IS_EQUAL_TO #@UnusedImport\n    from gluon.validators import IS_EXPR #@UnusedImport\n    from gluon.validators import IS_FLOAT_IN_RANGE #@UnusedImport\n    from gluon.validators import IS_IMAGE #@UnusedImport\n    from gluon.validators import IS_IN_DB #@UnusedImport\n    from gluon.validators import IS_IN_SET #@UnusedImport\n    from gluon.validators import IS_INT_IN_RANGE #@UnusedImport\n    from gluon.validators import IS_IPV4 #@UnusedImport\n    from gluon.validators import IS_LENGTH #@UnusedImport\n    from gluon.validators import IS_LIST_OF #@UnusedImport\n    from gluon.validators import IS_LOWER #@UnusedImport\n    from gluon.validators import IS_MATCH #@UnusedImport\n    from gluon.validators import IS_NOT_EMPTY #@UnusedImport\n    from gluon.validators import IS_NOT_IN_DB #@UnusedImport\n    from gluon.validators import IS_NULL_OR #@UnusedImport\n    from gluon.validators import IS_SLUG #@UnusedImport\n    from gluon.validators import IS_STRONG  #@UnusedImport\n    from gluon.validators import IS_TIME #@UnusedImport\n    from gluon.validators import IS_UPLOAD_FILENAME #@UnusedImport\n    from gluon.validators import IS_UPPER #@UnusedImport\n    from gluon.validators import IS_URL #@UnusedImport\n#########################################################################\n## This scaffolding model makes your app work on Google App Engine too\n## File is released under public domain and you can use without limitations\n#########################################################################\n\n## if SSL/HTTPS is properly configured and you want all HTTP requests to\n## be redirected to HTTPS, uncomment the line below:\n# request.requires_https()\n\nif not request.env.web2py_runtime_gae:\n## if NOT running on Google App Engine use SQLite or other DB\n    db = DAL('sqlite://storage.sqlite')\nelse:\n## connect to Google BigTable (optional 'google:datastore://namespace')\n    db = DAL('google:datastore')\n## store sessions and tickets there\nsession.connect(request, response, db = db)\n## or store session in Memcache, Redis, etc.\n#from gluon.contrib.memdb import MEMDB\n#from google.appengine.api.memcache import Client\n## session.connect(request, response, db = MEMDB(Client()))\n\n## by default give a view/generic.extension to all actions from localhost\n## none otherwise. a pattern can be 'controller/function.extension'\nresponse.generic_patterns = ['*'] if request.is_local else []\n## (optional) optimize handling of static files\n# response.optimize_css = 'concat,minify,inline'\n# response.optimize_js = 'concat,minify,inline'\n\n#########################################################################\n## Here is sample code if you need for\n## - email capabilities\n## - authentication (registration, login, logout, ... )\n## - authorization (role based authorization)\n## - services (xml, csv, json, xmlrpc, jsonrpc, amf, rss)\n## - old style crud actions\n## (more options discussed in gluon/tools.py)\n#########################################################################\n\nfrom gluon.tools import Auth, Crud, Service, PluginManager, prettydate\nauth = Auth(db, hmac_key=Auth.get_or_create_key())\ncrud, service, plugins = Crud(db), Service(), PluginManager()\n\n\ndb.define_table('Skill',\n Field('Nom', unique=True),\n format = '%(Nom)s')\n\ndb.define_table('SkillLevel',\n Field('Level', 'integer'),\n Field('Skill', db.Skill),\n Field('Parent', db.Skill),\n format = '%(Skill)s')\n\n\n\ndb.define_table('SkillLevelUser',\n Field('Skill', db.SkillLevel),\n Field('Niveau','integer'),\n Field('Private','boolean'),\n format = '%(Skill)s')\n\ndb.define_table('Suggestion_Skills',\n Field('User',db.auth_user),\n Field('Texte'),\n Field('Done','boolean',default=False),\n format = '%(Skill)s')\n\ndb.define_table('Carac',\n Field('Nom', unique=True),\n format = '%(Nom)s')\n\n\ndb.define_table('CaracUse',\n Field('Carac', db.Skill),\n Field('Niveau','integer'),\n Field('Private','boolean'),\n format = '%(Skill)s')\n\n\n\ndb.define_table('Item',\n Field('Nom', unique=True),\n Field('SkillUse', db.SkillUse),\n format = '%(Nom)s')\n\n\n\n\ndb.define_table(\nauth.settings.table_user_name,\nField('username', length=128, default=''),\nField('email', length=128, default='', unique=True), # required\nField('password', 'password', length=512,# required\nreadable=False, label='Password'),\nField('Skills','list:reference SkillLevelUser',default=None),\nField('validated','boolean',default=False),\nField('Items','list:reference Item',default=None),\nField('registration_key', length=512,# required\nwritable=False, readable=False, default=''),\nField('reset_password_key', length=512,# required\nwritable=False, readable=False, default=''),\nField('registration_id', length=512, # required\nwritable=False, readable=False, default=''))\n\n## do not forget validators\ncustom_auth_table = db[auth.settings.table_user_name] # get the custom_auth_table\ncustom_auth_table.username.requires = \\\nIS_NOT_EMPTY(error_message=auth.messages.is_empty)\ncustom_auth_table.password.requires = [CRYPT()]\ncustom_auth_table.email.requires = [\nIS_EMAIL(error_message=auth.messages.invalid_email),\nIS_NOT_IN_DB(db, custom_auth_table.email)]\n\n\n## create all tables needed by auth if not custom tables\nauth.define_tables()\n\ndb.define_table('Father',\nField('father', db.auth_user),\nField('sons', 'list:reference auth_user'),\nformat = '%(Nom)s')\n\ndb.define_table('Son',\nField('father', db.auth_user),\nField('sons', db.auth_user),\nformat = '%(Nom)s')\n\n\n\n\n\n\n\n \ndb.SkillUse.Niveau.requires=IS_INT_IN_RANGE(0, 5)\n\ndb.define_table('SkillDemande',\n Field('Skill', db.Skill),\n Field('Niveau','integer'),\n format = '%(Niveau)s') \n\n\ndb.SkillDemande.Niveau.requires=IS_INT_IN_RANGE(0, 5)\n \n \n\n\ndb.define_table('Demande',\n Field('Topic', unique=True),\n Field('Texte'),\n Field('Skills','list:reference SkillDemande'),\n Field('Items','list:reference Item'),\n Field('auth_user',db.auth_user),\n format = '%(Topic)s')\n\ndb.define_table('Usage_Db',\n Field('Nom', unique=True),\n format = '%(Nom)s')\n\ndb.define_table('Invitation',\n Field('Code', unique=True),\n Field('Usage', db.Usage_Db),\n Field('Donneur', db.auth_user),\n Field('Receveur', db.auth_user),\n Field('Email'),\n Field('Used', 'boolean'),\n format = '%(Topic)s')\n\ndb.define_table('Popup',\n Field('Demande', db.Demande),\n Field('User', db.auth_user),\n format = '%(Demande)s')\n\ndb.define_table('Suggestion',\n Field('Topic', unique=True),\n Field('Texte'),\n Field('Skills','list:reference Skill'),\n Field('Items','list:reference Item'),\n Field('auth_user',db.auth_user),\n format = '%(Topic)s')\n \ndb.define_table('Tip',\n Field('Texte'),\n Field('User',db.auth_user),\n Field('Validation','boolean'),\n format = '%(Topic)s')\n\n## configure email\nmail=auth.settings.mailer\nmail.settings.server = 'logging' or 'smtp.gmail.com:587'\nmail.settings.sender = 'you@gmail.com'\nmail.settings.login = 'username:password'\n\n## configure auth policy\nauth.settings.registration_requires_verification = False\nauth.settings.registration_requires_approval = False\nauth.settings.reset_password_requires_verification = True\n\n## if you need to use OpenID, Facebook, MySpace, Twitter, Linkedin, etc.\n## register with janrain.com, write your domain:api_key in private/janrain.key\nfrom gluon.contrib.login_methods.rpx_account import use_janrain\nuse_janrain(auth,filename='private/janrain.key')\n\n#########################################################################\n## Define your tables below (or better in another model file) for example\n##\n## >>> db.define_table('mytable',Field('myfield','string'))\n##\n## Fields can be 'string','text','password','integer','double','boolean'\n## 'date','time','datetime','blob','upload', 'reference TABLENAME'\n## There is an implicit 'id integer autoincrement' field\n## Consult manual for more options, validators, etc.\n##\n## More API examples for controllers:\n##\n## >>> db.mytable.insert(myfield='value')\n## >>> rows=db(db.mytable.myfield=='value').select(db.mytable.ALL)\n## >>> for row in rows: print row.id, row.myfield\n#########################################################################\n\n"
p7
sS'snapshot'
p8
(dp9
S'exception'
p10
(dp11
S'__hash__'
p12
S"<method-wrapper '__hash__' of exceptions.KeyError object at 0x0295DD00>"
p13
sS'__setattr__'
p14
S"<method-wrapper '__setattr__' of exceptions.KeyError object at 0x0295DD00>"
p15
sS'__reduce_ex__'
p16
S'<built-in method __reduce_ex__ of exceptions.KeyError object at 0x0295DD00>'
p17
sS'__getslice__'
p18
S"<method-wrapper '__getslice__' of exceptions.KeyError object at 0x0295DD00>"
p19
sS'__getitem__'
p20
S"<method-wrapper '__getitem__' of exceptions.KeyError object at 0x0295DD00>"
p21
sS'__setstate__'
p22
S'<built-in method __setstate__ of exceptions.KeyError object at 0x0295DD00>'
p23
sS'__reduce__'
p24
S'<built-in method __reduce__ of exceptions.KeyError object at 0x0295DD00>'
p25
sS'__str__'
p26
S"<method-wrapper '__str__' of exceptions.KeyError object at 0x0295DD00>"
p27
sS'args'
p28
S"('auth_user',)"
p29
sS'__getattribute__'
p30
S"<method-wrapper '__getattribute__' of exceptions.KeyError object at 0x0295DD00>"
p31
sS'__class__'
p32
S"<type 'exceptions.KeyError'>"
p33
sS'__delattr__'
p34
S"<method-wrapper '__delattr__' of exceptions.KeyError object at 0x0295DD00>"
p35
sS'__repr__'
p36
S"<method-wrapper '__repr__' of exceptions.KeyError object at 0x0295DD00>"
p37
sS'__dict__'
p38
S'{}'
p39
sS'__doc__'
p40
S"'Mapping key not found.'"
p41
sS'__init__'
p42
S"<method-wrapper '__init__' of exceptions.KeyError object at 0x0295DD00>"
p43
sS'__new__'
p44
S'<built-in method __new__ of type object at 0x1E1CDFB8>'
p45
ssS'evalue'
p46
S"'auth_user'"
p47
sS'request'
p48
ccopy_reg
_reconstructor
p49
(cgluon.html
BEAUTIFY
p50
c__builtin__
object
p51
NtRp52
(dp53
S'attributes'
p54
(dp55
sS'components'
p56
(lp57
g49
(cgluon.html
TABLE
p58
g51
NtRp59
(dp60
g54
(dp61
S'level'
p62
I5
ssS'parent'
p63
Nsg56
(lp64
g49
(cgluon.html
TR
p65
g51
NtRp66
(dp67
g54
(dp68
sg63
g59
sg56
(lp69
g49
(cgluon.html
TD
p70
g51
NtRp71
(dp72
g54
(dp73
S'_style'
p74
S'font-weight:bold;vertical-align:top'
p75
ssg63
g66
sg56
(lp76
S'ajax'
p77
asbag49
(g70
g51
NtRp78
(dp79
g54
(dp80
S'_valign'
p81
S'top'
p82
ssg63
g66
sg56
(lp83
S':'
asbag49
(g70
g51
NtRp84
(dp85
g54
(dp86
sg63
g66
sg56
(lp87
g49
(g50
g51
NtRp88
(dp89
g54
(dp90
g62
I5
ssg63
g84
sg56
(lp91
S'False'
p92
asbasbasbag49
(g65
g51
NtRp93
(dp94
g54
(dp95
sg63
g59
sg56
(lp96
g49
(g70
g51
NtRp97
(dp98
g54
(dp99
g74
g75
ssg63
g93
sg56
(lp100
S'application'
p101
asbag49
(g70
g51
NtRp102
(dp103
g54
(dp104
g81
g82
ssg63
g93
sg56
(lp105
S':'
asbag49
(g70
g51
NtRp106
(dp107
g54
(dp108
sg63
g93
sg56
(lp109
g49
(g50
g51
NtRp110
(dp111
g54
(dp112
g62
I5
ssg63
g106
sg56
(lp113
S'init'
p114
asbasbasbag49
(g65
g51
NtRp115
(dp116
g54
(dp117
sg63
g59
sg56
(lp118
g49
(g70
g51
NtRp119
(dp120
g54
(dp121
g74
g75
ssg63
g115
sg56
(lp122
g28
asbag49
(g70
g51
NtRp123
(dp124
g54
(dp125
g81
g82
ssg63
g115
sg56
(lp126
S':'
asbag49
(g70
g51
NtRp127
(dp128
g54
(dp129
sg63
g115
sg56
(lp130
g49
(g50
g51
NtRp131
(dp132
g54
(dp133
g62
I5
ssg63
g127
sg56
(lp134
g49
(g58
g51
NtRp135
(dp136
g54
(dp137
g62
I4
ssg63
Nsg56
(lp138
sbasbasbasbag49
(g65
g51
NtRp139
(dp140
g54
(dp141
sg63
g59
sg56
(lp142
g49
(g70
g51
NtRp143
(dp144
g54
(dp145
g74
g75
ssg63
g139
sg56
(lp146
S'body'
p147
asbag49
(g70
g51
NtRp148
(dp149
g54
(dp150
g81
g82
ssg63
g139
sg56
(lp151
S':'
asbag49
(g70
g51
NtRp152
(dp153
g54
(dp154
sg63
g139
sg56
(lp155
g49
(g50
g51
NtRp156
(dp157
g54
(dp158
g62
I5
ssg63
g152
sg56
(lp159
S'<cStringIO.StringO object at 0x0295B960>'
p160
asbasbasbag49
(g65
g51
NtRp161
(dp162
g54
(dp163
sg63
g59
sg56
(lp164
g49
(g70
g51
NtRp165
(dp166
g54
(dp167
g74
g75
ssg63
g161
sg56
(lp168
S'client'
p169
asbag49
(g70
g51
NtRp170
(dp171
g54
(dp172
g81
g82
ssg63
g161
sg56
(lp173
S':'
asbag49
(g70
g51
NtRp174
(dp175
g54
(dp176
sg63
g161
sg56
(lp177
g49
(g50
g51
NtRp178
(dp179
g54
(dp180
g62
I5
ssg63
g174
sg56
(lp181
S'127.0.0.1'
p182
asbasbasbag49
(g65
g51
NtRp183
(dp184
g54
(dp185
sg63
g59
sg56
(lp186
g49
(g70
g51
NtRp187
(dp188
g54
(dp189
g74
g75
ssg63
g183
sg56
(lp190
S'controller'
p191
asbag49
(g70
g51
NtRp192
(dp193
g54
(dp194
g81
g82
ssg63
g183
sg56
(lp195
S':'
asbag49
(g70
g51
NtRp196
(dp197
g54
(dp198
sg63
g183
sg56
(lp199
g49
(g50
g51
NtRp200
(dp201
g54
(dp202
g62
I5
ssg63
g196
sg56
(lp203
S'default'
p204
asbasbasbag49
(g65
g51
NtRp205
(dp206
g54
(dp207
sg63
g59
sg56
(lp208
g49
(g70
g51
NtRp209
(dp210
g54
(dp211
g74
g75
ssg63
g205
sg56
(lp212
S'cookies'
p213
asbag49
(g70
g51
NtRp214
(dp215
g54
(dp216
g81
g82
ssg63
g205
sg56
(lp217
S':'
asbag49
(g70
g51
NtRp218
(dp219
g54
(dp220
sg63
g205
sg56
(lp221
g49
(g50
g51
NtRp222
(dp223
g54
(dp224
g62
I5
ssg63
g218
sg56
(lp225
g49
(g58
g51
NtRp226
(dp227
g54
(dp228
g62
I4
ssg63
Nsg56
(lp229
g49
(g65
g51
NtRp230
(dp231
g54
(dp232
sg63
g226
sg56
(lp233
g49
(g70
g51
NtRp234
(dp235
g54
(dp236
g74
g75
ssg63
g230
sg56
(lp237
S'csrftoken'
p238
asbag49
(g70
g51
NtRp239
(dp240
g54
(dp241
g81
g82
ssg63
g230
sg56
(lp242
S':'
asbag49
(g70
g51
NtRp243
(dp244
g54
(dp245
sg63
g230
sg56
(lp246
g49
(g50
g51
NtRp247
(dp248
g54
(dp249
g62
I4
ssg63
g243
sg56
(lp250
g49
(g58
g51
NtRp251
(dp252
g54
(dp253
g62
I3
ssg63
Nsg56
(lp254
g49
(g65
g51
NtRp255
(dp256
g54
(dp257
sg63
g251
sg56
(lp258
g49
(g70
g51
NtRp259
(dp260
g54
(dp261
g74
g75
ssg63
g255
sg56
(lp262
S'comment'
p263
asbag49
(g70
g51
NtRp264
(dp265
g54
(dp266
g81
g82
ssg63
g255
sg56
(lp267
S':'
asbag49
(g70
g51
NtRp268
(dp269
g54
(dp270
sg63
g255
sg56
(lp271
g49
(g50
g51
NtRp272
(dp273
g54
(dp274
g62
I3
ssg63
g268
sg56
(lp275
S''
asbasbasbag49
(g65
g51
NtRp276
(dp277
g54
(dp278
sg63
g251
sg56
(lp279
g49
(g70
g51
NtRp280
(dp281
g54
(dp282
g74
g75
ssg63
g276
sg56
(lp283
S'domain'
p284
asbag49
(g70
g51
NtRp285
(dp286
g54
(dp287
g81
g82
ssg63
g276
sg56
(lp288
S':'
asbag49
(g70
g51
NtRp289
(dp290
g54
(dp291
sg63
g276
sg56
(lp292
g49
(g50
g51
NtRp293
(dp294
g54
(dp295
g62
I3
ssg63
g289
sg56
(lp296
S''
asbasbasbag49
(g65
g51
NtRp297
(dp298
g54
(dp299
sg63
g251
sg56
(lp300
g49
(g70
g51
NtRp301
(dp302
g54
(dp303
g74
g75
ssg63
g297
sg56
(lp304
S'expires'
p305
asbag49
(g70
g51
NtRp306
(dp307
g54
(dp308
g81
g82
ssg63
g297
sg56
(lp309
S':'
asbag49
(g70
g51
NtRp310
(dp311
g54
(dp312
sg63
g297
sg56
(lp313
g49
(g50
g51
NtRp314
(dp315
g54
(dp316
g62
I3
ssg63
g310
sg56
(lp317
S''
asbasbasbag49
(g65
g51
NtRp318
(dp319
g54
(dp320
sg63
g251
sg56
(lp321
g49
(g70
g51
NtRp322
(dp323
g54
(dp324
g74
g75
ssg63
g318
sg56
(lp325
S'max-age'
p326
asbag49
(g70
g51
NtRp327
(dp328
g54
(dp329
g81
g82
ssg63
g318
sg56
(lp330
S':'
asbag49
(g70
g51
NtRp331
(dp332
g54
(dp333
sg63
g318
sg56
(lp334
g49
(g50
g51
NtRp335
(dp336
g54
(dp337
g62
I3
ssg63
g331
sg56
(lp338
S''
asbasbasbag49
(g65
g51
NtRp339
(dp340
g54
(dp341
sg63
g251
sg56
(lp342
g49
(g70
g51
NtRp343
(dp344
g54
(dp345
g74
g75
ssg63
g339
sg56
(lp346
S'path'
p347
asbag49
(g70
g51
NtRp348
(dp349
g54
(dp350
g81
g82
ssg63
g339
sg56
(lp351
S':'
asbag49
(g70
g51
NtRp352
(dp353
g54
(dp354
sg63
g339
sg56
(lp355
g49
(g50
g51
NtRp356
(dp357
g54
(dp358
g62
I3
ssg63
g352
sg56
(lp359
S''
asbasbasbag49
(g65
g51
NtRp360
(dp361
g54
(dp362
sg63
g251
sg56
(lp363
g49
(g70
g51
NtRp364
(dp365
g54
(dp366
g74
g75
ssg63
g360
sg56
(lp367
S'secure'
p368
asbag49
(g70
g51
NtRp369
(dp370
g54
(dp371
g81
g82
ssg63
g360
sg56
(lp372
S':'
asbag49
(g70
g51
NtRp373
(dp374
g54
(dp375
sg63
g360
sg56
(lp376
g49
(g50
g51
NtRp377
(dp378
g54
(dp379
g62
I3
ssg63
g373
sg56
(lp380
S''
asbasbasbag49
(g65
g51
NtRp381
(dp382
g54
(dp383
sg63
g251
sg56
(lp384
g49
(g70
g51
NtRp385
(dp386
g54
(dp387
g74
g75
ssg63
g381
sg56
(lp388
S'version'
p389
asbag49
(g70
g51
NtRp390
(dp391
g54
(dp392
g81
g82
ssg63
g381
sg56
(lp393
S':'
asbag49
(g70
g51
NtRp394
(dp395
g54
(dp396
sg63
g381
sg56
(lp397
g49
(g50
g51
NtRp398
(dp399
g54
(dp400
g62
I3
ssg63
g394
sg56
(lp401
S''
asbasbasbasbasbasbasbag49
(g65
g51
NtRp402
(dp403
g54
(dp404
sg63
g226
sg56
(lp405
g49
(g70
g51
NtRp406
(dp407
g54
(dp408
g74
g75
ssg63
g402
sg56
(lp409
S'session_id_admin'
p410
asbag49
(g70
g51
NtRp411
(dp412
g54
(dp413
g81
g82
ssg63
g402
sg56
(lp414
S':'
asbag49
(g70
g51
NtRp415
(dp416
g54
(dp417
sg63
g402
sg56
(lp418
g49
(g50
g51
NtRp419
(dp420
g54
(dp421
g62
I4
ssg63
g415
sg56
(lp422
g49
(g58
g51
NtRp423
(dp424
g54
(dp425
g62
I3
ssg63
Nsg56
(lp426
g49
(g65
g51
NtRp427
(dp428
g54
(dp429
sg63
g423
sg56
(lp430
g49
(g70
g51
NtRp431
(dp432
g54
(dp433
g74
g75
ssg63
g427
sg56
(lp434
g263
asbag49
(g70
g51
NtRp435
(dp436
g54
(dp437
g81
g82
ssg63
g427
sg56
(lp438
S':'
asbag49
(g70
g51
NtRp439
(dp440
g54
(dp441
sg63
g427
sg56
(lp442
g49
(g50
g51
NtRp443
(dp444
g54
(dp445
g62
I3
ssg63
g439
sg56
(lp446
S''
asbasbasbag49
(g65
g51
NtRp447
(dp448
g54
(dp449
sg63
g423
sg56
(lp450
g49
(g70
g51
NtRp451
(dp452
g54
(dp453
g74
g75
ssg63
g447
sg56
(lp454
g284
asbag49
(g70
g51
NtRp455
(dp456
g54
(dp457
g81
g82
ssg63
g447
sg56
(lp458
S':'
asbag49
(g70
g51
NtRp459
(dp460
g54
(dp461
sg63
g447
sg56
(lp462
g49
(g50
g51
NtRp463
(dp464
g54
(dp465
g62
I3
ssg63
g459
sg56
(lp466
S''
asbasbasbag49
(g65
g51
NtRp467
(dp468
g54
(dp469
sg63
g423
sg56
(lp470
g49
(g70
g51
NtRp471
(dp472
g54
(dp473
g74
g75
ssg63
g467
sg56
(lp474
g305
asbag49
(g70
g51
NtRp475
(dp476
g54
(dp477
g81
g82
ssg63
g467
sg56
(lp478
S':'
asbag49
(g70
g51
NtRp479
(dp480
g54
(dp481
sg63
g467
sg56
(lp482
g49
(g50
g51
NtRp483
(dp484
g54
(dp485
g62
I3
ssg63
g479
sg56
(lp486
S''
asbasbasbag49
(g65
g51
NtRp487
(dp488
g54
(dp489
sg63
g423
sg56
(lp490
g49
(g70
g51
NtRp491
(dp492
g54
(dp493
g74
g75
ssg63
g487
sg56
(lp494
g326
asbag49
(g70
g51
NtRp495
(dp496
g54
(dp497
g81
g82
ssg63
g487
sg56
(lp498
S':'
asbag49
(g70
g51
NtRp499
(dp500
g54
(dp501
sg63
g487
sg56
(lp502
g49
(g50
g51
NtRp503
(dp504
g54
(dp505
g62
I3
ssg63
g499
sg56
(lp506
S''
asbasbasbag49
(g65
g51
NtRp507
(dp508
g54
(dp509
sg63
g423
sg56
(lp510
g49
(g70
g51
NtRp511
(dp512
g54
(dp513
g74
g75
ssg63
g507
sg56
(lp514
g347
asbag49
(g70
g51
NtRp515
(dp516
g54
(dp517
g81
g82
ssg63
g507
sg56
(lp518
S':'
asbag49
(g70
g51
NtRp519
(dp520
g54
(dp521
sg63
g507
sg56
(lp522
g49
(g50
g51
NtRp523
(dp524
g54
(dp525
g62
I3
ssg63
g519
sg56
(lp526
S''
asbasbasbag49
(g65
g51
NtRp527
(dp528
g54
(dp529
sg63
g423
sg56
(lp530
g49
(g70
g51
NtRp531
(dp532
g54
(dp533
g74
g75
ssg63
g527
sg56
(lp534
g368
asbag49
(g70
g51
NtRp535
(dp536
g54
(dp537
g81
g82
ssg63
g527
sg56
(lp538
S':'
asbag49
(g70
g51
NtRp539
(dp540
g54
(dp541
sg63
g527
sg56
(lp542
g49
(g50
g51
NtRp543
(dp544
g54
(dp545
g62
I3
ssg63
g539
sg56
(lp546
S''
asbasbasbag49
(g65
g51
NtRp547
(dp548
g54
(dp549
sg63
g423
sg56
(lp550
g49
(g70
g51
NtRp551
(dp552
g54
(dp553
g74
g75
ssg63
g547
sg56
(lp554
g389
asbag49
(g70
g51
NtRp555
(dp556
g54
(dp557
g81
g82
ssg63
g547
sg56
(lp558
S':'
asbag49
(g70
g51
NtRp559
(dp560
g54
(dp561
sg63
g547
sg56
(lp562
g49
(g50
g51
NtRp563
(dp564
g54
(dp565
g62
I3
ssg63
g559
sg56
(lp566
S''
asbasbasbasbasbasbasbag49
(g65
g51
NtRp567
(dp568
g54
(dp569
sg63
g226
sg56
(lp570
g49
(g70
g51
NtRp571
(dp572
g54
(dp573
g74
g75
ssg63
g567
sg56
(lp574
S'session_id_init'
p575
asbag49
(g70
g51
NtRp576
(dp577
g54
(dp578
g81
g82
ssg63
g567
sg56
(lp579
S':'
asbag49
(g70
g51
NtRp580
(dp581
g54
(dp582
sg63
g567
sg56
(lp583
g49
(g50
g51
NtRp584
(dp585
g54
(dp586
g62
I4
ssg63
g580
sg56
(lp587
g49
(g58
g51
NtRp588
(dp589
g54
(dp590
g62
I3
ssg63
Nsg56
(lp591
g49
(g65
g51
NtRp592
(dp593
g54
(dp594
sg63
g588
sg56
(lp595
g49
(g70
g51
NtRp596
(dp597
g54
(dp598
g74
g75
ssg63
g592
sg56
(lp599
g263
asbag49
(g70
g51
NtRp600
(dp601
g54
(dp602
g81
g82
ssg63
g592
sg56
(lp603
S':'
asbag49
(g70
g51
NtRp604
(dp605
g54
(dp606
sg63
g592
sg56
(lp607
g49
(g50
g51
NtRp608
(dp609
g54
(dp610
g62
I3
ssg63
g604
sg56
(lp611
S''
asbasbasbag49
(g65
g51
NtRp612
(dp613
g54
(dp614
sg63
g588
sg56
(lp615
g49
(g70
g51
NtRp616
(dp617
g54
(dp618
g74
g75
ssg63
g612
sg56
(lp619
g284
asbag49
(g70
g51
NtRp620
(dp621
g54
(dp622
g81
g82
ssg63
g612
sg56
(lp623
S':'
asbag49
(g70
g51
NtRp624
(dp625
g54
(dp626
sg63
g612
sg56
(lp627
g49
(g50
g51
NtRp628
(dp629
g54
(dp630
g62
I3
ssg63
g624
sg56
(lp631
S''
asbasbasbag49
(g65
g51
NtRp632
(dp633
g54
(dp634
sg63
g588
sg56
(lp635
g49
(g70
g51
NtRp636
(dp637
g54
(dp638
g74
g75
ssg63
g632
sg56
(lp639
g305
asbag49
(g70
g51
NtRp640
(dp641
g54
(dp642
g81
g82
ssg63
g632
sg56
(lp643
S':'
asbag49
(g70
g51
NtRp644
(dp645
g54
(dp646
sg63
g632
sg56
(lp647
g49
(g50
g51
NtRp648
(dp649
g54
(dp650
g62
I3
ssg63
g644
sg56
(lp651
S''
asbasbasbag49
(g65
g51
NtRp652
(dp653
g54
(dp654
sg63
g588
sg56
(lp655
g49
(g70
g51
NtRp656
(dp657
g54
(dp658
g74
g75
ssg63
g652
sg56
(lp659
g326
asbag49
(g70
g51
NtRp660
(dp661
g54
(dp662
g81
g82
ssg63
g652
sg56
(lp663
S':'
asbag49
(g70
g51
NtRp664
(dp665
g54
(dp666
sg63
g652
sg56
(lp667
g49
(g50
g51
NtRp668
(dp669
g54
(dp670
g62
I3
ssg63
g664
sg56
(lp671
S''
asbasbasbag49
(g65
g51
NtRp672
(dp673
g54
(dp674
sg63
g588
sg56
(lp675
g49
(g70
g51
NtRp676
(dp677
g54
(dp678
g74
g75
ssg63
g672
sg56
(lp679
g347
asbag49
(g70
g51
NtRp680
(dp681
g54
(dp682
g81
g82
ssg63
g672
sg56
(lp683
S':'
asbag49
(g70
g51
NtRp684
(dp685
g54
(dp686
sg63
g672
sg56
(lp687
g49
(g50
g51
NtRp688
(dp689
g54
(dp690
g62
I3
ssg63
g684
sg56
(lp691
S''
asbasbasbag49
(g65
g51
NtRp692
(dp693
g54
(dp694
sg63
g588
sg56
(lp695
g49
(g70
g51
NtRp696
(dp697
g54
(dp698
g74
g75
ssg63
g692
sg56
(lp699
g368
asbag49
(g70
g51
NtRp700
(dp701
g54
(dp702
g81
g82
ssg63
g692
sg56
(lp703
S':'
asbag49
(g70
g51
NtRp704
(dp705
g54
(dp706
sg63
g692
sg56
(lp707
g49
(g50
g51
NtRp708
(dp709
g54
(dp710
g62
I3
ssg63
g704
sg56
(lp711
S''
asbasbasbag49
(g65
g51
NtRp712
(dp713
g54
(dp714
sg63
g588
sg56
(lp715
g49
(g70
g51
NtRp716
(dp717
g54
(dp718
g74
g75
ssg63
g712
sg56
(lp719
g389
asbag49
(g70
g51
NtRp720
(dp721
g54
(dp722
g81
g82
ssg63
g712
sg56
(lp723
S':'
asbag49
(g70
g51
NtRp724
(dp725
g54
(dp726
sg63
g712
sg56
(lp727
g49
(g50
g51
NtRp728
(dp729
g54
(dp730
g62
I3
ssg63
g724
sg56
(lp731
S''
asbasbasbasbasbasbasbasbasbasbasbag49
(g65
g51
NtRp732
(dp733
g54
(dp734
sg63
g59
sg56
(lp735
g49
(g70
g51
NtRp736
(dp737
g54
(dp738
g74
g75
ssg63
g732
sg56
(lp739
S'env'
p740
asbag49
(g70
g51
NtRp741
(dp742
g54
(dp743
g81
g82
ssg63
g732
sg56
(lp744
S':'
asbag49
(g70
g51
NtRp745
(dp746
g54
(dp747
sg63
g732
sg56
(lp748
g49
(g50
g51
NtRp749
(dp750
g54
(dp751
g62
I5
ssg63
g745
sg56
(lp752
g49
(g58
g51
NtRp753
(dp754
g54
(dp755
g62
I4
ssg63
Nsg56
(lp756
g49
(g65
g51
NtRp757
(dp758
g54
(dp759
sg63
g753
sg56
(lp760
g49
(g70
g51
NtRp761
(dp762
g54
(dp763
g74
g75
ssg63
g757
sg56
(lp764
S'app_folders'
p765
asbag49
(g70
g51
NtRp766
(dp767
g54
(dp768
g81
g82
ssg63
g757
sg56
(lp769
S':'
asbag49
(g70
g51
NtRp770
(dp771
g54
(dp772
sg63
g757
sg56
(lp773
g49
(g50
g51
NtRp774
(dp775
g54
(dp776
g62
I4
ssg63
g770
sg56
(lp777
S"set(['D:\\\\Documents\\\\Workspace\\\\Jack\\\\web2py\\\\applications\\\\init\\\\', 'D:\\\\Documents\\\\Workspace\\\\Jack\\\\web2py\\\\applications\\\\admin\\\\'])"
p778
asbasbasbag49
(g65
g51
NtRp779
(dp780
g54
(dp781
sg63
g753
sg56
(lp782
g49
(g70
g51
NtRp783
(dp784
g54
(dp785
g74
g75
ssg63
g779
sg56
(lp786
S'applications_parent'
p787
asbag49
(g70
g51
NtRp788
(dp789
g54
(dp790
g81
g82
ssg63
g779
sg56
(lp791
S':'
asbag49
(g70
g51
NtRp792
(dp793
g54
(dp794
sg63
g779
sg56
(lp795
g49
(g50
g51
NtRp796
(dp797
g54
(dp798
g62
I4
ssg63
g792
sg56
(lp799
S'D:\\Documents\\Workspace\\Jack\\web2py'
p800
asbasbasbag49
(g65
g51
NtRp801
(dp802
g54
(dp803
sg63
g753
sg56
(lp804
g49
(g70
g51
NtRp805
(dp806
g54
(dp807
g74
g75
ssg63
g801
sg56
(lp808
S'cmd_args'
p809
asbag49
(g70
g51
NtRp810
(dp811
g54
(dp812
g81
g82
ssg63
g801
sg56
(lp813
S':'
asbag49
(g70
g51
NtRp814
(dp815
g54
(dp816
sg63
g801
sg56
(lp817
g49
(g50
g51
NtRp818
(dp819
g54
(dp820
g62
I4
ssg63
g814
sg56
(lp821
g49
(g58
g51
NtRp822
(dp823
g54
(dp824
g62
I3
ssg63
Nsg56
(lp825
sbasbasbasbag49
(g65
g51
NtRp826
(dp827
g54
(dp828
sg63
g753
sg56
(lp829
g49
(g70
g51
NtRp830
(dp831
g54
(dp832
g74
g75
ssg63
g826
sg56
(lp833
S'cmd_options'
p834
asbag49
(g70
g51
NtRp835
(dp836
g54
(dp837
g81
g82
ssg63
g826
sg56
(lp838
S':'
asbag49
(g70
g51
NtRp839
(dp840
g54
(dp841
sg63
g826
sg56
(lp842
g49
(g50
g51
NtRp843
(dp844
g54
(dp845
g62
I4
ssg63
g839
sg56
(lp846
S"<Values at 0x2250bc0: {'verbose': False, 'ip': '127.0.0.1', 'shutdown_timeout': 5, 'taskbar': False, 'nocron': False, 'pid_filename': 'httpserver.pid', 'maxthreads': None, 'softcron': False, 'server_name': 'Pixies', 'bpython': False, 'nogui': False, 'port': 8000, 'extcron': False, 'debuglevel': 30, 'test': None, 'folder': 'D:\\\\Documents\\\\Workspace\\\\Jack\\\\web2py', 'config': '', 'import_models': False, 'winservice': '', 'shell': None, 'run': '', 'log_filename': 'httpserver.log', 'args': [''], 'socket_timeout': 5, 'ssl_ca_certificate': None, 'scheduler': None, 'profiler_filename': None, 'ssl_private_key': '', 'password': 'rpgjdr09', 'request_queue_size': 5, 'ssl_certificate': '', 'cronjob': False, 'numthreads': None, 'quiet': False, 'interfaces': None, 'minthreads': None, 'timeout': 10, 'plain': False, 'nobanner': False}>"
p847
asbasbasbag49
(g65
g51
NtRp848
(dp849
g54
(dp850
sg63
g753
sg56
(lp851
g49
(g70
g51
NtRp852
(dp853
g54
(dp854
g74
g75
ssg63
g848
sg56
(lp855
S'db_sessions'
p856
asbag49
(g70
g51
NtRp857
(dp858
g54
(dp859
g81
g82
ssg63
g848
sg56
(lp860
S':'
asbag49
(g70
g51
NtRp861
(dp862
g54
(dp863
sg63
g848
sg56
(lp864
g49
(g50
g51
NtRp865
(dp866
g54
(dp867
g62
I4
ssg63
g861
sg56
(lp868
S"set(['init'])"
p869
asbasbasbag49
(g65
g51
NtRp870
(dp871
g54
(dp872
sg63
g753
sg56
(lp873
g49
(g70
g51
NtRp874
(dp875
g54
(dp876
g74
g75
ssg63
g870
sg56
(lp877
S'debugging'
p878
asbag49
(g70
g51
NtRp879
(dp880
g54
(dp881
g81
g82
ssg63
g870
sg56
(lp882
S':'
asbag49
(g70
g51
NtRp883
(dp884
g54
(dp885
sg63
g870
sg56
(lp886
g49
(g50
g51
NtRp887
(dp888
g54
(dp889
g62
I4
ssg63
g883
sg56
(lp890
S'True'
p891
asbasbasbag49
(g65
g51
NtRp892
(dp893
g54
(dp894
sg63
g753
sg56
(lp895
g49
(g70
g51
NtRp896
(dp897
g54
(dp898
g74
g75
ssg63
g892
sg56
(lp899
S'gluon_parent'
p900
asbag49
(g70
g51
NtRp901
(dp902
g54
(dp903
g81
g82
ssg63
g892
sg56
(lp904
S':'
asbag49
(g70
g51
NtRp905
(dp906
g54
(dp907
sg63
g892
sg56
(lp908
g49
(g50
g51
NtRp909
(dp910
g54
(dp911
g62
I4
ssg63
g905
sg56
(lp912
S'D:\\Documents\\Workspace\\Jack\\web2py'
p913
asbasbasbag49
(g65
g51
NtRp914
(dp915
g54
(dp916
sg63
g753
sg56
(lp917
g49
(g70
g51
NtRp918
(dp919
g54
(dp920
g74
g75
ssg63
g914
sg56
(lp921
S'http_accept'
p922
asbag49
(g70
g51
NtRp923
(dp924
g54
(dp925
g81
g82
ssg63
g914
sg56
(lp926
S':'
asbag49
(g70
g51
NtRp927
(dp928
g54
(dp929
sg63
g914
sg56
(lp930
g49
(g50
g51
NtRp931
(dp932
g54
(dp933
g62
I4
ssg63
g927
sg56
(lp934
S'text/html,application/xhtml+xml,application/xml;q=0.9,*/*;q=0.8'
p935
asbasbasbag49
(g65
g51
NtRp936
(dp937
g54
(dp938
sg63
g753
sg56
(lp939
g49
(g70
g51
NtRp940
(dp941
g54
(dp942
g74
g75
ssg63
g936
sg56
(lp943
S'http_accept_charset'
p944
asbag49
(g70
g51
NtRp945
(dp946
g54
(dp947
g81
g82
ssg63
g936
sg56
(lp948
S':'
asbag49
(g70
g51
NtRp949
(dp950
g54
(dp951
sg63
g936
sg56
(lp952
g49
(g50
g51
NtRp953
(dp954
g54
(dp955
g62
I4
ssg63
g949
sg56
(lp956
S'ISO-8859-1,utf-8;q=0.7,*;q=0.3'
p957
asbasbasbag49
(g65
g51
NtRp958
(dp959
g54
(dp960
sg63
g753
sg56
(lp961
g49
(g70
g51
NtRp962
(dp963
g54
(dp964
g74
g75
ssg63
g958
sg56
(lp965
S'http_accept_encoding'
p966
asbag49
(g70
g51
NtRp967
(dp968
g54
(dp969
g81
g82
ssg63
g958
sg56
(lp970
S':'
asbag49
(g70
g51
NtRp971
(dp972
g54
(dp973
sg63
g958
sg56
(lp974
g49
(g50
g51
NtRp975
(dp976
g54
(dp977
g62
I4
ssg63
g971
sg56
(lp978
S'gzip,deflate,sdch'
p979
asbasbasbag49
(g65
g51
NtRp980
(dp981
g54
(dp982
sg63
g753
sg56
(lp983
g49
(g70
g51
NtRp984
(dp985
g54
(dp986
g74
g75
ssg63
g980
sg56
(lp987
S'http_accept_language'
p988
asbag49
(g70
g51
NtRp989
(dp990
g54
(dp991
g81
g82
ssg63
g980
sg56
(lp992
S':'
asbag49
(g70
g51
NtRp993
(dp994
g54
(dp995
sg63
g980
sg56
(lp996
g49
(g50
g51
NtRp997
(dp998
g54
(dp999
g62
I4
ssg63
g993
sg56
(lp1000
S'fr-FR,fr;q=0.8,en-US;q=0.6,en;q=0.4'
p1001
asbasbasbag49
(g65
g51
NtRp1002
(dp1003
g54
(dp1004
sg63
g753
sg56
(lp1005
g49
(g70
g51
NtRp1006
(dp1007
g54
(dp1008
g74
g75
ssg63
g1002
sg56
(lp1009
S'http_connection'
p1010
asbag49
(g70
g51
NtRp1011
(dp1012
g54
(dp1013
g81
g82
ssg63
g1002
sg56
(lp1014
S':'
asbag49
(g70
g51
NtRp1015
(dp1016
g54
(dp1017
sg63
g1002
sg56
(lp1018
g49
(g50
g51
NtRp1019
(dp1020
g54
(dp1021
g62
I4
ssg63
g1015
sg56
(lp1022
S'keep-alive'
p1023
asbasbasbag49
(g65
g51
NtRp1024
(dp1025
g54
(dp1026
sg63
g753
sg56
(lp1027
g49
(g70
g51
NtRp1028
(dp1029
g54
(dp1030
g74
g75
ssg63
g1024
sg56
(lp1031
S'http_cookie'
p1032
asbag49
(g70
g51
NtRp1033
(dp1034
g54
(dp1035
g81
g82
ssg63
g1024
sg56
(lp1036
S':'
asbag49
(g70
g51
NtRp1037
(dp1038
g54
(dp1039
sg63
g1024
sg56
(lp1040
g49
(g50
g51
NtRp1041
(dp1042
g54
(dp1043
g62
I4
ssg63
g1037
sg56
(lp1044
S'csrftoken=1900f2cc309612bffd0fb6b993353108; session_id_admin=127.0.0.1-f2ac5d94-2b66-4971-b3e4-1d2cf660e6b2; session_id_init="17:e5adefdf-08a7-48ff-9256-9bd0bab5999e"'
p1045
asbasbasbag49
(g65
g51
NtRp1046
(dp1047
g54
(dp1048
sg63
g753
sg56
(lp1049
g49
(g70
g51
NtRp1050
(dp1051
g54
(dp1052
g74
g75
ssg63
g1046
sg56
(lp1053
S'http_host'
p1054
asbag49
(g70
g51
NtRp1055
(dp1056
g54
(dp1057
g81
g82
ssg63
g1046
sg56
(lp1058
S':'
asbag49
(g70
g51
NtRp1059
(dp1060
g54
(dp1061
sg63
g1046
sg56
(lp1062
g49
(g50
g51
NtRp1063
(dp1064
g54
(dp1065
g62
I4
ssg63
g1059
sg56
(lp1066
S'localhost:8000'
p1067
asbasbasbag49
(g65
g51
NtRp1068
(dp1069
g54
(dp1070
sg63
g753
sg56
(lp1071
g49
(g70
g51
NtRp1072
(dp1073
g54
(dp1074
g74
g75
ssg63
g1068
sg56
(lp1075
S'http_user_agent'
p1076
asbag49
(g70
g51
NtRp1077
(dp1078
g54
(dp1079
g81
g82
ssg63
g1068
sg56
(lp1080
S':'
asbag49
(g70
g51
NtRp1081
(dp1082
g54
(dp1083
sg63
g1068
sg56
(lp1084
g49
(g50
g51
NtRp1085
(dp1086
g54
(dp1087
g62
I4
ssg63
g1081
sg56
(lp1088
S'Mozilla/5.0 (Windows NT 5.1) AppleWebKit/535.11 (KHTML, like Gecko) Chrome/17.0.963.83 Safari/535.11'
p1089
asbasbasbag49
(g65
g51
NtRp1090
(dp1091
g54
(dp1092
sg63
g753
sg56
(lp1093
g49
(g70
g51
NtRp1094
(dp1095
g54
(dp1096
g74
g75
ssg63
g1090
sg56
(lp1097
S'is_jython'
p1098
asbag49
(g70
g51
NtRp1099
(dp1100
g54
(dp1101
g81
g82
ssg63
g1090
sg56
(lp1102
S':'
asbag49
(g70
g51
NtRp1103
(dp1104
g54
(dp1105
sg63
g1090
sg56
(lp1106
g49
(g50
g51
NtRp1107
(dp1108
g54
(dp1109
g62
I4
ssg63
g1103
sg56
(lp1110
g92
asbasbasbag49
(g65
g51
NtRp1111
(dp1112
g54
(dp1113
sg63
g753
sg56
(lp1114
g49
(g70
g51
NtRp1115
(dp1116
g54
(dp1117
g74
g75
ssg63
g1111
sg56
(lp1118
S'is_pypy'
p1119
asbag49
(g70
g51
NtRp1120
(dp1121
g54
(dp1122
g81
g82
ssg63
g1111
sg56
(lp1123
S':'
asbag49
(g70
g51
NtRp1124
(dp1125
g54
(dp1126
sg63
g1111
sg56
(lp1127
g49
(g50
g51
NtRp1128
(dp1129
g54
(dp1130
g62
I4
ssg63
g1124
sg56
(lp1131
g92
asbasbasbag49
(g65
g51
NtRp1132
(dp1133
g54
(dp1134
sg63
g753
sg56
(lp1135
g49
(g70
g51
NtRp1136
(dp1137
g54
(dp1138
g74
g75
ssg63
g1132
sg56
(lp1139
S'path_info'
p1140
asbag49
(g70
g51
NtRp1141
(dp1142
g54
(dp1143
g81
g82
ssg63
g1132
sg56
(lp1144
S':'
asbag49
(g70
g51
NtRp1145
(dp1146
g54
(dp1147
sg63
g1132
sg56
(lp1148
g49
(g50
g51
NtRp1149
(dp1150
g54
(dp1151
g62
I4
ssg63
g1145
sg56
(lp1152
S'/'
asbasbasbag49
(g65
g51
NtRp1153
(dp1154
g54
(dp1155
sg63
g753
sg56
(lp1156
g49
(g70
g51
NtRp1157
(dp1158
g54
(dp1159
g74
g75
ssg63
g1153
sg56
(lp1160
S'query_string'
p1161
asbag49
(g70
g51
NtRp1162
(dp1163
g54
(dp1164
g81
g82
ssg63
g1153
sg56
(lp1165
S':'
asbag49
(g70
g51
NtRp1166
(dp1167
g54
(dp1168
sg63
g1153
sg56
(lp1169
g49
(g50
g51
NtRp1170
(dp1171
g54
(dp1172
g62
I4
ssg63
g1166
sg56
(lp1173
S''
asbasbasbag49
(g65
g51
NtRp1174
(dp1175
g54
(dp1176
sg63
g753
sg56
(lp1177
g49
(g70
g51
NtRp1178
(dp1179
g54
(dp1180
g74
g75
ssg63
g1174
sg56
(lp1181
S'remote_addr'
p1182
asbag49
(g70
g51
NtRp1183
(dp1184
g54
(dp1185
g81
g82
ssg63
g1174
sg56
(lp1186
S':'
asbag49
(g70
g51
NtRp1187
(dp1188
g54
(dp1189
sg63
g1174
sg56
(lp1190
g49
(g50
g51
NtRp1191
(dp1192
g54
(dp1193
g62
I4
ssg63
g1187
sg56
(lp1194
g182
asbasbasbag49
(g65
g51
NtRp1195
(dp1196
g54
(dp1197
sg63
g753
sg56
(lp1198
g49
(g70
g51
NtRp1199
(dp1200
g54
(dp1201
g74
g75
ssg63
g1195
sg56
(lp1202
S'remote_port'
p1203
asbag49
(g70
g51
NtRp1204
(dp1205
g54
(dp1206
g81
g82
ssg63
g1195
sg56
(lp1207
S':'
asbag49
(g70
g51
NtRp1208
(dp1209
g54
(dp1210
sg63
g1195
sg56
(lp1211
g49
(g50
g51
NtRp1212
(dp1213
g54
(dp1214
g62
I4
ssg63
g1208
sg56
(lp1215
S'3791'
p1216
asbasbasbag49
(g65
g51
NtRp1217
(dp1218
g54
(dp1219
sg63
g753
sg56
(lp1220
g49
(g70
g51
NtRp1221
(dp1222
g54
(dp1223
g74
g75
ssg63
g1217
sg56
(lp1224
S'request_method'
p1225
asbag49
(g70
g51
NtRp1226
(dp1227
g54
(dp1228
g81
g82
ssg63
g1217
sg56
(lp1229
S':'
asbag49
(g70
g51
NtRp1230
(dp1231
g54
(dp1232
sg63
g1217
sg56
(lp1233
g49
(g50
g51
NtRp1234
(dp1235
g54
(dp1236
g62
I4
ssg63
g1230
sg56
(lp1237
S'GET'
p1238
asbasbasbag49
(g65
g51
NtRp1239
(dp1240
g54
(dp1241
sg63
g753
sg56
(lp1242
g49
(g70
g51
NtRp1243
(dp1244
g54
(dp1245
g74
g75
ssg63
g1239
sg56
(lp1246
S'script_name'
p1247
asbag49
(g70
g51
NtRp1248
(dp1249
g54
(dp1250
g81
g82
ssg63
g1239
sg56
(lp1251
S':'
asbag49
(g70
g51
NtRp1252
(dp1253
g54
(dp1254
sg63
g1239
sg56
(lp1255
g49
(g50
g51
NtRp1256
(dp1257
g54
(dp1258
g62
I4
ssg63
g1252
sg56
(lp1259
S''
asbasbasbag49
(g65
g51
NtRp1260
(dp1261
g54
(dp1262
sg63
g753
sg56
(lp1263
g49
(g70
g51
NtRp1264
(dp1265
g54
(dp1266
g74
g75
ssg63
g1260
sg56
(lp1267
S'server_name'
p1268
asbag49
(g70
g51
NtRp1269
(dp1270
g54
(dp1271
g81
g82
ssg63
g1260
sg56
(lp1272
S':'
asbag49
(g70
g51
NtRp1273
(dp1274
g54
(dp1275
sg63
g1260
sg56
(lp1276
g49
(g50
g51
NtRp1277
(dp1278
g54
(dp1279
g62
I4
ssg63
g1273
sg56
(lp1280
S'Pixies'
p1281
asbasbasbag49
(g65
g51
NtRp1282
(dp1283
g54
(dp1284
sg63
g753
sg56
(lp1285
g49
(g70
g51
NtRp1286
(dp1287
g54
(dp1288
g74
g75
ssg63
g1282
sg56
(lp1289
S'server_port'
p1290
asbag49
(g70
g51
NtRp1291
(dp1292
g54
(dp1293
g81
g82
ssg63
g1282
sg56
(lp1294
S':'
asbag49
(g70
g51
NtRp1295
(dp1296
g54
(dp1297
sg63
g1282
sg56
(lp1298
g49
(g50
g51
NtRp1299
(dp1300
g54
(dp1301
g62
I4
ssg63
g1295
sg56
(lp1302
S'8000'
p1303
asbasbasbag49
(g65
g51
NtRp1304
(dp1305
g54
(dp1306
sg63
g753
sg56
(lp1307
g49
(g70
g51
NtRp1308
(dp1309
g54
(dp1310
g74
g75
ssg63
g1304
sg56
(lp1311
S'server_protocol'
p1312
asbag49
(g70
g51
NtRp1313
(dp1314
g54
(dp1315
g81
g82
ssg63
g1304
sg56
(lp1316
S':'
asbag49
(g70
g51
NtRp1317
(dp1318
g54
(dp1319
sg63
g1304
sg56
(lp1320
g49
(g50
g51
NtRp1321
(dp1322
g54
(dp1323
g62
I4
ssg63
g1317
sg56
(lp1324
S'HTTP/1.1'
p1325
asbasbasbag49
(g65
g51
NtRp1326
(dp1327
g54
(dp1328
sg63
g753
sg56
(lp1329
g49
(g70
g51
NtRp1330
(dp1331
g54
(dp1332
g74
g75
ssg63
g1326
sg56
(lp1333
S'server_software'
p1334
asbag49
(g70
g51
NtRp1335
(dp1336
g54
(dp1337
g81
g82
ssg63
g1326
sg56
(lp1338
S':'
asbag49
(g70
g51
NtRp1339
(dp1340
g54
(dp1341
sg63
g1326
sg56
(lp1342
g49
(g50
g51
NtRp1343
(dp1344
g54
(dp1345
g62
I4
ssg63
g1339
sg56
(lp1346
S'Rocket 1.2.4'
p1347
asbasbasbag49
(g65
g51
NtRp1348
(dp1349
g54
(dp1350
sg63
g753
sg56
(lp1351
g49
(g70
g51
NtRp1352
(dp1353
g54
(dp1354
g74
g75
ssg63
g1348
sg56
(lp1355
S'web2py_crontype'
p1356
asbag49
(g70
g51
NtRp1357
(dp1358
g54
(dp1359
g81
g82
ssg63
g1348
sg56
(lp1360
S':'
asbag49
(g70
g51
NtRp1361
(dp1362
g54
(dp1363
sg63
g1348
sg56
(lp1364
g49
(g50
g51
NtRp1365
(dp1366
g54
(dp1367
g62
I4
ssg63
g1361
sg56
(lp1368
S'hard'
p1369
asbasbasbag49
(g65
g51
NtRp1370
(dp1371
g54
(dp1372
sg63
g753
sg56
(lp1373
g49
(g70
g51
NtRp1374
(dp1375
g54
(dp1376
g74
g75
ssg63
g1370
sg56
(lp1377
S'web2py_path'
p1378
asbag49
(g70
g51
NtRp1379
(dp1380
g54
(dp1381
g81
g82
ssg63
g1370
sg56
(lp1382
S':'
asbag49
(g70
g51
NtRp1383
(dp1384
g54
(dp1385
sg63
g1370
sg56
(lp1386
g49
(g50
g51
NtRp1387
(dp1388
g54
(dp1389
g62
I4
ssg63
g1383
sg56
(lp1390
g800
asbasbasbag49
(g65
g51
NtRp1391
(dp1392
g54
(dp1393
sg63
g753
sg56
(lp1394
g49
(g70
g51
NtRp1395
(dp1396
g54
(dp1397
g74
g75
ssg63
g1391
sg56
(lp1398
S'web2py_version'
p1399
asbag49
(g70
g51
NtRp1400
(dp1401
g54
(dp1402
g81
g82
ssg63
g1391
sg56
(lp1403
S':'
asbag49
(g70
g51
NtRp1404
(dp1405
g54
(dp1406
sg63
g1391
sg56
(lp1407
g49
(g50
g51
NtRp1408
(dp1409
g54
(dp1410
g62
I4
ssg63
g1404
sg56
(lp1411
g49
(g58
g51
NtRp1412
(dp1413
g54
(dp1414
g62
I3
ssg63
Nsg56
(lp1415
g49
(g65
g51
NtRp1416
(dp1417
g54
(dp1418
sg63
g1412
sg56
(lp1419
g49
(g70
g51
NtRp1420
(dp1421
g54
(dp1422
sg63
g1416
sg56
(lp1423
g49
(g50
g51
NtRp1424
(dp1425
g54
(dp1426
g62
I3
ssg63
g1420
sg56
(lp1427
S'1'
asbasbasbag49
(g65
g51
NtRp1428
(dp1429
g54
(dp1430
sg63
g1412
sg56
(lp1431
g49
(g70
g51
NtRp1432
(dp1433
g54
(dp1434
sg63
g1428
sg56
(lp1435
g49
(g50
g51
NtRp1436
(dp1437
g54
(dp1438
g62
I3
ssg63
g1432
sg56
(lp1439
S'99'
p1440
asbasbasbag49
(g65
g51
NtRp1441
(dp1442
g54
(dp1443
sg63
g1412
sg56
(lp1444
g49
(g70
g51
NtRp1445
(dp1446
g54
(dp1447
sg63
g1441
sg56
(lp1448
g49
(g50
g51
NtRp1449
(dp1450
g54
(dp1451
g62
I3
ssg63
g1445
sg56
(lp1452
S'7'
asbasbasbag49
(g65
g51
NtRp1453
(dp1454
g54
(dp1455
sg63
g1412
sg56
(lp1456
g49
(g70
g51
NtRp1457
(dp1458
g54
(dp1459
sg63
g1453
sg56
(lp1460
g49
(g50
g51
NtRp1461
(dp1462
g54
(dp1463
g62
I3
ssg63
g1457
sg56
(lp1464
S'datetime.datetime(2012, 3, 4, 22, 12, 8)'
p1465
asbasbasbag49
(g65
g51
NtRp1466
(dp1467
g54
(dp1468
sg63
g1412
sg56
(lp1469
g49
(g70
g51
NtRp1470
(dp1471
g54
(dp1472
sg63
g1466
sg56
(lp1473
g49
(g50
g51
NtRp1474
(dp1475
g54
(dp1476
g62
I3
ssg63
g1470
sg56
(lp1477
S'stable'
p1478
asbasbasbasbasbasbasbag49
(g65
g51
NtRp1479
(dp1480
g54
(dp1481
sg63
g753
sg56
(lp1482
g49
(g70
g51
NtRp1483
(dp1484
g54
(dp1485
g74
g75
ssg63
g1479
sg56
(lp1486
S'wsgi_errors'
p1487
asbag49
(g70
g51
NtRp1488
(dp1489
g54
(dp1490
g81
g82
ssg63
g1479
sg56
(lp1491
S':'
asbag49
(g70
g51
NtRp1492
(dp1493
g54
(dp1494
sg63
g1479
sg56
(lp1495
g49
(g50
g51
NtRp1496
(dp1497
g54
(dp1498
g62
I4
ssg63
g1492
sg56
(lp1499
S"<open file '<stderr>', mode 'w' at 0x009000B0>"
p1500
asbasbasbag49
(g65
g51
NtRp1501
(dp1502
g54
(dp1503
sg63
g753
sg56
(lp1504
g49
(g70
g51
NtRp1505
(dp1506
g54
(dp1507
g74
g75
ssg63
g1501
sg56
(lp1508
S'wsgi_file_wrapper'
p1509
asbag49
(g70
g51
NtRp1510
(dp1511
g54
(dp1512
g81
g82
ssg63
g1501
sg56
(lp1513
S':'
asbag49
(g70
g51
NtRp1514
(dp1515
g54
(dp1516
sg63
g1501
sg56
(lp1517
g49
(g50
g51
NtRp1518
(dp1519
g54
(dp1520
g62
I4
ssg63
g1514
sg56
(lp1521
S'<class wsgiref.util.FileWrapper at 0x01528600>'
p1522
asbasbasbag49
(g65
g51
NtRp1523
(dp1524
g54
(dp1525
sg63
g753
sg56
(lp1526
g49
(g70
g51
NtRp1527
(dp1528
g54
(dp1529
g74
g75
ssg63
g1523
sg56
(lp1530
S'wsgi_input'
p1531
asbag49
(g70
g51
NtRp1532
(dp1533
g54
(dp1534
g81
g82
ssg63
g1523
sg56
(lp1535
S':'
asbag49
(g70
g51
NtRp1536
(dp1537
g54
(dp1538
sg63
g1523
sg56
(lp1539
g49
(g50
g51
NtRp1540
(dp1541
g54
(dp1542
g62
I4
ssg63
g1536
sg56
(lp1543
S'<socket._fileobject object at 0x026106B0>'
p1544
asbasbasbag49
(g65
g51
NtRp1545
(dp1546
g54
(dp1547
sg63
g753
sg56
(lp1548
g49
(g70
g51
NtRp1549
(dp1550
g54
(dp1551
g74
g75
ssg63
g1545
sg56
(lp1552
S'wsgi_multiprocess'
p1553
asbag49
(g70
g51
NtRp1554
(dp1555
g54
(dp1556
g81
g82
ssg63
g1545
sg56
(lp1557
S':'
asbag49
(g70
g51
NtRp1558
(dp1559
g54
(dp1560
sg63
g1545
sg56
(lp1561
g49
(g50
g51
NtRp1562
(dp1563
g54
(dp1564
g62
I4
ssg63
g1558
sg56
(lp1565
g92
asbasbasbag49
(g65
g51
NtRp1566
(dp1567
g54
(dp1568
sg63
g753
sg56
(lp1569
g49
(g70
g51
NtRp1570
(dp1571
g54
(dp1572
g74
g75
ssg63
g1566
sg56
(lp1573
S'wsgi_multithread'
p1574
asbag49
(g70
g51
NtRp1575
(dp1576
g54
(dp1577
g81
g82
ssg63
g1566
sg56
(lp1578
S':'
asbag49
(g70
g51
NtRp1579
(dp1580
g54
(dp1581
sg63
g1566
sg56
(lp1582
g49
(g50
g51
NtRp1583
(dp1584
g54
(dp1585
g62
I4
ssg63
g1579
sg56
(lp1586
g891
asbasbasbag49
(g65
g51
NtRp1587
(dp1588
g54
(dp1589
sg63
g753
sg56
(lp1590
g49
(g70
g51
NtRp1591
(dp1592
g54
(dp1593
g74
g75
ssg63
g1587
sg56
(lp1594
S'wsgi_run_once'
p1595
asbag49
(g70
g51
NtRp1596
(dp1597
g54
(dp1598
g81
g82
ssg63
g1587
sg56
(lp1599
S':'
asbag49
(g70
g51
NtRp1600
(dp1601
g54
(dp1602
sg63
g1587
sg56
(lp1603
g49
(g50
g51
NtRp1604
(dp1605
g54
(dp1606
g62
I4
ssg63
g1600
sg56
(lp1607
g92
asbasbasbag49
(g65
g51
NtRp1608
(dp1609
g54
(dp1610
sg63
g753
sg56
(lp1611
g49
(g70
g51
NtRp1612
(dp1613
g54
(dp1614
g74
g75
ssg63
g1608
sg56
(lp1615
S'wsgi_url_scheme'
p1616
asbag49
(g70
g51
NtRp1617
(dp1618
g54
(dp1619
g81
g82
ssg63
g1608
sg56
(lp1620
S':'
asbag49
(g70
g51
NtRp1621
(dp1622
g54
(dp1623
sg63
g1608
sg56
(lp1624
g49
(g50
g51
NtRp1625
(dp1626
g54
(dp1627
g62
I4
ssg63
g1621
sg56
(lp1628
S'http'
p1629
asbasbasbag49
(g65
g51
NtRp1630
(dp1631
g54
(dp1632
sg63
g753
sg56
(lp1633
g49
(g70
g51
NtRp1634
(dp1635
g54
(dp1636
g74
g75
ssg63
g1630
sg56
(lp1637
S'wsgi_version'
p1638
asbag49
(g70
g51
NtRp1639
(dp1640
g54
(dp1641
g81
g82
ssg63
g1630
sg56
(lp1642
S':'
asbag49
(g70
g51
NtRp1643
(dp1644
g54
(dp1645
sg63
g1630
sg56
(lp1646
g49
(g50
g51
NtRp1647
(dp1648
g54
(dp1649
g62
I4
ssg63
g1643
sg56
(lp1650
g49
(g58
g51
NtRp1651
(dp1652
g54
(dp1653
g62
I3
ssg63
Nsg56
(lp1654
g49
(g65
g51
NtRp1655
(dp1656
g54
(dp1657
sg63
g1651
sg56
(lp1658
g49
(g70
g51
NtRp1659
(dp1660
g54
(dp1661
sg63
g1655
sg56
(lp1662
g49
(g50
g51
NtRp1663
(dp1664
g54
(dp1665
g62
I3
ssg63
g1659
sg56
(lp1666
S'1'
asbasbasbag49
(g65
g51
NtRp1667
(dp1668
g54
(dp1669
sg63
g1651
sg56
(lp1670
g49
(g70
g51
NtRp1671
(dp1672
g54
(dp1673
sg63
g1667
sg56
(lp1674
g49
(g50
g51
NtRp1675
(dp1676
g54
(dp1677
g62
I3
ssg63
g1671
sg56
(lp1678
S'0'
asbasbasbasbasbasbasbasbasbasbasbag49
(g65
g51
NtRp1679
(dp1680
g54
(dp1681
sg63
g59
sg56
(lp1682
g49
(g70
g51
NtRp1683
(dp1684
g54
(dp1685
g74
g75
ssg63
g1679
sg56
(lp1686
S'extension'
p1687
asbag49
(g70
g51
NtRp1688
(dp1689
g54
(dp1690
g81
g82
ssg63
g1679
sg56
(lp1691
S':'
asbag49
(g70
g51
NtRp1692
(dp1693
g54
(dp1694
sg63
g1679
sg56
(lp1695
g49
(g50
g51
NtRp1696
(dp1697
g54
(dp1698
g62
I5
ssg63
g1692
sg56
(lp1699
S'html'
p1700
asbasbasbag49
(g65
g51
NtRp1701
(dp1702
g54
(dp1703
sg63
g59
sg56
(lp1704
g49
(g70
g51
NtRp1705
(dp1706
g54
(dp1707
g74
g75
ssg63
g1701
sg56
(lp1708
S'folder'
p1709
asbag49
(g70
g51
NtRp1710
(dp1711
g54
(dp1712
g81
g82
ssg63
g1701
sg56
(lp1713
S':'
asbag49
(g70
g51
NtRp1714
(dp1715
g54
(dp1716
sg63
g1701
sg56
(lp1717
g49
(g50
g51
NtRp1718
(dp1719
g54
(dp1720
g62
I5
ssg63
g1714
sg56
(lp1721
S'D:\\Documents\\Workspace\\Jack\\web2py\\applications\\init\\'
p1722
asbasbasbag49
(g65
g51
NtRp1723
(dp1724
g54
(dp1725
sg63
g59
sg56
(lp1726
g49
(g70
g51
NtRp1727
(dp1728
g54
(dp1729
g74
g75
ssg63
g1723
sg56
(lp1730
S'function'
p1731
asbag49
(g70
g51
NtRp1732
(dp1733
g54
(dp1734
g81
g82
ssg63
g1723
sg56
(lp1735
S':'
asbag49
(g70
g51
NtRp1736
(dp1737
g54
(dp1738
sg63
g1723
sg56
(lp1739
g49
(g50
g51
NtRp1740
(dp1741
g54
(dp1742
g62
I5
ssg63
g1736
sg56
(lp1743
S'index'
p1744
asbasbasbag49
(g65
g51
NtRp1745
(dp1746
g54
(dp1747
sg63
g59
sg56
(lp1748
g49
(g70
g51
NtRp1749
(dp1750
g54
(dp1751
g74
g75
ssg63
g1745
sg56
(lp1752
S'get_vars'
p1753
asbag49
(g70
g51
NtRp1754
(dp1755
g54
(dp1756
g81
g82
ssg63
g1745
sg56
(lp1757
S':'
asbag49
(g70
g51
NtRp1758
(dp1759
g54
(dp1760
sg63
g1745
sg56
(lp1761
g49
(g50
g51
NtRp1762
(dp1763
g54
(dp1764
g62
I5
ssg63
g1758
sg56
(lp1765
g49
(g58
g51
NtRp1766
(dp1767
g54
(dp1768
g62
I4
ssg63
Nsg56
(lp1769
sbasbasbasbag49
(g65
g51
NtRp1770
(dp1771
g54
(dp1772
sg63
g59
sg56
(lp1773
g49
(g70
g51
NtRp1774
(dp1775
g54
(dp1776
g74
g75
ssg63
g1770
sg56
(lp1777
S'global_settings'
p1778
asbag49
(g70
g51
NtRp1779
(dp1780
g54
(dp1781
g81
g82
ssg63
g1770
sg56
(lp1782
S':'
asbag49
(g70
g51
NtRp1783
(dp1784
g54
(dp1785
sg63
g1770
sg56
(lp1786
g49
(g50
g51
NtRp1787
(dp1788
g54
(dp1789
g62
I5
ssg63
g1783
sg56
(lp1790
g49
(g58
g51
NtRp1791
(dp1792
g54
(dp1793
g62
I4
ssg63
Nsg56
(lp1794
g49
(g65
g51
NtRp1795
(dp1796
g54
(dp1797
sg63
g1791
sg56
(lp1798
g49
(g70
g51
NtRp1799
(dp1800
g54
(dp1801
g74
g75
ssg63
g1795
sg56
(lp1802
g765
asbag49
(g70
g51
NtRp1803
(dp1804
g54
(dp1805
g81
g82
ssg63
g1795
sg56
(lp1806
S':'
asbag49
(g70
g51
NtRp1807
(dp1808
g54
(dp1809
sg63
g1795
sg56
(lp1810
g49
(g50
g51
NtRp1811
(dp1812
g54
(dp1813
g62
I4
ssg63
g1807
sg56
(lp1814
S"set(['D:\\\\Documents\\\\Workspace\\\\Jack\\\\web2py\\\\applications\\\\init\\\\', 'D:\\\\Documents\\\\Workspace\\\\Jack\\\\web2py\\\\applications\\\\admin\\\\'])"
p1815
asbasbasbag49
(g65
g51
NtRp1816
(dp1817
g54
(dp1818
sg63
g1791
sg56
(lp1819
g49
(g70
g51
NtRp1820
(dp1821
g54
(dp1822
g74
g75
ssg63
g1816
sg56
(lp1823
g787
asbag49
(g70
g51
NtRp1824
(dp1825
g54
(dp1826
g81
g82
ssg63
g1816
sg56
(lp1827
S':'
asbag49
(g70
g51
NtRp1828
(dp1829
g54
(dp1830
sg63
g1816
sg56
(lp1831
g49
(g50
g51
NtRp1832
(dp1833
g54
(dp1834
g62
I4
ssg63
g1828
sg56
(lp1835
g800
asbasbasbag49
(g65
g51
NtRp1836
(dp1837
g54
(dp1838
sg63
g1791
sg56
(lp1839
g49
(g70
g51
NtRp1840
(dp1841
g54
(dp1842
g74
g75
ssg63
g1836
sg56
(lp1843
g809
asbag49
(g70
g51
NtRp1844
(dp1845
g54
(dp1846
g81
g82
ssg63
g1836
sg56
(lp1847
S':'
asbag49
(g70
g51
NtRp1848
(dp1849
g54
(dp1850
sg63
g1836
sg56
(lp1851
g49
(g50
g51
NtRp1852
(dp1853
g54
(dp1854
g62
I4
ssg63
g1848
sg56
(lp1855
g49
(g58
g51
NtRp1856
(dp1857
g54
(dp1858
g62
I3
ssg63
Nsg56
(lp1859
sbasbasbasbag49
(g65
g51
NtRp1860
(dp1861
g54
(dp1862
sg63
g1791
sg56
(lp1863
g49
(g70
g51
NtRp1864
(dp1865
g54
(dp1866
g74
g75
ssg63
g1860
sg56
(lp1867
g834
asbag49
(g70
g51
NtRp1868
(dp1869
g54
(dp1870
g81
g82
ssg63
g1860
sg56
(lp1871
S':'
asbag49
(g70
g51
NtRp1872
(dp1873
g54
(dp1874
sg63
g1860
sg56
(lp1875
g49
(g50
g51
NtRp1876
(dp1877
g54
(dp1878
g62
I4
ssg63
g1872
sg56
(lp1879
S"<Values at 0x2250bc0: {'verbose': False, 'ip': '127.0.0.1', 'shutdown_timeout': 5, 'taskbar': False, 'nocron': False, 'pid_filename': 'httpserver.pid', 'maxthreads': None, 'softcron': False, 'server_name': 'Pixies', 'bpython': False, 'nogui': False, 'port': 8000, 'extcron': False, 'debuglevel': 30, 'test': None, 'folder': 'D:\\\\Documents\\\\Workspace\\\\Jack\\\\web2py', 'config': '', 'import_models': False, 'winservice': '', 'shell': None, 'run': '', 'log_filename': 'httpserver.log', 'args': [''], 'socket_timeout': 5, 'ssl_ca_certificate': None, 'scheduler': None, 'profiler_filename': None, 'ssl_private_key': '', 'password': 'rpgjdr09', 'request_queue_size': 5, 'ssl_certificate': '', 'cronjob': False, 'numthreads': None, 'quiet': False, 'interfaces': None, 'minthreads': None, 'timeout': 10, 'plain': False, 'nobanner': False}>"
p1880
asbasbasbag49
(g65
g51
NtRp1881
(dp1882
g54
(dp1883
sg63
g1791
sg56
(lp1884
g49
(g70
g51
NtRp1885
(dp1886
g54
(dp1887
g74
g75
ssg63
g1881
sg56
(lp1888
g856
asbag49
(g70
g51
NtRp1889
(dp1890
g54
(dp1891
g81
g82
ssg63
g1881
sg56
(lp1892
S':'
asbag49
(g70
g51
NtRp1893
(dp1894
g54
(dp1895
sg63
g1881
sg56
(lp1896
g49
(g50
g51
NtRp1897
(dp1898
g54
(dp1899
g62
I4
ssg63
g1893
sg56
(lp1900
S"set(['init'])"
p1901
asbasbasbag49
(g65
g51
NtRp1902
(dp1903
g54
(dp1904
sg63
g1791
sg56
(lp1905
g49
(g70
g51
NtRp1906
(dp1907
g54
(dp1908
g74
g75
ssg63
g1902
sg56
(lp1909
g878
asbag49
(g70
g51
NtRp1910
(dp1911
g54
(dp1912
g81
g82
ssg63
g1902
sg56
(lp1913
S':'
asbag49
(g70
g51
NtRp1914
(dp1915
g54
(dp1916
sg63
g1902
sg56
(lp1917
g49
(g50
g51
NtRp1918
(dp1919
g54
(dp1920
g62
I4
ssg63
g1914
sg56
(lp1921
g891
asbasbasbag49
(g65
g51
NtRp1922
(dp1923
g54
(dp1924
sg63
g1791
sg56
(lp1925
g49
(g70
g51
NtRp1926
(dp1927
g54
(dp1928
g74
g75
ssg63
g1922
sg56
(lp1929
g900
asbag49
(g70
g51
NtRp1930
(dp1931
g54
(dp1932
g81
g82
ssg63
g1922
sg56
(lp1933
S':'
asbag49
(g70
g51
NtRp1934
(dp1935
g54
(dp1936
sg63
g1922
sg56
(lp1937
g49
(g50
g51
NtRp1938
(dp1939
g54
(dp1940
g62
I4
ssg63
g1934
sg56
(lp1941
g913
asbasbasbag49
(g65
g51
NtRp1942
(dp1943
g54
(dp1944
sg63
g1791
sg56
(lp1945
g49
(g70
g51
NtRp1946
(dp1947
g54
(dp1948
g74
g75
ssg63
g1942
sg56
(lp1949
g1098
asbag49
(g70
g51
NtRp1950
(dp1951
g54
(dp1952
g81
g82
ssg63
g1942
sg56
(lp1953
S':'
asbag49
(g70
g51
NtRp1954
(dp1955
g54
(dp1956
sg63
g1942
sg56
(lp1957
g49
(g50
g51
NtRp1958
(dp1959
g54
(dp1960
g62
I4
ssg63
g1954
sg56
(lp1961
g92
asbasbasbag49
(g65
g51
NtRp1962
(dp1963
g54
(dp1964
sg63
g1791
sg56
(lp1965
g49
(g70
g51
NtRp1966
(dp1967
g54
(dp1968
g74
g75
ssg63
g1962
sg56
(lp1969
g1119
asbag49
(g70
g51
NtRp1970
(dp1971
g54
(dp1972
g81
g82
ssg63
g1962
sg56
(lp1973
S':'
asbag49
(g70
g51
NtRp1974
(dp1975
g54
(dp1976
sg63
g1962
sg56
(lp1977
g49
(g50
g51
NtRp1978
(dp1979
g54
(dp1980
g62
I4
ssg63
g1974
sg56
(lp1981
g92
asbasbasbag49
(g65
g51
NtRp1982
(dp1983
g54
(dp1984
sg63
g1791
sg56
(lp1985
g49
(g70
g51
NtRp1986
(dp1987
g54
(dp1988
g74
g75
ssg63
g1982
sg56
(lp1989
g1356
asbag49
(g70
g51
NtRp1990
(dp1991
g54
(dp1992
g81
g82
ssg63
g1982
sg56
(lp1993
S':'
asbag49
(g70
g51
NtRp1994
(dp1995
g54
(dp1996
sg63
g1982
sg56
(lp1997
g49
(g50
g51
NtRp1998
(dp1999
g54
(dp2000
g62
I4
ssg63
g1994
sg56
(lp2001
g1369
asbasbasbag49
(g65
g51
NtRp2002
(dp2003
g54
(dp2004
sg63
g1791
sg56
(lp2005
g49
(g70
g51
NtRp2006
(dp2007
g54
(dp2008
g74
g75
ssg63
g2002
sg56
(lp2009
g1399
asbag49
(g70
g51
NtRp2010
(dp2011
g54
(dp2012
g81
g82
ssg63
g2002
sg56
(lp2013
S':'
asbag49
(g70
g51
NtRp2014
(dp2015
g54
(dp2016
sg63
g2002
sg56
(lp2017
g49
(g50
g51
NtRp2018
(dp2019
g54
(dp2020
g62
I4
ssg63
g2014
sg56
(lp2021
g49
(g58
g51
NtRp2022
(dp2023
g54
(dp2024
g62
I3
ssg63
Nsg56
(lp2025
g49
(g65
g51
NtRp2026
(dp2027
g54
(dp2028
sg63
g2022
sg56
(lp2029
g49
(g70
g51
NtRp2030
(dp2031
g54
(dp2032
sg63
g2026
sg56
(lp2033
g49
(g50
g51
NtRp2034
(dp2035
g54
(dp2036
g62
I3
ssg63
g2030
sg56
(lp2037
S'1'
asbasbasbag49
(g65
g51
NtRp2038
(dp2039
g54
(dp2040
sg63
g2022
sg56
(lp2041
g49
(g70
g51
NtRp2042
(dp2043
g54
(dp2044
sg63
g2038
sg56
(lp2045
g49
(g50
g51
NtRp2046
(dp2047
g54
(dp2048
g62
I3
ssg63
g2042
sg56
(lp2049
S'99'
p2050
asbasbasbag49
(g65
g51
NtRp2051
(dp2052
g54
(dp2053
sg63
g2022
sg56
(lp2054
g49
(g70
g51
NtRp2055
(dp2056
g54
(dp2057
sg63
g2051
sg56
(lp2058
g49
(g50
g51
NtRp2059
(dp2060
g54
(dp2061
g62
I3
ssg63
g2055
sg56
(lp2062
S'7'
asbasbasbag49
(g65
g51
NtRp2063
(dp2064
g54
(dp2065
sg63
g2022
sg56
(lp2066
g49
(g70
g51
NtRp2067
(dp2068
g54
(dp2069
sg63
g2063
sg56
(lp2070
g49
(g50
g51
NtRp2071
(dp2072
g54
(dp2073
g62
I3
ssg63
g2067
sg56
(lp2074
S'datetime.datetime(2012, 3, 4, 22, 12, 8)'
p2075
asbasbasbag49
(g65
g51
NtRp2076
(dp2077
g54
(dp2078
sg63
g2022
sg56
(lp2079
g49
(g70
g51
NtRp2080
(dp2081
g54
(dp2082
sg63
g2076
sg56
(lp2083
g49
(g50
g51
NtRp2084
(dp2085
g54
(dp2086
g62
I3
ssg63
g2080
sg56
(lp2087
g1478
asbasbasbasbasbasbasbasbasbasbasbag49
(g65
g51
NtRp2088
(dp2089
g54
(dp2090
sg63
g59
sg56
(lp2091
g49
(g70
g51
NtRp2092
(dp2093
g54
(dp2094
g74
g75
ssg63
g2088
sg56
(lp2095
S'is_https'
p2096
asbag49
(g70
g51
NtRp2097
(dp2098
g54
(dp2099
g81
g82
ssg63
g2088
sg56
(lp2100
S':'
asbag49
(g70
g51
NtRp2101
(dp2102
g54
(dp2103
sg63
g2088
sg56
(lp2104
g49
(g50
g51
NtRp2105
(dp2106
g54
(dp2107
g62
I5
ssg63
g2101
sg56
(lp2108
g92
asbasbasbag49
(g65
g51
NtRp2109
(dp2110
g54
(dp2111
sg63
g59
sg56
(lp2112
g49
(g70
g51
NtRp2113
(dp2114
g54
(dp2115
g74
g75
ssg63
g2109
sg56
(lp2116
S'is_local'
p2117
asbag49
(g70
g51
NtRp2118
(dp2119
g54
(dp2120
g81
g82
ssg63
g2109
sg56
(lp2121
S':'
asbag49
(g70
g51
NtRp2122
(dp2123
g54
(dp2124
sg63
g2109
sg56
(lp2125
g49
(g50
g51
NtRp2126
(dp2127
g54
(dp2128
g62
I5
ssg63
g2122
sg56
(lp2129
g891
asbasbasbag49
(g65
g51
NtRp2130
(dp2131
g54
(dp2132
sg63
g59
sg56
(lp2133
g49
(g70
g51
NtRp2134
(dp2135
g54
(dp2136
g74
g75
ssg63
g2130
sg56
(lp2137
S'is_restful'
p2138
asbag49
(g70
g51
NtRp2139
(dp2140
g54
(dp2141
g81
g82
ssg63
g2130
sg56
(lp2142
S':'
asbag49
(g70
g51
NtRp2143
(dp2144
g54
(dp2145
sg63
g2130
sg56
(lp2146
g49
(g50
g51
NtRp2147
(dp2148
g54
(dp2149
g62
I5
ssg63
g2143
sg56
(lp2150
g92
asbasbasbag49
(g65
g51
NtRp2151
(dp2152
g54
(dp2153
sg63
g59
sg56
(lp2154
g49
(g70
g51
NtRp2155
(dp2156
g54
(dp2157
g74
g75
ssg63
g2151
sg56
(lp2158
S'now'
p2159
asbag49
(g70
g51
NtRp2160
(dp2161
g54
(dp2162
g81
g82
ssg63
g2151
sg56
(lp2163
S':'
asbag49
(g70
g51
NtRp2164
(dp2165
g54
(dp2166
sg63
g2151
sg56
(lp2167
g49
(g50
g51
NtRp2168
(dp2169
g54
(dp2170
g62
I5
ssg63
g2164
sg56
(lp2171
S'datetime.datetime(2012, 3, 27, 16, 36, 49, 234000)'
p2172
asbasbasbag49
(g65
g51
NtRp2173
(dp2174
g54
(dp2175
sg63
g59
sg56
(lp2176
g49
(g70
g51
NtRp2177
(dp2178
g54
(dp2179
g74
g75
ssg63
g2173
sg56
(lp2180
S'post_vars'
p2181
asbag49
(g70
g51
NtRp2182
(dp2183
g54
(dp2184
g81
g82
ssg63
g2173
sg56
(lp2185
S':'
asbag49
(g70
g51
NtRp2186
(dp2187
g54
(dp2188
sg63
g2173
sg56
(lp2189
g49
(g50
g51
NtRp2190
(dp2191
g54
(dp2192
g62
I5
ssg63
g2186
sg56
(lp2193
g49
(g58
g51
NtRp2194
(dp2195
g54
(dp2196
g62
I4
ssg63
Nsg56
(lp2197
sbasbasbasbag49
(g65
g51
NtRp2198
(dp2199
g54
(dp2200
sg63
g59
sg56
(lp2201
g49
(g70
g51
NtRp2202
(dp2203
g54
(dp2204
g74
g75
ssg63
g2198
sg56
(lp2205
S'url'
p2206
asbag49
(g70
g51
NtRp2207
(dp2208
g54
(dp2209
g81
g82
ssg63
g2198
sg56
(lp2210
S':'
asbag49
(g70
g51
NtRp2211
(dp2212
g54
(dp2213
sg63
g2198
sg56
(lp2214
g49
(g50
g51
NtRp2215
(dp2216
g54
(dp2217
g62
I5
ssg63
g2211
sg56
(lp2218
S'/init/default/index'
p2219
asbasbasbag49
(g65
g51
NtRp2220
(dp2221
g54
(dp2222
sg63
g59
sg56
(lp2223
g49
(g70
g51
NtRp2224
(dp2225
g54
(dp2226
g74
g75
ssg63
g2220
sg56
(lp2227
S'utcnow'
p2228
asbag49
(g70
g51
NtRp2229
(dp2230
g54
(dp2231
g81
g82
ssg63
g2220
sg56
(lp2232
S':'
asbag49
(g70
g51
NtRp2233
(dp2234
g54
(dp2235
sg63
g2220
sg56
(lp2236
g49
(g50
g51
NtRp2237
(dp2238
g54
(dp2239
g62
I5
ssg63
g2233
sg56
(lp2240
S'datetime.datetime(2012, 3, 27, 14, 36, 49, 250000)'
p2241
asbasbasbag49
(g65
g51
NtRp2242
(dp2243
g54
(dp2244
sg63
g59
sg56
(lp2245
g49
(g70
g51
NtRp2246
(dp2247
g54
(dp2248
g74
g75
ssg63
g2242
sg56
(lp2249
S'uuid'
p2250
asbag49
(g70
g51
NtRp2251
(dp2252
g54
(dp2253
g81
g82
ssg63
g2242
sg56
(lp2254
S':'
asbag49
(g70
g51
NtRp2255
(dp2256
g54
(dp2257
sg63
g2242
sg56
(lp2258
g49
(g50
g51
NtRp2259
(dp2260
g54
(dp2261
g62
I5
ssg63
g2255
sg56
(lp2262
S'init/127.0.0.1.2012-03-27.16-36-49.b8dd2a13-ab8a-449e-84f2-98710716e0c3'
p2263
asbasbasbag49
(g65
g51
NtRp2264
(dp2265
g54
(dp2266
sg63
g59
sg56
(lp2267
g49
(g70
g51
NtRp2268
(dp2269
g54
(dp2270
g74
g75
ssg63
g2264
sg56
(lp2271
S'vars'
p2272
asbag49
(g70
g51
NtRp2273
(dp2274
g54
(dp2275
g81
g82
ssg63
g2264
sg56
(lp2276
S':'
asbag49
(g70
g51
NtRp2277
(dp2278
g54
(dp2279
sg63
g2264
sg56
(lp2280
g49
(g50
g51
NtRp2281
(dp2282
g54
(dp2283
g62
I5
ssg63
g2277
sg56
(lp2284
g49
(g58
g51
NtRp2285
(dp2286
g54
(dp2287
g62
I4
ssg63
Nsg56
(lp2288
sbasbasbasbag49
(g65
g51
NtRp2289
(dp2290
g54
(dp2291
sg63
g59
sg56
(lp2292
g49
(g70
g51
NtRp2293
(dp2294
g54
(dp2295
g74
g75
ssg63
g2289
sg56
(lp2296
S'wsgi'
p2297
asbag49
(g70
g51
NtRp2298
(dp2299
g54
(dp2300
g81
g82
ssg63
g2289
sg56
(lp2301
S':'
asbag49
(g70
g51
NtRp2302
(dp2303
g54
(dp2304
sg63
g2289
sg56
(lp2305
g49
(g50
g51
NtRp2306
(dp2307
g54
(dp2308
g62
I5
ssg63
g2302
sg56
(lp2309
g49
(g58
g51
NtRp2310
(dp2311
g54
(dp2312
g62
I4
ssg63
Nsg56
(lp2313
g49
(g65
g51
NtRp2314
(dp2315
g54
(dp2316
sg63
g2310
sg56
(lp2317
g49
(g70
g51
NtRp2318
(dp2319
g54
(dp2320
g74
g75
ssg63
g2314
sg56
(lp2321
S'environ'
p2322
asbag49
(g70
g51
NtRp2323
(dp2324
g54
(dp2325
g81
g82
ssg63
g2314
sg56
(lp2326
S':'
asbag49
(g70
g51
NtRp2327
(dp2328
g54
(dp2329
sg63
g2314
sg56
(lp2330
g49
(g50
g51
NtRp2331
(dp2332
g54
(dp2333
g62
I4
ssg63
g2327
sg56
(lp2334
g49
(g58
g51
NtRp2335
(dp2336
g54
(dp2337
g62
I3
ssg63
Nsg56
(lp2338
g49
(g65
g51
NtRp2339
(dp2340
g54
(dp2341
sg63
g2335
sg56
(lp2342
g49
(g70
g51
NtRp2343
(dp2344
g54
(dp2345
g74
g75
ssg63
g2339
sg56
(lp2346
S'HTTP_ACCEPT'
p2347
asbag49
(g70
g51
NtRp2348
(dp2349
g54
(dp2350
g81
g82
ssg63
g2339
sg56
(lp2351
S':'
asbag49
(g70
g51
NtRp2352
(dp2353
g54
(dp2354
sg63
g2339
sg56
(lp2355
g49
(g50
g51
NtRp2356
(dp2357
g54
(dp2358
g62
I3
ssg63
g2352
sg56
(lp2359
g935
asbasbasbag49
(g65
g51
NtRp2360
(dp2361
g54
(dp2362
sg63
g2335
sg56
(lp2363
g49
(g70
g51
NtRp2364
(dp2365
g54
(dp2366
g74
g75
ssg63
g2360
sg56
(lp2367
S'HTTP_ACCEPT_CHARSET'
p2368
asbag49
(g70
g51
NtRp2369
(dp2370
g54
(dp2371
g81
g82
ssg63
g2360
sg56
(lp2372
S':'
asbag49
(g70
g51
NtRp2373
(dp2374
g54
(dp2375
sg63
g2360
sg56
(lp2376
g49
(g50
g51
NtRp2377
(dp2378
g54
(dp2379
g62
I3
ssg63
g2373
sg56
(lp2380
g957
asbasbasbag49
(g65
g51
NtRp2381
(dp2382
g54
(dp2383
sg63
g2335
sg56
(lp2384
g49
(g70
g51
NtRp2385
(dp2386
g54
(dp2387
g74
g75
ssg63
g2381
sg56
(lp2388
S'HTTP_ACCEPT_ENCODING'
p2389
asbag49
(g70
g51
NtRp2390
(dp2391
g54
(dp2392
g81
g82
ssg63
g2381
sg56
(lp2393
S':'
asbag49
(g70
g51
NtRp2394
(dp2395
g54
(dp2396
sg63
g2381
sg56
(lp2397
g49
(g50
g51
NtRp2398
(dp2399
g54
(dp2400
g62
I3
ssg63
g2394
sg56
(lp2401
g979
asbasbasbag49
(g65
g51
NtRp2402
(dp2403
g54
(dp2404
sg63
g2335
sg56
(lp2405
g49
(g70
g51
NtRp2406
(dp2407
g54
(dp2408
g74
g75
ssg63
g2402
sg56
(lp2409
S'HTTP_ACCEPT_LANGUAGE'
p2410
asbag49
(g70
g51
NtRp2411
(dp2412
g54
(dp2413
g81
g82
ssg63
g2402
sg56
(lp2414
S':'
asbag49
(g70
g51
NtRp2415
(dp2416
g54
(dp2417
sg63
g2402
sg56
(lp2418
g49
(g50
g51
NtRp2419
(dp2420
g54
(dp2421
g62
I3
ssg63
g2415
sg56
(lp2422
g1001
asbasbasbag49
(g65
g51
NtRp2423
(dp2424
g54
(dp2425
sg63
g2335
sg56
(lp2426
g49
(g70
g51
NtRp2427
(dp2428
g54
(dp2429
g74
g75
ssg63
g2423
sg56
(lp2430
S'HTTP_CONNECTION'
p2431
asbag49
(g70
g51
NtRp2432
(dp2433
g54
(dp2434
g81
g82
ssg63
g2423
sg56
(lp2435
S':'
asbag49
(g70
g51
NtRp2436
(dp2437
g54
(dp2438
sg63
g2423
sg56
(lp2439
g49
(g50
g51
NtRp2440
(dp2441
g54
(dp2442
g62
I3
ssg63
g2436
sg56
(lp2443
g1023
asbasbasbag49
(g65
g51
NtRp2444
(dp2445
g54
(dp2446
sg63
g2335
sg56
(lp2447
g49
(g70
g51
NtRp2448
(dp2449
g54
(dp2450
g74
g75
ssg63
g2444
sg56
(lp2451
S'HTTP_COOKIE'
p2452
asbag49
(g70
g51
NtRp2453
(dp2454
g54
(dp2455
g81
g82
ssg63
g2444
sg56
(lp2456
S':'
asbag49
(g70
g51
NtRp2457
(dp2458
g54
(dp2459
sg63
g2444
sg56
(lp2460
g49
(g50
g51
NtRp2461
(dp2462
g54
(dp2463
g62
I3
ssg63
g2457
sg56
(lp2464
g1045
asbasbasbag49
(g65
g51
NtRp2465
(dp2466
g54
(dp2467
sg63
g2335
sg56
(lp2468
g49
(g70
g51
NtRp2469
(dp2470
g54
(dp2471
g74
g75
ssg63
g2465
sg56
(lp2472
S'HTTP_HOST'
p2473
asbag49
(g70
g51
NtRp2474
(dp2475
g54
(dp2476
g81
g82
ssg63
g2465
sg56
(lp2477
S':'
asbag49
(g70
g51
NtRp2478
(dp2479
g54
(dp2480
sg63
g2465
sg56
(lp2481
g49
(g50
g51
NtRp2482
(dp2483
g54
(dp2484
g62
I3
ssg63
g2478
sg56
(lp2485
g1067
asbasbasbag49
(g65
g51
NtRp2486
(dp2487
g54
(dp2488
sg63
g2335
sg56
(lp2489
g49
(g70
g51
NtRp2490
(dp2491
g54
(dp2492
g74
g75
ssg63
g2486
sg56
(lp2493
S'HTTP_USER_AGENT'
p2494
asbag49
(g70
g51
NtRp2495
(dp2496
g54
(dp2497
g81
g82
ssg63
g2486
sg56
(lp2498
S':'
asbag49
(g70
g51
NtRp2499
(dp2500
g54
(dp2501
sg63
g2486
sg56
(lp2502
g49
(g50
g51
NtRp2503
(dp2504
g54
(dp2505
g62
I3
ssg63
g2499
sg56
(lp2506
g1089
asbasbasbag49
(g65
g51
NtRp2507
(dp2508
g54
(dp2509
sg63
g2335
sg56
(lp2510
g49
(g70
g51
NtRp2511
(dp2512
g54
(dp2513
g74
g75
ssg63
g2507
sg56
(lp2514
S'PATH_INFO'
p2515
asbag49
(g70
g51
NtRp2516
(dp2517
g54
(dp2518
g81
g82
ssg63
g2507
sg56
(lp2519
S':'
asbag49
(g70
g51
NtRp2520
(dp2521
g54
(dp2522
sg63
g2507
sg56
(lp2523
g49
(g50
g51
NtRp2524
(dp2525
g54
(dp2526
g62
I3
ssg63
g2520
sg56
(lp2527
S'/'
asbasbasbag49
(g65
g51
NtRp2528
(dp2529
g54
(dp2530
sg63
g2335
sg56
(lp2531
g49
(g70
g51
NtRp2532
(dp2533
g54
(dp2534
g74
g75
ssg63
g2528
sg56
(lp2535
S'QUERY_STRING'
p2536
asbag49
(g70
g51
NtRp2537
(dp2538
g54
(dp2539
g81
g82
ssg63
g2528
sg56
(lp2540
S':'
asbag49
(g70
g51
NtRp2541
(dp2542
g54
(dp2543
sg63
g2528
sg56
(lp2544
g49
(g50
g51
NtRp2545
(dp2546
g54
(dp2547
g62
I3
ssg63
g2541
sg56
(lp2548
S''
asbasbasbag49
(g65
g51
NtRp2549
(dp2550
g54
(dp2551
sg63
g2335
sg56
(lp2552
g49
(g70
g51
NtRp2553
(dp2554
g54
(dp2555
g74
g75
ssg63
g2549
sg56
(lp2556
S'REMOTE_ADDR'
p2557
asbag49
(g70
g51
NtRp2558
(dp2559
g54
(dp2560
g81
g82
ssg63
g2549
sg56
(lp2561
S':'
asbag49
(g70
g51
NtRp2562
(dp2563
g54
(dp2564
sg63
g2549
sg56
(lp2565
g49
(g50
g51
NtRp2566
(dp2567
g54
(dp2568
g62
I3
ssg63
g2562
sg56
(lp2569
g182
asbasbasbag49
(g65
g51
NtRp2570
(dp2571
g54
(dp2572
sg63
g2335
sg56
(lp2573
g49
(g70
g51
NtRp2574
(dp2575
g54
(dp2576
g74
g75
ssg63
g2570
sg56
(lp2577
S'REMOTE_PORT'
p2578
asbag49
(g70
g51
NtRp2579
(dp2580
g54
(dp2581
g81
g82
ssg63
g2570
sg56
(lp2582
S':'
asbag49
(g70
g51
NtRp2583
(dp2584
g54
(dp2585
sg63
g2570
sg56
(lp2586
g49
(g50
g51
NtRp2587
(dp2588
g54
(dp2589
g62
I3
ssg63
g2583
sg56
(lp2590
g1216
asbasbasbag49
(g65
g51
NtRp2591
(dp2592
g54
(dp2593
sg63
g2335
sg56
(lp2594
g49
(g70
g51
NtRp2595
(dp2596
g54
(dp2597
g74
g75
ssg63
g2591
sg56
(lp2598
S'REQUEST_METHOD'
p2599
asbag49
(g70
g51
NtRp2600
(dp2601
g54
(dp2602
g81
g82
ssg63
g2591
sg56
(lp2603
S':'
asbag49
(g70
g51
NtRp2604
(dp2605
g54
(dp2606
sg63
g2591
sg56
(lp2607
g49
(g50
g51
NtRp2608
(dp2609
g54
(dp2610
g62
I3
ssg63
g2604
sg56
(lp2611
g1238
asbasbasbag49
(g65
g51
NtRp2612
(dp2613
g54
(dp2614
sg63
g2335
sg56
(lp2615
g49
(g70
g51
NtRp2616
(dp2617
g54
(dp2618
g74
g75
ssg63
g2612
sg56
(lp2619
S'SCRIPT_NAME'
p2620
asbag49
(g70
g51
NtRp2621
(dp2622
g54
(dp2623
g81
g82
ssg63
g2612
sg56
(lp2624
S':'
asbag49
(g70
g51
NtRp2625
(dp2626
g54
(dp2627
sg63
g2612
sg56
(lp2628
g49
(g50
g51
NtRp2629
(dp2630
g54
(dp2631
g62
I3
ssg63
g2625
sg56
(lp2632
S''
asbasbasbag49
(g65
g51
NtRp2633
(dp2634
g54
(dp2635
sg63
g2335
sg56
(lp2636
g49
(g70
g51
NtRp2637
(dp2638
g54
(dp2639
g74
g75
ssg63
g2633
sg56
(lp2640
S'SERVER_NAME'
p2641
asbag49
(g70
g51
NtRp2642
(dp2643
g54
(dp2644
g81
g82
ssg63
g2633
sg56
(lp2645
S':'
asbag49
(g70
g51
NtRp2646
(dp2647
g54
(dp2648
sg63
g2633
sg56
(lp2649
g49
(g50
g51
NtRp2650
(dp2651
g54
(dp2652
g62
I3
ssg63
g2646
sg56
(lp2653
g1281
asbasbasbag49
(g65
g51
NtRp2654
(dp2655
g54
(dp2656
sg63
g2335
sg56
(lp2657
g49
(g70
g51
NtRp2658
(dp2659
g54
(dp2660
g74
g75
ssg63
g2654
sg56
(lp2661
S'SERVER_PORT'
p2662
asbag49
(g70
g51
NtRp2663
(dp2664
g54
(dp2665
g81
g82
ssg63
g2654
sg56
(lp2666
S':'
asbag49
(g70
g51
NtRp2667
(dp2668
g54
(dp2669
sg63
g2654
sg56
(lp2670
g49
(g50
g51
NtRp2671
(dp2672
g54
(dp2673
g62
I3
ssg63
g2667
sg56
(lp2674
g1303
asbasbasbag49
(g65
g51
NtRp2675
(dp2676
g54
(dp2677
sg63
g2335
sg56
(lp2678
g49
(g70
g51
NtRp2679
(dp2680
g54
(dp2681
g74
g75
ssg63
g2675
sg56
(lp2682
S'SERVER_PROTOCOL'
p2683
asbag49
(g70
g51
NtRp2684
(dp2685
g54
(dp2686
g81
g82
ssg63
g2675
sg56
(lp2687
S':'
asbag49
(g70
g51
NtRp2688
(dp2689
g54
(dp2690
sg63
g2675
sg56
(lp2691
g49
(g50
g51
NtRp2692
(dp2693
g54
(dp2694
g62
I3
ssg63
g2688
sg56
(lp2695
g1325
asbasbasbag49
(g65
g51
NtRp2696
(dp2697
g54
(dp2698
sg63
g2335
sg56
(lp2699
g49
(g70
g51
NtRp2700
(dp2701
g54
(dp2702
g74
g75
ssg63
g2696
sg56
(lp2703
S'SERVER_SOFTWARE'
p2704
asbag49
(g70
g51
NtRp2705
(dp2706
g54
(dp2707
g81
g82
ssg63
g2696
sg56
(lp2708
S':'
asbag49
(g70
g51
NtRp2709
(dp2710
g54
(dp2711
sg63
g2696
sg56
(lp2712
g49
(g50
g51
NtRp2713
(dp2714
g54
(dp2715
g62
I3
ssg63
g2709
sg56
(lp2716
g1347
asbasbasbag49
(g65
g51
NtRp2717
(dp2718
g54
(dp2719
sg63
g2335
sg56
(lp2720
g49
(g70
g51
NtRp2721
(dp2722
g54
(dp2723
g74
g75
ssg63
g2717
sg56
(lp2724
S'wsgi.errors'
p2725
asbag49
(g70
g51
NtRp2726
(dp2727
g54
(dp2728
g81
g82
ssg63
g2717
sg56
(lp2729
S':'
asbag49
(g70
g51
NtRp2730
(dp2731
g54
(dp2732
sg63
g2717
sg56
(lp2733
g49
(g50
g51
NtRp2734
(dp2735
g54
(dp2736
g62
I3
ssg63
g2730
sg56
(lp2737
S"<open file '<stderr>', mode 'w' at 0x009000B0>"
p2738
asbasbasbag49
(g65
g51
NtRp2739
(dp2740
g54
(dp2741
sg63
g2335
sg56
(lp2742
g49
(g70
g51
NtRp2743
(dp2744
g54
(dp2745
g74
g75
ssg63
g2739
sg56
(lp2746
S'wsgi.file_wrapper'
p2747
asbag49
(g70
g51
NtRp2748
(dp2749
g54
(dp2750
g81
g82
ssg63
g2739
sg56
(lp2751
S':'
asbag49
(g70
g51
NtRp2752
(dp2753
g54
(dp2754
sg63
g2739
sg56
(lp2755
g49
(g50
g51
NtRp2756
(dp2757
g54
(dp2758
g62
I3
ssg63
g2752
sg56
(lp2759
S'<class wsgiref.util.FileWrapper at 0x01528600>'
p2760
asbasbasbag49
(g65
g51
NtRp2761
(dp2762
g54
(dp2763
sg63
g2335
sg56
(lp2764
g49
(g70
g51
NtRp2765
(dp2766
g54
(dp2767
g74
g75
ssg63
g2761
sg56
(lp2768
S'wsgi.input'
p2769
asbag49
(g70
g51
NtRp2770
(dp2771
g54
(dp2772
g81
g82
ssg63
g2761
sg56
(lp2773
S':'
asbag49
(g70
g51
NtRp2774
(dp2775
g54
(dp2776
sg63
g2761
sg56
(lp2777
g49
(g50
g51
NtRp2778
(dp2779
g54
(dp2780
g62
I3
ssg63
g2774
sg56
(lp2781
S'<cStringIO.StringO object at 0x0295B960>'
p2782
asbasbasbag49
(g65
g51
NtRp2783
(dp2784
g54
(dp2785
sg63
g2335
sg56
(lp2786
g49
(g70
g51
NtRp2787
(dp2788
g54
(dp2789
g74
g75
ssg63
g2783
sg56
(lp2790
S'wsgi.multiprocess'
p2791
asbag49
(g70
g51
NtRp2792
(dp2793
g54
(dp2794
g81
g82
ssg63
g2783
sg56
(lp2795
S':'
asbag49
(g70
g51
NtRp2796
(dp2797
g54
(dp2798
sg63
g2783
sg56
(lp2799
g49
(g50
g51
NtRp2800
(dp2801
g54
(dp2802
g62
I3
ssg63
g2796
sg56
(lp2803
g92
asbasbasbag49
(g65
g51
NtRp2804
(dp2805
g54
(dp2806
sg63
g2335
sg56
(lp2807
g49
(g70
g51
NtRp2808
(dp2809
g54
(dp2810
g74
g75
ssg63
g2804
sg56
(lp2811
S'wsgi.multithread'
p2812
asbag49
(g70
g51
NtRp2813
(dp2814
g54
(dp2815
g81
g82
ssg63
g2804
sg56
(lp2816
S':'
asbag49
(g70
g51
NtRp2817
(dp2818
g54
(dp2819
sg63
g2804
sg56
(lp2820
g49
(g50
g51
NtRp2821
(dp2822
g54
(dp2823
g62
I3
ssg63
g2817
sg56
(lp2824
g891
asbasbasbag49
(g65
g51
NtRp2825
(dp2826
g54
(dp2827
sg63
g2335
sg56
(lp2828
g49
(g70
g51
NtRp2829
(dp2830
g54
(dp2831
g74
g75
ssg63
g2825
sg56
(lp2832
S'wsgi.run_once'
p2833
asbag49
(g70
g51
NtRp2834
(dp2835
g54
(dp2836
g81
g82
ssg63
g2825
sg56
(lp2837
S':'
asbag49
(g70
g51
NtRp2838
(dp2839
g54
(dp2840
sg63
g2825
sg56
(lp2841
g49
(g50
g51
NtRp2842
(dp2843
g54
(dp2844
g62
I3
ssg63
g2838
sg56
(lp2845
g92
asbasbasbag49
(g65
g51
NtRp2846
(dp2847
g54
(dp2848
sg63
g2335
sg56
(lp2849
g49
(g70
g51
NtRp2850
(dp2851
g54
(dp2852
g74
g75
ssg63
g2846
sg56
(lp2853
S'wsgi.url_scheme'
p2854
asbag49
(g70
g51
NtRp2855
(dp2856
g54
(dp2857
g81
g82
ssg63
g2846
sg56
(lp2858
S':'
asbag49
(g70
g51
NtRp2859
(dp2860
g54
(dp2861
sg63
g2846
sg56
(lp2862
g49
(g50
g51
NtRp2863
(dp2864
g54
(dp2865
g62
I3
ssg63
g2859
sg56
(lp2866
g1629
asbasbasbag49
(g65
g51
NtRp2867
(dp2868
g54
(dp2869
sg63
g2335
sg56
(lp2870
g49
(g70
g51
NtRp2871
(dp2872
g54
(dp2873
g74
g75
ssg63
g2867
sg56
(lp2874
S'wsgi.version'
p2875
asbag49
(g70
g51
NtRp2876
(dp2877
g54
(dp2878
g81
g82
ssg63
g2867
sg56
(lp2879
S':'
asbag49
(g70
g51
NtRp2880
(dp2881
g54
(dp2882
sg63
g2867
sg56
(lp2883
g49
(g50
g51
NtRp2884
(dp2885
g54
(dp2886
g62
I3
ssg63
g2880
sg56
(lp2887
S'1'
asbasbasbasbasbasbasbasbasbasbasbasbasbsS'frames'
p2888
(lp2889
(dp2890
S'file'
p2891
S'D:\\Documents\\Workspace\\Jack\\web2py\\gluon\\restricted.py'
p2892
sS'dump'
p2893
(dp2894
sS'lnum'
p2895
I205
sS'lines'
p2896
(dp2897
I200
S'    try:'
p2898
sI201
S'        if type(code) == types.CodeType:'
p2899
sI202
S'            ccode = code'
p2900
sI203
S'        else:'
p2901
sI204
S'            ccode = compile2(code,layer)'
p2902
sI205
S'        exec ccode in environment'
p2903
sI206
S'    except HTTP:'
p2904
sI207
S'        raise'
p2905
sI208
S'    except RestrictedError:'
p2906
sI209
S'        # do not encapsulate (obfuscate) the original RestrictedError'
p2907
ssS'call'
p2908
S"(code='# -*- coding: utf-8 -*-\\n# Static analyzer import...###############################################\\n\\n', environment={'A': <class 'gluon.html.A'>, 'Auth': <class 'gluon.tools.Auth'>, 'AutocompleteWidget': <class 'gluon.sqlhtml.AutocompleteWidget'>, 'B': <class 'gluon.html.B'>, 'BEAUTIFY': <class 'gluon.html.BEAUTIFY'>, 'BODY': <class 'gluon.html.BODY'>, 'BR': <class 'gluon.html.BR'>, 'BUTTON': <class 'gluon.html.BUTTON'>, 'BooleanWidget': <class 'gluon.sqlhtml.BooleanWidget'>, 'CALLABLETYPES': (<type 'function'>, <type 'function'>, <type 'builtin_function_or_method'>, <type 'instancemethod'>, <type 'builtin_function_or_method'>), ...}, layer=r'D:\\Documents\\Workspace\\Jack\\web2py\\applications\\init\\models\\db.py')"
p2909
sS'func'
p2910
S'restricted'
p2911
sa(dp2912
g2891
S'D:\\Documents\\Workspace\\Jack\\web2py\\applications\\init\\models\\db.py'
p2913
sg2893
(dp2914
sg2895
I190
sg2896
(dp2915
I192
S" Field('Done','boolean',default=False),"
p2916
sI193
S" format = '%(Skill)s')"
p2917
sI194
S''
sI185
S" Field('Niveau','integer'),"
p2918
sI186
S" Field('Private','boolean'),"
p2919
sI187
S" format = '%(Skill)s')"
p2920
sI188
S''
sI189
S"db.define_table('Suggestion_Skills',"
p2921
sI190
S" Field('User',db.auth_user),"
p2922
sI191
S" Field('Texte'),"
p2923
ssg2908
S'()'
p2924
sg2910
S'<module>'
p2925
sa(dp2926
g2891
S'D:\\Documents\\Workspace\\Jack\\web2py\\gluon\\dal.py'
p2927
sg2893
(dp2928
sg2895
I6343
sg2896
(dp2929
I6338
S''
sI6339
S'    def __setitem__(self, key, value):'
p2930
sI6340
S'        dict.__setitem__(self, str(key), value)'
p2931
sI6341
S''
sI6342
S'    def __getattr__(self, key):'
p2932
sI6343
S'        return self[key]'
p2933
sI6344
S''
sI6345
S'    def __setattr__(self, key, value):'
p2934
sI6346
S"        if key[:1]!='_' and key in self:"
p2935
sI6347
S'            raise SyntaxError, \\'
p2936
ssg2908
S"(self=<DAL {'_pool_size': 0, '_common_fields': [], '_l... 'id': <gluon.dal.Field object at 0x0295C250>}>}>, key='auth_user')"
p2937
sg2910
S'__getattr__'
p2938
sa(dp2939
g2891
S'D:\\Documents\\Workspace\\Jack\\web2py\\gluon\\dal.py'
p2940
sg2893
(dp2941
sg2895
I6337
sg2896
(dp2942
I6336
S'    def __getitem__(self, key):'
p2943
sI6337
S'        return dict.__getitem__(self, str(key))'
p2944
sI6338
S''
sI6339
S'    def __setitem__(self, key, value):'
p2945
sI6340
S'        dict.__setitem__(self, str(key), value)'
p2946
sI6341
S''
sI6332
S'    def __iter__(self):'
p2947
sI6333
S'        for tablename in self.tables:'
p2948
sI6334
S'            yield self[tablename]'
p2949
sI6335
S''
ssg2908
S"(self=<DAL {'_pool_size': 0, '_common_fields': [], '_l... 'id': <gluon.dal.Field object at 0x0295C250>}>}>, key='auth_user')"
p2950
sg2910
g20
sasS'pyver'
p2951
S'Python 2.5.4: D:\\Documents\\Workspace\\Jack\\web2py\\web2py.exe'
p2952
sS'session'
p2953
g49
(g50
g51
NtRp2954
(dp2955
g54
(dp2956
sg56
(lp2957
g49
(g58
g51
NtRp2958
(dp2959
g54
(dp2960
g62
I5
ssg63
Nsg56
(lp2961
sbasbsS'etype'
p2962
S"<type 'exceptions.KeyError'>"
p2963
sS'date'
p2964
S'Tue Mar 27 16:36:55 2012'
p2965
sS'response'
p2966
g49
(g50
g51
NtRp2967
(dp2968
g54
(dp2969
sg56
(lp2970
g49
(g58
g51
NtRp2971
(dp2972
g54
(dp2973
g62
I5
ssg63
Nsg56
(lp2974
g49
(g65
g51
NtRp2975
(dp2976
g54
(dp2977
sg63
g2971
sg56
(lp2978
g49
(g70
g51
NtRp2979
(dp2980
g54
(dp2981
g74
g75
ssg63
g2975
sg56
(lp2982
g147
asbag49
(g70
g51
NtRp2983
(dp2984
g54
(dp2985
g81
g82
ssg63
g2975
sg56
(lp2986
S':'
asbag49
(g70
g51
NtRp2987
(dp2988
g54
(dp2989
sg63
g2975
sg56
(lp2990
g49
(g50
g51
NtRp2991
(dp2992
g54
(dp2993
g62
I5
ssg63
g2987
sg56
(lp2994
S'<cStringIO.StringO object at 0x024131A0>'
p2995
asbasbasbag49
(g65
g51
NtRp2996
(dp2997
g54
(dp2998
sg63
g2971
sg56
(lp2999
g49
(g70
g51
NtRp3000
(dp3001
g54
(dp3002
g74
g75
ssg63
g2996
sg56
(lp3003
g213
asbag49
(g70
g51
NtRp3004
(dp3005
g54
(dp3006
g81
g82
ssg63
g2996
sg56
(lp3007
S':'
asbag49
(g70
g51
NtRp3008
(dp3009
g54
(dp3010
sg63
g2996
sg56
(lp3011
g49
(g50
g51
NtRp3012
(dp3013
g54
(dp3014
g62
I5
ssg63
g3008
sg56
(lp3015
g49
(g58
g51
NtRp3016
(dp3017
g54
(dp3018
g62
I4
ssg63
Nsg56
(lp3019
g49
(g65
g51
NtRp3020
(dp3021
g54
(dp3022
sg63
g3016
sg56
(lp3023
g49
(g70
g51
NtRp3024
(dp3025
g54
(dp3026
g74
g75
ssg63
g3020
sg56
(lp3027
S'session_id_init'
p3028
asbag49
(g70
g51
NtRp3029
(dp3030
g54
(dp3031
g81
g82
ssg63
g3020
sg56
(lp3032
S':'
asbag49
(g70
g51
NtRp3033
(dp3034
g54
(dp3035
sg63
g3020
sg56
(lp3036
g49
(g50
g51
NtRp3037
(dp3038
g54
(dp3039
g62
I4
ssg63
g3033
sg56
(lp3040
g49
(g58
g51
NtRp3041
(dp3042
g54
(dp3043
g62
I3
ssg63
Nsg56
(lp3044
g49
(g65
g51
NtRp3045
(dp3046
g54
(dp3047
sg63
g3041
sg56
(lp3048
g49
(g70
g51
NtRp3049
(dp3050
g54
(dp3051
g74
g75
ssg63
g3045
sg56
(lp3052
g263
asbag49
(g70
g51
NtRp3053
(dp3054
g54
(dp3055
g81
g82
ssg63
g3045
sg56
(lp3056
S':'
asbag49
(g70
g51
NtRp3057
(dp3058
g54
(dp3059
sg63
g3045
sg56
(lp3060
g49
(g50
g51
NtRp3061
(dp3062
g54
(dp3063
g62
I3
ssg63
g3057
sg56
(lp3064
S''
asbasbasbag49
(g65
g51
NtRp3065
(dp3066
g54
(dp3067
sg63
g3041
sg56
(lp3068
g49
(g70
g51
NtRp3069
(dp3070
g54
(dp3071
g74
g75
ssg63
g3065
sg56
(lp3072
g284
asbag49
(g70
g51
NtRp3073
(dp3074
g54
(dp3075
g81
g82
ssg63
g3065
sg56
(lp3076
S':'
asbag49
(g70
g51
NtRp3077
(dp3078
g54
(dp3079
sg63
g3065
sg56
(lp3080
g49
(g50
g51
NtRp3081
(dp3082
g54
(dp3083
g62
I3
ssg63
g3077
sg56
(lp3084
S''
asbasbasbag49
(g65
g51
NtRp3085
(dp3086
g54
(dp3087
sg63
g3041
sg56
(lp3088
g49
(g70
g51
NtRp3089
(dp3090
g54
(dp3091
g74
g75
ssg63
g3085
sg56
(lp3092
g305
asbag49
(g70
g51
NtRp3093
(dp3094
g54
(dp3095
g81
g82
ssg63
g3085
sg56
(lp3096
S':'
asbag49
(g70
g51
NtRp3097
(dp3098
g54
(dp3099
sg63
g3085
sg56
(lp3100
g49
(g50
g51
NtRp3101
(dp3102
g54
(dp3103
g62
I3
ssg63
g3097
sg56
(lp3104
S''
asbasbasbag49
(g65
g51
NtRp3105
(dp3106
g54
(dp3107
sg63
g3041
sg56
(lp3108
g49
(g70
g51
NtRp3109
(dp3110
g54
(dp3111
g74
g75
ssg63
g3105
sg56
(lp3112
g326
asbag49
(g70
g51
NtRp3113
(dp3114
g54
(dp3115
g81
g82
ssg63
g3105
sg56
(lp3116
S':'
asbag49
(g70
g51
NtRp3117
(dp3118
g54
(dp3119
sg63
g3105
sg56
(lp3120
g49
(g50
g51
NtRp3121
(dp3122
g54
(dp3123
g62
I3
ssg63
g3117
sg56
(lp3124
S''
asbasbasbag49
(g65
g51
NtRp3125
(dp3126
g54
(dp3127
sg63
g3041
sg56
(lp3128
g49
(g70
g51
NtRp3129
(dp3130
g54
(dp3131
g74
g75
ssg63
g3125
sg56
(lp3132
g347
asbag49
(g70
g51
NtRp3133
(dp3134
g54
(dp3135
g81
g82
ssg63
g3125
sg56
(lp3136
S':'
asbag49
(g70
g51
NtRp3137
(dp3138
g54
(dp3139
sg63
g3125
sg56
(lp3140
g49
(g50
g51
NtRp3141
(dp3142
g54
(dp3143
g62
I3
ssg63
g3137
sg56
(lp3144
S'/'
asbasbasbag49
(g65
g51
NtRp3145
(dp3146
g54
(dp3147
sg63
g3041
sg56
(lp3148
g49
(g70
g51
NtRp3149
(dp3150
g54
(dp3151
g74
g75
ssg63
g3145
sg56
(lp3152
g368
asbag49
(g70
g51
NtRp3153
(dp3154
g54
(dp3155
g81
g82
ssg63
g3145
sg56
(lp3156
S':'
asbag49
(g70
g51
NtRp3157
(dp3158
g54
(dp3159
sg63
g3145
sg56
(lp3160
g49
(g50
g51
NtRp3161
(dp3162
g54
(dp3163
g62
I3
ssg63
g3157
sg56
(lp3164
S''
asbasbasbag49
(g65
g51
NtRp3165
(dp3166
g54
(dp3167
sg63
g3041
sg56
(lp3168
g49
(g70
g51
NtRp3169
(dp3170
g54
(dp3171
g74
g75
ssg63
g3165
sg56
(lp3172
g389
asbag49
(g70
g51
NtRp3173
(dp3174
g54
(dp3175
g81
g82
ssg63
g3165
sg56
(lp3176
S':'
asbag49
(g70
g51
NtRp3177
(dp3178
g54
(dp3179
sg63
g3165
sg56
(lp3180
g49
(g50
g51
NtRp3181
(dp3182
g54
(dp3183
g62
I3
ssg63
g3177
sg56
(lp3184
S''
asbasbasbasbasbasbasbasbasbasbasbag49
(g65
g51
NtRp3185
(dp3186
g54
(dp3187
sg63
g2971
sg56
(lp3188
g49
(g70
g51
NtRp3189
(dp3190
g54
(dp3191
g74
g75
ssg63
g3185
sg56
(lp3192
S'delimiters'
p3193
asbag49
(g70
g51
NtRp3194
(dp3195
g54
(dp3196
g81
g82
ssg63
g3185
sg56
(lp3197
S':'
asbag49
(g70
g51
NtRp3198
(dp3199
g54
(dp3200
sg63
g3185
sg56
(lp3201
g49
(g50
g51
NtRp3202
(dp3203
g54
(dp3204
g62
I5
ssg63
g3198
sg56
(lp3205
g49
(g58
g51
NtRp3206
(dp3207
g54
(dp3208
g62
I4
ssg63
Nsg56
(lp3209
g49
(g65
g51
NtRp3210
(dp3211
g54
(dp3212
sg63
g3206
sg56
(lp3213
g49
(g70
g51
NtRp3214
(dp3215
g54
(dp3216
sg63
g3210
sg56
(lp3217
g49
(g50
g51
NtRp3218
(dp3219
g54
(dp3220
g62
I4
ssg63
g3214
sg56
(lp3221
S'{{'
p3222
asbasbasbag49
(g65
g51
NtRp3223
(dp3224
g54
(dp3225
sg63
g3206
sg56
(lp3226
g49
(g70
g51
NtRp3227
(dp3228
g54
(dp3229
sg63
g3223
sg56
(lp3230
g49
(g50
g51
NtRp3231
(dp3232
g54
(dp3233
g62
I4
ssg63
g3227
sg56
(lp3234
S'}}'
p3235
asbasbasbasbasbasbasbag49
(g65
g51
NtRp3236
(dp3237
g54
(dp3238
sg63
g2971
sg56
(lp3239
g49
(g70
g51
NtRp3240
(dp3241
g54
(dp3242
g74
g75
ssg63
g3236
sg56
(lp3243
S'files'
p3244
asbag49
(g70
g51
NtRp3245
(dp3246
g54
(dp3247
g81
g82
ssg63
g3236
sg56
(lp3248
S':'
asbag49
(g70
g51
NtRp3249
(dp3250
g54
(dp3251
sg63
g3236
sg56
(lp3252
g49
(g50
g51
NtRp3253
(dp3254
g54
(dp3255
g62
I5
ssg63
g3249
sg56
(lp3256
g49
(g58
g51
NtRp3257
(dp3258
g54
(dp3259
g62
I4
ssg63
Nsg56
(lp3260
sbasbasbasbag49
(g65
g51
NtRp3261
(dp3262
g54
(dp3263
sg63
g2971
sg56
(lp3264
g49
(g70
g51
NtRp3265
(dp3266
g54
(dp3267
g74
g75
ssg63
g3261
sg56
(lp3268
S'flash'
p3269
asbag49
(g70
g51
NtRp3270
(dp3271
g54
(dp3272
g81
g82
ssg63
g3261
sg56
(lp3273
S':'
asbag49
(g70
g51
NtRp3274
(dp3275
g54
(dp3276
sg63
g3261
sg56
(lp3277
g49
(g50
g51
NtRp3278
(dp3279
g54
(dp3280
g62
I5
ssg63
g3274
sg56
(lp3281
S''
asbasbasbag49
(g65
g51
NtRp3282
(dp3283
g54
(dp3284
sg63
g2971
sg56
(lp3285
g49
(g70
g51
NtRp3286
(dp3287
g54
(dp3288
g74
g75
ssg63
g3282
sg56
(lp3289
S'generic_patterns'
p3290
asbag49
(g70
g51
NtRp3291
(dp3292
g54
(dp3293
g81
g82
ssg63
g3282
sg56
(lp3294
S':'
asbag49
(g70
g51
NtRp3295
(dp3296
g54
(dp3297
sg63
g3282
sg56
(lp3298
g49
(g50
g51
NtRp3299
(dp3300
g54
(dp3301
g62
I5
ssg63
g3295
sg56
(lp3302
g49
(g58
g51
NtRp3303
(dp3304
g54
(dp3305
g62
I4
ssg63
Nsg56
(lp3306
g49
(g65
g51
NtRp3307
(dp3308
g54
(dp3309
sg63
g3303
sg56
(lp3310
g49
(g70
g51
NtRp3311
(dp3312
g54
(dp3313
sg63
g3307
sg56
(lp3314
g49
(g50
g51
NtRp3315
(dp3316
g54
(dp3317
g62
I4
ssg63
g3311
sg56
(lp3318
S'*'
asbasbasbasbasbasbasbag49
(g65
g51
NtRp3319
(dp3320
g54
(dp3321
sg63
g2971
sg56
(lp3322
g49
(g70
g51
NtRp3323
(dp3324
g54
(dp3325
g74
g75
ssg63
g3319
sg56
(lp3326
S'headers'
p3327
asbag49
(g70
g51
NtRp3328
(dp3329
g54
(dp3330
g81
g82
ssg63
g3319
sg56
(lp3331
S':'
asbag49
(g70
g51
NtRp3332
(dp3333
g54
(dp3334
sg63
g3319
sg56
(lp3335
g49
(g50
g51
NtRp3336
(dp3337
g54
(dp3338
g62
I5
ssg63
g3332
sg56
(lp3339
g49
(g58
g51
NtRp3340
(dp3341
g54
(dp3342
g62
I4
ssg63
Nsg56
(lp3343
g49
(g65
g51
NtRp3344
(dp3345
g54
(dp3346
sg63
g3340
sg56
(lp3347
g49
(g70
g51
NtRp3348
(dp3349
g54
(dp3350
g74
g75
ssg63
g3344
sg56
(lp3351
S'Cache-Control'
p3352
asbag49
(g70
g51
NtRp3353
(dp3354
g54
(dp3355
g81
g82
ssg63
g3344
sg56
(lp3356
S':'
asbag49
(g70
g51
NtRp3357
(dp3358
g54
(dp3359
sg63
g3344
sg56
(lp3360
g49
(g50
g51
NtRp3361
(dp3362
g54
(dp3363
g62
I4
ssg63
g3357
sg56
(lp3364
S'no-store, no-cache, must-revalidate, post-check=0, pre-check=0'
p3365
asbasbasbag49
(g65
g51
NtRp3366
(dp3367
g54
(dp3368
sg63
g3340
sg56
(lp3369
g49
(g70
g51
NtRp3370
(dp3371
g54
(dp3372
g74
g75
ssg63
g3366
sg56
(lp3373
S'Content-Type'
p3374
asbag49
(g70
g51
NtRp3375
(dp3376
g54
(dp3377
g81
g82
ssg63
g3366
sg56
(lp3378
S':'
asbag49
(g70
g51
NtRp3379
(dp3380
g54
(dp3381
sg63
g3366
sg56
(lp3382
g49
(g50
g51
NtRp3383
(dp3384
g54
(dp3385
g62
I4
ssg63
g3379
sg56
(lp3386
S'text/html; charset=utf-8'
p3387
asbasbasbag49
(g65
g51
NtRp3388
(dp3389
g54
(dp3390
sg63
g3340
sg56
(lp3391
g49
(g70
g51
NtRp3392
(dp3393
g54
(dp3394
g74
g75
ssg63
g3388
sg56
(lp3395
S'Expires'
p3396
asbag49
(g70
g51
NtRp3397
(dp3398
g54
(dp3399
g81
g82
ssg63
g3388
sg56
(lp3400
S':'
asbag49
(g70
g51
NtRp3401
(dp3402
g54
(dp3403
sg63
g3388
sg56
(lp3404
g49
(g50
g51
NtRp3405
(dp3406
g54
(dp3407
g62
I4
ssg63
g3401
sg56
(lp3408
S'Tue, 27 Mar 2012 14:36:50 GMT'
p3409
asbasbasbag49
(g65
g51
NtRp3410
(dp3411
g54
(dp3412
sg63
g3340
sg56
(lp3413
g49
(g70
g51
NtRp3414
(dp3415
g54
(dp3416
g74
g75
ssg63
g3410
sg56
(lp3417
S'Pragma'
p3418
asbag49
(g70
g51
NtRp3419
(dp3420
g54
(dp3421
g81
g82
ssg63
g3410
sg56
(lp3422
S':'
asbag49
(g70
g51
NtRp3423
(dp3424
g54
(dp3425
sg63
g3410
sg56
(lp3426
g49
(g50
g51
NtRp3427
(dp3428
g54
(dp3429
g62
I4
ssg63
g3423
sg56
(lp3430
S'no-cache'
p3431
asbasbasbag49
(g65
g51
NtRp3432
(dp3433
g54
(dp3434
sg63
g3340
sg56
(lp3435
g49
(g70
g51
NtRp3436
(dp3437
g54
(dp3438
g74
g75
ssg63
g3432
sg56
(lp3439
S'X-Powered-By'
p3440
asbag49
(g70
g51
NtRp3441
(dp3442
g54
(dp3443
g81
g82
ssg63
g3432
sg56
(lp3444
S':'
asbag49
(g70
g51
NtRp3445
(dp3446
g54
(dp3447
sg63
g3432
sg56
(lp3448
g49
(g50
g51
NtRp3449
(dp3450
g54
(dp3451
g62
I4
ssg63
g3445
sg56
(lp3452
S'web2py'
p3453
asbasbasbasbasbasbasbag49
(g65
g51
NtRp3454
(dp3455
g54
(dp3456
sg63
g2971
sg56
(lp3457
g49
(g70
g51
NtRp3458
(dp3459
g54
(dp3460
g74
g75
ssg63
g3454
sg56
(lp3461
S'menu'
p3462
asbag49
(g70
g51
NtRp3463
(dp3464
g54
(dp3465
g81
g82
ssg63
g3454
sg56
(lp3466
S':'
asbag49
(g70
g51
NtRp3467
(dp3468
g54
(dp3469
sg63
g3454
sg56
(lp3470
g49
(g50
g51
NtRp3471
(dp3472
g54
(dp3473
g62
I5
ssg63
g3467
sg56
(lp3474
g49
(g58
g51
NtRp3475
(dp3476
g54
(dp3477
g62
I4
ssg63
Nsg56
(lp3478
sbasbasbasbag49
(g65
g51
NtRp3479
(dp3480
g54
(dp3481
sg63
g2971
sg56
(lp3482
g49
(g70
g51
NtRp3483
(dp3484
g54
(dp3485
g74
g75
ssg63
g3479
sg56
(lp3486
S'meta'
p3487
asbag49
(g70
g51
NtRp3488
(dp3489
g54
(dp3490
g81
g82
ssg63
g3479
sg56
(lp3491
S':'
asbag49
(g70
g51
NtRp3492
(dp3493
g54
(dp3494
sg63
g3479
sg56
(lp3495
g49
(g50
g51
NtRp3496
(dp3497
g54
(dp3498
g62
I5
ssg63
g3492
sg56
(lp3499
g49
(g58
g51
NtRp3500
(dp3501
g54
(dp3502
g62
I4
ssg63
Nsg56
(lp3503
sbasbasbasbag49
(g65
g51
NtRp3504
(dp3505
g54
(dp3506
sg63
g2971
sg56
(lp3507
g49
(g70
g51
NtRp3508
(dp3509
g54
(dp3510
g74
g75
ssg63
g3504
sg56
(lp3511
S'postprocessing'
p3512
asbag49
(g70
g51
NtRp3513
(dp3514
g54
(dp3515
g81
g82
ssg63
g3504
sg56
(lp3516
S':'
asbag49
(g70
g51
NtRp3517
(dp3518
g54
(dp3519
sg63
g3504
sg56
(lp3520
g49
(g50
g51
NtRp3521
(dp3522
g54
(dp3523
g62
I5
ssg63
g3517
sg56
(lp3524
g49
(g58
g51
NtRp3525
(dp3526
g54
(dp3527
g62
I4
ssg63
Nsg56
(lp3528
sbasbasbasbag49
(g65
g51
NtRp3529
(dp3530
g54
(dp3531
sg63
g2971
sg56
(lp3532
g49
(g70
g51
NtRp3533
(dp3534
g54
(dp3535
g74
g75
ssg63
g3529
sg56
(lp3536
S'session_db'
p3537
asbag49
(g70
g51
NtRp3538
(dp3539
g54
(dp3540
g81
g82
ssg63
g3529
sg56
(lp3541
S':'
asbag49
(g70
g51
NtRp3542
(dp3543
g54
(dp3544
sg63
g3529
sg56
(lp3545
g49
(g50
g51
NtRp3546
(dp3547
g54
(dp3548
g62
I5
ssg63
g3542
sg56
(lp3549
g891
asbasbasbag49
(g65
g51
NtRp3550
(dp3551
g54
(dp3552
sg63
g2971
sg56
(lp3553
g49
(g70
g51
NtRp3554
(dp3555
g54
(dp3556
g74
g75
ssg63
g3550
sg56
(lp3557
S'session_id'
p3558
asbag49
(g70
g51
NtRp3559
(dp3560
g54
(dp3561
g81
g82
ssg63
g3550
sg56
(lp3562
S':'
asbag49
(g70
g51
NtRp3563
(dp3564
g54
(dp3565
sg63
g3550
sg56
(lp3566
g49
(g50
g51
NtRp3567
(dp3568
g54
(dp3569
g62
I5
ssg63
g3563
sg56
(lp3570
S'17:e5adefdf-08a7-48ff-9256-9bd0bab5999e'
p3571
asbasbasbag49
(g65
g51
NtRp3572
(dp3573
g54
(dp3574
sg63
g2971
sg56
(lp3575
g49
(g70
g51
NtRp3576
(dp3577
g54
(dp3578
g74
g75
ssg63
g3572
sg56
(lp3579
S'session_id_name'
p3580
asbag49
(g70
g51
NtRp3581
(dp3582
g54
(dp3583
g81
g82
ssg63
g3572
sg56
(lp3584
S':'
asbag49
(g70
g51
NtRp3585
(dp3586
g54
(dp3587
sg63
g3572
sg56
(lp3588
g49
(g50
g51
NtRp3589
(dp3590
g54
(dp3591
g62
I5
ssg63
g3585
sg56
(lp3592
S'session_id_init'
p3593
asbasbasbag49
(g65
g51
NtRp3594
(dp3595
g54
(dp3596
sg63
g2971
sg56
(lp3597
g49
(g70
g51
NtRp3598
(dp3599
g54
(dp3600
g74
g75
ssg63
g3594
sg56
(lp3601
S'status'
p3602
asbag49
(g70
g51
NtRp3603
(dp3604
g54
(dp3605
g81
g82
ssg63
g3594
sg56
(lp3606
S':'
asbag49
(g70
g51
NtRp3607
(dp3608
g54
(dp3609
sg63
g3594
sg56
(lp3610
g49
(g50
g51
NtRp3611
(dp3612
g54
(dp3613
g62
I5
ssg63
g3607
sg56
(lp3614
S'200'
p3615
asbasbasbag49
(g65
g51
NtRp3616
(dp3617
g54
(dp3618
sg63
g2971
sg56
(lp3619
g49
(g70
g51
NtRp3620
(dp3621
g54
(dp3622
g74
g75
ssg63
g3616
sg56
(lp3623
g2250
asbag49
(g70
g51
NtRp3624
(dp3625
g54
(dp3626
g81
g82
ssg63
g3616
sg56
(lp3627
S':'
asbag49
(g70
g51
NtRp3628
(dp3629
g54
(dp3630
sg63
g3616
sg56
(lp3631
g49
(g50
g51
NtRp3632
(dp3633
g54
(dp3634
g62
I5
ssg63
g3628
sg56
(lp3635
g2263
asbasbasbag49
(g65
g51
NtRp3636
(dp3637
g54
(dp3638
sg63
g2971
sg56
(lp3639
g49
(g70
g51
NtRp3640
(dp3641
g54
(dp3642
g74
g75
ssg63
g3636
sg56
(lp3643
S'view'
p3644
asbag49
(g70
g51
NtRp3645
(dp3646
g54
(dp3647
g81
g82
ssg63
g3636
sg56
(lp3648
S':'
asbag49
(g70
g51
NtRp3649
(dp3650
g54
(dp3651
sg63
g3636
sg56
(lp3652
g49
(g50
g51
NtRp3653
(dp3654
g54
(dp3655
g62
I5
ssg63
g3649
sg56
(lp3656
S'default/index.html'
p3657
asbasbasbasbasbsS'locals'
p3658
(dp3659
S'self'
p3660
S"<DAL {'_pool_size': 0, '_common_fields': [], '_l... 'id': <gluon.dal.Field object at 0x0295C250>}>}>"
p3661
sS'key'
p3662
S"'auth_user'"
p3663
sssS'traceback'
p3664
S'Traceback (most recent call last):\n  File "gluon/restricted.py", line 205, in restricted\n  File "D:\\Documents\\Workspace\\Jack\\web2py\\applications\\init\\models\\db.py", line 190, in <module>\n  File "gluon/dal.py", line 6343, in __getattr__\n  File "gluon/dal.py", line 6337, in __getitem__\nKeyError: \'auth_user\'\n'
p3665
s.