(dp1
S'output'
p2
S"<type 'exceptions.SyntaxError'> invalid syntax (controllers/default.py, line 208)"
p3
sS'layer'
p4
S'C:\\Users\\Bussiere\\Dropbox\\Projets\\jackpoint\\web2py\\applications\\init\\controllers/default.py'
p5
sS'code'
p6
S'# -*- coding: utf-8 -*-\n# this file is released under public domain and you can use without limitations\n\n#########################################################################\n## This is a samples controller\n## - index is the default action of any application\n## - user is required for authentication and authorization\n## - download is for downloading files uploaded in the db (does streaming)\n## - call exposes all registered services (none by default)\n#########################################################################\n# Static analyzer import helpers: (STATIC_IMPORT_MARK)\nif 0: \n    import gluon\n    global cache; cache = gluon.cache.Cache()\n    global LOAD; LOAD  = gluon.compileapp.LoadFactory()\n    import gluon.compileapp.local_import_aux as local_import #@UnusedImport\n    from gluon.contrib.gql import GQLDB #@UnusedImport\n    from gluon.dal import Field #@UnusedImport\n    global request; request = gluon.globals.Request()\n    global response; response = gluon.globals.Response()\n    global session; session = gluon.globals.Session()\n    from gluon.html import A #@UnusedImport\n    from gluon.html import B #@UnusedImport\n    from gluon.html import BEAUTIFY #@UnusedImport\n    from gluon.html import BODY #@UnusedImport\n    from gluon.html import BR #@UnusedImport\n    from gluon.html import CENTER #@UnusedImport\n    from gluon.html import CODE #@UnusedImport\n    from gluon.html import DIV #@UnusedImport\n    from gluon.html import EM #@UnusedImport\n    from gluon.html import EMBED #@UnusedImport\n    from gluon.html import embed64 #@UnusedImport\n    from gluon.html import FIELDSET #@UnusedImport\n    from gluon.html import FORM #@UnusedImport\n    from gluon.html import H1 #@UnusedImport\n    from gluon.html import H2 #@UnusedImport\n    from gluon.html import H3 #@UnusedImport\n    from gluon.html import H4 #@UnusedImport\n    from gluon.html import H5 #@UnusedImport\n    from gluon.html import H6 #@UnusedImport\n    from gluon.html import HEAD #@UnusedImport\n    from gluon.html import HR #@UnusedImport\n    from gluon.html import HTML #@UnusedImport\n    from gluon.html import I #@UnusedImport\n    from gluon.html import IFRAME #@UnusedImport\n    from gluon.html import IMG #@UnusedImport\n    from gluon.html import INPUT #@UnusedImport\n    from gluon.html import LABEL #@UnusedImport\n    from gluon.html import LEGEND #@UnusedImport\n    from gluon.html import LI #@UnusedImport\n    from gluon.html import LINK #@UnusedImport\n    from gluon.html import MARKMIN #@UnusedImport\n    from gluon.html import MENU #@UnusedImport\n    from gluon.html import META #@UnusedImport\n    from gluon.html import OBJECT #@UnusedImport\n    from gluon.html import OL #@UnusedImport\n    from gluon.html import ON #@UnusedImport\n    from gluon.html import OPTGROUP #@UnusedImport\n    from gluon.html import OPTION #@UnusedImport\n    from gluon.html import P #@UnusedImport\n    from gluon.html import PRE #@UnusedImport\n    from gluon.html import STYLE #@UnusedImport\n    from gluon.html import SCRIPT #@UnusedImport\n    from gluon.html import SELECT #@UnusedImport\n    from gluon.html import SPAN #@UnusedImport\n    from gluon.html import TABLE #@UnusedImport\n    from gluon.html import TAG #@UnusedImport\n    from gluon.html import TBODY #@UnusedImport\n    from gluon.html import TD #@UnusedImport\n    from gluon.html import TEXTAREA #@UnusedImport\n    from gluon.html import TFOOT #@UnusedImport\n    from gluon.html import TH  #@UnusedImport\n    from gluon.html import THEAD #@UnusedImport\n    from gluon.html import TITLE #@UnusedImport\n    from gluon.html import TR #@UnusedImport\n    from gluon.html import TT #@UnusedImport\n    from gluon.html import UL #@UnusedImport\n    from gluon.html import URL #@UnusedImport\n    from gluon.html import XHTML #@UnusedImport\n    from gluon.html import XML #@UnusedImport\n    from gluon.html import xmlescape #@UnusedImport\n    from gluon.http import HTTP #@UnusedImport\n    from gluon.http import redirect #@UnusedImport\n    import gluon.languages.translator as T #@UnusedImport\n    from gluon.sql import DAL\n    global db; db = DAL()\n    from gluon.sql import SQLDB #@UnusedImport\n    from gluon.sql import SQLField #@UnusedImport\n    from gluon.sqlhtml import SQLFORM #@UnusedImport\n    from gluon.sqlhtml import SQLTABLE #@UnusedImport\n    from gluon.tools import  Auth\n    global auth; auth = Auth()\n    from gluon.tools import Crud\n    global crud; crud = Crud()\n    from gluon.tools import fetch #@UnusedImport\n    from gluon.tools import geocode #@UnusedImport\n    from gluon.tools import Mail\n    global mail; mail = Mail()\n    from gluon.tools import PluginManager\n    global plugins; plugins = PluginManager()\n    from gluon.tools import prettydate #@UnusedImport\n    from gluon.tools import Recaptcha #@UnusedImport\n    from gluon.tools import Service\n    global service; service = Service()\n    from gluon.validators import CLEANUP  #@UnusedImport\n    from gluon.validators import CRYPT #@UnusedImport\n    from gluon.validators import IS_ALPHANUMERIC #@UnusedImport\n    from gluon.validators import IS_DATE #@UnusedImport\n    from gluon.validators import IS_DATE_IN_RANGE #@UnusedImport\n    from gluon.validators import IS_DATETIME #@UnusedImport\n    from gluon.validators import IS_DATETIME_IN_RANGE #@UnusedImport\n    from gluon.validators import IS_DECIMAL_IN_RANGE #@UnusedImport\n    from gluon.validators import IS_EMAIL #@UnusedImport\n    from gluon.validators import IS_EMPTY_OR #@UnusedImport\n    from gluon.validators import IS_EQUAL_TO #@UnusedImport\n    from gluon.validators import IS_EXPR #@UnusedImport\n    from gluon.validators import IS_FLOAT_IN_RANGE #@UnusedImport\n    from gluon.validators import IS_IMAGE #@UnusedImport\n    from gluon.validators import IS_IN_DB #@UnusedImport\n    from gluon.validators import IS_IN_SET #@UnusedImport\n    from gluon.validators import IS_INT_IN_RANGE #@UnusedImport\n    from gluon.validators import IS_IPV4 #@UnusedImport\n    from gluon.validators import IS_LENGTH #@UnusedImport\n    from gluon.validators import IS_LIST_OF #@UnusedImport\n    from gluon.validators import IS_LOWER #@UnusedImport\n    from gluon.validators import IS_MATCH #@UnusedImport\n    from gluon.validators import IS_NOT_EMPTY #@UnusedImport\n    from gluon.validators import IS_NOT_IN_DB #@UnusedImport\n    from gluon.validators import IS_NULL_OR #@UnusedImport\n    from gluon.validators import IS_SLUG #@UnusedImport\n    from gluon.validators import IS_STRONG  #@UnusedImport\n    from gluon.validators import IS_TIME #@UnusedImport\n    from gluon.validators import IS_UPLOAD_FILENAME #@UnusedImport\n    from gluon.validators import IS_UPPER #@UnusedImpor\n\n\nimport random\n\ndef index():\n    if auth.is_logged_in() :\n        return "You get the blue pills"\n    else :\n        return dict(form=auth.login(),faq=URL(\'faq\'))\n\n\n\ndef generate_invitation(number,word=4,num=1,numdigit=5):\n    code = [\n[\'BELCHER\', \'FIX\', \'EEL\', \'PANZERBOY\', \'DESK_JOCKEY\', \'CHILLED\', \'ENFORCER\', \'CHERRY_PICKING\', \'COUNTRY_CLUB\', \'BOMBSHELL\', \'PLUGGED_IN\', \'FINI\', \'LEGIT\', \'JAM\', \'BONED_OUT\', \'BLADE\', \'ROUST\', \'SAMURAI\', \'DISK\', \'INPUT\', \'POST_TIME\', \'SOUNDS\', \'SKIP\', \'FLATBACKER\', \'WILSON\', \'SHOEMAKER\', \'DELTA_SIERRA\', \'HEART\', \'CROAK\', \'HEAD_HUNTER\', \'HOSHO_KAISHA\', "DELTA\'D", "\'FACE_(also,_FACE,_EYE-FACE,_I-FACE)", \'WEEFLE\', \'DIRTGIRL\', \'KEYBOARD\', \'BRAIN_BUCKET\', \'DRYING_OUT\', \'OVERCOOK\', \'PIG\', \'COLD_TEA\', \'RECONFIG\', \'PAD\', \'LIT_UP\', \'WRAITH\', \'HANDLE\', \'L.P.\', \'PINCH\', \'TAKE_A_CAB\', \'SPILL\', \'ACE_KOOL\', \'DO\', \'BIZ\', \'BROWNIE\', \'CANDLE_AND_BLOOD\', \'BLUEBOY\', \'UP_ON_IT\', \'BURN\', \'USER_INTERFACE\', \'HOB\', \'GYRO\', \'STUFFIT\', \'THATCH\', \'ICEBREAKER\', \'ZIP_GUN\', \'PETERMAN\', \'PLAY_DOUGH\', \'TREY-EIGHT\', \'SETTLE\', "CHIPPIN\'_IN", \'MEATBALL\', \'RAFFLES\', \'YUBITSUME\', \'CROAKER\', \'SUCKER_POCKETS\', \'L.A.M.A.\', \'GEEK\', \'BUTTONHEAD\'],\n[\'TAKE\', \'TEKIYA\', \'KURUMAKU\', \'BLOC\', \'GAT\', \'JOHATSU\', \'CRYSTAL\', \'A.I.\', \'ZEROED\', \'OVER_THE_SHOULDER\', \'GRAB_GEE\', \'PANZER\', \'GO_LEO\', \'WASHED\', \'I.C.E.\', \'COPSHOP\', \'COLLATERAL_DAMAGE\', \'BIG_DARK\', \'DOUBLE-DEUCE\', \'ZONEDANCE\', \'MARK\', \'COBBERS\', \'CHIMPIRA\', \'TRIADS\', \'SHANK\', \'FRAG\', \'BREATH_VAC\', "CHARLIE\'S_ANGEL", \'MULE\', \'BURNER\', "PACKIN\'", \'HOTDOGGER\', \'BOSOZOKU\', \'RIPPERDOC\', \'THIRDMAN\', \'MAXIMUM,_MAX\', \'CHOOH2_("CHOO")\', \'CRYO_MAX\', \'HEATER\', \'SHARK\', \'JOYGIRL\', \'GURENTAI\', \'BANDIT\', \'VENICE\', \'MIZU_SHOBAI\', \'PASTA_BOYS\', \'SQUID\', \'CYBERED_UP\', \'DEAD_RECKONING\', \'POPSICLE\', \'FAUST\', \'COLLARBOY\', \'SHOES\', \'TORCH\', \'DELTAJOCK\', \'BUTTERFLY_MAN\', \'WISE_GUYS\', \'BOOST\', \'CAIN\', \'FOUR-FIVE\', \'BREAK-DOWN\', \'POLYMER_ONE-SHOT\', \'FLAG\', \'CALL_GIRL\', \'IN_THE_HUNT\', \'HYDRO\', \'DOCK\', \'FENCE\', \'SHAIKUJIN\', \'GOMI\', \'FILTER\', \'SAINT_NICK\', \'LINEFOOT\', \'CAVALRY\', \'PUKE\', \'CONVERSION\', \'FINGER\', \'CONTRACT\'],\n[\'PLASTIC\', \'CRYSTALJOCKEY,_CRYSTALJOCK\', \'SCREW\', \'TOYSTORE\', \'DREAM_TIME\', \'EXOTIC\', \'WALKABOUT\', \'DIAMOND_SEASON\', \'SARAKIN\', \'CHRISTMAS_BUNDLES\', \'SHADES\', \'BUTTON_MAN\', \'FOXTROT_UNIFORM\', \'KAI\', \'UNDER_THE_PAINT\', \'MINIMUM\', \'TRIPLE_A\', \'PIG_ON_A_WHEEL\', \'BAG_MAN\', \'DIP\', \'PIGEONS\', \'MAN\', \'ADAM_HENRY\', \'HIGH\', \'HEAT\', \'NINJO\', \'KNIFE_FIGHT\', \'MOUTHPIECE\', \'AGRIPLEX\', \'DATA_TERM\', \'LIZ\', \'CHROMER\', \'OUTPUT\', \'N.O.E.\', \'CLOSE_A_CONTRACT\', \'LASSIE\', \'FLATLINE\', \'CHIV\', \'SING\', \'AMMO\', \'RAT\', \'MATCHBOX\', \'PULL_AN_ASH\', \'BORYOKUDAN\', \'SQUEEZE\', \'RONIN\', \'HIT\', \'RAGS\', \'TAKE_OUT\', \'BEAT_THE_RAP\', \'GIRI\', \'RUNNING_THE_LINE\', \'HARNESS\', \'GRAVEROBBER\', \'DROP_A_DIME\', \'BADGE_ON_A_BEAVER\', \'FLETCHER\', \'AMPED-OUT\', \'NEUTRALIZE\', \'PETER\', \'CONFIG\', \'HARDFIRE\', \'B.A.M.A.\', \'CHROMATIC_ROCK\', \'MOLDED\', \'RAD\', \'CREASED\', \'CHATTER_BOX\', \'HAND_CANNON\', \'NIPPERS\', \'SIERRA_HOTEL\', \'HOOK_UP\', \'-JOCKEY,_-JOCK\', \'BUG\', \'BATMAN_AND_ROBIN\', \'BLACK_OPERATIONS\', "D.C.\'S", \'SO_KA\'],\n[\'_A.A.A.\', \'HOME_PLATE\', \'LITEJACK\', \'PINEAPPLE\', \'MAKE\', \'THE_STREET\', \'SITREP\', \'HANGING_PAPER\', \'PAINT_BOYS\', \'WETWORK\', \'NINER\', \'BOOKIE\', \'WHIPLASH\', \'TORPEDO\', \'HEATWAVE\', \'SOLAR_WIND\', \'QUIFF\', \'BIKE\', \'TRAFFIC\', \'WIRE_ROOM\', \'OYABUN\', \'COWBOY\', \'KOBUN\', \'MUDBOY\', \'COP_OUT\', \'SOKAIYA\', "\'DORPH", \'JOYBOY\', \'DIRTY\', \'BOAT\', \'DROP\', \'GRAV_or_GEE\', \'APOGEE\', \'BOOSTER\', \'BOOK\', \'FRY\', \'PULLING_TEETH\', \'ONE_LARGE\', \'COMBAT_DRUGS\', \'THRASH\', \'DO_A_GHOST\', \'DELTA\', \'RIN_TIN_TIN\', \'DROP_OUT\', \'GUMI\', \'ROCKERBOY/GIRL\', \'BULLET\', \'DEB\', \'THREADING_THE_NEEDLE\', \'MOTOR\', \'BLEEDER\', \'ARC\', \'BOPPER\', \'WASTE\', \'_______DEMUKAI\', \'BREAK\', \'HOLDING_DOWN\', \'FEDS\', \'GAP\', \'RABBI\', \'BAKUTO\', \'CHOMBATTA_(CHOOMBA)\', \'BIG_HATS\', \'MR._JOHNSON\', \'EXEC\', \'BULL\', \'BULLSEYE\', \'POSERGANG\', \'CHAOL\', \'GEISHA\', \'SLAMMIT_ON\', \'POP_CAPS\', \'HARD_TIME\', \'BENJI\', \'MAKING_BANK\', \'PAPERHANGER\', \'NETRUN\', \'BOGEY\'],\n]     \n    i = 0\n    invits = []\n    print number\n    while (i < number):\n        invit = ""\n        j = 0\n        while (j < word):\n            debut = random.randint(0,len(code)-1)\n            codepick = code[debut][random.randint(0,len(code[debut])-1)]\n            j += 1\n            invit += codepick+"-"\n        j = 0\n        while (j < num):\n            invit += randomdig(numdigit)+"-"\n            j += 1\n        i+= 1\n        invit = invit[:-1]\n        if invit not in invits :\n            invits.append(invit[:-1])\n            print invit\n    return invits\n        \ndef randomdig(number):\n    max = "9"*number\n    max = int(max)\n    rand =  random.randint(0,max)\n    rand = str(rand)\n    rand = "0"*(number-len(rand))+rand\n    return rand\n\n@auth.requires_login()\ndef inscription():\n    form = SQLFORM(db[auth.settings.table_user_name])\n    return dict(form=form)\n\ndef liste_invitations():\n    return dict(rows = db().select(db.Invitation.ALL))\n\n#@auth.requires_membership(\'manager\')\ndef generate_invitationpage():\n   form=FORM("Nombre d\'invit a g\xc3\xa9n\xc3\xa9rer:", INPUT(_name=\'nmbreinvit\'), INPUT(_type=\'submit\'))\n   if form.process().accepted:\n       # i = form.vars.nmbreinvit\n       # invitsgenere = generate_invitation(i)\n       # for invit in invitsgenere :\n       #     db.Invitation.insert(Code=invit)\n       #     db.commit()\n       # session.flash = \'invitation inserted\'\n       # form=FORM("Nombre d\'invit a g\xc3\xa9n\xc3\xa9rer:", INPUT(_name=\'nmbreinvit\'), INPUT(_type=\'submit\'))\n       db.Invitation.insert(Code="Toto-5542")\n       db.commit()\n   return dict(form=form)\n\ndef verif_invitation(form):\n    if len(db(db.Invitation.Code==form.vars.invitation).select()) !== 1 :\n        form.errors(\'code invitation incorrect\')\n\n\ndef invitation():\n    form=FORM("Code Invitation :", INPUT(_name=\'invitation\'),INPUT(_name=\'email\'),  INPUT(_type=\'submit\'))\n    if form.process(onvalidation=verif_invitation) :\n        redirect(URL(\'inscription\'))\n    return dict(form=form)\n\ndef faq():\n\n    return dict()\ndef user():\n    """\n    exposes:\n    http://..../[app]/default/user/login\n    http://..../[app]/default/user/logout\n    http://..../[app]/default/user/register\n    http://..../[app]/default/user/profile\n    http://..../[app]/default/user/retrieve_password\n    http://..../[app]/default/user/change_password\n    use @auth.requires_login()\n        @auth.requires_membership(\'group name\')\n        @auth.requires_permission(\'read\',\'table name\',record_id)\n    to decorate functions that need access control\n    """\n    return dict(form=auth())\n\n\ndef download():\n    """\n    allows downloading of uploaded files\n    http://..../[app]/default/download/[filename]\n    """\n    return response.download(request,db)\n\n\ndef call():\n    """\n    exposes services. for example:\n    http://..../[app]/default/call/jsonrpc\n    decorate with @services.jsonrpc the functions to expose\n    supports xml, json, xmlrpc, jsonrpc, amfrpc, rss, csv\n    """\n    return service()\n\n\n@auth.requires_signature()\ndef data():\n    """\n    http://..../[app]/default/data/tables\n    http://..../[app]/default/data/create/[table]\n    http://..../[app]/default/data/read/[table]/[id]\n    http://..../[app]/default/data/update/[table]/[id]\n    http://..../[app]/default/data/delete/[table]/[id]\n    http://..../[app]/default/data/select/[table]\n    http://..../[app]/default/data/search/[table]\n    but URLs must be signed, i.e. linked with\n      A(\'table\',_href=URL(\'data/tables\',user_signature=True))\n    or with the signed load operator\n      LOAD(\'default\',\'data.load\',args=\'tables\',ajax=True,user_signature=True)\n    """\n    return dict(form=crud())\n\nresponse._vars=response._caller(liste_invitations)\n'
p7
sS'snapshot'
p8
(dp9
S'exception'
p10
(dp11
S'__getslice__'
p12
S"<method-wrapper '__getslice__' of exceptions.SyntaxError object at 0x043DEEF0>"
p13
sS'text'
p14
S"'    if len(db(db.Invitation.Code==form.vars.invitation).select()) !== 1 :\\n'"
p15
sS'__str__'
p16
S"<method-wrapper '__str__' of exceptions.SyntaxError object at 0x043DEEF0>"
p17
sS'__reduce__'
p18
S'<built-in method __reduce__ of exceptions.SyntaxError object at 0x043DEEF0>'
p19
sS'__dict__'
p20
S'{}'
p21
sS'__init__'
p22
S"<method-wrapper '__init__' of exceptions.SyntaxError object at 0x043DEEF0>"
p23
sS'__setattr__'
p24
S"<method-wrapper '__setattr__' of exceptions.SyntaxError object at 0x043DEEF0>"
p25
sS'__reduce_ex__'
p26
S'<built-in method __reduce_ex__ of exceptions.SyntaxError object at 0x043DEEF0>'
p27
sS'__new__'
p28
S'<built-in method __new__ of type object at 0x1E1CDBD0>'
p29
sS'__class__'
p30
S"<type 'exceptions.SyntaxError'>"
p31
sS'filename'
p32
S"r'C:\\Users\\Bussiere\\Dropbox\\Projets\\jackpoint\\web2py\\applications\\init\\controllers/default.py'"
p33
sS'lineno'
p34
S'208'
p35
sS'msg'
p36
S"'invalid syntax'"
p37
sS'__doc__'
p38
S"'Invalid syntax.'"
p39
sS'__getitem__'
p40
S"<method-wrapper '__getitem__' of exceptions.SyntaxError object at 0x043DEEF0>"
p41
sS'__setstate__'
p42
S'<built-in method __setstate__ of exceptions.SyntaxError object at 0x043DEEF0>'
p43
sS'__getattribute__'
p44
S"<method-wrapper '__getattribute__' of exceptions.SyntaxError object at 0x043DEEF0>"
p45
sS'print_file_and_line'
p46
S'None'
p47
sS'args'
p48
S"('invalid syntax', (r'C:\\Users\\Bussiere\\Dropbox\\Projets\\jackpoint\\web2py\\applications\\init\\controllers/default.py', 208, 69, '    if len(db(db.Invitation.Code==form.vars.invitation).select()) !== 1 :\\n'))"
p49
sS'offset'
p50
S'69'
p51
sS'__delattr__'
p52
S"<method-wrapper '__delattr__' of exceptions.SyntaxError object at 0x043DEEF0>"
p53
sS'__repr__'
p54
S"<method-wrapper '__repr__' of exceptions.SyntaxError object at 0x043DEEF0>"
p55
sS'__hash__'
p56
S"<method-wrapper '__hash__' of exceptions.SyntaxError object at 0x043DEEF0>"
p57
ssS'evalue'
p58
S'invalid syntax (controllers/default.py, line 208)'
p59
sS'request'
p60
ccopy_reg
_reconstructor
p61
(cgluon.html
BEAUTIFY
p62
c__builtin__
object
p63
NtRp64
(dp65
S'attributes'
p66
(dp67
sS'components'
p68
(lp69
g61
(cgluon.html
TABLE
p70
g63
NtRp71
(dp72
g66
(dp73
S'level'
p74
I5
ssS'parent'
p75
Nsg68
(lp76
g61
(cgluon.html
TR
p77
g63
NtRp78
(dp79
g66
(dp80
sg75
g71
sg68
(lp81
g61
(cgluon.html
TD
p82
g63
NtRp83
(dp84
g66
(dp85
S'_style'
p86
S'font-weight:bold;vertical-align:top'
p87
ssg75
g78
sg68
(lp88
S'ajax'
p89
asbag61
(g82
g63
NtRp90
(dp91
g66
(dp92
S'_valign'
p93
S'top'
p94
ssg75
g78
sg68
(lp95
S':'
asbag61
(g82
g63
NtRp96
(dp97
g66
(dp98
sg75
g78
sg68
(lp99
g61
(g62
g63
NtRp100
(dp101
g66
(dp102
g74
I5
ssg75
g96
sg68
(lp103
S'False'
p104
asbasbasbag61
(g77
g63
NtRp105
(dp106
g66
(dp107
sg75
g71
sg68
(lp108
g61
(g82
g63
NtRp109
(dp110
g66
(dp111
g86
g87
ssg75
g105
sg68
(lp112
S'application'
p113
asbag61
(g82
g63
NtRp114
(dp115
g66
(dp116
g93
g94
ssg75
g105
sg68
(lp117
S':'
asbag61
(g82
g63
NtRp118
(dp119
g66
(dp120
sg75
g105
sg68
(lp121
g61
(g62
g63
NtRp122
(dp123
g66
(dp124
g74
I5
ssg75
g118
sg68
(lp125
S'init'
p126
asbasbasbag61
(g77
g63
NtRp127
(dp128
g66
(dp129
sg75
g71
sg68
(lp130
g61
(g82
g63
NtRp131
(dp132
g66
(dp133
g86
g87
ssg75
g127
sg68
(lp134
g48
asbag61
(g82
g63
NtRp135
(dp136
g66
(dp137
g93
g94
ssg75
g127
sg68
(lp138
S':'
asbag61
(g82
g63
NtRp139
(dp140
g66
(dp141
sg75
g127
sg68
(lp142
g61
(g62
g63
NtRp143
(dp144
g66
(dp145
g74
I5
ssg75
g139
sg68
(lp146
g61
(g70
g63
NtRp147
(dp148
g66
(dp149
g74
I4
ssg75
Nsg68
(lp150
sbasbasbasbag61
(g77
g63
NtRp151
(dp152
g66
(dp153
sg75
g71
sg68
(lp154
g61
(g82
g63
NtRp155
(dp156
g66
(dp157
g86
g87
ssg75
g151
sg68
(lp158
S'body'
p159
asbag61
(g82
g63
NtRp160
(dp161
g66
(dp162
g93
g94
ssg75
g151
sg68
(lp163
S':'
asbag61
(g82
g63
NtRp164
(dp165
g66
(dp166
sg75
g151
sg68
(lp167
g61
(g62
g63
NtRp168
(dp169
g66
(dp170
g74
I5
ssg75
g164
sg68
(lp171
S'<cStringIO.StringO object at 0x0443B7C0>'
p172
asbasbasbag61
(g77
g63
NtRp173
(dp174
g66
(dp175
sg75
g71
sg68
(lp176
g61
(g82
g63
NtRp177
(dp178
g66
(dp179
g86
g87
ssg75
g173
sg68
(lp180
S'client'
p181
asbag61
(g82
g63
NtRp182
(dp183
g66
(dp184
g93
g94
ssg75
g173
sg68
(lp185
S':'
asbag61
(g82
g63
NtRp186
(dp187
g66
(dp188
sg75
g173
sg68
(lp189
g61
(g62
g63
NtRp190
(dp191
g66
(dp192
g74
I5
ssg75
g186
sg68
(lp193
S'127.0.0.1'
p194
asbasbasbag61
(g77
g63
NtRp195
(dp196
g66
(dp197
sg75
g71
sg68
(lp198
g61
(g82
g63
NtRp199
(dp200
g66
(dp201
g86
g87
ssg75
g195
sg68
(lp202
S'controller'
p203
asbag61
(g82
g63
NtRp204
(dp205
g66
(dp206
g93
g94
ssg75
g195
sg68
(lp207
S':'
asbag61
(g82
g63
NtRp208
(dp209
g66
(dp210
sg75
g195
sg68
(lp211
g61
(g62
g63
NtRp212
(dp213
g66
(dp214
g74
I5
ssg75
g208
sg68
(lp215
S'default'
p216
asbasbasbag61
(g77
g63
NtRp217
(dp218
g66
(dp219
sg75
g71
sg68
(lp220
g61
(g82
g63
NtRp221
(dp222
g66
(dp223
g86
g87
ssg75
g217
sg68
(lp224
S'cookies'
p225
asbag61
(g82
g63
NtRp226
(dp227
g66
(dp228
g93
g94
ssg75
g217
sg68
(lp229
S':'
asbag61
(g82
g63
NtRp230
(dp231
g66
(dp232
sg75
g217
sg68
(lp233
g61
(g62
g63
NtRp234
(dp235
g66
(dp236
g74
I5
ssg75
g230
sg68
(lp237
g61
(g70
g63
NtRp238
(dp239
g66
(dp240
g74
I4
ssg75
Nsg68
(lp241
g61
(g77
g63
NtRp242
(dp243
g66
(dp244
sg75
g238
sg68
(lp245
g61
(g82
g63
NtRp246
(dp247
g66
(dp248
g86
g87
ssg75
g242
sg68
(lp249
S'session_id_admin'
p250
asbag61
(g82
g63
NtRp251
(dp252
g66
(dp253
g93
g94
ssg75
g242
sg68
(lp254
S':'
asbag61
(g82
g63
NtRp255
(dp256
g66
(dp257
sg75
g242
sg68
(lp258
g61
(g62
g63
NtRp259
(dp260
g66
(dp261
g74
I4
ssg75
g255
sg68
(lp262
g61
(g70
g63
NtRp263
(dp264
g66
(dp265
g74
I3
ssg75
Nsg68
(lp266
g61
(g77
g63
NtRp267
(dp268
g66
(dp269
sg75
g263
sg68
(lp270
g61
(g82
g63
NtRp271
(dp272
g66
(dp273
g86
g87
ssg75
g267
sg68
(lp274
S'comment'
p275
asbag61
(g82
g63
NtRp276
(dp277
g66
(dp278
g93
g94
ssg75
g267
sg68
(lp279
S':'
asbag61
(g82
g63
NtRp280
(dp281
g66
(dp282
sg75
g267
sg68
(lp283
g61
(g62
g63
NtRp284
(dp285
g66
(dp286
g74
I3
ssg75
g280
sg68
(lp287
S''
asbasbasbag61
(g77
g63
NtRp288
(dp289
g66
(dp290
sg75
g263
sg68
(lp291
g61
(g82
g63
NtRp292
(dp293
g66
(dp294
g86
g87
ssg75
g288
sg68
(lp295
S'domain'
p296
asbag61
(g82
g63
NtRp297
(dp298
g66
(dp299
g93
g94
ssg75
g288
sg68
(lp300
S':'
asbag61
(g82
g63
NtRp301
(dp302
g66
(dp303
sg75
g288
sg68
(lp304
g61
(g62
g63
NtRp305
(dp306
g66
(dp307
g74
I3
ssg75
g301
sg68
(lp308
S''
asbasbasbag61
(g77
g63
NtRp309
(dp310
g66
(dp311
sg75
g263
sg68
(lp312
g61
(g82
g63
NtRp313
(dp314
g66
(dp315
g86
g87
ssg75
g309
sg68
(lp316
S'expires'
p317
asbag61
(g82
g63
NtRp318
(dp319
g66
(dp320
g93
g94
ssg75
g309
sg68
(lp321
S':'
asbag61
(g82
g63
NtRp322
(dp323
g66
(dp324
sg75
g309
sg68
(lp325
g61
(g62
g63
NtRp326
(dp327
g66
(dp328
g74
I3
ssg75
g322
sg68
(lp329
S''
asbasbasbag61
(g77
g63
NtRp330
(dp331
g66
(dp332
sg75
g263
sg68
(lp333
g61
(g82
g63
NtRp334
(dp335
g66
(dp336
g86
g87
ssg75
g330
sg68
(lp337
S'max-age'
p338
asbag61
(g82
g63
NtRp339
(dp340
g66
(dp341
g93
g94
ssg75
g330
sg68
(lp342
S':'
asbag61
(g82
g63
NtRp343
(dp344
g66
(dp345
sg75
g330
sg68
(lp346
g61
(g62
g63
NtRp347
(dp348
g66
(dp349
g74
I3
ssg75
g343
sg68
(lp350
S''
asbasbasbag61
(g77
g63
NtRp351
(dp352
g66
(dp353
sg75
g263
sg68
(lp354
g61
(g82
g63
NtRp355
(dp356
g66
(dp357
g86
g87
ssg75
g351
sg68
(lp358
S'path'
p359
asbag61
(g82
g63
NtRp360
(dp361
g66
(dp362
g93
g94
ssg75
g351
sg68
(lp363
S':'
asbag61
(g82
g63
NtRp364
(dp365
g66
(dp366
sg75
g351
sg68
(lp367
g61
(g62
g63
NtRp368
(dp369
g66
(dp370
g74
I3
ssg75
g364
sg68
(lp371
S''
asbasbasbag61
(g77
g63
NtRp372
(dp373
g66
(dp374
sg75
g263
sg68
(lp375
g61
(g82
g63
NtRp376
(dp377
g66
(dp378
g86
g87
ssg75
g372
sg68
(lp379
S'secure'
p380
asbag61
(g82
g63
NtRp381
(dp382
g66
(dp383
g93
g94
ssg75
g372
sg68
(lp384
S':'
asbag61
(g82
g63
NtRp385
(dp386
g66
(dp387
sg75
g372
sg68
(lp388
g61
(g62
g63
NtRp389
(dp390
g66
(dp391
g74
I3
ssg75
g385
sg68
(lp392
S''
asbasbasbag61
(g77
g63
NtRp393
(dp394
g66
(dp395
sg75
g263
sg68
(lp396
g61
(g82
g63
NtRp397
(dp398
g66
(dp399
g86
g87
ssg75
g393
sg68
(lp400
S'version'
p401
asbag61
(g82
g63
NtRp402
(dp403
g66
(dp404
g93
g94
ssg75
g393
sg68
(lp405
S':'
asbag61
(g82
g63
NtRp406
(dp407
g66
(dp408
sg75
g393
sg68
(lp409
g61
(g62
g63
NtRp410
(dp411
g66
(dp412
g74
I3
ssg75
g406
sg68
(lp413
S''
asbasbasbasbasbasbasbag61
(g77
g63
NtRp414
(dp415
g66
(dp416
sg75
g238
sg68
(lp417
g61
(g82
g63
NtRp418
(dp419
g66
(dp420
g86
g87
ssg75
g414
sg68
(lp421
S'session_id_init'
p422
asbag61
(g82
g63
NtRp423
(dp424
g66
(dp425
g93
g94
ssg75
g414
sg68
(lp426
S':'
asbag61
(g82
g63
NtRp427
(dp428
g66
(dp429
sg75
g414
sg68
(lp430
g61
(g62
g63
NtRp431
(dp432
g66
(dp433
g74
I4
ssg75
g427
sg68
(lp434
g61
(g70
g63
NtRp435
(dp436
g66
(dp437
g74
I3
ssg75
Nsg68
(lp438
g61
(g77
g63
NtRp439
(dp440
g66
(dp441
sg75
g435
sg68
(lp442
g61
(g82
g63
NtRp443
(dp444
g66
(dp445
g86
g87
ssg75
g439
sg68
(lp446
g275
asbag61
(g82
g63
NtRp447
(dp448
g66
(dp449
g93
g94
ssg75
g439
sg68
(lp450
S':'
asbag61
(g82
g63
NtRp451
(dp452
g66
(dp453
sg75
g439
sg68
(lp454
g61
(g62
g63
NtRp455
(dp456
g66
(dp457
g74
I3
ssg75
g451
sg68
(lp458
S''
asbasbasbag61
(g77
g63
NtRp459
(dp460
g66
(dp461
sg75
g435
sg68
(lp462
g61
(g82
g63
NtRp463
(dp464
g66
(dp465
g86
g87
ssg75
g459
sg68
(lp466
g296
asbag61
(g82
g63
NtRp467
(dp468
g66
(dp469
g93
g94
ssg75
g459
sg68
(lp470
S':'
asbag61
(g82
g63
NtRp471
(dp472
g66
(dp473
sg75
g459
sg68
(lp474
g61
(g62
g63
NtRp475
(dp476
g66
(dp477
g74
I3
ssg75
g471
sg68
(lp478
S''
asbasbasbag61
(g77
g63
NtRp479
(dp480
g66
(dp481
sg75
g435
sg68
(lp482
g61
(g82
g63
NtRp483
(dp484
g66
(dp485
g86
g87
ssg75
g479
sg68
(lp486
g317
asbag61
(g82
g63
NtRp487
(dp488
g66
(dp489
g93
g94
ssg75
g479
sg68
(lp490
S':'
asbag61
(g82
g63
NtRp491
(dp492
g66
(dp493
sg75
g479
sg68
(lp494
g61
(g62
g63
NtRp495
(dp496
g66
(dp497
g74
I3
ssg75
g491
sg68
(lp498
S''
asbasbasbag61
(g77
g63
NtRp499
(dp500
g66
(dp501
sg75
g435
sg68
(lp502
g61
(g82
g63
NtRp503
(dp504
g66
(dp505
g86
g87
ssg75
g499
sg68
(lp506
g338
asbag61
(g82
g63
NtRp507
(dp508
g66
(dp509
g93
g94
ssg75
g499
sg68
(lp510
S':'
asbag61
(g82
g63
NtRp511
(dp512
g66
(dp513
sg75
g499
sg68
(lp514
g61
(g62
g63
NtRp515
(dp516
g66
(dp517
g74
I3
ssg75
g511
sg68
(lp518
S''
asbasbasbag61
(g77
g63
NtRp519
(dp520
g66
(dp521
sg75
g435
sg68
(lp522
g61
(g82
g63
NtRp523
(dp524
g66
(dp525
g86
g87
ssg75
g519
sg68
(lp526
g359
asbag61
(g82
g63
NtRp527
(dp528
g66
(dp529
g93
g94
ssg75
g519
sg68
(lp530
S':'
asbag61
(g82
g63
NtRp531
(dp532
g66
(dp533
sg75
g519
sg68
(lp534
g61
(g62
g63
NtRp535
(dp536
g66
(dp537
g74
I3
ssg75
g531
sg68
(lp538
S''
asbasbasbag61
(g77
g63
NtRp539
(dp540
g66
(dp541
sg75
g435
sg68
(lp542
g61
(g82
g63
NtRp543
(dp544
g66
(dp545
g86
g87
ssg75
g539
sg68
(lp546
g380
asbag61
(g82
g63
NtRp547
(dp548
g66
(dp549
g93
g94
ssg75
g539
sg68
(lp550
S':'
asbag61
(g82
g63
NtRp551
(dp552
g66
(dp553
sg75
g539
sg68
(lp554
g61
(g62
g63
NtRp555
(dp556
g66
(dp557
g74
I3
ssg75
g551
sg68
(lp558
S''
asbasbasbag61
(g77
g63
NtRp559
(dp560
g66
(dp561
sg75
g435
sg68
(lp562
g61
(g82
g63
NtRp563
(dp564
g66
(dp565
g86
g87
ssg75
g559
sg68
(lp566
g401
asbag61
(g82
g63
NtRp567
(dp568
g66
(dp569
g93
g94
ssg75
g559
sg68
(lp570
S':'
asbag61
(g82
g63
NtRp571
(dp572
g66
(dp573
sg75
g559
sg68
(lp574
g61
(g62
g63
NtRp575
(dp576
g66
(dp577
g74
I3
ssg75
g571
sg68
(lp578
S''
asbasbasbasbasbasbasbasbasbasbasbag61
(g77
g63
NtRp579
(dp580
g66
(dp581
sg75
g71
sg68
(lp582
g61
(g82
g63
NtRp583
(dp584
g66
(dp585
g86
g87
ssg75
g579
sg68
(lp586
S'env'
p587
asbag61
(g82
g63
NtRp588
(dp589
g66
(dp590
g93
g94
ssg75
g579
sg68
(lp591
S':'
asbag61
(g82
g63
NtRp592
(dp593
g66
(dp594
sg75
g579
sg68
(lp595
g61
(g62
g63
NtRp596
(dp597
g66
(dp598
g74
I5
ssg75
g592
sg68
(lp599
g61
(g70
g63
NtRp600
(dp601
g66
(dp602
g74
I4
ssg75
Nsg68
(lp603
g61
(g77
g63
NtRp604
(dp605
g66
(dp606
sg75
g600
sg68
(lp607
g61
(g82
g63
NtRp608
(dp609
g66
(dp610
g86
g87
ssg75
g604
sg68
(lp611
S'app_folders'
p612
asbag61
(g82
g63
NtRp613
(dp614
g66
(dp615
g93
g94
ssg75
g604
sg68
(lp616
S':'
asbag61
(g82
g63
NtRp617
(dp618
g66
(dp619
sg75
g604
sg68
(lp620
g61
(g62
g63
NtRp621
(dp622
g66
(dp623
g74
I4
ssg75
g617
sg68
(lp624
S"set(['C:\\\\Users\\\\Bussiere\\\\Dropbox\\\\Projets\\\\jackpoint\\\\web2py\\\\applications\\\\init\\\\', 'C:\\\\Users\\\\Bussiere\\\\Dropbox\\\\Projets\\\\jackpoint\\\\web2py\\\\applications\\\\admin\\\\'])"
p625
asbasbasbag61
(g77
g63
NtRp626
(dp627
g66
(dp628
sg75
g600
sg68
(lp629
g61
(g82
g63
NtRp630
(dp631
g66
(dp632
g86
g87
ssg75
g626
sg68
(lp633
S'applications_parent'
p634
asbag61
(g82
g63
NtRp635
(dp636
g66
(dp637
g93
g94
ssg75
g626
sg68
(lp638
S':'
asbag61
(g82
g63
NtRp639
(dp640
g66
(dp641
sg75
g626
sg68
(lp642
g61
(g62
g63
NtRp643
(dp644
g66
(dp645
g74
I4
ssg75
g639
sg68
(lp646
S'C:\\Users\\Bussiere\\Dropbox\\Projets\\jackpoint\\web2py'
p647
asbasbasbag61
(g77
g63
NtRp648
(dp649
g66
(dp650
sg75
g600
sg68
(lp651
g61
(g82
g63
NtRp652
(dp653
g66
(dp654
g86
g87
ssg75
g648
sg68
(lp655
S'cmd_args'
p656
asbag61
(g82
g63
NtRp657
(dp658
g66
(dp659
g93
g94
ssg75
g648
sg68
(lp660
S':'
asbag61
(g82
g63
NtRp661
(dp662
g66
(dp663
sg75
g648
sg68
(lp664
g61
(g62
g63
NtRp665
(dp666
g66
(dp667
g74
I4
ssg75
g661
sg68
(lp668
g61
(g70
g63
NtRp669
(dp670
g66
(dp671
g74
I3
ssg75
Nsg68
(lp672
sbasbasbasbag61
(g77
g63
NtRp673
(dp674
g66
(dp675
sg75
g600
sg68
(lp676
g61
(g82
g63
NtRp677
(dp678
g66
(dp679
g86
g87
ssg75
g673
sg68
(lp680
S'cmd_options'
p681
asbag61
(g82
g63
NtRp682
(dp683
g66
(dp684
g93
g94
ssg75
g673
sg68
(lp685
S':'
asbag61
(g82
g63
NtRp686
(dp687
g66
(dp688
sg75
g673
sg68
(lp689
g61
(g62
g63
NtRp690
(dp691
g66
(dp692
g74
I4
ssg75
g686
sg68
(lp693
S"<Values at 0x3d05fa8: {'verbose': False, 'ip': '127.0.0.1', 'shutdown_timeout': 5, 'taskbar': False, 'nocron': False, 'pid_filename': 'httpserver.pid', 'maxthreads': None, 'softcron': False, 'server_name': 'Batou', 'bpython': False, 'nogui': False, 'port': 8000, 'extcron': False, 'debuglevel': 30, 'test': None, 'folder': 'C:\\\\Users\\\\Bussiere\\\\Dropbox\\\\Projets\\\\jackpoint\\\\web2py', 'config': '', 'import_models': False, 'winservice': '', 'shell': None, 'run': '', 'log_filename': 'httpserver.log', 'args': [''], 'socket_timeout': 5, 'ssl_ca_certificate': None, 'scheduler': None, 'profiler_filename': None, 'ssl_private_key': '', 'password': '<ask>', 'request_queue_size': 5, 'ssl_certificate': '', 'cronjob': False, 'numthreads': None, 'quiet': False, 'interfaces': None, 'minthreads': None, 'timeout': 10, 'plain': False, 'nobanner': False}>"
p694
asbasbasbag61
(g77
g63
NtRp695
(dp696
g66
(dp697
sg75
g600
sg68
(lp698
g61
(g82
g63
NtRp699
(dp700
g66
(dp701
g86
g87
ssg75
g695
sg68
(lp702
S'db_sessions'
p703
asbag61
(g82
g63
NtRp704
(dp705
g66
(dp706
g93
g94
ssg75
g695
sg68
(lp707
S':'
asbag61
(g82
g63
NtRp708
(dp709
g66
(dp710
sg75
g695
sg68
(lp711
g61
(g62
g63
NtRp712
(dp713
g66
(dp714
g74
I4
ssg75
g708
sg68
(lp715
S"set(['init'])"
p716
asbasbasbag61
(g77
g63
NtRp717
(dp718
g66
(dp719
sg75
g600
sg68
(lp720
g61
(g82
g63
NtRp721
(dp722
g66
(dp723
g86
g87
ssg75
g717
sg68
(lp724
S'debugging'
p725
asbag61
(g82
g63
NtRp726
(dp727
g66
(dp728
g93
g94
ssg75
g717
sg68
(lp729
S':'
asbag61
(g82
g63
NtRp730
(dp731
g66
(dp732
sg75
g717
sg68
(lp733
g61
(g62
g63
NtRp734
(dp735
g66
(dp736
g74
I4
ssg75
g730
sg68
(lp737
S'True'
p738
asbasbasbag61
(g77
g63
NtRp739
(dp740
g66
(dp741
sg75
g600
sg68
(lp742
g61
(g82
g63
NtRp743
(dp744
g66
(dp745
g86
g87
ssg75
g739
sg68
(lp746
S'gluon_parent'
p747
asbag61
(g82
g63
NtRp748
(dp749
g66
(dp750
g93
g94
ssg75
g739
sg68
(lp751
S':'
asbag61
(g82
g63
NtRp752
(dp753
g66
(dp754
sg75
g739
sg68
(lp755
g61
(g62
g63
NtRp756
(dp757
g66
(dp758
g74
I4
ssg75
g752
sg68
(lp759
S'C:\\Users\\Bussiere\\Dropbox\\Projets\\jackpoint\\web2py'
p760
asbasbasbag61
(g77
g63
NtRp761
(dp762
g66
(dp763
sg75
g600
sg68
(lp764
g61
(g82
g63
NtRp765
(dp766
g66
(dp767
g86
g87
ssg75
g761
sg68
(lp768
S'http_accept'
p769
asbag61
(g82
g63
NtRp770
(dp771
g66
(dp772
g93
g94
ssg75
g761
sg68
(lp773
S':'
asbag61
(g82
g63
NtRp774
(dp775
g66
(dp776
sg75
g761
sg68
(lp777
g61
(g62
g63
NtRp778
(dp779
g66
(dp780
g74
I4
ssg75
g774
sg68
(lp781
S'text/html,application/xhtml+xml,application/xml;q=0.9,*/*;q=0.8'
p782
asbasbasbag61
(g77
g63
NtRp783
(dp784
g66
(dp785
sg75
g600
sg68
(lp786
g61
(g82
g63
NtRp787
(dp788
g66
(dp789
g86
g87
ssg75
g783
sg68
(lp790
S'http_accept_charset'
p791
asbag61
(g82
g63
NtRp792
(dp793
g66
(dp794
g93
g94
ssg75
g783
sg68
(lp795
S':'
asbag61
(g82
g63
NtRp796
(dp797
g66
(dp798
sg75
g783
sg68
(lp799
g61
(g62
g63
NtRp800
(dp801
g66
(dp802
g74
I4
ssg75
g796
sg68
(lp803
S'ISO-8859-1,utf-8;q=0.7,*;q=0.3'
p804
asbasbasbag61
(g77
g63
NtRp805
(dp806
g66
(dp807
sg75
g600
sg68
(lp808
g61
(g82
g63
NtRp809
(dp810
g66
(dp811
g86
g87
ssg75
g805
sg68
(lp812
S'http_accept_encoding'
p813
asbag61
(g82
g63
NtRp814
(dp815
g66
(dp816
g93
g94
ssg75
g805
sg68
(lp817
S':'
asbag61
(g82
g63
NtRp818
(dp819
g66
(dp820
sg75
g805
sg68
(lp821
g61
(g62
g63
NtRp822
(dp823
g66
(dp824
g74
I4
ssg75
g818
sg68
(lp825
S'gzip,deflate,sdch'
p826
asbasbasbag61
(g77
g63
NtRp827
(dp828
g66
(dp829
sg75
g600
sg68
(lp830
g61
(g82
g63
NtRp831
(dp832
g66
(dp833
g86
g87
ssg75
g827
sg68
(lp834
S'http_accept_language'
p835
asbag61
(g82
g63
NtRp836
(dp837
g66
(dp838
g93
g94
ssg75
g827
sg68
(lp839
S':'
asbag61
(g82
g63
NtRp840
(dp841
g66
(dp842
sg75
g827
sg68
(lp843
g61
(g62
g63
NtRp844
(dp845
g66
(dp846
g74
I4
ssg75
g840
sg68
(lp847
S'en-US,en;q=0.8'
p848
asbasbasbag61
(g77
g63
NtRp849
(dp850
g66
(dp851
sg75
g600
sg68
(lp852
g61
(g82
g63
NtRp853
(dp854
g66
(dp855
g86
g87
ssg75
g849
sg68
(lp856
S'http_connection'
p857
asbag61
(g82
g63
NtRp858
(dp859
g66
(dp860
g93
g94
ssg75
g849
sg68
(lp861
S':'
asbag61
(g82
g63
NtRp862
(dp863
g66
(dp864
sg75
g849
sg68
(lp865
g61
(g62
g63
NtRp866
(dp867
g66
(dp868
g74
I4
ssg75
g862
sg68
(lp869
S'keep-alive'
p870
asbasbasbag61
(g77
g63
NtRp871
(dp872
g66
(dp873
sg75
g600
sg68
(lp874
g61
(g82
g63
NtRp875
(dp876
g66
(dp877
g86
g87
ssg75
g871
sg68
(lp878
S'http_cookie'
p879
asbag61
(g82
g63
NtRp880
(dp881
g66
(dp882
g93
g94
ssg75
g871
sg68
(lp883
S':'
asbag61
(g82
g63
NtRp884
(dp885
g66
(dp886
sg75
g871
sg68
(lp887
g61
(g62
g63
NtRp888
(dp889
g66
(dp890
g74
I4
ssg75
g884
sg68
(lp891
S'session_id_admin=127.0.0.1-ef1efee3-8167-417c-be29-8fab20d01170; session_id_init="8:303b90d0-4df0-4998-abab-29c5eedacdd3"'
p892
asbasbasbag61
(g77
g63
NtRp893
(dp894
g66
(dp895
sg75
g600
sg68
(lp896
g61
(g82
g63
NtRp897
(dp898
g66
(dp899
g86
g87
ssg75
g893
sg68
(lp900
S'http_host'
p901
asbag61
(g82
g63
NtRp902
(dp903
g66
(dp904
g93
g94
ssg75
g893
sg68
(lp905
S':'
asbag61
(g82
g63
NtRp906
(dp907
g66
(dp908
sg75
g893
sg68
(lp909
g61
(g62
g63
NtRp910
(dp911
g66
(dp912
g74
I4
ssg75
g906
sg68
(lp913
S'127.0.0.1:8000'
p914
asbasbasbag61
(g77
g63
NtRp915
(dp916
g66
(dp917
sg75
g600
sg68
(lp918
g61
(g82
g63
NtRp919
(dp920
g66
(dp921
g86
g87
ssg75
g915
sg68
(lp922
S'http_user_agent'
p923
asbag61
(g82
g63
NtRp924
(dp925
g66
(dp926
g93
g94
ssg75
g915
sg68
(lp927
S':'
asbag61
(g82
g63
NtRp928
(dp929
g66
(dp930
sg75
g915
sg68
(lp931
g61
(g62
g63
NtRp932
(dp933
g66
(dp934
g74
I4
ssg75
g928
sg68
(lp935
S'Mozilla/5.0 (Windows NT 6.1; WOW64) AppleWebKit/535.18 (KHTML, like Gecko) Chrome/18.0.1011.0 Safari/535.18'
p936
asbasbasbag61
(g77
g63
NtRp937
(dp938
g66
(dp939
sg75
g600
sg68
(lp940
g61
(g82
g63
NtRp941
(dp942
g66
(dp943
g86
g87
ssg75
g937
sg68
(lp944
S'is_jython'
p945
asbag61
(g82
g63
NtRp946
(dp947
g66
(dp948
g93
g94
ssg75
g937
sg68
(lp949
S':'
asbag61
(g82
g63
NtRp950
(dp951
g66
(dp952
sg75
g937
sg68
(lp953
g61
(g62
g63
NtRp954
(dp955
g66
(dp956
g74
I4
ssg75
g950
sg68
(lp957
g104
asbasbasbag61
(g77
g63
NtRp958
(dp959
g66
(dp960
sg75
g600
sg68
(lp961
g61
(g82
g63
NtRp962
(dp963
g66
(dp964
g86
g87
ssg75
g958
sg68
(lp965
S'is_pypy'
p966
asbag61
(g82
g63
NtRp967
(dp968
g66
(dp969
g93
g94
ssg75
g958
sg68
(lp970
S':'
asbag61
(g82
g63
NtRp971
(dp972
g66
(dp973
sg75
g958
sg68
(lp974
g61
(g62
g63
NtRp975
(dp976
g66
(dp977
g74
I4
ssg75
g971
sg68
(lp978
g104
asbasbasbag61
(g77
g63
NtRp979
(dp980
g66
(dp981
sg75
g600
sg68
(lp982
g61
(g82
g63
NtRp983
(dp984
g66
(dp985
g86
g87
ssg75
g979
sg68
(lp986
S'path_info'
p987
asbag61
(g82
g63
NtRp988
(dp989
g66
(dp990
g93
g94
ssg75
g979
sg68
(lp991
S':'
asbag61
(g82
g63
NtRp992
(dp993
g66
(dp994
sg75
g979
sg68
(lp995
g61
(g62
g63
NtRp996
(dp997
g66
(dp998
g74
I4
ssg75
g992
sg68
(lp999
S'/init/default/liste_invitations'
p1000
asbasbasbag61
(g77
g63
NtRp1001
(dp1002
g66
(dp1003
sg75
g600
sg68
(lp1004
g61
(g82
g63
NtRp1005
(dp1006
g66
(dp1007
g86
g87
ssg75
g1001
sg68
(lp1008
S'query_string'
p1009
asbag61
(g82
g63
NtRp1010
(dp1011
g66
(dp1012
g93
g94
ssg75
g1001
sg68
(lp1013
S':'
asbag61
(g82
g63
NtRp1014
(dp1015
g66
(dp1016
sg75
g1001
sg68
(lp1017
g61
(g62
g63
NtRp1018
(dp1019
g66
(dp1020
g74
I4
ssg75
g1014
sg68
(lp1021
S''
asbasbasbag61
(g77
g63
NtRp1022
(dp1023
g66
(dp1024
sg75
g600
sg68
(lp1025
g61
(g82
g63
NtRp1026
(dp1027
g66
(dp1028
g86
g87
ssg75
g1022
sg68
(lp1029
S'remote_addr'
p1030
asbag61
(g82
g63
NtRp1031
(dp1032
g66
(dp1033
g93
g94
ssg75
g1022
sg68
(lp1034
S':'
asbag61
(g82
g63
NtRp1035
(dp1036
g66
(dp1037
sg75
g1022
sg68
(lp1038
g61
(g62
g63
NtRp1039
(dp1040
g66
(dp1041
g74
I4
ssg75
g1035
sg68
(lp1042
g194
asbasbasbag61
(g77
g63
NtRp1043
(dp1044
g66
(dp1045
sg75
g600
sg68
(lp1046
g61
(g82
g63
NtRp1047
(dp1048
g66
(dp1049
g86
g87
ssg75
g1043
sg68
(lp1050
S'remote_port'
p1051
asbag61
(g82
g63
NtRp1052
(dp1053
g66
(dp1054
g93
g94
ssg75
g1043
sg68
(lp1055
S':'
asbag61
(g82
g63
NtRp1056
(dp1057
g66
(dp1058
sg75
g1043
sg68
(lp1059
g61
(g62
g63
NtRp1060
(dp1061
g66
(dp1062
g74
I4
ssg75
g1056
sg68
(lp1063
S'55140'
p1064
asbasbasbag61
(g77
g63
NtRp1065
(dp1066
g66
(dp1067
sg75
g600
sg68
(lp1068
g61
(g82
g63
NtRp1069
(dp1070
g66
(dp1071
g86
g87
ssg75
g1065
sg68
(lp1072
S'request_method'
p1073
asbag61
(g82
g63
NtRp1074
(dp1075
g66
(dp1076
g93
g94
ssg75
g1065
sg68
(lp1077
S':'
asbag61
(g82
g63
NtRp1078
(dp1079
g66
(dp1080
sg75
g1065
sg68
(lp1081
g61
(g62
g63
NtRp1082
(dp1083
g66
(dp1084
g74
I4
ssg75
g1078
sg68
(lp1085
S'GET'
p1086
asbasbasbag61
(g77
g63
NtRp1087
(dp1088
g66
(dp1089
sg75
g600
sg68
(lp1090
g61
(g82
g63
NtRp1091
(dp1092
g66
(dp1093
g86
g87
ssg75
g1087
sg68
(lp1094
S'script_name'
p1095
asbag61
(g82
g63
NtRp1096
(dp1097
g66
(dp1098
g93
g94
ssg75
g1087
sg68
(lp1099
S':'
asbag61
(g82
g63
NtRp1100
(dp1101
g66
(dp1102
sg75
g1087
sg68
(lp1103
g61
(g62
g63
NtRp1104
(dp1105
g66
(dp1106
g74
I4
ssg75
g1100
sg68
(lp1107
S''
asbasbasbag61
(g77
g63
NtRp1108
(dp1109
g66
(dp1110
sg75
g600
sg68
(lp1111
g61
(g82
g63
NtRp1112
(dp1113
g66
(dp1114
g86
g87
ssg75
g1108
sg68
(lp1115
S'server_name'
p1116
asbag61
(g82
g63
NtRp1117
(dp1118
g66
(dp1119
g93
g94
ssg75
g1108
sg68
(lp1120
S':'
asbag61
(g82
g63
NtRp1121
(dp1122
g66
(dp1123
sg75
g1108
sg68
(lp1124
g61
(g62
g63
NtRp1125
(dp1126
g66
(dp1127
g74
I4
ssg75
g1121
sg68
(lp1128
S'Batou'
p1129
asbasbasbag61
(g77
g63
NtRp1130
(dp1131
g66
(dp1132
sg75
g600
sg68
(lp1133
g61
(g82
g63
NtRp1134
(dp1135
g66
(dp1136
g86
g87
ssg75
g1130
sg68
(lp1137
S'server_port'
p1138
asbag61
(g82
g63
NtRp1139
(dp1140
g66
(dp1141
g93
g94
ssg75
g1130
sg68
(lp1142
S':'
asbag61
(g82
g63
NtRp1143
(dp1144
g66
(dp1145
sg75
g1130
sg68
(lp1146
g61
(g62
g63
NtRp1147
(dp1148
g66
(dp1149
g74
I4
ssg75
g1143
sg68
(lp1150
S'8000'
p1151
asbasbasbag61
(g77
g63
NtRp1152
(dp1153
g66
(dp1154
sg75
g600
sg68
(lp1155
g61
(g82
g63
NtRp1156
(dp1157
g66
(dp1158
g86
g87
ssg75
g1152
sg68
(lp1159
S'server_protocol'
p1160
asbag61
(g82
g63
NtRp1161
(dp1162
g66
(dp1163
g93
g94
ssg75
g1152
sg68
(lp1164
S':'
asbag61
(g82
g63
NtRp1165
(dp1166
g66
(dp1167
sg75
g1152
sg68
(lp1168
g61
(g62
g63
NtRp1169
(dp1170
g66
(dp1171
g74
I4
ssg75
g1165
sg68
(lp1172
S'HTTP/1.1'
p1173
asbasbasbag61
(g77
g63
NtRp1174
(dp1175
g66
(dp1176
sg75
g600
sg68
(lp1177
g61
(g82
g63
NtRp1178
(dp1179
g66
(dp1180
g86
g87
ssg75
g1174
sg68
(lp1181
S'server_software'
p1182
asbag61
(g82
g63
NtRp1183
(dp1184
g66
(dp1185
g93
g94
ssg75
g1174
sg68
(lp1186
S':'
asbag61
(g82
g63
NtRp1187
(dp1188
g66
(dp1189
sg75
g1174
sg68
(lp1190
g61
(g62
g63
NtRp1191
(dp1192
g66
(dp1193
g74
I4
ssg75
g1187
sg68
(lp1194
S'Rocket 1.2.4'
p1195
asbasbasbag61
(g77
g63
NtRp1196
(dp1197
g66
(dp1198
sg75
g600
sg68
(lp1199
g61
(g82
g63
NtRp1200
(dp1201
g66
(dp1202
g86
g87
ssg75
g1196
sg68
(lp1203
S'web2py_crontype'
p1204
asbag61
(g82
g63
NtRp1205
(dp1206
g66
(dp1207
g93
g94
ssg75
g1196
sg68
(lp1208
S':'
asbag61
(g82
g63
NtRp1209
(dp1210
g66
(dp1211
sg75
g1196
sg68
(lp1212
g61
(g62
g63
NtRp1213
(dp1214
g66
(dp1215
g74
I4
ssg75
g1209
sg68
(lp1216
S'hard'
p1217
asbasbasbag61
(g77
g63
NtRp1218
(dp1219
g66
(dp1220
sg75
g600
sg68
(lp1221
g61
(g82
g63
NtRp1222
(dp1223
g66
(dp1224
g86
g87
ssg75
g1218
sg68
(lp1225
S'web2py_path'
p1226
asbag61
(g82
g63
NtRp1227
(dp1228
g66
(dp1229
g93
g94
ssg75
g1218
sg68
(lp1230
S':'
asbag61
(g82
g63
NtRp1231
(dp1232
g66
(dp1233
sg75
g1218
sg68
(lp1234
g61
(g62
g63
NtRp1235
(dp1236
g66
(dp1237
g74
I4
ssg75
g1231
sg68
(lp1238
g647
asbasbasbag61
(g77
g63
NtRp1239
(dp1240
g66
(dp1241
sg75
g600
sg68
(lp1242
g61
(g82
g63
NtRp1243
(dp1244
g66
(dp1245
g86
g87
ssg75
g1239
sg68
(lp1246
S'web2py_version'
p1247
asbag61
(g82
g63
NtRp1248
(dp1249
g66
(dp1250
g93
g94
ssg75
g1239
sg68
(lp1251
S':'
asbag61
(g82
g63
NtRp1252
(dp1253
g66
(dp1254
sg75
g1239
sg68
(lp1255
g61
(g62
g63
NtRp1256
(dp1257
g66
(dp1258
g74
I4
ssg75
g1252
sg68
(lp1259
g61
(g70
g63
NtRp1260
(dp1261
g66
(dp1262
g74
I3
ssg75
Nsg68
(lp1263
g61
(g77
g63
NtRp1264
(dp1265
g66
(dp1266
sg75
g1260
sg68
(lp1267
g61
(g82
g63
NtRp1268
(dp1269
g66
(dp1270
sg75
g1264
sg68
(lp1271
g61
(g62
g63
NtRp1272
(dp1273
g66
(dp1274
g74
I3
ssg75
g1268
sg68
(lp1275
S'1'
asbasbasbag61
(g77
g63
NtRp1276
(dp1277
g66
(dp1278
sg75
g1260
sg68
(lp1279
g61
(g82
g63
NtRp1280
(dp1281
g66
(dp1282
sg75
g1276
sg68
(lp1283
g61
(g62
g63
NtRp1284
(dp1285
g66
(dp1286
g74
I3
ssg75
g1280
sg68
(lp1287
S'99'
p1288
asbasbasbag61
(g77
g63
NtRp1289
(dp1290
g66
(dp1291
sg75
g1260
sg68
(lp1292
g61
(g82
g63
NtRp1293
(dp1294
g66
(dp1295
sg75
g1289
sg68
(lp1296
g61
(g62
g63
NtRp1297
(dp1298
g66
(dp1299
g74
I3
ssg75
g1293
sg68
(lp1300
S'7'
asbasbasbag61
(g77
g63
NtRp1301
(dp1302
g66
(dp1303
sg75
g1260
sg68
(lp1304
g61
(g82
g63
NtRp1305
(dp1306
g66
(dp1307
sg75
g1301
sg68
(lp1308
g61
(g62
g63
NtRp1309
(dp1310
g66
(dp1311
g74
I3
ssg75
g1305
sg68
(lp1312
S'datetime.datetime(2012, 3, 4, 22, 12, 8)'
p1313
asbasbasbag61
(g77
g63
NtRp1314
(dp1315
g66
(dp1316
sg75
g1260
sg68
(lp1317
g61
(g82
g63
NtRp1318
(dp1319
g66
(dp1320
sg75
g1314
sg68
(lp1321
g61
(g62
g63
NtRp1322
(dp1323
g66
(dp1324
g74
I3
ssg75
g1318
sg68
(lp1325
S'stable'
p1326
asbasbasbasbasbasbasbag61
(g77
g63
NtRp1327
(dp1328
g66
(dp1329
sg75
g600
sg68
(lp1330
g61
(g82
g63
NtRp1331
(dp1332
g66
(dp1333
g86
g87
ssg75
g1327
sg68
(lp1334
S'wsgi_errors'
p1335
asbag61
(g82
g63
NtRp1336
(dp1337
g66
(dp1338
g93
g94
ssg75
g1327
sg68
(lp1339
S':'
asbag61
(g82
g63
NtRp1340
(dp1341
g66
(dp1342
sg75
g1327
sg68
(lp1343
g61
(g62
g63
NtRp1344
(dp1345
g66
(dp1346
g74
I4
ssg75
g1340
sg68
(lp1347
S"<open file '<stderr>', mode 'w' at 0x021D00B0>"
p1348
asbasbasbag61
(g77
g63
NtRp1349
(dp1350
g66
(dp1351
sg75
g600
sg68
(lp1352
g61
(g82
g63
NtRp1353
(dp1354
g66
(dp1355
g86
g87
ssg75
g1349
sg68
(lp1356
S'wsgi_file_wrapper'
p1357
asbag61
(g82
g63
NtRp1358
(dp1359
g66
(dp1360
g93
g94
ssg75
g1349
sg68
(lp1361
S':'
asbag61
(g82
g63
NtRp1362
(dp1363
g66
(dp1364
sg75
g1349
sg68
(lp1365
g61
(g62
g63
NtRp1366
(dp1367
g66
(dp1368
g74
I4
ssg75
g1362
sg68
(lp1369
S'<class wsgiref.util.FileWrapper at 0x02D66900>'
p1370
asbasbasbag61
(g77
g63
NtRp1371
(dp1372
g66
(dp1373
sg75
g600
sg68
(lp1374
g61
(g82
g63
NtRp1375
(dp1376
g66
(dp1377
g86
g87
ssg75
g1371
sg68
(lp1378
S'wsgi_input'
p1379
asbag61
(g82
g63
NtRp1380
(dp1381
g66
(dp1382
g93
g94
ssg75
g1371
sg68
(lp1383
S':'
asbag61
(g82
g63
NtRp1384
(dp1385
g66
(dp1386
sg75
g1371
sg68
(lp1387
g61
(g62
g63
NtRp1388
(dp1389
g66
(dp1390
g74
I4
ssg75
g1384
sg68
(lp1391
S'<socket._fileobject object at 0x044956B0>'
p1392
asbasbasbag61
(g77
g63
NtRp1393
(dp1394
g66
(dp1395
sg75
g600
sg68
(lp1396
g61
(g82
g63
NtRp1397
(dp1398
g66
(dp1399
g86
g87
ssg75
g1393
sg68
(lp1400
S'wsgi_multiprocess'
p1401
asbag61
(g82
g63
NtRp1402
(dp1403
g66
(dp1404
g93
g94
ssg75
g1393
sg68
(lp1405
S':'
asbag61
(g82
g63
NtRp1406
(dp1407
g66
(dp1408
sg75
g1393
sg68
(lp1409
g61
(g62
g63
NtRp1410
(dp1411
g66
(dp1412
g74
I4
ssg75
g1406
sg68
(lp1413
g104
asbasbasbag61
(g77
g63
NtRp1414
(dp1415
g66
(dp1416
sg75
g600
sg68
(lp1417
g61
(g82
g63
NtRp1418
(dp1419
g66
(dp1420
g86
g87
ssg75
g1414
sg68
(lp1421
S'wsgi_multithread'
p1422
asbag61
(g82
g63
NtRp1423
(dp1424
g66
(dp1425
g93
g94
ssg75
g1414
sg68
(lp1426
S':'
asbag61
(g82
g63
NtRp1427
(dp1428
g66
(dp1429
sg75
g1414
sg68
(lp1430
g61
(g62
g63
NtRp1431
(dp1432
g66
(dp1433
g74
I4
ssg75
g1427
sg68
(lp1434
g738
asbasbasbag61
(g77
g63
NtRp1435
(dp1436
g66
(dp1437
sg75
g600
sg68
(lp1438
g61
(g82
g63
NtRp1439
(dp1440
g66
(dp1441
g86
g87
ssg75
g1435
sg68
(lp1442
S'wsgi_run_once'
p1443
asbag61
(g82
g63
NtRp1444
(dp1445
g66
(dp1446
g93
g94
ssg75
g1435
sg68
(lp1447
S':'
asbag61
(g82
g63
NtRp1448
(dp1449
g66
(dp1450
sg75
g1435
sg68
(lp1451
g61
(g62
g63
NtRp1452
(dp1453
g66
(dp1454
g74
I4
ssg75
g1448
sg68
(lp1455
g104
asbasbasbag61
(g77
g63
NtRp1456
(dp1457
g66
(dp1458
sg75
g600
sg68
(lp1459
g61
(g82
g63
NtRp1460
(dp1461
g66
(dp1462
g86
g87
ssg75
g1456
sg68
(lp1463
S'wsgi_url_scheme'
p1464
asbag61
(g82
g63
NtRp1465
(dp1466
g66
(dp1467
g93
g94
ssg75
g1456
sg68
(lp1468
S':'
asbag61
(g82
g63
NtRp1469
(dp1470
g66
(dp1471
sg75
g1456
sg68
(lp1472
g61
(g62
g63
NtRp1473
(dp1474
g66
(dp1475
g74
I4
ssg75
g1469
sg68
(lp1476
S'http'
p1477
asbasbasbag61
(g77
g63
NtRp1478
(dp1479
g66
(dp1480
sg75
g600
sg68
(lp1481
g61
(g82
g63
NtRp1482
(dp1483
g66
(dp1484
g86
g87
ssg75
g1478
sg68
(lp1485
S'wsgi_version'
p1486
asbag61
(g82
g63
NtRp1487
(dp1488
g66
(dp1489
g93
g94
ssg75
g1478
sg68
(lp1490
S':'
asbag61
(g82
g63
NtRp1491
(dp1492
g66
(dp1493
sg75
g1478
sg68
(lp1494
g61
(g62
g63
NtRp1495
(dp1496
g66
(dp1497
g74
I4
ssg75
g1491
sg68
(lp1498
g61
(g70
g63
NtRp1499
(dp1500
g66
(dp1501
g74
I3
ssg75
Nsg68
(lp1502
g61
(g77
g63
NtRp1503
(dp1504
g66
(dp1505
sg75
g1499
sg68
(lp1506
g61
(g82
g63
NtRp1507
(dp1508
g66
(dp1509
sg75
g1503
sg68
(lp1510
g61
(g62
g63
NtRp1511
(dp1512
g66
(dp1513
g74
I3
ssg75
g1507
sg68
(lp1514
S'1'
asbasbasbag61
(g77
g63
NtRp1515
(dp1516
g66
(dp1517
sg75
g1499
sg68
(lp1518
g61
(g82
g63
NtRp1519
(dp1520
g66
(dp1521
sg75
g1515
sg68
(lp1522
g61
(g62
g63
NtRp1523
(dp1524
g66
(dp1525
g74
I3
ssg75
g1519
sg68
(lp1526
S'0'
asbasbasbasbasbasbasbasbasbasbasbag61
(g77
g63
NtRp1527
(dp1528
g66
(dp1529
sg75
g71
sg68
(lp1530
g61
(g82
g63
NtRp1531
(dp1532
g66
(dp1533
g86
g87
ssg75
g1527
sg68
(lp1534
S'extension'
p1535
asbag61
(g82
g63
NtRp1536
(dp1537
g66
(dp1538
g93
g94
ssg75
g1527
sg68
(lp1539
S':'
asbag61
(g82
g63
NtRp1540
(dp1541
g66
(dp1542
sg75
g1527
sg68
(lp1543
g61
(g62
g63
NtRp1544
(dp1545
g66
(dp1546
g74
I5
ssg75
g1540
sg68
(lp1547
S'html'
p1548
asbasbasbag61
(g77
g63
NtRp1549
(dp1550
g66
(dp1551
sg75
g71
sg68
(lp1552
g61
(g82
g63
NtRp1553
(dp1554
g66
(dp1555
g86
g87
ssg75
g1549
sg68
(lp1556
S'folder'
p1557
asbag61
(g82
g63
NtRp1558
(dp1559
g66
(dp1560
g93
g94
ssg75
g1549
sg68
(lp1561
S':'
asbag61
(g82
g63
NtRp1562
(dp1563
g66
(dp1564
sg75
g1549
sg68
(lp1565
g61
(g62
g63
NtRp1566
(dp1567
g66
(dp1568
g74
I5
ssg75
g1562
sg68
(lp1569
S'C:\\Users\\Bussiere\\Dropbox\\Projets\\jackpoint\\web2py\\applications\\init\\'
p1570
asbasbasbag61
(g77
g63
NtRp1571
(dp1572
g66
(dp1573
sg75
g71
sg68
(lp1574
g61
(g82
g63
NtRp1575
(dp1576
g66
(dp1577
g86
g87
ssg75
g1571
sg68
(lp1578
S'function'
p1579
asbag61
(g82
g63
NtRp1580
(dp1581
g66
(dp1582
g93
g94
ssg75
g1571
sg68
(lp1583
S':'
asbag61
(g82
g63
NtRp1584
(dp1585
g66
(dp1586
sg75
g1571
sg68
(lp1587
g61
(g62
g63
NtRp1588
(dp1589
g66
(dp1590
g74
I5
ssg75
g1584
sg68
(lp1591
S'liste_invitations'
p1592
asbasbasbag61
(g77
g63
NtRp1593
(dp1594
g66
(dp1595
sg75
g71
sg68
(lp1596
g61
(g82
g63
NtRp1597
(dp1598
g66
(dp1599
g86
g87
ssg75
g1593
sg68
(lp1600
S'get_vars'
p1601
asbag61
(g82
g63
NtRp1602
(dp1603
g66
(dp1604
g93
g94
ssg75
g1593
sg68
(lp1605
S':'
asbag61
(g82
g63
NtRp1606
(dp1607
g66
(dp1608
sg75
g1593
sg68
(lp1609
g61
(g62
g63
NtRp1610
(dp1611
g66
(dp1612
g74
I5
ssg75
g1606
sg68
(lp1613
g61
(g70
g63
NtRp1614
(dp1615
g66
(dp1616
g74
I4
ssg75
Nsg68
(lp1617
sbasbasbasbag61
(g77
g63
NtRp1618
(dp1619
g66
(dp1620
sg75
g71
sg68
(lp1621
g61
(g82
g63
NtRp1622
(dp1623
g66
(dp1624
g86
g87
ssg75
g1618
sg68
(lp1625
S'global_settings'
p1626
asbag61
(g82
g63
NtRp1627
(dp1628
g66
(dp1629
g93
g94
ssg75
g1618
sg68
(lp1630
S':'
asbag61
(g82
g63
NtRp1631
(dp1632
g66
(dp1633
sg75
g1618
sg68
(lp1634
g61
(g62
g63
NtRp1635
(dp1636
g66
(dp1637
g74
I5
ssg75
g1631
sg68
(lp1638
g61
(g70
g63
NtRp1639
(dp1640
g66
(dp1641
g74
I4
ssg75
Nsg68
(lp1642
g61
(g77
g63
NtRp1643
(dp1644
g66
(dp1645
sg75
g1639
sg68
(lp1646
g61
(g82
g63
NtRp1647
(dp1648
g66
(dp1649
g86
g87
ssg75
g1643
sg68
(lp1650
g612
asbag61
(g82
g63
NtRp1651
(dp1652
g66
(dp1653
g93
g94
ssg75
g1643
sg68
(lp1654
S':'
asbag61
(g82
g63
NtRp1655
(dp1656
g66
(dp1657
sg75
g1643
sg68
(lp1658
g61
(g62
g63
NtRp1659
(dp1660
g66
(dp1661
g74
I4
ssg75
g1655
sg68
(lp1662
S"set(['C:\\\\Users\\\\Bussiere\\\\Dropbox\\\\Projets\\\\jackpoint\\\\web2py\\\\applications\\\\init\\\\', 'C:\\\\Users\\\\Bussiere\\\\Dropbox\\\\Projets\\\\jackpoint\\\\web2py\\\\applications\\\\admin\\\\'])"
p1663
asbasbasbag61
(g77
g63
NtRp1664
(dp1665
g66
(dp1666
sg75
g1639
sg68
(lp1667
g61
(g82
g63
NtRp1668
(dp1669
g66
(dp1670
g86
g87
ssg75
g1664
sg68
(lp1671
g634
asbag61
(g82
g63
NtRp1672
(dp1673
g66
(dp1674
g93
g94
ssg75
g1664
sg68
(lp1675
S':'
asbag61
(g82
g63
NtRp1676
(dp1677
g66
(dp1678
sg75
g1664
sg68
(lp1679
g61
(g62
g63
NtRp1680
(dp1681
g66
(dp1682
g74
I4
ssg75
g1676
sg68
(lp1683
g647
asbasbasbag61
(g77
g63
NtRp1684
(dp1685
g66
(dp1686
sg75
g1639
sg68
(lp1687
g61
(g82
g63
NtRp1688
(dp1689
g66
(dp1690
g86
g87
ssg75
g1684
sg68
(lp1691
g656
asbag61
(g82
g63
NtRp1692
(dp1693
g66
(dp1694
g93
g94
ssg75
g1684
sg68
(lp1695
S':'
asbag61
(g82
g63
NtRp1696
(dp1697
g66
(dp1698
sg75
g1684
sg68
(lp1699
g61
(g62
g63
NtRp1700
(dp1701
g66
(dp1702
g74
I4
ssg75
g1696
sg68
(lp1703
g61
(g70
g63
NtRp1704
(dp1705
g66
(dp1706
g74
I3
ssg75
Nsg68
(lp1707
sbasbasbasbag61
(g77
g63
NtRp1708
(dp1709
g66
(dp1710
sg75
g1639
sg68
(lp1711
g61
(g82
g63
NtRp1712
(dp1713
g66
(dp1714
g86
g87
ssg75
g1708
sg68
(lp1715
g681
asbag61
(g82
g63
NtRp1716
(dp1717
g66
(dp1718
g93
g94
ssg75
g1708
sg68
(lp1719
S':'
asbag61
(g82
g63
NtRp1720
(dp1721
g66
(dp1722
sg75
g1708
sg68
(lp1723
g61
(g62
g63
NtRp1724
(dp1725
g66
(dp1726
g74
I4
ssg75
g1720
sg68
(lp1727
S"<Values at 0x3d05fa8: {'verbose': False, 'ip': '127.0.0.1', 'shutdown_timeout': 5, 'taskbar': False, 'nocron': False, 'pid_filename': 'httpserver.pid', 'maxthreads': None, 'softcron': False, 'server_name': 'Batou', 'bpython': False, 'nogui': False, 'port': 8000, 'extcron': False, 'debuglevel': 30, 'test': None, 'folder': 'C:\\\\Users\\\\Bussiere\\\\Dropbox\\\\Projets\\\\jackpoint\\\\web2py', 'config': '', 'import_models': False, 'winservice': '', 'shell': None, 'run': '', 'log_filename': 'httpserver.log', 'args': [''], 'socket_timeout': 5, 'ssl_ca_certificate': None, 'scheduler': None, 'profiler_filename': None, 'ssl_private_key': '', 'password': '<ask>', 'request_queue_size': 5, 'ssl_certificate': '', 'cronjob': False, 'numthreads': None, 'quiet': False, 'interfaces': None, 'minthreads': None, 'timeout': 10, 'plain': False, 'nobanner': False}>"
p1728
asbasbasbag61
(g77
g63
NtRp1729
(dp1730
g66
(dp1731
sg75
g1639
sg68
(lp1732
g61
(g82
g63
NtRp1733
(dp1734
g66
(dp1735
g86
g87
ssg75
g1729
sg68
(lp1736
g703
asbag61
(g82
g63
NtRp1737
(dp1738
g66
(dp1739
g93
g94
ssg75
g1729
sg68
(lp1740
S':'
asbag61
(g82
g63
NtRp1741
(dp1742
g66
(dp1743
sg75
g1729
sg68
(lp1744
g61
(g62
g63
NtRp1745
(dp1746
g66
(dp1747
g74
I4
ssg75
g1741
sg68
(lp1748
S"set(['init'])"
p1749
asbasbasbag61
(g77
g63
NtRp1750
(dp1751
g66
(dp1752
sg75
g1639
sg68
(lp1753
g61
(g82
g63
NtRp1754
(dp1755
g66
(dp1756
g86
g87
ssg75
g1750
sg68
(lp1757
g725
asbag61
(g82
g63
NtRp1758
(dp1759
g66
(dp1760
g93
g94
ssg75
g1750
sg68
(lp1761
S':'
asbag61
(g82
g63
NtRp1762
(dp1763
g66
(dp1764
sg75
g1750
sg68
(lp1765
g61
(g62
g63
NtRp1766
(dp1767
g66
(dp1768
g74
I4
ssg75
g1762
sg68
(lp1769
g738
asbasbasbag61
(g77
g63
NtRp1770
(dp1771
g66
(dp1772
sg75
g1639
sg68
(lp1773
g61
(g82
g63
NtRp1774
(dp1775
g66
(dp1776
g86
g87
ssg75
g1770
sg68
(lp1777
g747
asbag61
(g82
g63
NtRp1778
(dp1779
g66
(dp1780
g93
g94
ssg75
g1770
sg68
(lp1781
S':'
asbag61
(g82
g63
NtRp1782
(dp1783
g66
(dp1784
sg75
g1770
sg68
(lp1785
g61
(g62
g63
NtRp1786
(dp1787
g66
(dp1788
g74
I4
ssg75
g1782
sg68
(lp1789
g760
asbasbasbag61
(g77
g63
NtRp1790
(dp1791
g66
(dp1792
sg75
g1639
sg68
(lp1793
g61
(g82
g63
NtRp1794
(dp1795
g66
(dp1796
g86
g87
ssg75
g1790
sg68
(lp1797
g945
asbag61
(g82
g63
NtRp1798
(dp1799
g66
(dp1800
g93
g94
ssg75
g1790
sg68
(lp1801
S':'
asbag61
(g82
g63
NtRp1802
(dp1803
g66
(dp1804
sg75
g1790
sg68
(lp1805
g61
(g62
g63
NtRp1806
(dp1807
g66
(dp1808
g74
I4
ssg75
g1802
sg68
(lp1809
g104
asbasbasbag61
(g77
g63
NtRp1810
(dp1811
g66
(dp1812
sg75
g1639
sg68
(lp1813
g61
(g82
g63
NtRp1814
(dp1815
g66
(dp1816
g86
g87
ssg75
g1810
sg68
(lp1817
g966
asbag61
(g82
g63
NtRp1818
(dp1819
g66
(dp1820
g93
g94
ssg75
g1810
sg68
(lp1821
S':'
asbag61
(g82
g63
NtRp1822
(dp1823
g66
(dp1824
sg75
g1810
sg68
(lp1825
g61
(g62
g63
NtRp1826
(dp1827
g66
(dp1828
g74
I4
ssg75
g1822
sg68
(lp1829
g104
asbasbasbag61
(g77
g63
NtRp1830
(dp1831
g66
(dp1832
sg75
g1639
sg68
(lp1833
g61
(g82
g63
NtRp1834
(dp1835
g66
(dp1836
g86
g87
ssg75
g1830
sg68
(lp1837
g1204
asbag61
(g82
g63
NtRp1838
(dp1839
g66
(dp1840
g93
g94
ssg75
g1830
sg68
(lp1841
S':'
asbag61
(g82
g63
NtRp1842
(dp1843
g66
(dp1844
sg75
g1830
sg68
(lp1845
g61
(g62
g63
NtRp1846
(dp1847
g66
(dp1848
g74
I4
ssg75
g1842
sg68
(lp1849
g1217
asbasbasbag61
(g77
g63
NtRp1850
(dp1851
g66
(dp1852
sg75
g1639
sg68
(lp1853
g61
(g82
g63
NtRp1854
(dp1855
g66
(dp1856
g86
g87
ssg75
g1850
sg68
(lp1857
g1247
asbag61
(g82
g63
NtRp1858
(dp1859
g66
(dp1860
g93
g94
ssg75
g1850
sg68
(lp1861
S':'
asbag61
(g82
g63
NtRp1862
(dp1863
g66
(dp1864
sg75
g1850
sg68
(lp1865
g61
(g62
g63
NtRp1866
(dp1867
g66
(dp1868
g74
I4
ssg75
g1862
sg68
(lp1869
g61
(g70
g63
NtRp1870
(dp1871
g66
(dp1872
g74
I3
ssg75
Nsg68
(lp1873
g61
(g77
g63
NtRp1874
(dp1875
g66
(dp1876
sg75
g1870
sg68
(lp1877
g61
(g82
g63
NtRp1878
(dp1879
g66
(dp1880
sg75
g1874
sg68
(lp1881
g61
(g62
g63
NtRp1882
(dp1883
g66
(dp1884
g74
I3
ssg75
g1878
sg68
(lp1885
S'1'
asbasbasbag61
(g77
g63
NtRp1886
(dp1887
g66
(dp1888
sg75
g1870
sg68
(lp1889
g61
(g82
g63
NtRp1890
(dp1891
g66
(dp1892
sg75
g1886
sg68
(lp1893
g61
(g62
g63
NtRp1894
(dp1895
g66
(dp1896
g74
I3
ssg75
g1890
sg68
(lp1897
S'99'
p1898
asbasbasbag61
(g77
g63
NtRp1899
(dp1900
g66
(dp1901
sg75
g1870
sg68
(lp1902
g61
(g82
g63
NtRp1903
(dp1904
g66
(dp1905
sg75
g1899
sg68
(lp1906
g61
(g62
g63
NtRp1907
(dp1908
g66
(dp1909
g74
I3
ssg75
g1903
sg68
(lp1910
S'7'
asbasbasbag61
(g77
g63
NtRp1911
(dp1912
g66
(dp1913
sg75
g1870
sg68
(lp1914
g61
(g82
g63
NtRp1915
(dp1916
g66
(dp1917
sg75
g1911
sg68
(lp1918
g61
(g62
g63
NtRp1919
(dp1920
g66
(dp1921
g74
I3
ssg75
g1915
sg68
(lp1922
S'datetime.datetime(2012, 3, 4, 22, 12, 8)'
p1923
asbasbasbag61
(g77
g63
NtRp1924
(dp1925
g66
(dp1926
sg75
g1870
sg68
(lp1927
g61
(g82
g63
NtRp1928
(dp1929
g66
(dp1930
sg75
g1924
sg68
(lp1931
g61
(g62
g63
NtRp1932
(dp1933
g66
(dp1934
g74
I3
ssg75
g1928
sg68
(lp1935
g1326
asbasbasbasbasbasbasbasbasbasbasbag61
(g77
g63
NtRp1936
(dp1937
g66
(dp1938
sg75
g71
sg68
(lp1939
g61
(g82
g63
NtRp1940
(dp1941
g66
(dp1942
g86
g87
ssg75
g1936
sg68
(lp1943
S'is_https'
p1944
asbag61
(g82
g63
NtRp1945
(dp1946
g66
(dp1947
g93
g94
ssg75
g1936
sg68
(lp1948
S':'
asbag61
(g82
g63
NtRp1949
(dp1950
g66
(dp1951
sg75
g1936
sg68
(lp1952
g61
(g62
g63
NtRp1953
(dp1954
g66
(dp1955
g74
I5
ssg75
g1949
sg68
(lp1956
g104
asbasbasbag61
(g77
g63
NtRp1957
(dp1958
g66
(dp1959
sg75
g71
sg68
(lp1960
g61
(g82
g63
NtRp1961
(dp1962
g66
(dp1963
g86
g87
ssg75
g1957
sg68
(lp1964
S'is_local'
p1965
asbag61
(g82
g63
NtRp1966
(dp1967
g66
(dp1968
g93
g94
ssg75
g1957
sg68
(lp1969
S':'
asbag61
(g82
g63
NtRp1970
(dp1971
g66
(dp1972
sg75
g1957
sg68
(lp1973
g61
(g62
g63
NtRp1974
(dp1975
g66
(dp1976
g74
I5
ssg75
g1970
sg68
(lp1977
g738
asbasbasbag61
(g77
g63
NtRp1978
(dp1979
g66
(dp1980
sg75
g71
sg68
(lp1981
g61
(g82
g63
NtRp1982
(dp1983
g66
(dp1984
g86
g87
ssg75
g1978
sg68
(lp1985
S'is_restful'
p1986
asbag61
(g82
g63
NtRp1987
(dp1988
g66
(dp1989
g93
g94
ssg75
g1978
sg68
(lp1990
S':'
asbag61
(g82
g63
NtRp1991
(dp1992
g66
(dp1993
sg75
g1978
sg68
(lp1994
g61
(g62
g63
NtRp1995
(dp1996
g66
(dp1997
g74
I5
ssg75
g1991
sg68
(lp1998
g104
asbasbasbag61
(g77
g63
NtRp1999
(dp2000
g66
(dp2001
sg75
g71
sg68
(lp2002
g61
(g82
g63
NtRp2003
(dp2004
g66
(dp2005
g86
g87
ssg75
g1999
sg68
(lp2006
S'now'
p2007
asbag61
(g82
g63
NtRp2008
(dp2009
g66
(dp2010
g93
g94
ssg75
g1999
sg68
(lp2011
S':'
asbag61
(g82
g63
NtRp2012
(dp2013
g66
(dp2014
sg75
g1999
sg68
(lp2015
g61
(g62
g63
NtRp2016
(dp2017
g66
(dp2018
g74
I5
ssg75
g2012
sg68
(lp2019
S'datetime.datetime(2012, 3, 22, 23, 40, 0, 792000)'
p2020
asbasbasbag61
(g77
g63
NtRp2021
(dp2022
g66
(dp2023
sg75
g71
sg68
(lp2024
g61
(g82
g63
NtRp2025
(dp2026
g66
(dp2027
g86
g87
ssg75
g2021
sg68
(lp2028
S'post_vars'
p2029
asbag61
(g82
g63
NtRp2030
(dp2031
g66
(dp2032
g93
g94
ssg75
g2021
sg68
(lp2033
S':'
asbag61
(g82
g63
NtRp2034
(dp2035
g66
(dp2036
sg75
g2021
sg68
(lp2037
g61
(g62
g63
NtRp2038
(dp2039
g66
(dp2040
g74
I5
ssg75
g2034
sg68
(lp2041
g61
(g70
g63
NtRp2042
(dp2043
g66
(dp2044
g74
I4
ssg75
Nsg68
(lp2045
sbasbasbasbag61
(g77
g63
NtRp2046
(dp2047
g66
(dp2048
sg75
g71
sg68
(lp2049
g61
(g82
g63
NtRp2050
(dp2051
g66
(dp2052
g86
g87
ssg75
g2046
sg68
(lp2053
S'url'
p2054
asbag61
(g82
g63
NtRp2055
(dp2056
g66
(dp2057
g93
g94
ssg75
g2046
sg68
(lp2058
S':'
asbag61
(g82
g63
NtRp2059
(dp2060
g66
(dp2061
sg75
g2046
sg68
(lp2062
g61
(g62
g63
NtRp2063
(dp2064
g66
(dp2065
g74
I5
ssg75
g2059
sg68
(lp2066
S'/init/default/liste_invitations'
p2067
asbasbasbag61
(g77
g63
NtRp2068
(dp2069
g66
(dp2070
sg75
g71
sg68
(lp2071
g61
(g82
g63
NtRp2072
(dp2073
g66
(dp2074
g86
g87
ssg75
g2068
sg68
(lp2075
S'utcnow'
p2076
asbag61
(g82
g63
NtRp2077
(dp2078
g66
(dp2079
g93
g94
ssg75
g2068
sg68
(lp2080
S':'
asbag61
(g82
g63
NtRp2081
(dp2082
g66
(dp2083
sg75
g2068
sg68
(lp2084
g61
(g62
g63
NtRp2085
(dp2086
g66
(dp2087
g74
I5
ssg75
g2081
sg68
(lp2088
S'datetime.datetime(2012, 3, 22, 22, 40, 0, 792000)'
p2089
asbasbasbag61
(g77
g63
NtRp2090
(dp2091
g66
(dp2092
sg75
g71
sg68
(lp2093
g61
(g82
g63
NtRp2094
(dp2095
g66
(dp2096
g86
g87
ssg75
g2090
sg68
(lp2097
S'uuid'
p2098
asbag61
(g82
g63
NtRp2099
(dp2100
g66
(dp2101
g93
g94
ssg75
g2090
sg68
(lp2102
S':'
asbag61
(g82
g63
NtRp2103
(dp2104
g66
(dp2105
sg75
g2090
sg68
(lp2106
g61
(g62
g63
NtRp2107
(dp2108
g66
(dp2109
g74
I5
ssg75
g2103
sg68
(lp2110
S'init/127.0.0.1.2012-03-22.23-40-00.4db84e7c-c9a3-4612-97e3-f9e0e5481a42'
p2111
asbasbasbag61
(g77
g63
NtRp2112
(dp2113
g66
(dp2114
sg75
g71
sg68
(lp2115
g61
(g82
g63
NtRp2116
(dp2117
g66
(dp2118
g86
g87
ssg75
g2112
sg68
(lp2119
S'vars'
p2120
asbag61
(g82
g63
NtRp2121
(dp2122
g66
(dp2123
g93
g94
ssg75
g2112
sg68
(lp2124
S':'
asbag61
(g82
g63
NtRp2125
(dp2126
g66
(dp2127
sg75
g2112
sg68
(lp2128
g61
(g62
g63
NtRp2129
(dp2130
g66
(dp2131
g74
I5
ssg75
g2125
sg68
(lp2132
g61
(g70
g63
NtRp2133
(dp2134
g66
(dp2135
g74
I4
ssg75
Nsg68
(lp2136
sbasbasbasbag61
(g77
g63
NtRp2137
(dp2138
g66
(dp2139
sg75
g71
sg68
(lp2140
g61
(g82
g63
NtRp2141
(dp2142
g66
(dp2143
g86
g87
ssg75
g2137
sg68
(lp2144
S'wsgi'
p2145
asbag61
(g82
g63
NtRp2146
(dp2147
g66
(dp2148
g93
g94
ssg75
g2137
sg68
(lp2149
S':'
asbag61
(g82
g63
NtRp2150
(dp2151
g66
(dp2152
sg75
g2137
sg68
(lp2153
g61
(g62
g63
NtRp2154
(dp2155
g66
(dp2156
g74
I5
ssg75
g2150
sg68
(lp2157
g61
(g70
g63
NtRp2158
(dp2159
g66
(dp2160
g74
I4
ssg75
Nsg68
(lp2161
g61
(g77
g63
NtRp2162
(dp2163
g66
(dp2164
sg75
g2158
sg68
(lp2165
g61
(g82
g63
NtRp2166
(dp2167
g66
(dp2168
g86
g87
ssg75
g2162
sg68
(lp2169
S'environ'
p2170
asbag61
(g82
g63
NtRp2171
(dp2172
g66
(dp2173
g93
g94
ssg75
g2162
sg68
(lp2174
S':'
asbag61
(g82
g63
NtRp2175
(dp2176
g66
(dp2177
sg75
g2162
sg68
(lp2178
g61
(g62
g63
NtRp2179
(dp2180
g66
(dp2181
g74
I4
ssg75
g2175
sg68
(lp2182
g61
(g70
g63
NtRp2183
(dp2184
g66
(dp2185
g74
I3
ssg75
Nsg68
(lp2186
g61
(g77
g63
NtRp2187
(dp2188
g66
(dp2189
sg75
g2183
sg68
(lp2190
g61
(g82
g63
NtRp2191
(dp2192
g66
(dp2193
g86
g87
ssg75
g2187
sg68
(lp2194
S'HTTP_ACCEPT'
p2195
asbag61
(g82
g63
NtRp2196
(dp2197
g66
(dp2198
g93
g94
ssg75
g2187
sg68
(lp2199
S':'
asbag61
(g82
g63
NtRp2200
(dp2201
g66
(dp2202
sg75
g2187
sg68
(lp2203
g61
(g62
g63
NtRp2204
(dp2205
g66
(dp2206
g74
I3
ssg75
g2200
sg68
(lp2207
g782
asbasbasbag61
(g77
g63
NtRp2208
(dp2209
g66
(dp2210
sg75
g2183
sg68
(lp2211
g61
(g82
g63
NtRp2212
(dp2213
g66
(dp2214
g86
g87
ssg75
g2208
sg68
(lp2215
S'HTTP_ACCEPT_CHARSET'
p2216
asbag61
(g82
g63
NtRp2217
(dp2218
g66
(dp2219
g93
g94
ssg75
g2208
sg68
(lp2220
S':'
asbag61
(g82
g63
NtRp2221
(dp2222
g66
(dp2223
sg75
g2208
sg68
(lp2224
g61
(g62
g63
NtRp2225
(dp2226
g66
(dp2227
g74
I3
ssg75
g2221
sg68
(lp2228
g804
asbasbasbag61
(g77
g63
NtRp2229
(dp2230
g66
(dp2231
sg75
g2183
sg68
(lp2232
g61
(g82
g63
NtRp2233
(dp2234
g66
(dp2235
g86
g87
ssg75
g2229
sg68
(lp2236
S'HTTP_ACCEPT_ENCODING'
p2237
asbag61
(g82
g63
NtRp2238
(dp2239
g66
(dp2240
g93
g94
ssg75
g2229
sg68
(lp2241
S':'
asbag61
(g82
g63
NtRp2242
(dp2243
g66
(dp2244
sg75
g2229
sg68
(lp2245
g61
(g62
g63
NtRp2246
(dp2247
g66
(dp2248
g74
I3
ssg75
g2242
sg68
(lp2249
g826
asbasbasbag61
(g77
g63
NtRp2250
(dp2251
g66
(dp2252
sg75
g2183
sg68
(lp2253
g61
(g82
g63
NtRp2254
(dp2255
g66
(dp2256
g86
g87
ssg75
g2250
sg68
(lp2257
S'HTTP_ACCEPT_LANGUAGE'
p2258
asbag61
(g82
g63
NtRp2259
(dp2260
g66
(dp2261
g93
g94
ssg75
g2250
sg68
(lp2262
S':'
asbag61
(g82
g63
NtRp2263
(dp2264
g66
(dp2265
sg75
g2250
sg68
(lp2266
g61
(g62
g63
NtRp2267
(dp2268
g66
(dp2269
g74
I3
ssg75
g2263
sg68
(lp2270
g848
asbasbasbag61
(g77
g63
NtRp2271
(dp2272
g66
(dp2273
sg75
g2183
sg68
(lp2274
g61
(g82
g63
NtRp2275
(dp2276
g66
(dp2277
g86
g87
ssg75
g2271
sg68
(lp2278
S'HTTP_CONNECTION'
p2279
asbag61
(g82
g63
NtRp2280
(dp2281
g66
(dp2282
g93
g94
ssg75
g2271
sg68
(lp2283
S':'
asbag61
(g82
g63
NtRp2284
(dp2285
g66
(dp2286
sg75
g2271
sg68
(lp2287
g61
(g62
g63
NtRp2288
(dp2289
g66
(dp2290
g74
I3
ssg75
g2284
sg68
(lp2291
g870
asbasbasbag61
(g77
g63
NtRp2292
(dp2293
g66
(dp2294
sg75
g2183
sg68
(lp2295
g61
(g82
g63
NtRp2296
(dp2297
g66
(dp2298
g86
g87
ssg75
g2292
sg68
(lp2299
S'HTTP_COOKIE'
p2300
asbag61
(g82
g63
NtRp2301
(dp2302
g66
(dp2303
g93
g94
ssg75
g2292
sg68
(lp2304
S':'
asbag61
(g82
g63
NtRp2305
(dp2306
g66
(dp2307
sg75
g2292
sg68
(lp2308
g61
(g62
g63
NtRp2309
(dp2310
g66
(dp2311
g74
I3
ssg75
g2305
sg68
(lp2312
g892
asbasbasbag61
(g77
g63
NtRp2313
(dp2314
g66
(dp2315
sg75
g2183
sg68
(lp2316
g61
(g82
g63
NtRp2317
(dp2318
g66
(dp2319
g86
g87
ssg75
g2313
sg68
(lp2320
S'HTTP_HOST'
p2321
asbag61
(g82
g63
NtRp2322
(dp2323
g66
(dp2324
g93
g94
ssg75
g2313
sg68
(lp2325
S':'
asbag61
(g82
g63
NtRp2326
(dp2327
g66
(dp2328
sg75
g2313
sg68
(lp2329
g61
(g62
g63
NtRp2330
(dp2331
g66
(dp2332
g74
I3
ssg75
g2326
sg68
(lp2333
g914
asbasbasbag61
(g77
g63
NtRp2334
(dp2335
g66
(dp2336
sg75
g2183
sg68
(lp2337
g61
(g82
g63
NtRp2338
(dp2339
g66
(dp2340
g86
g87
ssg75
g2334
sg68
(lp2341
S'HTTP_USER_AGENT'
p2342
asbag61
(g82
g63
NtRp2343
(dp2344
g66
(dp2345
g93
g94
ssg75
g2334
sg68
(lp2346
S':'
asbag61
(g82
g63
NtRp2347
(dp2348
g66
(dp2349
sg75
g2334
sg68
(lp2350
g61
(g62
g63
NtRp2351
(dp2352
g66
(dp2353
g74
I3
ssg75
g2347
sg68
(lp2354
g936
asbasbasbag61
(g77
g63
NtRp2355
(dp2356
g66
(dp2357
sg75
g2183
sg68
(lp2358
g61
(g82
g63
NtRp2359
(dp2360
g66
(dp2361
g86
g87
ssg75
g2355
sg68
(lp2362
S'PATH_INFO'
p2363
asbag61
(g82
g63
NtRp2364
(dp2365
g66
(dp2366
g93
g94
ssg75
g2355
sg68
(lp2367
S':'
asbag61
(g82
g63
NtRp2368
(dp2369
g66
(dp2370
sg75
g2355
sg68
(lp2371
g61
(g62
g63
NtRp2372
(dp2373
g66
(dp2374
g74
I3
ssg75
g2368
sg68
(lp2375
g1000
asbasbasbag61
(g77
g63
NtRp2376
(dp2377
g66
(dp2378
sg75
g2183
sg68
(lp2379
g61
(g82
g63
NtRp2380
(dp2381
g66
(dp2382
g86
g87
ssg75
g2376
sg68
(lp2383
S'QUERY_STRING'
p2384
asbag61
(g82
g63
NtRp2385
(dp2386
g66
(dp2387
g93
g94
ssg75
g2376
sg68
(lp2388
S':'
asbag61
(g82
g63
NtRp2389
(dp2390
g66
(dp2391
sg75
g2376
sg68
(lp2392
g61
(g62
g63
NtRp2393
(dp2394
g66
(dp2395
g74
I3
ssg75
g2389
sg68
(lp2396
S''
asbasbasbag61
(g77
g63
NtRp2397
(dp2398
g66
(dp2399
sg75
g2183
sg68
(lp2400
g61
(g82
g63
NtRp2401
(dp2402
g66
(dp2403
g86
g87
ssg75
g2397
sg68
(lp2404
S'REMOTE_ADDR'
p2405
asbag61
(g82
g63
NtRp2406
(dp2407
g66
(dp2408
g93
g94
ssg75
g2397
sg68
(lp2409
S':'
asbag61
(g82
g63
NtRp2410
(dp2411
g66
(dp2412
sg75
g2397
sg68
(lp2413
g61
(g62
g63
NtRp2414
(dp2415
g66
(dp2416
g74
I3
ssg75
g2410
sg68
(lp2417
g194
asbasbasbag61
(g77
g63
NtRp2418
(dp2419
g66
(dp2420
sg75
g2183
sg68
(lp2421
g61
(g82
g63
NtRp2422
(dp2423
g66
(dp2424
g86
g87
ssg75
g2418
sg68
(lp2425
S'REMOTE_PORT'
p2426
asbag61
(g82
g63
NtRp2427
(dp2428
g66
(dp2429
g93
g94
ssg75
g2418
sg68
(lp2430
S':'
asbag61
(g82
g63
NtRp2431
(dp2432
g66
(dp2433
sg75
g2418
sg68
(lp2434
g61
(g62
g63
NtRp2435
(dp2436
g66
(dp2437
g74
I3
ssg75
g2431
sg68
(lp2438
g1064
asbasbasbag61
(g77
g63
NtRp2439
(dp2440
g66
(dp2441
sg75
g2183
sg68
(lp2442
g61
(g82
g63
NtRp2443
(dp2444
g66
(dp2445
g86
g87
ssg75
g2439
sg68
(lp2446
S'REQUEST_METHOD'
p2447
asbag61
(g82
g63
NtRp2448
(dp2449
g66
(dp2450
g93
g94
ssg75
g2439
sg68
(lp2451
S':'
asbag61
(g82
g63
NtRp2452
(dp2453
g66
(dp2454
sg75
g2439
sg68
(lp2455
g61
(g62
g63
NtRp2456
(dp2457
g66
(dp2458
g74
I3
ssg75
g2452
sg68
(lp2459
g1086
asbasbasbag61
(g77
g63
NtRp2460
(dp2461
g66
(dp2462
sg75
g2183
sg68
(lp2463
g61
(g82
g63
NtRp2464
(dp2465
g66
(dp2466
g86
g87
ssg75
g2460
sg68
(lp2467
S'SCRIPT_NAME'
p2468
asbag61
(g82
g63
NtRp2469
(dp2470
g66
(dp2471
g93
g94
ssg75
g2460
sg68
(lp2472
S':'
asbag61
(g82
g63
NtRp2473
(dp2474
g66
(dp2475
sg75
g2460
sg68
(lp2476
g61
(g62
g63
NtRp2477
(dp2478
g66
(dp2479
g74
I3
ssg75
g2473
sg68
(lp2480
S''
asbasbasbag61
(g77
g63
NtRp2481
(dp2482
g66
(dp2483
sg75
g2183
sg68
(lp2484
g61
(g82
g63
NtRp2485
(dp2486
g66
(dp2487
g86
g87
ssg75
g2481
sg68
(lp2488
S'SERVER_NAME'
p2489
asbag61
(g82
g63
NtRp2490
(dp2491
g66
(dp2492
g93
g94
ssg75
g2481
sg68
(lp2493
S':'
asbag61
(g82
g63
NtRp2494
(dp2495
g66
(dp2496
sg75
g2481
sg68
(lp2497
g61
(g62
g63
NtRp2498
(dp2499
g66
(dp2500
g74
I3
ssg75
g2494
sg68
(lp2501
g1129
asbasbasbag61
(g77
g63
NtRp2502
(dp2503
g66
(dp2504
sg75
g2183
sg68
(lp2505
g61
(g82
g63
NtRp2506
(dp2507
g66
(dp2508
g86
g87
ssg75
g2502
sg68
(lp2509
S'SERVER_PORT'
p2510
asbag61
(g82
g63
NtRp2511
(dp2512
g66
(dp2513
g93
g94
ssg75
g2502
sg68
(lp2514
S':'
asbag61
(g82
g63
NtRp2515
(dp2516
g66
(dp2517
sg75
g2502
sg68
(lp2518
g61
(g62
g63
NtRp2519
(dp2520
g66
(dp2521
g74
I3
ssg75
g2515
sg68
(lp2522
g1151
asbasbasbag61
(g77
g63
NtRp2523
(dp2524
g66
(dp2525
sg75
g2183
sg68
(lp2526
g61
(g82
g63
NtRp2527
(dp2528
g66
(dp2529
g86
g87
ssg75
g2523
sg68
(lp2530
S'SERVER_PROTOCOL'
p2531
asbag61
(g82
g63
NtRp2532
(dp2533
g66
(dp2534
g93
g94
ssg75
g2523
sg68
(lp2535
S':'
asbag61
(g82
g63
NtRp2536
(dp2537
g66
(dp2538
sg75
g2523
sg68
(lp2539
g61
(g62
g63
NtRp2540
(dp2541
g66
(dp2542
g74
I3
ssg75
g2536
sg68
(lp2543
g1173
asbasbasbag61
(g77
g63
NtRp2544
(dp2545
g66
(dp2546
sg75
g2183
sg68
(lp2547
g61
(g82
g63
NtRp2548
(dp2549
g66
(dp2550
g86
g87
ssg75
g2544
sg68
(lp2551
S'SERVER_SOFTWARE'
p2552
asbag61
(g82
g63
NtRp2553
(dp2554
g66
(dp2555
g93
g94
ssg75
g2544
sg68
(lp2556
S':'
asbag61
(g82
g63
NtRp2557
(dp2558
g66
(dp2559
sg75
g2544
sg68
(lp2560
g61
(g62
g63
NtRp2561
(dp2562
g66
(dp2563
g74
I3
ssg75
g2557
sg68
(lp2564
g1195
asbasbasbag61
(g77
g63
NtRp2565
(dp2566
g66
(dp2567
sg75
g2183
sg68
(lp2568
g61
(g82
g63
NtRp2569
(dp2570
g66
(dp2571
g86
g87
ssg75
g2565
sg68
(lp2572
S'wsgi.errors'
p2573
asbag61
(g82
g63
NtRp2574
(dp2575
g66
(dp2576
g93
g94
ssg75
g2565
sg68
(lp2577
S':'
asbag61
(g82
g63
NtRp2578
(dp2579
g66
(dp2580
sg75
g2565
sg68
(lp2581
g61
(g62
g63
NtRp2582
(dp2583
g66
(dp2584
g74
I3
ssg75
g2578
sg68
(lp2585
S"<open file '<stderr>', mode 'w' at 0x021D00B0>"
p2586
asbasbasbag61
(g77
g63
NtRp2587
(dp2588
g66
(dp2589
sg75
g2183
sg68
(lp2590
g61
(g82
g63
NtRp2591
(dp2592
g66
(dp2593
g86
g87
ssg75
g2587
sg68
(lp2594
S'wsgi.file_wrapper'
p2595
asbag61
(g82
g63
NtRp2596
(dp2597
g66
(dp2598
g93
g94
ssg75
g2587
sg68
(lp2599
S':'
asbag61
(g82
g63
NtRp2600
(dp2601
g66
(dp2602
sg75
g2587
sg68
(lp2603
g61
(g62
g63
NtRp2604
(dp2605
g66
(dp2606
g74
I3
ssg75
g2600
sg68
(lp2607
S'<class wsgiref.util.FileWrapper at 0x02D66900>'
p2608
asbasbasbag61
(g77
g63
NtRp2609
(dp2610
g66
(dp2611
sg75
g2183
sg68
(lp2612
g61
(g82
g63
NtRp2613
(dp2614
g66
(dp2615
g86
g87
ssg75
g2609
sg68
(lp2616
S'wsgi.input'
p2617
asbag61
(g82
g63
NtRp2618
(dp2619
g66
(dp2620
g93
g94
ssg75
g2609
sg68
(lp2621
S':'
asbag61
(g82
g63
NtRp2622
(dp2623
g66
(dp2624
sg75
g2609
sg68
(lp2625
g61
(g62
g63
NtRp2626
(dp2627
g66
(dp2628
g74
I3
ssg75
g2622
sg68
(lp2629
S'<cStringIO.StringO object at 0x0443B7C0>'
p2630
asbasbasbag61
(g77
g63
NtRp2631
(dp2632
g66
(dp2633
sg75
g2183
sg68
(lp2634
g61
(g82
g63
NtRp2635
(dp2636
g66
(dp2637
g86
g87
ssg75
g2631
sg68
(lp2638
S'wsgi.multiprocess'
p2639
asbag61
(g82
g63
NtRp2640
(dp2641
g66
(dp2642
g93
g94
ssg75
g2631
sg68
(lp2643
S':'
asbag61
(g82
g63
NtRp2644
(dp2645
g66
(dp2646
sg75
g2631
sg68
(lp2647
g61
(g62
g63
NtRp2648
(dp2649
g66
(dp2650
g74
I3
ssg75
g2644
sg68
(lp2651
g104
asbasbasbag61
(g77
g63
NtRp2652
(dp2653
g66
(dp2654
sg75
g2183
sg68
(lp2655
g61
(g82
g63
NtRp2656
(dp2657
g66
(dp2658
g86
g87
ssg75
g2652
sg68
(lp2659
S'wsgi.multithread'
p2660
asbag61
(g82
g63
NtRp2661
(dp2662
g66
(dp2663
g93
g94
ssg75
g2652
sg68
(lp2664
S':'
asbag61
(g82
g63
NtRp2665
(dp2666
g66
(dp2667
sg75
g2652
sg68
(lp2668
g61
(g62
g63
NtRp2669
(dp2670
g66
(dp2671
g74
I3
ssg75
g2665
sg68
(lp2672
g738
asbasbasbag61
(g77
g63
NtRp2673
(dp2674
g66
(dp2675
sg75
g2183
sg68
(lp2676
g61
(g82
g63
NtRp2677
(dp2678
g66
(dp2679
g86
g87
ssg75
g2673
sg68
(lp2680
S'wsgi.run_once'
p2681
asbag61
(g82
g63
NtRp2682
(dp2683
g66
(dp2684
g93
g94
ssg75
g2673
sg68
(lp2685
S':'
asbag61
(g82
g63
NtRp2686
(dp2687
g66
(dp2688
sg75
g2673
sg68
(lp2689
g61
(g62
g63
NtRp2690
(dp2691
g66
(dp2692
g74
I3
ssg75
g2686
sg68
(lp2693
g104
asbasbasbag61
(g77
g63
NtRp2694
(dp2695
g66
(dp2696
sg75
g2183
sg68
(lp2697
g61
(g82
g63
NtRp2698
(dp2699
g66
(dp2700
g86
g87
ssg75
g2694
sg68
(lp2701
S'wsgi.url_scheme'
p2702
asbag61
(g82
g63
NtRp2703
(dp2704
g66
(dp2705
g93
g94
ssg75
g2694
sg68
(lp2706
S':'
asbag61
(g82
g63
NtRp2707
(dp2708
g66
(dp2709
sg75
g2694
sg68
(lp2710
g61
(g62
g63
NtRp2711
(dp2712
g66
(dp2713
g74
I3
ssg75
g2707
sg68
(lp2714
g1477
asbasbasbag61
(g77
g63
NtRp2715
(dp2716
g66
(dp2717
sg75
g2183
sg68
(lp2718
g61
(g82
g63
NtRp2719
(dp2720
g66
(dp2721
g86
g87
ssg75
g2715
sg68
(lp2722
S'wsgi.version'
p2723
asbag61
(g82
g63
NtRp2724
(dp2725
g66
(dp2726
g93
g94
ssg75
g2715
sg68
(lp2727
S':'
asbag61
(g82
g63
NtRp2728
(dp2729
g66
(dp2730
sg75
g2715
sg68
(lp2731
g61
(g62
g63
NtRp2732
(dp2733
g66
(dp2734
g74
I3
ssg75
g2728
sg68
(lp2735
S'1'
asbasbasbasbasbasbasbasbasbasbasbasbasbsS'frames'
p2736
(lp2737
(dp2738
S'file'
p2739
S'C:\\Users\\Bussiere\\Dropbox\\Projets\\jackpoint\\web2py\\gluon\\restricted.py'
p2740
sS'dump'
p2741
(dp2742
sS'lnum'
p2743
I204
sS'lines'
p2744
(dp2745
I199
S"    environment['__name__'] = '__restricted__'"
p2746
sI200
S'    try:'
p2747
sI201
S'        if type(code) == types.CodeType:'
p2748
sI202
S'            ccode = code'
p2749
sI203
S'        else:'
p2750
sI204
S'            ccode = compile2(code,layer)'
p2751
sI205
S'        exec ccode in environment'
p2752
sI206
S'    except HTTP:'
p2753
sI207
S'        raise'
p2754
sI208
S'    except RestrictedError:'
p2755
ssS'call'
p2756
S"(code='# -*- coding: utf-8 -*-\\n# this file is released ...sponse._vars=response._caller(liste_invitations)\\n', environment={'A': <class 'gluon.html.A'>, 'Auth': <class 'gluon.tools.Auth'>, 'AutocompleteWidget': <class 'gluon.sqlhtml.AutocompleteWidget'>, 'B': <class 'gluon.html.B'>, 'BEAUTIFY': <class 'gluon.html.BEAUTIFY'>, 'BODY': <class 'gluon.html.BODY'>, 'BR': <class 'gluon.html.BR'>, 'BUTTON': <class 'gluon.html.BUTTON'>, 'BooleanWidget': <class 'gluon.sqlhtml.BooleanWidget'>, 'CALLABLETYPES': (<type 'function'>, <type 'function'>, <type 'builtin_function_or_method'>, <type 'instancemethod'>, <type 'builtin_function_or_method'>), ...}, layer=r'C:\\Users\\Bussiere\\Dropbox\\Projets\\jackpoint\\web2py\\applications\\init\\controllers/default.py')"
p2757
sS'func'
p2758
S'restricted'
p2759
sa(dp2760
g2739
S'C:\\Users\\Bussiere\\Dropbox\\Projets\\jackpoint\\web2py\\gluon\\restricted.py'
p2761
sg2741
(dp2762
sg2743
I189
sg2744
(dp2763
I192
S'    """'
p2764
sI193
S'    runs code in environment and returns the output. if an exception occurs'
p2765
sI184
S''
sI185
S'def compile2(code,layer):'
p2766
sI186
S'    """'
p2767
sI187
S"    The +'\\n' is necessary else compile fails when code ends in a comment."
p2768
sI188
S'    """'
p2769
sI189
S"    return compile(code.rstrip().replace('\\r\\n','\\n')+'\\n', layer, 'exec')"
p2770
sI190
S''
sI191
S"def restricted(code, environment=None, layer='Unknown'):"
p2771
ssg2756
S"(code='# -*- coding: utf-8 -*-\\n# this file is released ...sponse._vars=response._caller(liste_invitations)\\n', layer=r'C:\\Users\\Bussiere\\Dropbox\\Projets\\jackpoint\\web2py\\applications\\init\\controllers/default.py')"
p2772
sg2758
S'compile2'
p2773
sasS'pyver'
p2774
S'Python 2.5.4: C:\\Users\\Bussiere\\Dropbox\\Projets\\jackpoint\\web2py\\web2py.exe'
p2775
sS'session'
p2776
g61
(g62
g63
NtRp2777
(dp2778
g66
(dp2779
sg68
(lp2780
g61
(g70
g63
NtRp2781
(dp2782
g66
(dp2783
g74
I5
ssg75
Nsg68
(lp2784
sbasbsS'etype'
p2785
S"<type 'exceptions.SyntaxError'>"
p2786
sS'date'
p2787
S'Thu Mar 22 23:40:01 2012'
p2788
sS'response'
p2789
g61
(g62
g63
NtRp2790
(dp2791
g66
(dp2792
sg68
(lp2793
g61
(g70
g63
NtRp2794
(dp2795
g66
(dp2796
g74
I5
ssg75
Nsg68
(lp2797
g61
(g77
g63
NtRp2798
(dp2799
g66
(dp2800
sg75
g2794
sg68
(lp2801
g61
(g82
g63
NtRp2802
(dp2803
g66
(dp2804
g86
g87
ssg75
g2798
sg68
(lp2805
g159
asbag61
(g82
g63
NtRp2806
(dp2807
g66
(dp2808
g93
g94
ssg75
g2798
sg68
(lp2809
S':'
asbag61
(g82
g63
NtRp2810
(dp2811
g66
(dp2812
sg75
g2798
sg68
(lp2813
g61
(g62
g63
NtRp2814
(dp2815
g66
(dp2816
g74
I5
ssg75
g2810
sg68
(lp2817
S'<cStringIO.StringO object at 0x0428CE40>'
p2818
asbasbasbag61
(g77
g63
NtRp2819
(dp2820
g66
(dp2821
sg75
g2794
sg68
(lp2822
g61
(g82
g63
NtRp2823
(dp2824
g66
(dp2825
g86
g87
ssg75
g2819
sg68
(lp2826
g225
asbag61
(g82
g63
NtRp2827
(dp2828
g66
(dp2829
g93
g94
ssg75
g2819
sg68
(lp2830
S':'
asbag61
(g82
g63
NtRp2831
(dp2832
g66
(dp2833
sg75
g2819
sg68
(lp2834
g61
(g62
g63
NtRp2835
(dp2836
g66
(dp2837
g74
I5
ssg75
g2831
sg68
(lp2838
g61
(g70
g63
NtRp2839
(dp2840
g66
(dp2841
g74
I4
ssg75
Nsg68
(lp2842
g61
(g77
g63
NtRp2843
(dp2844
g66
(dp2845
sg75
g2839
sg68
(lp2846
g61
(g82
g63
NtRp2847
(dp2848
g66
(dp2849
g86
g87
ssg75
g2843
sg68
(lp2850
S'session_id_init'
p2851
asbag61
(g82
g63
NtRp2852
(dp2853
g66
(dp2854
g93
g94
ssg75
g2843
sg68
(lp2855
S':'
asbag61
(g82
g63
NtRp2856
(dp2857
g66
(dp2858
sg75
g2843
sg68
(lp2859
g61
(g62
g63
NtRp2860
(dp2861
g66
(dp2862
g74
I4
ssg75
g2856
sg68
(lp2863
g61
(g70
g63
NtRp2864
(dp2865
g66
(dp2866
g74
I3
ssg75
Nsg68
(lp2867
g61
(g77
g63
NtRp2868
(dp2869
g66
(dp2870
sg75
g2864
sg68
(lp2871
g61
(g82
g63
NtRp2872
(dp2873
g66
(dp2874
g86
g87
ssg75
g2868
sg68
(lp2875
g275
asbag61
(g82
g63
NtRp2876
(dp2877
g66
(dp2878
g93
g94
ssg75
g2868
sg68
(lp2879
S':'
asbag61
(g82
g63
NtRp2880
(dp2881
g66
(dp2882
sg75
g2868
sg68
(lp2883
g61
(g62
g63
NtRp2884
(dp2885
g66
(dp2886
g74
I3
ssg75
g2880
sg68
(lp2887
S''
asbasbasbag61
(g77
g63
NtRp2888
(dp2889
g66
(dp2890
sg75
g2864
sg68
(lp2891
g61
(g82
g63
NtRp2892
(dp2893
g66
(dp2894
g86
g87
ssg75
g2888
sg68
(lp2895
g296
asbag61
(g82
g63
NtRp2896
(dp2897
g66
(dp2898
g93
g94
ssg75
g2888
sg68
(lp2899
S':'
asbag61
(g82
g63
NtRp2900
(dp2901
g66
(dp2902
sg75
g2888
sg68
(lp2903
g61
(g62
g63
NtRp2904
(dp2905
g66
(dp2906
g74
I3
ssg75
g2900
sg68
(lp2907
S''
asbasbasbag61
(g77
g63
NtRp2908
(dp2909
g66
(dp2910
sg75
g2864
sg68
(lp2911
g61
(g82
g63
NtRp2912
(dp2913
g66
(dp2914
g86
g87
ssg75
g2908
sg68
(lp2915
g317
asbag61
(g82
g63
NtRp2916
(dp2917
g66
(dp2918
g93
g94
ssg75
g2908
sg68
(lp2919
S':'
asbag61
(g82
g63
NtRp2920
(dp2921
g66
(dp2922
sg75
g2908
sg68
(lp2923
g61
(g62
g63
NtRp2924
(dp2925
g66
(dp2926
g74
I3
ssg75
g2920
sg68
(lp2927
S''
asbasbasbag61
(g77
g63
NtRp2928
(dp2929
g66
(dp2930
sg75
g2864
sg68
(lp2931
g61
(g82
g63
NtRp2932
(dp2933
g66
(dp2934
g86
g87
ssg75
g2928
sg68
(lp2935
g338
asbag61
(g82
g63
NtRp2936
(dp2937
g66
(dp2938
g93
g94
ssg75
g2928
sg68
(lp2939
S':'
asbag61
(g82
g63
NtRp2940
(dp2941
g66
(dp2942
sg75
g2928
sg68
(lp2943
g61
(g62
g63
NtRp2944
(dp2945
g66
(dp2946
g74
I3
ssg75
g2940
sg68
(lp2947
S''
asbasbasbag61
(g77
g63
NtRp2948
(dp2949
g66
(dp2950
sg75
g2864
sg68
(lp2951
g61
(g82
g63
NtRp2952
(dp2953
g66
(dp2954
g86
g87
ssg75
g2948
sg68
(lp2955
g359
asbag61
(g82
g63
NtRp2956
(dp2957
g66
(dp2958
g93
g94
ssg75
g2948
sg68
(lp2959
S':'
asbag61
(g82
g63
NtRp2960
(dp2961
g66
(dp2962
sg75
g2948
sg68
(lp2963
g61
(g62
g63
NtRp2964
(dp2965
g66
(dp2966
g74
I3
ssg75
g2960
sg68
(lp2967
S'/'
asbasbasbag61
(g77
g63
NtRp2968
(dp2969
g66
(dp2970
sg75
g2864
sg68
(lp2971
g61
(g82
g63
NtRp2972
(dp2973
g66
(dp2974
g86
g87
ssg75
g2968
sg68
(lp2975
g380
asbag61
(g82
g63
NtRp2976
(dp2977
g66
(dp2978
g93
g94
ssg75
g2968
sg68
(lp2979
S':'
asbag61
(g82
g63
NtRp2980
(dp2981
g66
(dp2982
sg75
g2968
sg68
(lp2983
g61
(g62
g63
NtRp2984
(dp2985
g66
(dp2986
g74
I3
ssg75
g2980
sg68
(lp2987
S''
asbasbasbag61
(g77
g63
NtRp2988
(dp2989
g66
(dp2990
sg75
g2864
sg68
(lp2991
g61
(g82
g63
NtRp2992
(dp2993
g66
(dp2994
g86
g87
ssg75
g2988
sg68
(lp2995
g401
asbag61
(g82
g63
NtRp2996
(dp2997
g66
(dp2998
g93
g94
ssg75
g2988
sg68
(lp2999
S':'
asbag61
(g82
g63
NtRp3000
(dp3001
g66
(dp3002
sg75
g2988
sg68
(lp3003
g61
(g62
g63
NtRp3004
(dp3005
g66
(dp3006
g74
I3
ssg75
g3000
sg68
(lp3007
S''
asbasbasbasbasbasbasbasbasbasbasbag61
(g77
g63
NtRp3008
(dp3009
g66
(dp3010
sg75
g2794
sg68
(lp3011
g61
(g82
g63
NtRp3012
(dp3013
g66
(dp3014
g86
g87
ssg75
g3008
sg68
(lp3015
S'delimiters'
p3016
asbag61
(g82
g63
NtRp3017
(dp3018
g66
(dp3019
g93
g94
ssg75
g3008
sg68
(lp3020
S':'
asbag61
(g82
g63
NtRp3021
(dp3022
g66
(dp3023
sg75
g3008
sg68
(lp3024
g61
(g62
g63
NtRp3025
(dp3026
g66
(dp3027
g74
I5
ssg75
g3021
sg68
(lp3028
g61
(g70
g63
NtRp3029
(dp3030
g66
(dp3031
g74
I4
ssg75
Nsg68
(lp3032
g61
(g77
g63
NtRp3033
(dp3034
g66
(dp3035
sg75
g3029
sg68
(lp3036
g61
(g82
g63
NtRp3037
(dp3038
g66
(dp3039
sg75
g3033
sg68
(lp3040
g61
(g62
g63
NtRp3041
(dp3042
g66
(dp3043
g74
I4
ssg75
g3037
sg68
(lp3044
S'{{'
p3045
asbasbasbag61
(g77
g63
NtRp3046
(dp3047
g66
(dp3048
sg75
g3029
sg68
(lp3049
g61
(g82
g63
NtRp3050
(dp3051
g66
(dp3052
sg75
g3046
sg68
(lp3053
g61
(g62
g63
NtRp3054
(dp3055
g66
(dp3056
g74
I4
ssg75
g3050
sg68
(lp3057
S'}}'
p3058
asbasbasbasbasbasbasbag61
(g77
g63
NtRp3059
(dp3060
g66
(dp3061
sg75
g2794
sg68
(lp3062
g61
(g82
g63
NtRp3063
(dp3064
g66
(dp3065
g86
g87
ssg75
g3059
sg68
(lp3066
S'files'
p3067
asbag61
(g82
g63
NtRp3068
(dp3069
g66
(dp3070
g93
g94
ssg75
g3059
sg68
(lp3071
S':'
asbag61
(g82
g63
NtRp3072
(dp3073
g66
(dp3074
sg75
g3059
sg68
(lp3075
g61
(g62
g63
NtRp3076
(dp3077
g66
(dp3078
g74
I5
ssg75
g3072
sg68
(lp3079
g61
(g70
g63
NtRp3080
(dp3081
g66
(dp3082
g74
I4
ssg75
Nsg68
(lp3083
sbasbasbasbag61
(g77
g63
NtRp3084
(dp3085
g66
(dp3086
sg75
g2794
sg68
(lp3087
g61
(g82
g63
NtRp3088
(dp3089
g66
(dp3090
g86
g87
ssg75
g3084
sg68
(lp3091
S'flash'
p3092
asbag61
(g82
g63
NtRp3093
(dp3094
g66
(dp3095
g93
g94
ssg75
g3084
sg68
(lp3096
S':'
asbag61
(g82
g63
NtRp3097
(dp3098
g66
(dp3099
sg75
g3084
sg68
(lp3100
g61
(g62
g63
NtRp3101
(dp3102
g66
(dp3103
g74
I5
ssg75
g3097
sg68
(lp3104
S''
asbasbasbag61
(g77
g63
NtRp3105
(dp3106
g66
(dp3107
sg75
g2794
sg68
(lp3108
g61
(g82
g63
NtRp3109
(dp3110
g66
(dp3111
g86
g87
ssg75
g3105
sg68
(lp3112
S'generic_patterns'
p3113
asbag61
(g82
g63
NtRp3114
(dp3115
g66
(dp3116
g93
g94
ssg75
g3105
sg68
(lp3117
S':'
asbag61
(g82
g63
NtRp3118
(dp3119
g66
(dp3120
sg75
g3105
sg68
(lp3121
g61
(g62
g63
NtRp3122
(dp3123
g66
(dp3124
g74
I5
ssg75
g3118
sg68
(lp3125
g61
(g70
g63
NtRp3126
(dp3127
g66
(dp3128
g74
I4
ssg75
Nsg68
(lp3129
g61
(g77
g63
NtRp3130
(dp3131
g66
(dp3132
sg75
g3126
sg68
(lp3133
g61
(g82
g63
NtRp3134
(dp3135
g66
(dp3136
sg75
g3130
sg68
(lp3137
g61
(g62
g63
NtRp3138
(dp3139
g66
(dp3140
g74
I4
ssg75
g3134
sg68
(lp3141
S'*'
asbasbasbasbasbasbasbag61
(g77
g63
NtRp3142
(dp3143
g66
(dp3144
sg75
g2794
sg68
(lp3145
g61
(g82
g63
NtRp3146
(dp3147
g66
(dp3148
g86
g87
ssg75
g3142
sg68
(lp3149
S'headers'
p3150
asbag61
(g82
g63
NtRp3151
(dp3152
g66
(dp3153
g93
g94
ssg75
g3142
sg68
(lp3154
S':'
asbag61
(g82
g63
NtRp3155
(dp3156
g66
(dp3157
sg75
g3142
sg68
(lp3158
g61
(g62
g63
NtRp3159
(dp3160
g66
(dp3161
g74
I5
ssg75
g3155
sg68
(lp3162
g61
(g70
g63
NtRp3163
(dp3164
g66
(dp3165
g74
I4
ssg75
Nsg68
(lp3166
g61
(g77
g63
NtRp3167
(dp3168
g66
(dp3169
sg75
g3163
sg68
(lp3170
g61
(g82
g63
NtRp3171
(dp3172
g66
(dp3173
g86
g87
ssg75
g3167
sg68
(lp3174
S'Cache-Control'
p3175
asbag61
(g82
g63
NtRp3176
(dp3177
g66
(dp3178
g93
g94
ssg75
g3167
sg68
(lp3179
S':'
asbag61
(g82
g63
NtRp3180
(dp3181
g66
(dp3182
sg75
g3167
sg68
(lp3183
g61
(g62
g63
NtRp3184
(dp3185
g66
(dp3186
g74
I4
ssg75
g3180
sg68
(lp3187
S'no-store, no-cache, must-revalidate, post-check=0, pre-check=0'
p3188
asbasbasbag61
(g77
g63
NtRp3189
(dp3190
g66
(dp3191
sg75
g3163
sg68
(lp3192
g61
(g82
g63
NtRp3193
(dp3194
g66
(dp3195
g86
g87
ssg75
g3189
sg68
(lp3196
S'Content-Type'
p3197
asbag61
(g82
g63
NtRp3198
(dp3199
g66
(dp3200
g93
g94
ssg75
g3189
sg68
(lp3201
S':'
asbag61
(g82
g63
NtRp3202
(dp3203
g66
(dp3204
sg75
g3189
sg68
(lp3205
g61
(g62
g63
NtRp3206
(dp3207
g66
(dp3208
g74
I4
ssg75
g3202
sg68
(lp3209
S'text/html; charset=utf-8'
p3210
asbasbasbag61
(g77
g63
NtRp3211
(dp3212
g66
(dp3213
sg75
g3163
sg68
(lp3214
g61
(g82
g63
NtRp3215
(dp3216
g66
(dp3217
g86
g87
ssg75
g3211
sg68
(lp3218
S'Expires'
p3219
asbag61
(g82
g63
NtRp3220
(dp3221
g66
(dp3222
g93
g94
ssg75
g3211
sg68
(lp3223
S':'
asbag61
(g82
g63
NtRp3224
(dp3225
g66
(dp3226
sg75
g3211
sg68
(lp3227
g61
(g62
g63
NtRp3228
(dp3229
g66
(dp3230
g74
I4
ssg75
g3224
sg68
(lp3231
S'Thu, 22 Mar 2012 22:40:00 GMT'
p3232
asbasbasbag61
(g77
g63
NtRp3233
(dp3234
g66
(dp3235
sg75
g3163
sg68
(lp3236
g61
(g82
g63
NtRp3237
(dp3238
g66
(dp3239
g86
g87
ssg75
g3233
sg68
(lp3240
S'Pragma'
p3241
asbag61
(g82
g63
NtRp3242
(dp3243
g66
(dp3244
g93
g94
ssg75
g3233
sg68
(lp3245
S':'
asbag61
(g82
g63
NtRp3246
(dp3247
g66
(dp3248
sg75
g3233
sg68
(lp3249
g61
(g62
g63
NtRp3250
(dp3251
g66
(dp3252
g74
I4
ssg75
g3246
sg68
(lp3253
S'no-cache'
p3254
asbasbasbag61
(g77
g63
NtRp3255
(dp3256
g66
(dp3257
sg75
g3163
sg68
(lp3258
g61
(g82
g63
NtRp3259
(dp3260
g66
(dp3261
g86
g87
ssg75
g3255
sg68
(lp3262
S'X-Powered-By'
p3263
asbag61
(g82
g63
NtRp3264
(dp3265
g66
(dp3266
g93
g94
ssg75
g3255
sg68
(lp3267
S':'
asbag61
(g82
g63
NtRp3268
(dp3269
g66
(dp3270
sg75
g3255
sg68
(lp3271
g61
(g62
g63
NtRp3272
(dp3273
g66
(dp3274
g74
I4
ssg75
g3268
sg68
(lp3275
S'web2py'
p3276
asbasbasbasbasbasbasbag61
(g77
g63
NtRp3277
(dp3278
g66
(dp3279
sg75
g2794
sg68
(lp3280
g61
(g82
g63
NtRp3281
(dp3282
g66
(dp3283
g86
g87
ssg75
g3277
sg68
(lp3284
S'menu'
p3285
asbag61
(g82
g63
NtRp3286
(dp3287
g66
(dp3288
g93
g94
ssg75
g3277
sg68
(lp3289
S':'
asbag61
(g82
g63
NtRp3290
(dp3291
g66
(dp3292
sg75
g3277
sg68
(lp3293
g61
(g62
g63
NtRp3294
(dp3295
g66
(dp3296
g74
I5
ssg75
g3290
sg68
(lp3297
g61
(g70
g63
NtRp3298
(dp3299
g66
(dp3300
g74
I4
ssg75
Nsg68
(lp3301
g61
(g77
g63
NtRp3302
(dp3303
g66
(dp3304
sg75
g3298
sg68
(lp3305
g61
(g82
g63
NtRp3306
(dp3307
g66
(dp3308
sg75
g3302
sg68
(lp3309
g61
(g62
g63
NtRp3310
(dp3311
g66
(dp3312
g74
I4
ssg75
g3306
sg68
(lp3313
g61
(g70
g63
NtRp3314
(dp3315
g66
(dp3316
g74
I3
ssg75
Nsg68
(lp3317
g61
(g77
g63
NtRp3318
(dp3319
g66
(dp3320
sg75
g3314
sg68
(lp3321
g61
(g82
g63
NtRp3322
(dp3323
g66
(dp3324
sg75
g3318
sg68
(lp3325
g61
(g62
g63
NtRp3326
(dp3327
g66
(dp3328
g74
I3
ssg75
g3322
sg68
(lp3329
cgluon.languages
lazyT_unpickle
p3330
(S's\x04\x00\x00\x00Home'
tRp3331
asbasbasbag61
(g77
g63
NtRp3332
(dp3333
g66
(dp3334
sg75
g3314
sg68
(lp3335
g61
(g82
g63
NtRp3336
(dp3337
g66
(dp3338
sg75
g3332
sg68
(lp3339
g61
(g62
g63
NtRp3340
(dp3341
g66
(dp3342
g74
I3
ssg75
g3336
sg68
(lp3343
g104
asbasbasbag61
(g77
g63
NtRp3344
(dp3345
g66
(dp3346
sg75
g3314
sg68
(lp3347
g61
(g82
g63
NtRp3348
(dp3349
g66
(dp3350
sg75
g3344
sg68
(lp3351
g61
(g62
g63
NtRp3352
(dp3353
g66
(dp3354
g74
I3
ssg75
g3348
sg68
(lp3355
S'/init/default/index'
p3356
asbasbasbag61
(g77
g63
NtRp3357
(dp3358
g66
(dp3359
sg75
g3314
sg68
(lp3360
g61
(g82
g63
NtRp3361
(dp3362
g66
(dp3363
sg75
g3357
sg68
(lp3364
g61
(g62
g63
NtRp3365
(dp3366
g66
(dp3367
g74
I3
ssg75
g3361
sg68
(lp3368
g61
(g70
g63
NtRp3369
(dp3370
g66
(dp3371
g74
I2
ssg75
Nsg68
(lp3372
sbasbasbasbasbasbasbasbag61
(g77
g63
NtRp3373
(dp3374
g66
(dp3375
sg75
g3298
sg68
(lp3376
g61
(g82
g63
NtRp3377
(dp3378
g66
(dp3379
sg75
g3373
sg68
(lp3380
g61
(g62
g63
NtRp3381
(dp3382
g66
(dp3383
g74
I4
ssg75
g3377
sg68
(lp3384
g61
(g70
g63
NtRp3385
(dp3386
g66
(dp3387
g74
I3
ssg75
Nsg68
(lp3388
g61
(g77
g63
NtRp3389
(dp3390
g66
(dp3391
sg75
g3385
sg68
(lp3392
g61
(g82
g63
NtRp3393
(dp3394
g66
(dp3395
sg75
g3389
sg68
(lp3396
g61
(g62
g63
NtRp3397
(dp3398
g66
(dp3399
g74
I3
ssg75
g3393
sg68
(lp3400
g61
(cgluon.html
SPAN
p3401
g63
NtRp3402
(dp3403
g66
(dp3404
g86
S'color:yellow'
p3405
ssg75
Nsg68
(lp3406
g3276
asbasbasbasbag61
(g77
g63
NtRp3407
(dp3408
g66
(dp3409
sg75
g3385
sg68
(lp3410
g61
(g82
g63
NtRp3411
(dp3412
g66
(dp3413
sg75
g3407
sg68
(lp3414
g61
(g62
g63
NtRp3415
(dp3416
g66
(dp3417
g74
I3
ssg75
g3411
sg68
(lp3418
g104
asbasbasbag61
(g77
g63
NtRp3419
(dp3420
g66
(dp3421
sg75
g3385
sg68
(lp3422
g61
(g82
g63
NtRp3423
(dp3424
g66
(dp3425
sg75
g3419
sg68
(lp3426
g61
(g62
g63
NtRp3427
(dp3428
g66
(dp3429
g74
I3
ssg75
g3423
sg68
(lp3430
S'None'
p3431
asbasbasbag61
(g77
g63
NtRp3432
(dp3433
g66
(dp3434
sg75
g3385
sg68
(lp3435
g61
(g82
g63
NtRp3436
(dp3437
g66
(dp3438
sg75
g3432
sg68
(lp3439
g61
(g62
g63
NtRp3440
(dp3441
g66
(dp3442
g74
I3
ssg75
g3436
sg68
(lp3443
g61
(g70
g63
NtRp3444
(dp3445
g66
(dp3446
g74
I2
ssg75
Nsg68
(lp3447
g61
(g77
g63
NtRp3448
(dp3449
g66
(dp3450
sg75
g3444
sg68
(lp3451
g61
(g82
g63
NtRp3452
(dp3453
g66
(dp3454
sg75
g3448
sg68
(lp3455
g61
(g62
g63
NtRp3456
(dp3457
g66
(dp3458
g74
I2
ssg75
g3452
sg68
(lp3459
g61
(g70
g63
NtRp3460
(dp3461
g66
(dp3462
g74
I1
ssg75
Nsg68
(lp3463
g61
(g77
g63
NtRp3464
(dp3465
g66
(dp3466
sg75
g3460
sg68
(lp3467
g61
(g82
g63
NtRp3468
(dp3469
g66
(dp3470
sg75
g3464
sg68
(lp3471
g61
(g62
g63
NtRp3472
(dp3473
g66
(dp3474
g74
I1
ssg75
g3468
sg68
(lp3475
g3330
(S's\x08\x00\x00\x00My Sites'
tRp3476
asbasbasbag61
(g77
g63
NtRp3477
(dp3478
g66
(dp3479
sg75
g3460
sg68
(lp3480
g61
(g82
g63
NtRp3481
(dp3482
g66
(dp3483
sg75
g3477
sg68
(lp3484
g61
(g62
g63
NtRp3485
(dp3486
g66
(dp3487
g74
I1
ssg75
g3481
sg68
(lp3488
I00
asbasbasbag61
(g77
g63
NtRp3489
(dp3490
g66
(dp3491
sg75
g3460
sg68
(lp3492
g61
(g82
g63
NtRp3493
(dp3494
g66
(dp3495
sg75
g3489
sg68
(lp3496
g61
(g62
g63
NtRp3497
(dp3498
g66
(dp3499
g74
I1
ssg75
g3493
sg68
(lp3500
S'/admin/default/site'
p3501
asbasbasbasbasbasbasbag61
(g77
g63
NtRp3502
(dp3503
g66
(dp3504
sg75
g3444
sg68
(lp3505
g61
(g82
g63
NtRp3506
(dp3507
g66
(dp3508
sg75
g3502
sg68
(lp3509
g61
(g62
g63
NtRp3510
(dp3511
g66
(dp3512
g74
I2
ssg75
g3506
sg68
(lp3513
g61
(g70
g63
NtRp3514
(dp3515
g66
(dp3516
g74
I1
ssg75
Nsg68
(lp3517
g61
(g77
g63
NtRp3518
(dp3519
g66
(dp3520
sg75
g3514
sg68
(lp3521
g61
(g82
g63
NtRp3522
(dp3523
g66
(dp3524
sg75
g3518
sg68
(lp3525
g61
(g62
g63
NtRp3526
(dp3527
g66
(dp3528
g74
I1
ssg75
g3522
sg68
(lp3529
g3330
(S's\x08\x00\x00\x00This App'
tRp3530
asbasbasbag61
(g77
g63
NtRp3531
(dp3532
g66
(dp3533
sg75
g3514
sg68
(lp3534
g61
(g82
g63
NtRp3535
(dp3536
g66
(dp3537
sg75
g3531
sg68
(lp3538
g61
(g62
g63
NtRp3539
(dp3540
g66
(dp3541
g74
I1
ssg75
g3535
sg68
(lp3542
I00
asbasbasbag61
(g77
g63
NtRp3543
(dp3544
g66
(dp3545
sg75
g3514
sg68
(lp3546
g61
(g82
g63
NtRp3547
(dp3548
g66
(dp3549
sg75
g3543
sg68
(lp3550
g61
(g62
g63
NtRp3551
(dp3552
g66
(dp3553
g74
I1
ssg75
g3547
sg68
(lp3554
S'/admin/default/design/init'
p3555
asbasbasbag61
(g77
g63
NtRp3556
(dp3557
g66
(dp3558
sg75
g3514
sg68
(lp3559
g61
(g82
g63
NtRp3560
(dp3561
g66
(dp3562
sg75
g3556
sg68
(lp3563
g61
(g62
g63
NtRp3564
(dp3565
g66
(dp3566
g74
I1
ssg75
g3560
sg68
(lp3567
(lp3568
(g3330
(S's\n\x00\x00\x00Controller'
tRp3569
I00
S'/admin/default/edit/init/controllers/default.py'
tp3570
a(g3330
(S's\x04\x00\x00\x00View'
tRp3571
I00
S'/admin/default/edit/init/views/default/liste_invitations.html'
tp3572
a(g3330
(S's\x06\x00\x00\x00Layout'
tRp3573
I00
S'/admin/default/edit/init/views/layout.html'
tp3574
a(g3330
(S's\n\x00\x00\x00Stylesheet'
tRp3575
I00
S'/admin/default/edit/init/static/css/web2py.css'
tp3576
a(g3330
(S's\x08\x00\x00\x00DB Model'
tRp3577
I00
S'/admin/default/edit/init/models/db.py'
tp3578
a(g3330
(S's\n\x00\x00\x00Menu Model'
tRp3579
I00
S'/admin/default/edit/init/models/menu.py'
tp3580
a(g3330
(S's\x08\x00\x00\x00Database'
tRp3581
I00
S'/init/appadmin/index'
tp3582
a(g3330
(S's\x06\x00\x00\x00Errors'
tRp3583
I00
S'/admin/default/errors/init'
tp3584
a(g3330
(S's\x05\x00\x00\x00About'
tRp3585
I00
S'/admin/default/about/init'
tp3586
aasbasbasbasbasbasbasbag61
(g77
g63
NtRp3587
(dp3588
g66
(dp3589
sg75
g3444
sg68
(lp3590
g61
(g82
g63
NtRp3591
(dp3592
g66
(dp3593
sg75
g3587
sg68
(lp3594
g61
(g62
g63
NtRp3595
(dp3596
g66
(dp3597
g74
I2
ssg75
g3591
sg68
(lp3598
g61
(g70
g63
NtRp3599
(dp3600
g66
(dp3601
g74
I1
ssg75
Nsg68
(lp3602
g61
(g77
g63
NtRp3603
(dp3604
g66
(dp3605
sg75
g3599
sg68
(lp3606
g61
(g82
g63
NtRp3607
(dp3608
g66
(dp3609
sg75
g3603
sg68
(lp3610
g61
(g62
g63
NtRp3611
(dp3612
g66
(dp3613
g74
I1
ssg75
g3607
sg68
(lp3614
S'web2py.com'
p3615
asbasbasbag61
(g77
g63
NtRp3616
(dp3617
g66
(dp3618
sg75
g3599
sg68
(lp3619
g61
(g82
g63
NtRp3620
(dp3621
g66
(dp3622
sg75
g3616
sg68
(lp3623
g61
(g62
g63
NtRp3624
(dp3625
g66
(dp3626
g74
I1
ssg75
g3620
sg68
(lp3627
I00
asbasbasbag61
(g77
g63
NtRp3628
(dp3629
g66
(dp3630
sg75
g3599
sg68
(lp3631
g61
(g82
g63
NtRp3632
(dp3633
g66
(dp3634
sg75
g3628
sg68
(lp3635
g61
(g62
g63
NtRp3636
(dp3637
g66
(dp3638
g74
I1
ssg75
g3632
sg68
(lp3639
S'http://www.web2py.com'
p3640
asbasbasbag61
(g77
g63
NtRp3641
(dp3642
g66
(dp3643
sg75
g3599
sg68
(lp3644
g61
(g82
g63
NtRp3645
(dp3646
g66
(dp3647
sg75
g3641
sg68
(lp3648
g61
(g62
g63
NtRp3649
(dp3650
g66
(dp3651
g74
I1
ssg75
g3645
sg68
(lp3652
(lp3653
(g3330
(S's\x08\x00\x00\x00Download'
tRp3654
I00
S'http://www.web2py.com/examples/default/download'
p3655
tp3656
a(g3330
(S's\x07\x00\x00\x00Support'
tRp3657
I00
S'http://www.web2py.com/examples/default/support'
p3658
tp3659
a(g3330
(S's\x04\x00\x00\x00Demo'
tRp3660
I00
S'http://web2py.com/demo_admin'
p3661
tp3662
a(g3330
(S's\x0e\x00\x00\x00Quick Examples'
tRp3663
I00
S'http://web2py.com/examples/default/examples'
p3664
tp3665
a(g3330
(S's\x03\x00\x00\x00FAQ'
tRp3666
I00
S'http://web2py.com/AlterEgo'
p3667
tp3668
a(g3330
(S's\x06\x00\x00\x00Videos'
tRp3669
I00
S'http://www.web2py.com/examples/default/videos/'
p3670
tp3671
a(g3330
(S's\x11\x00\x00\x00Free Applications'
tRp3672
I00
S'http://web2py.com/appliances'
p3673
tp3674
a(g3330
(S's\x07\x00\x00\x00Plugins'
tRp3675
I00
S'http://web2py.com/plugins'
p3676
tp3677
a(g3330
(S's\x07\x00\x00\x00Layouts'
tRp3678
I00
S'http://web2py.com/layouts'
p3679
tp3680
a(g3330
(S's\x07\x00\x00\x00Recipes'
tRp3681
I00
S'http://web2pyslices.com/'
p3682
tp3683
a(g3330
(S's\x08\x00\x00\x00Semantic'
tRp3684
I00
S'http://web2py.com/semantic'
p3685
tp3686
aasbasbasbasbasbasbasbag61
(g77
g63
NtRp3687
(dp3688
g66
(dp3689
sg75
g3444
sg68
(lp3690
g61
(g82
g63
NtRp3691
(dp3692
g66
(dp3693
sg75
g3687
sg68
(lp3694
g61
(g62
g63
NtRp3695
(dp3696
g66
(dp3697
g74
I2
ssg75
g3691
sg68
(lp3698
g61
(g70
g63
NtRp3699
(dp3700
g66
(dp3701
g74
I1
ssg75
Nsg68
(lp3702
g61
(g77
g63
NtRp3703
(dp3704
g66
(dp3705
sg75
g3699
sg68
(lp3706
g61
(g82
g63
NtRp3707
(dp3708
g66
(dp3709
sg75
g3703
sg68
(lp3710
g61
(g62
g63
NtRp3711
(dp3712
g66
(dp3713
g74
I1
ssg75
g3707
sg68
(lp3714
g3330
(S's\r\x00\x00\x00Documentation'
tRp3715
asbasbasbag61
(g77
g63
NtRp3716
(dp3717
g66
(dp3718
sg75
g3699
sg68
(lp3719
g61
(g82
g63
NtRp3720
(dp3721
g66
(dp3722
sg75
g3716
sg68
(lp3723
g61
(g62
g63
NtRp3724
(dp3725
g66
(dp3726
g74
I1
ssg75
g3720
sg68
(lp3727
I00
asbasbasbag61
(g77
g63
NtRp3728
(dp3729
g66
(dp3730
sg75
g3699
sg68
(lp3731
g61
(g82
g63
NtRp3732
(dp3733
g66
(dp3734
sg75
g3728
sg68
(lp3735
g61
(g62
g63
NtRp3736
(dp3737
g66
(dp3738
g74
I1
ssg75
g3732
sg68
(lp3739
S'http://www.web2py.com/book'
p3740
asbasbasbag61
(g77
g63
NtRp3741
(dp3742
g66
(dp3743
sg75
g3699
sg68
(lp3744
g61
(g82
g63
NtRp3745
(dp3746
g66
(dp3747
sg75
g3741
sg68
(lp3748
g61
(g62
g63
NtRp3749
(dp3750
g66
(dp3751
g74
I1
ssg75
g3745
sg68
(lp3752
(lp3753
(g3330
(S's\x07\x00\x00\x00Preface'
tRp3754
I00
S'http://www.web2py.com/book/default/chapter/00'
p3755
tp3756
a(g3330
(S's\x0c\x00\x00\x00Introduction'
tRp3757
I00
S'http://www.web2py.com/book/default/chapter/01'
p3758
tp3759
a(g3330
(S's\x06\x00\x00\x00Python'
tRp3760
I00
S'http://www.web2py.com/book/default/chapter/02'
p3761
tp3762
a(g3330
(S's\x08\x00\x00\x00Overview'
tRp3763
I00
S'http://www.web2py.com/book/default/chapter/03'
p3764
tp3765
a(g3330
(S's\x08\x00\x00\x00The Core'
tRp3766
I00
S'http://www.web2py.com/book/default/chapter/04'
p3767
tp3768
a(g3330
(S's\t\x00\x00\x00The Views'
tRp3769
I00
S'http://www.web2py.com/book/default/chapter/05'
p3770
tp3771
a(g3330
(S's\x08\x00\x00\x00Database'
tRp3772
I00
S'http://www.web2py.com/book/default/chapter/06'
p3773
tp3774
a(g3330
(S's\x14\x00\x00\x00Forms and Validators'
tRp3775
I00
S'http://www.web2py.com/book/default/chapter/07'
p3776
tp3777
a(g3330
(S's\r\x00\x00\x00Email and SMS'
tRp3778
I00
S'http://www.web2py.com/book/default/chapter/08'
p3779
tp3780
a(g3330
(S's\x0e\x00\x00\x00Access Control'
tRp3781
I00
S'http://www.web2py.com/book/default/chapter/09'
p3782
tp3783
a(g3330
(S's\x08\x00\x00\x00Services'
tRp3784
I00
S'http://www.web2py.com/book/default/chapter/10'
p3785
tp3786
a(g3330
(S's\x0c\x00\x00\x00Ajax Recipes'
tRp3787
I00
S'http://www.web2py.com/book/default/chapter/11'
p3788
tp3789
a(g3330
(S's\x16\x00\x00\x00Components and Plugins'
tRp3790
I00
S'http://www.web2py.com/book/default/chapter/12'
p3791
tp3792
a(g3330
(S's\x12\x00\x00\x00Deployment Recipes'
tRp3793
I00
S'http://www.web2py.com/book/default/chapter/13'
p3794
tp3795
a(g3330
(S's\r\x00\x00\x00Other Recipes'
tRp3796
I00
S'http://www.web2py.com/book/default/chapter/14'
p3797
tp3798
a(g3330
(S's\r\x00\x00\x00Buy this book'
tRp3799
I00
S'http://stores.lulu.com/web2py'
p3800
tp3801
aasbasbasbasbasbasbasbag61
(g77
g63
NtRp3802
(dp3803
g66
(dp3804
sg75
g3444
sg68
(lp3805
g61
(g82
g63
NtRp3806
(dp3807
g66
(dp3808
sg75
g3802
sg68
(lp3809
g61
(g62
g63
NtRp3810
(dp3811
g66
(dp3812
g74
I2
ssg75
g3806
sg68
(lp3813
g61
(g70
g63
NtRp3814
(dp3815
g66
(dp3816
g74
I1
ssg75
Nsg68
(lp3817
g61
(g77
g63
NtRp3818
(dp3819
g66
(dp3820
sg75
g3814
sg68
(lp3821
g61
(g82
g63
NtRp3822
(dp3823
g66
(dp3824
sg75
g3818
sg68
(lp3825
g61
(g62
g63
NtRp3826
(dp3827
g66
(dp3828
g74
I1
ssg75
g3822
sg68
(lp3829
g3330
(S's\t\x00\x00\x00Community'
tRp3830
asbasbasbag61
(g77
g63
NtRp3831
(dp3832
g66
(dp3833
sg75
g3814
sg68
(lp3834
g61
(g82
g63
NtRp3835
(dp3836
g66
(dp3837
sg75
g3831
sg68
(lp3838
g61
(g62
g63
NtRp3839
(dp3840
g66
(dp3841
g74
I1
ssg75
g3835
sg68
(lp3842
I00
asbasbasbag61
(g77
g63
NtRp3843
(dp3844
g66
(dp3845
sg75
g3814
sg68
(lp3846
g61
(g82
g63
NtRp3847
(dp3848
g66
(dp3849
sg75
g3843
sg68
(lp3850
g61
(g62
g63
NtRp3851
(dp3852
g66
(dp3853
g74
I1
ssg75
g3847
sg68
(lp3854
Nasbasbasbag61
(g77
g63
NtRp3855
(dp3856
g66
(dp3857
sg75
g3814
sg68
(lp3858
g61
(g82
g63
NtRp3859
(dp3860
g66
(dp3861
sg75
g3855
sg68
(lp3862
g61
(g62
g63
NtRp3863
(dp3864
g66
(dp3865
g74
I1
ssg75
g3859
sg68
(lp3866
(lp3867
(g3330
(S's\x06\x00\x00\x00Groups'
tRp3868
I00
S'http://www.web2py.com/examples/default/usergroups'
p3869
tp3870
a(g3330
(S's\x07\x00\x00\x00Twitter'
tRp3871
I00
S'http://twitter.com/web2py'
p3872
tp3873
a(g3330
(S's\t\x00\x00\x00Live Chat'
tRp3874
I00
S'http://webchat.freenode.net/?channels=web2py'
p3875
tp3876
aasbasbasbasbasbasbasbag61
(g77
g63
NtRp3877
(dp3878
g66
(dp3879
sg75
g3444
sg68
(lp3880
g61
(g82
g63
NtRp3881
(dp3882
g66
(dp3883
sg75
g3877
sg68
(lp3884
g61
(g62
g63
NtRp3885
(dp3886
g66
(dp3887
g74
I2
ssg75
g3881
sg68
(lp3888
g61
(g70
g63
NtRp3889
(dp3890
g66
(dp3891
g74
I1
ssg75
Nsg68
(lp3892
g61
(g77
g63
NtRp3893
(dp3894
g66
(dp3895
sg75
g3889
sg68
(lp3896
g61
(g82
g63
NtRp3897
(dp3898
g66
(dp3899
sg75
g3893
sg68
(lp3900
g61
(g62
g63
NtRp3901
(dp3902
g66
(dp3903
g74
I1
ssg75
g3897
sg68
(lp3904
g3330
(S's\x07\x00\x00\x00Plugins'
tRp3905
asbasbasbag61
(g77
g63
NtRp3906
(dp3907
g66
(dp3908
sg75
g3889
sg68
(lp3909
g61
(g82
g63
NtRp3910
(dp3911
g66
(dp3912
sg75
g3906
sg68
(lp3913
g61
(g62
g63
NtRp3914
(dp3915
g66
(dp3916
g74
I1
ssg75
g3910
sg68
(lp3917
I00
asbasbasbag61
(g77
g63
NtRp3918
(dp3919
g66
(dp3920
sg75
g3889
sg68
(lp3921
g61
(g82
g63
NtRp3922
(dp3923
g66
(dp3924
sg75
g3918
sg68
(lp3925
g61
(g62
g63
NtRp3926
(dp3927
g66
(dp3928
g74
I1
ssg75
g3922
sg68
(lp3929
Nasbasbasbag61
(g77
g63
NtRp3930
(dp3931
g66
(dp3932
sg75
g3889
sg68
(lp3933
g61
(g82
g63
NtRp3934
(dp3935
g66
(dp3936
sg75
g3930
sg68
(lp3937
g61
(g62
g63
NtRp3938
(dp3939
g66
(dp3940
g74
I1
ssg75
g3934
sg68
(lp3941
(lp3942
(S'plugin_wiki'
p3943
I00
S'http://web2py.com/examples/default/download'
p3944
tp3945
a(g3330
(S's\r\x00\x00\x00Other Plugins'
tRp3946
I00
g3676
tp3947
a(g3330
(S's\x0e\x00\x00\x00Layout Plugins'
tRp3948
I00
g3679
tp3949
aasbasbasbasbasbasbasbasbasbasbasbasbasbasbasbasbasbasbasbag61
(g77
g63
NtRp3950
(dp3951
g66
(dp3952
sg75
g2794
sg68
(lp3953
g61
(g82
g63
NtRp3954
(dp3955
g66
(dp3956
g86
g87
ssg75
g3950
sg68
(lp3957
S'meta'
p3958
asbag61
(g82
g63
NtRp3959
(dp3960
g66
(dp3961
g93
g94
ssg75
g3950
sg68
(lp3962
S':'
asbag61
(g82
g63
NtRp3963
(dp3964
g66
(dp3965
sg75
g3950
sg68
(lp3966
g61
(g62
g63
NtRp3967
(dp3968
g66
(dp3969
g74
I5
ssg75
g3963
sg68
(lp3970
g61
(g70
g63
NtRp3971
(dp3972
g66
(dp3973
g74
I4
ssg75
Nsg68
(lp3974
g61
(g77
g63
NtRp3975
(dp3976
g66
(dp3977
sg75
g3971
sg68
(lp3978
g61
(g82
g63
NtRp3979
(dp3980
g66
(dp3981
g86
g87
ssg75
g3975
sg68
(lp3982
S'author'
p3983
asbag61
(g82
g63
NtRp3984
(dp3985
g66
(dp3986
g93
g94
ssg75
g3975
sg68
(lp3987
S':'
asbag61
(g82
g63
NtRp3988
(dp3989
g66
(dp3990
sg75
g3975
sg68
(lp3991
g61
(g62
g63
NtRp3992
(dp3993
g66
(dp3994
g74
I4
ssg75
g3988
sg68
(lp3995
S'Your Name <you@example.com>'
p3996
asbasbasbag61
(g77
g63
NtRp3997
(dp3998
g66
(dp3999
sg75
g3971
sg68
(lp4000
g61
(g82
g63
NtRp4001
(dp4002
g66
(dp4003
g86
g87
ssg75
g3997
sg68
(lp4004
S'copyright'
p4005
asbag61
(g82
g63
NtRp4006
(dp4007
g66
(dp4008
g93
g94
ssg75
g3997
sg68
(lp4009
S':'
asbag61
(g82
g63
NtRp4010
(dp4011
g66
(dp4012
sg75
g3997
sg68
(lp4013
g61
(g62
g63
NtRp4014
(dp4015
g66
(dp4016
g74
I4
ssg75
g4010
sg68
(lp4017
S'Copyright 2011'
p4018
asbasbasbag61
(g77
g63
NtRp4019
(dp4020
g66
(dp4021
sg75
g3971
sg68
(lp4022
g61
(g82
g63
NtRp4023
(dp4024
g66
(dp4025
g86
g87
ssg75
g4019
sg68
(lp4026
S'description'
p4027
asbag61
(g82
g63
NtRp4028
(dp4029
g66
(dp4030
g93
g94
ssg75
g4019
sg68
(lp4031
S':'
asbag61
(g82
g63
NtRp4032
(dp4033
g66
(dp4034
sg75
g4019
sg68
(lp4035
g61
(g62
g63
NtRp4036
(dp4037
g66
(dp4038
g74
I4
ssg75
g4032
sg68
(lp4039
S'a cool new app'
p4040
asbasbasbag61
(g77
g63
NtRp4041
(dp4042
g66
(dp4043
sg75
g3971
sg68
(lp4044
g61
(g82
g63
NtRp4045
(dp4046
g66
(dp4047
g86
g87
ssg75
g4041
sg68
(lp4048
S'generator'
p4049
asbag61
(g82
g63
NtRp4050
(dp4051
g66
(dp4052
g93
g94
ssg75
g4041
sg68
(lp4053
S':'
asbag61
(g82
g63
NtRp4054
(dp4055
g66
(dp4056
sg75
g4041
sg68
(lp4057
g61
(g62
g63
NtRp4058
(dp4059
g66
(dp4060
g74
I4
ssg75
g4054
sg68
(lp4061
S'Web2py Web Framework'
p4062
asbasbasbag61
(g77
g63
NtRp4063
(dp4064
g66
(dp4065
sg75
g3971
sg68
(lp4066
g61
(g82
g63
NtRp4067
(dp4068
g66
(dp4069
g86
g87
ssg75
g4063
sg68
(lp4070
S'keywords'
p4071
asbag61
(g82
g63
NtRp4072
(dp4073
g66
(dp4074
g93
g94
ssg75
g4063
sg68
(lp4075
S':'
asbag61
(g82
g63
NtRp4076
(dp4077
g66
(dp4078
sg75
g4063
sg68
(lp4079
g61
(g62
g63
NtRp4080
(dp4081
g66
(dp4082
g74
I4
ssg75
g4076
sg68
(lp4083
S'web2py, python, framework'
p4084
asbasbasbasbasbasbasbag61
(g77
g63
NtRp4085
(dp4086
g66
(dp4087
sg75
g2794
sg68
(lp4088
g61
(g82
g63
NtRp4089
(dp4090
g66
(dp4091
g86
g87
ssg75
g4085
sg68
(lp4092
S'postprocessing'
p4093
asbag61
(g82
g63
NtRp4094
(dp4095
g66
(dp4096
g93
g94
ssg75
g4085
sg68
(lp4097
S':'
asbag61
(g82
g63
NtRp4098
(dp4099
g66
(dp4100
sg75
g4085
sg68
(lp4101
g61
(g62
g63
NtRp4102
(dp4103
g66
(dp4104
g74
I5
ssg75
g4098
sg68
(lp4105
g61
(g70
g63
NtRp4106
(dp4107
g66
(dp4108
g74
I4
ssg75
Nsg68
(lp4109
sbasbasbasbag61
(g77
g63
NtRp4110
(dp4111
g66
(dp4112
sg75
g2794
sg68
(lp4113
g61
(g82
g63
NtRp4114
(dp4115
g66
(dp4116
g86
g87
ssg75
g4110
sg68
(lp4117
S'session_db'
p4118
asbag61
(g82
g63
NtRp4119
(dp4120
g66
(dp4121
g93
g94
ssg75
g4110
sg68
(lp4122
S':'
asbag61
(g82
g63
NtRp4123
(dp4124
g66
(dp4125
sg75
g4110
sg68
(lp4126
g61
(g62
g63
NtRp4127
(dp4128
g66
(dp4129
g74
I5
ssg75
g4123
sg68
(lp4130
g738
asbasbasbag61
(g77
g63
NtRp4131
(dp4132
g66
(dp4133
sg75
g2794
sg68
(lp4134
g61
(g82
g63
NtRp4135
(dp4136
g66
(dp4137
g86
g87
ssg75
g4131
sg68
(lp4138
S'session_id'
p4139
asbag61
(g82
g63
NtRp4140
(dp4141
g66
(dp4142
g93
g94
ssg75
g4131
sg68
(lp4143
S':'
asbag61
(g82
g63
NtRp4144
(dp4145
g66
(dp4146
sg75
g4131
sg68
(lp4147
g61
(g62
g63
NtRp4148
(dp4149
g66
(dp4150
g74
I5
ssg75
g4144
sg68
(lp4151
S'8:303b90d0-4df0-4998-abab-29c5eedacdd3'
p4152
asbasbasbag61
(g77
g63
NtRp4153
(dp4154
g66
(dp4155
sg75
g2794
sg68
(lp4156
g61
(g82
g63
NtRp4157
(dp4158
g66
(dp4159
g86
g87
ssg75
g4153
sg68
(lp4160
S'session_id_name'
p4161
asbag61
(g82
g63
NtRp4162
(dp4163
g66
(dp4164
g93
g94
ssg75
g4153
sg68
(lp4165
S':'
asbag61
(g82
g63
NtRp4166
(dp4167
g66
(dp4168
sg75
g4153
sg68
(lp4169
g61
(g62
g63
NtRp4170
(dp4171
g66
(dp4172
g74
I5
ssg75
g4166
sg68
(lp4173
S'session_id_init'
p4174
asbasbasbag61
(g77
g63
NtRp4175
(dp4176
g66
(dp4177
sg75
g2794
sg68
(lp4178
g61
(g82
g63
NtRp4179
(dp4180
g66
(dp4181
g86
g87
ssg75
g4175
sg68
(lp4182
S'status'
p4183
asbag61
(g82
g63
NtRp4184
(dp4185
g66
(dp4186
g93
g94
ssg75
g4175
sg68
(lp4187
S':'
asbag61
(g82
g63
NtRp4188
(dp4189
g66
(dp4190
sg75
g4175
sg68
(lp4191
g61
(g62
g63
NtRp4192
(dp4193
g66
(dp4194
g74
I5
ssg75
g4188
sg68
(lp4195
S'200'
p4196
asbasbasbag61
(g77
g63
NtRp4197
(dp4198
g66
(dp4199
sg75
g2794
sg68
(lp4200
g61
(g82
g63
NtRp4201
(dp4202
g66
(dp4203
g86
g87
ssg75
g4197
sg68
(lp4204
S'subtitle'
p4205
asbag61
(g82
g63
NtRp4206
(dp4207
g66
(dp4208
g93
g94
ssg75
g4197
sg68
(lp4209
S':'
asbag61
(g82
g63
NtRp4210
(dp4211
g66
(dp4212
sg75
g4197
sg68
(lp4213
g61
(g62
g63
NtRp4214
(dp4215
g66
(dp4216
g74
I5
ssg75
g4210
sg68
(lp4217
g3330
(S's\r\x00\x00\x00customize me!'
tRp4218
asbasbasbag61
(g77
g63
NtRp4219
(dp4220
g66
(dp4221
sg75
g2794
sg68
(lp4222
g61
(g82
g63
NtRp4223
(dp4224
g66
(dp4225
g86
g87
ssg75
g4219
sg68
(lp4226
S'title'
p4227
asbag61
(g82
g63
NtRp4228
(dp4229
g66
(dp4230
g93
g94
ssg75
g4219
sg68
(lp4231
S':'
asbag61
(g82
g63
NtRp4232
(dp4233
g66
(dp4234
sg75
g4219
sg68
(lp4235
g61
(g62
g63
NtRp4236
(dp4237
g66
(dp4238
g74
I5
ssg75
g4232
sg68
(lp4239
S'Init'
p4240
asbasbasbag61
(g77
g63
NtRp4241
(dp4242
g66
(dp4243
sg75
g2794
sg68
(lp4244
g61
(g82
g63
NtRp4245
(dp4246
g66
(dp4247
g86
g87
ssg75
g4241
sg68
(lp4248
g2098
asbag61
(g82
g63
NtRp4249
(dp4250
g66
(dp4251
g93
g94
ssg75
g4241
sg68
(lp4252
S':'
asbag61
(g82
g63
NtRp4253
(dp4254
g66
(dp4255
sg75
g4241
sg68
(lp4256
g61
(g62
g63
NtRp4257
(dp4258
g66
(dp4259
g74
I5
ssg75
g4253
sg68
(lp4260
g2111
asbasbasbag61
(g77
g63
NtRp4261
(dp4262
g66
(dp4263
sg75
g2794
sg68
(lp4264
g61
(g82
g63
NtRp4265
(dp4266
g66
(dp4267
g86
g87
ssg75
g4261
sg68
(lp4268
S'view'
p4269
asbag61
(g82
g63
NtRp4270
(dp4271
g66
(dp4272
g93
g94
ssg75
g4261
sg68
(lp4273
S':'
asbag61
(g82
g63
NtRp4274
(dp4275
g66
(dp4276
sg75
g4261
sg68
(lp4277
g61
(g62
g63
NtRp4278
(dp4279
g66
(dp4280
g74
I5
ssg75
g4274
sg68
(lp4281
S'default/liste_invitations.html'
p4282
asbasbasbasbasbsS'locals'
p4283
(dp4284
g4
S"r'C:\\Users\\Bussiere\\Dropbox\\Projets\\jackpoint\\web2py\\applications\\init\\controllers/default.py'"
p4285
sg6
S"'# -*- coding: utf-8 -*-\\n# this file is released ...sponse._vars=response._caller(liste_invitations)\\n'"
p4286
sssS'traceback'
p4287
S'Traceback (most recent call last):\n  File "gluon/restricted.py", line 204, in restricted\n  File "gluon/restricted.py", line 189, in compile2\n  File "C:\\Users\\Bussiere\\Dropbox\\Projets\\jackpoint\\web2py\\applications\\init\\controllers/default.py", line 208\n    if len(db(db.Invitation.Code==form.vars.invitation).select()) !== 1 :\n                                                                    ^\nSyntaxError: invalid syntax\n'
p4288
s.